ARM GAS  C:\Users\Tri94\AppData\Local\Temp\ccFfdnZv.s 			page 1


   1              		.syntax unified
   2              		.cpu cortex-m3
   3              		.fpu softvfp
   4              		.eabi_attribute 20, 1
   5              		.eabi_attribute 21, 1
   6              		.eabi_attribute 23, 3
   7              		.eabi_attribute 24, 1
   8              		.eabi_attribute 25, 1
   9              		.eabi_attribute 26, 1
  10              		.eabi_attribute 30, 1
  11              		.eabi_attribute 34, 1
  12              		.eabi_attribute 18, 4
  13              		.thumb
  14              		.syntax unified
  15              		.file	"CapSense.c"
  16              		.text
  17              	.Ltext0:
  18              		.cfi_sections	.debug_frame
  19              		.section	.text.CapSense_Enable,"ax",%progbits
  20              		.align	2
  21              		.global	CapSense_Enable
  22              		.thumb
  23              		.thumb_func
  24              		.type	CapSense_Enable, %function
  25              	CapSense_Enable:
  26              	.LFB1:
  27              		.file 1 "Generated_Source\\PSoC5\\CapSense.c"
   1:Generated_Source\PSoC5/CapSense.c **** /*******************************************************************************
   2:Generated_Source\PSoC5/CapSense.c **** * File Name: CapSense.c
   3:Generated_Source\PSoC5/CapSense.c **** * Version 3.50
   4:Generated_Source\PSoC5/CapSense.c **** *
   5:Generated_Source\PSoC5/CapSense.c **** * Description:
   6:Generated_Source\PSoC5/CapSense.c **** *  This file provides the source code of scanning APIs for the CapSense CSD 
   7:Generated_Source\PSoC5/CapSense.c **** *  component.
   8:Generated_Source\PSoC5/CapSense.c **** *
   9:Generated_Source\PSoC5/CapSense.c **** * Note:
  10:Generated_Source\PSoC5/CapSense.c **** *
  11:Generated_Source\PSoC5/CapSense.c **** ********************************************************************************
  12:Generated_Source\PSoC5/CapSense.c **** * Copyright 2008-2013, Cypress Semiconductor Corporation.  All rights reserved.
  13:Generated_Source\PSoC5/CapSense.c **** * You may use this file only in accordance with the license, terms, conditions,
  14:Generated_Source\PSoC5/CapSense.c **** * disclaimers, and limitations in the end user license agreement accompanying
  15:Generated_Source\PSoC5/CapSense.c **** * the software package with which this file was provided.
  16:Generated_Source\PSoC5/CapSense.c **** *******************************************************************************/
  17:Generated_Source\PSoC5/CapSense.c **** 
  18:Generated_Source\PSoC5/CapSense.c **** #include "CapSense.h"
  19:Generated_Source\PSoC5/CapSense.c **** #include "cyapicallbacks.h"
  20:Generated_Source\PSoC5/CapSense.c **** 
  21:Generated_Source\PSoC5/CapSense.c **** 
  22:Generated_Source\PSoC5/CapSense.c **** static uint8 CapSense_initVar = 0u;
  23:Generated_Source\PSoC5/CapSense.c ****             
  24:Generated_Source\PSoC5/CapSense.c **** /* Global software variables */
  25:Generated_Source\PSoC5/CapSense.c **** volatile uint8 CapSense_csv;            /* CapSense CSD status, control variable */
  26:Generated_Source\PSoC5/CapSense.c **** volatile uint8 CapSense_sensorIndex;    /* Index of scannig sensor */
  27:Generated_Source\PSoC5/CapSense.c **** 
  28:Generated_Source\PSoC5/CapSense.c **** /* AutoTunning start */
  29:Generated_Source\PSoC5/CapSense.c **** #if (CapSense_TUNING_METHOD == CapSense_AUTO_TUNING)
  30:Generated_Source\PSoC5/CapSense.c ****     uint8 CapSense_lowLevelTuningDone = 1u;
ARM GAS  C:\Users\Tri94\AppData\Local\Temp\ccFfdnZv.s 			page 2


  31:Generated_Source\PSoC5/CapSense.c **** #endif /* (CapSense_TUNING_METHOD == CapSense_AUTO_TUNING) */
  32:Generated_Source\PSoC5/CapSense.c **** 
  33:Generated_Source\PSoC5/CapSense.c **** #if (CapSense_CURRENT_SOURCE == CapSense_EXTERNAL_RB)
  34:Generated_Source\PSoC5/CapSense.c ****     uint8  CapSense_extRbCh0Cur = CapSense_RBLEED1;
  35:Generated_Source\PSoC5/CapSense.c ****     #if (CapSense_DESIGN_TYPE == CapSense_TWO_CHANNELS_DESIGN)
  36:Generated_Source\PSoC5/CapSense.c ****         uint8  CapSense_extRbCh1Cur = (CapSense_RBLEED1 + CapSense_TOTAL_RB_NUMBER__CH0);
  37:Generated_Source\PSoC5/CapSense.c ****     #endif /* (CapSense_DESIGN_TYPE == CapSense_TWO_CHANNELS_DESIGN)*/ 
  38:Generated_Source\PSoC5/CapSense.c **** #endif /* (CapSense_CURRENT_SOURCE == CapSense_EXTERNAL_RB) */ 
  39:Generated_Source\PSoC5/CapSense.c ****         
  40:Generated_Source\PSoC5/CapSense.c **** /* Global array of Raw Counts */
  41:Generated_Source\PSoC5/CapSense.c **** uint16 CapSense_sensorRaw[CapSense_TOTAL_SENSOR_COUNT]; 
  42:Generated_Source\PSoC5/CapSense.c **** 
  43:Generated_Source\PSoC5/CapSense.c **** uint8 CapSense_sensorEnableMask[(((CapSense_TOTAL_SENSOR_COUNT - 1u) / 8u) + 1u)] = {
  44:Generated_Source\PSoC5/CapSense.c **** 0x0u, };
  45:Generated_Source\PSoC5/CapSense.c **** 
  46:Generated_Source\PSoC5/CapSense.c **** uint8 CYXDATA * const CYCODE CapSense_pcTable[] = {
  47:Generated_Source\PSoC5/CapSense.c ****     (uint8 CYXDATA *)CapSense_PortCH0__ProximitySensor0_0__PROX__PC, 
  48:Generated_Source\PSoC5/CapSense.c **** };
  49:Generated_Source\PSoC5/CapSense.c **** 
  50:Generated_Source\PSoC5/CapSense.c **** const uint8 CYCODE CapSense_portTable[] = {
  51:Generated_Source\PSoC5/CapSense.c ****     CapSense_PortCH0__ProximitySensor0_0__PROX__PORT, 
  52:Generated_Source\PSoC5/CapSense.c **** };
  53:Generated_Source\PSoC5/CapSense.c **** 
  54:Generated_Source\PSoC5/CapSense.c **** const uint8 CYCODE CapSense_maskTable[] = {
  55:Generated_Source\PSoC5/CapSense.c ****     CapSense_PortCH0__ProximitySensor0_0__PROX__MASK,
  56:Generated_Source\PSoC5/CapSense.c **** };
  57:Generated_Source\PSoC5/CapSense.c **** 
  58:Generated_Source\PSoC5/CapSense.c **** uint8 CYXDATA * const CYCODE CapSense_csTable[] = {
  59:Generated_Source\PSoC5/CapSense.c ****     (uint8 CYXDATA *)CYREG_PRT0_CAPS_SEL, (uint8 CYXDATA *)CYREG_PRT1_CAPS_SEL, (uint8 CYXDATA *)CY
  60:Generated_Source\PSoC5/CapSense.c ****     (uint8 CYXDATA *)CYREG_PRT3_CAPS_SEL, (uint8 CYXDATA *)CYREG_PRT4_CAPS_SEL, (uint8 CYXDATA *)CY
  61:Generated_Source\PSoC5/CapSense.c ****     (uint8 CYXDATA *)CYREG_PRT6_CAPS_SEL, (uint8 CYXDATA *)CYREG_PRT15_CAPS_SEL,
  62:Generated_Source\PSoC5/CapSense.c **** };
  63:Generated_Source\PSoC5/CapSense.c **** 
  64:Generated_Source\PSoC5/CapSense.c **** uint8 CapSense_idacSettings[] = {
  65:Generated_Source\PSoC5/CapSense.c ****     200u,
  66:Generated_Source\PSoC5/CapSense.c **** };
  67:Generated_Source\PSoC5/CapSense.c **** 
  68:Generated_Source\PSoC5/CapSense.c **** uint8 CapSense_widgetResolution[] = {
  69:Generated_Source\PSoC5/CapSense.c ****     CapSense_PWM_RESOLUTION_10_BITS,
  70:Generated_Source\PSoC5/CapSense.c **** };
  71:Generated_Source\PSoC5/CapSense.c **** 
  72:Generated_Source\PSoC5/CapSense.c **** uint8 CapSense_analogSwitchDivider[CapSense_TOTAL_SCANSLOT_COUNT];
  73:Generated_Source\PSoC5/CapSense.c **** const uint8 CYCODE CapSense_widgetNumber[] = {
  74:Generated_Source\PSoC5/CapSense.c ****     0u, /* ProximitySensor0__PROX */
  75:Generated_Source\PSoC5/CapSense.c ****     
  76:Generated_Source\PSoC5/CapSense.c **** };
  77:Generated_Source\PSoC5/CapSense.c **** 
  78:Generated_Source\PSoC5/CapSense.c **** 
  79:Generated_Source\PSoC5/CapSense.c **** 
  80:Generated_Source\PSoC5/CapSense.c **** 
  81:Generated_Source\PSoC5/CapSense.c **** /*******************************************************************************
  82:Generated_Source\PSoC5/CapSense.c **** * Function Name: CapSense_Init
  83:Generated_Source\PSoC5/CapSense.c **** ********************************************************************************
  84:Generated_Source\PSoC5/CapSense.c **** *
  85:Generated_Source\PSoC5/CapSense.c **** * Summary:
  86:Generated_Source\PSoC5/CapSense.c **** *  Inits default CapSense configuration provided with customizer that defines 
  87:Generated_Source\PSoC5/CapSense.c **** *  mode of component operations and resets all sensors to an inactive state.
ARM GAS  C:\Users\Tri94\AppData\Local\Temp\ccFfdnZv.s 			page 3


  88:Generated_Source\PSoC5/CapSense.c **** *
  89:Generated_Source\PSoC5/CapSense.c **** * Parameters:
  90:Generated_Source\PSoC5/CapSense.c **** *  None
  91:Generated_Source\PSoC5/CapSense.c **** *
  92:Generated_Source\PSoC5/CapSense.c **** * Return:
  93:Generated_Source\PSoC5/CapSense.c **** *  None
  94:Generated_Source\PSoC5/CapSense.c **** *
  95:Generated_Source\PSoC5/CapSense.c **** *******************************************************************************/
  96:Generated_Source\PSoC5/CapSense.c **** void CapSense_Init(void) 
  97:Generated_Source\PSoC5/CapSense.c **** {
  98:Generated_Source\PSoC5/CapSense.c ****     #if ( (CapSense_PRS_OPTIONS) || \
  99:Generated_Source\PSoC5/CapSense.c ****           (CapSense_IMPLEMENTATION_CH0 == CapSense_MEASURE_IMPLEMENTATION_UDB) || \
 100:Generated_Source\PSoC5/CapSense.c ****           ( (CapSense_DESIGN_TYPE == CapSense_TWO_CHANNELS_DESIGN) && \
 101:Generated_Source\PSoC5/CapSense.c ****             (CapSense_IMPLEMENTATION_CH1 == CapSense_MEASURE_IMPLEMENTATION_UDB)) )
 102:Generated_Source\PSoC5/CapSense.c ****         
 103:Generated_Source\PSoC5/CapSense.c ****         uint8 enableInterrupts;
 104:Generated_Source\PSoC5/CapSense.c ****     #endif /* ( (CapSense_PRS_OPTIONS) || \
 105:Generated_Source\PSoC5/CapSense.c ****            * (CapSense_IMPLEMENTATION_CH0 == CapSense_MEASURE_IMPLEMENTATION_UDB) || \
 106:Generated_Source\PSoC5/CapSense.c ****            * ( (CapSense_DESIGN_TYPE == CapSense_TWO_CHANNELS_DESIGN) && \
 107:Generated_Source\PSoC5/CapSense.c ****            * (CapSense_IMPLEMENTATION_CH1 == CapSense_MEASURE_IMPLEMENTATION_UDB)) ) 
 108:Generated_Source\PSoC5/CapSense.c ****            */
 109:Generated_Source\PSoC5/CapSense.c ****     
 110:Generated_Source\PSoC5/CapSense.c ****     /* Clear all sensors */
 111:Generated_Source\PSoC5/CapSense.c ****     CapSense_ClearSensors();
 112:Generated_Source\PSoC5/CapSense.c **** 
 113:Generated_Source\PSoC5/CapSense.c ****     /* Set Prescaler */
 114:Generated_Source\PSoC5/CapSense.c ****     #if (CapSense_PRESCALER_OPTIONS == CapSense_PRESCALER_UDB)
 115:Generated_Source\PSoC5/CapSense.c ****         /* Do nothing = config without prescaler */
 116:Generated_Source\PSoC5/CapSense.c ****     #elif (CapSense_PRESCALER_OPTIONS == CapSense_PRESCALER_FF)
 117:Generated_Source\PSoC5/CapSense.c ****         CapSense_PRESCALER_CONTROL_REG   = (CapSense_PRESCALER_CTRL_ENABLE |
 118:Generated_Source\PSoC5/CapSense.c ****                                                     CapSense_PRESCALER_CTRL_MODE_CMP);
 119:Generated_Source\PSoC5/CapSense.c ****                                                
 120:Generated_Source\PSoC5/CapSense.c ****         CapSense_PRESCALER_CONTROL2_REG |= CapSense_PRESCALER_CTRL_CMP_LESS_EQ;
 121:Generated_Source\PSoC5/CapSense.c ****     #else
 122:Generated_Source\PSoC5/CapSense.c ****         /* Do nothing = config without prescaler */
 123:Generated_Source\PSoC5/CapSense.c ****     #endif  /* (CapSense_PRESCALER_OPTIONS == CapSense_PRESCALER_UDB) */
 124:Generated_Source\PSoC5/CapSense.c **** 
 125:Generated_Source\PSoC5/CapSense.c ****     /* Set PRS */
 126:Generated_Source\PSoC5/CapSense.c ****     #if (CapSense_PRS_OPTIONS)
 127:Generated_Source\PSoC5/CapSense.c ****         CapSense_SetAnalogSwitchesSource(CapSense_ANALOG_SWITCHES_SRC_PRS);
 128:Generated_Source\PSoC5/CapSense.c ****     #endif /* (CapSense_PRS_OPTIONS) */
 129:Generated_Source\PSoC5/CapSense.c **** 
 130:Generated_Source\PSoC5/CapSense.c ****     #if (CapSense_PRS_OPTIONS == CapSense_PRS_8BITS)
 131:Generated_Source\PSoC5/CapSense.c ****         /* Aux control set FIFO as REG */
 132:Generated_Source\PSoC5/CapSense.c ****         enableInterrupts = CyEnterCriticalSection();
 133:Generated_Source\PSoC5/CapSense.c ****         CapSense_AUX_CONTROL_A_REG |= CapSense_AUXCTRL_FIFO_SINGLE_REG;
 134:Generated_Source\PSoC5/CapSense.c ****         CyExitCriticalSection(enableInterrupts);
 135:Generated_Source\PSoC5/CapSense.c ****         
 136:Generated_Source\PSoC5/CapSense.c ****         /* Write polynomial */
 137:Generated_Source\PSoC5/CapSense.c ****         CapSense_POLYNOM_REG   = CapSense_PRS8_DEFAULT_POLYNOM;
 138:Generated_Source\PSoC5/CapSense.c ****         /* Write FIFO with seed */
 139:Generated_Source\PSoC5/CapSense.c ****         CapSense_SEED_COPY_REG = CapSense_MEASURE_FULL_RANGE_LOW;
 140:Generated_Source\PSoC5/CapSense.c ****         
 141:Generated_Source\PSoC5/CapSense.c ****     #elif (CapSense_PRS_OPTIONS == CapSense_PRS_16BITS)
 142:Generated_Source\PSoC5/CapSense.c ****         /* Aux control set FIFO as REG */ 
 143:Generated_Source\PSoC5/CapSense.c ****         enableInterrupts = CyEnterCriticalSection();  
 144:Generated_Source\PSoC5/CapSense.c ****         CapSense_AUX_CONTROL_A_REG |= CapSense_AUXCTRL_FIFO_SINGLE_REG;
ARM GAS  C:\Users\Tri94\AppData\Local\Temp\ccFfdnZv.s 			page 4


 145:Generated_Source\PSoC5/CapSense.c ****         CapSense_AUX_CONTROL_B_REG |= CapSense_AUXCTRL_FIFO_SINGLE_REG;
 146:Generated_Source\PSoC5/CapSense.c ****         CyExitCriticalSection(enableInterrupts);
 147:Generated_Source\PSoC5/CapSense.c ****         
 148:Generated_Source\PSoC5/CapSense.c ****         /* Write polynomial */
 149:Generated_Source\PSoC5/CapSense.c ****         CY_SET_REG16(CapSense_POLYNOM_PTR, CapSense_PRS16_DEFAULT_POLYNOM);
 150:Generated_Source\PSoC5/CapSense.c ****         /* Write FIFO with seed */
 151:Generated_Source\PSoC5/CapSense.c ****         CY_SET_REG16(CapSense_SEED_COPY_PTR, CapSense_MEASURE_FULL_RANGE);
 152:Generated_Source\PSoC5/CapSense.c ****                 
 153:Generated_Source\PSoC5/CapSense.c ****     #elif (CapSense_PRS_OPTIONS == CapSense_PRS_16BITS_4X)
 154:Generated_Source\PSoC5/CapSense.c ****         /* Aux control set FIFO as REG */
 155:Generated_Source\PSoC5/CapSense.c ****         enableInterrupts = CyEnterCriticalSection();
 156:Generated_Source\PSoC5/CapSense.c ****         CapSense_AUX_CONTROL_A_REG  |= CapSense_AUXCTRL_FIFO_SINGLE_REG;
 157:Generated_Source\PSoC5/CapSense.c ****         CyExitCriticalSection(enableInterrupts);
 158:Generated_Source\PSoC5/CapSense.c ****         
 159:Generated_Source\PSoC5/CapSense.c ****         /* Write polynomial */
 160:Generated_Source\PSoC5/CapSense.c ****         CapSense_POLYNOM_A__D1_REG   = HI8(CapSense_PRS16_DEFAULT_POLYNOM);
 161:Generated_Source\PSoC5/CapSense.c ****         CapSense_POLYNOM_A__D0_REG   = LO8(CapSense_PRS16_DEFAULT_POLYNOM);
 162:Generated_Source\PSoC5/CapSense.c ****         /* Write FIFO with seed */
 163:Generated_Source\PSoC5/CapSense.c ****         CapSense_SEED_COPY_A__F1_REG = CapSense_MEASURE_FULL_RANGE_LOW;
 164:Generated_Source\PSoC5/CapSense.c ****         CapSense_SEED_COPY_A__F0_REG = CapSense_MEASURE_FULL_RANGE_LOW; 
 165:Generated_Source\PSoC5/CapSense.c ****         
 166:Generated_Source\PSoC5/CapSense.c ****     #else
 167:Generated_Source\PSoC5/CapSense.c ****         /* Do nothing = config without PRS */
 168:Generated_Source\PSoC5/CapSense.c ****     #endif  /* (CapSense_PRS_OPTIONS == CapSense_PRS_8BITS) */ 
 169:Generated_Source\PSoC5/CapSense.c ****     
 170:Generated_Source\PSoC5/CapSense.c ****     /* Set ScanSpeed */
 171:Generated_Source\PSoC5/CapSense.c ****     CapSense_SCANSPEED_PERIOD_REG = CapSense_SCANSPEED_VALUE;
 172:Generated_Source\PSoC5/CapSense.c ****     
 173:Generated_Source\PSoC5/CapSense.c ****     /* Set the Measure */
 174:Generated_Source\PSoC5/CapSense.c ****     #if (CapSense_IMPLEMENTATION_CH0 == CapSense_MEASURE_IMPLEMENTATION_FF)
 175:Generated_Source\PSoC5/CapSense.c ****         /* Window PWM */
 176:Generated_Source\PSoC5/CapSense.c ****         CapSense_PWM_CH0_CONTROL_REG      = CapSense_MEASURE_CTRL_ENABLE;
 177:Generated_Source\PSoC5/CapSense.c ****         CapSense_PWM_CH0_CONTROL2_REG    |= CapSense_MEASURE_CTRL_PULSEWIDTH;
 178:Generated_Source\PSoC5/CapSense.c ****         CY_SET_REG16(CapSense_PWM_CH0_COUNTER_PTR, CapSense_MEASURE_FULL_RANGE);
 179:Generated_Source\PSoC5/CapSense.c ****         
 180:Generated_Source\PSoC5/CapSense.c ****         /* Raw Counter */
 181:Generated_Source\PSoC5/CapSense.c ****         CapSense_RAW_CH0_CONTROL_REG      = CapSense_MEASURE_CTRL_ENABLE;
 182:Generated_Source\PSoC5/CapSense.c ****         CapSense_RAW_CH0_CONTROL2_REG    |= CapSense_MEASURE_CTRL_PULSEWIDTH;
 183:Generated_Source\PSoC5/CapSense.c ****         CY_SET_REG16(CapSense_RAW_CH0_PERIOD_PTR, CapSense_MEASURE_FULL_RANGE);
 184:Generated_Source\PSoC5/CapSense.c ****     
 185:Generated_Source\PSoC5/CapSense.c ****     #else
 186:Generated_Source\PSoC5/CapSense.c ****         /*Window PWM and Raw Counter AUX set */
 187:Generated_Source\PSoC5/CapSense.c ****         enableInterrupts = CyEnterCriticalSection();
 188:Generated_Source\PSoC5/CapSense.c ****         CapSense_PWM_CH0_AUX_CONTROL_REG |= CapSense_AUXCTRL_FIFO_SINGLE_REG;
 189:Generated_Source\PSoC5/CapSense.c ****         CapSense_RAW_CH0_AUX_CONTROL_REG |= CapSense_AUXCTRL_FIFO_SINGLE_REG;
 190:Generated_Source\PSoC5/CapSense.c ****         CyExitCriticalSection(enableInterrupts);
 191:Generated_Source\PSoC5/CapSense.c ****         
 192:Generated_Source\PSoC5/CapSense.c ****         /* Window PWM */
 193:Generated_Source\PSoC5/CapSense.c ****         CapSense_PWM_CH0_ADD_VALUE_REG    = CapSense_MEASURE_FULL_RANGE_LOW;
 194:Generated_Source\PSoC5/CapSense.c ****         CapSense_PWM_CH0_PERIOD_LO_REG    = CapSense_MEASURE_FULL_RANGE_LOW;
 195:Generated_Source\PSoC5/CapSense.c ****         CapSense_PWM_CH0_COUNTER_LO_REG   = CapSense_MEASURE_FULL_RANGE_LOW;
 196:Generated_Source\PSoC5/CapSense.c ****         
 197:Generated_Source\PSoC5/CapSense.c ****         /* Raw Counter */
 198:Generated_Source\PSoC5/CapSense.c ****         CapSense_RAW_CH0_ADD_VALUE_REG    = CapSense_MEASURE_FULL_RANGE_LOW;
 199:Generated_Source\PSoC5/CapSense.c ****         CapSense_RAW_CH0_PERIOD_HI_REG    = CapSense_MEASURE_FULL_RANGE_LOW;
 200:Generated_Source\PSoC5/CapSense.c ****         CapSense_RAW_CH0_PERIOD_LO_REG    = CapSense_MEASURE_FULL_RANGE_LOW;
 201:Generated_Source\PSoC5/CapSense.c ****         
ARM GAS  C:\Users\Tri94\AppData\Local\Temp\ccFfdnZv.s 			page 5


 202:Generated_Source\PSoC5/CapSense.c ****     #endif  /* (CapSense_IMPLEMENTATION_CH0 == CapSense_MEASURE_IMPLEMENTATION_FF) */ 
 203:Generated_Source\PSoC5/CapSense.c ****     
 204:Generated_Source\PSoC5/CapSense.c ****     #if (CapSense_DESIGN_TYPE == CapSense_TWO_CHANNELS_DESIGN)
 205:Generated_Source\PSoC5/CapSense.c ****         #if (CapSense_IMPLEMENTATION_CH1 == CapSense_MEASURE_IMPLEMENTATION_FF)
 206:Generated_Source\PSoC5/CapSense.c ****             /* Window PWM */
 207:Generated_Source\PSoC5/CapSense.c ****             CapSense_PWM_CH1_CONTROL_REG      = CapSense_MEASURE_CTRL_ENABLE;
 208:Generated_Source\PSoC5/CapSense.c ****             CapSense_PWM_CH1_CONTROL2_REG    |= CapSense_MEASURE_CTRL_PULSEWIDTH;
 209:Generated_Source\PSoC5/CapSense.c ****             CY_SET_REG16(CapSense_PWM_CH1_COUNTER_PTR, CapSense_MEASURE_FULL_RANGE);
 210:Generated_Source\PSoC5/CapSense.c ****             
 211:Generated_Source\PSoC5/CapSense.c ****             /* Raw Counter */
 212:Generated_Source\PSoC5/CapSense.c ****             CapSense_RAW_CH1_CONTROL_REG      = CapSense_MEASURE_CTRL_ENABLE;
 213:Generated_Source\PSoC5/CapSense.c ****             CapSense_RAW_CH1_CONTROL2_REG    |= CapSense_MEASURE_CTRL_PULSEWIDTH;
 214:Generated_Source\PSoC5/CapSense.c ****             CY_SET_REG16(CapSense_RAW_CH1_PERIOD_PTR, CapSense_MEASURE_FULL_RANGE);
 215:Generated_Source\PSoC5/CapSense.c ****            
 216:Generated_Source\PSoC5/CapSense.c ****         #else
 217:Generated_Source\PSoC5/CapSense.c ****             /*Window PWM and Raw Counter AUX set */
 218:Generated_Source\PSoC5/CapSense.c ****             enableInterrupts = CyEnterCriticalSection();
 219:Generated_Source\PSoC5/CapSense.c ****             CapSense_PWM_CH1_AUX_CONTROL_REG |= CapSense_AUXCTRL_FIFO_SINGLE_REG;
 220:Generated_Source\PSoC5/CapSense.c ****             CapSense_RAW_CH1_AUX_CONTROL_REG |= CapSense_AUXCTRL_FIFO_SINGLE_REG;
 221:Generated_Source\PSoC5/CapSense.c ****             CyExitCriticalSection(enableInterrupts);
 222:Generated_Source\PSoC5/CapSense.c ****             
 223:Generated_Source\PSoC5/CapSense.c ****             /* Window PWM */
 224:Generated_Source\PSoC5/CapSense.c ****             CapSense_PWM_CH1_ADD_VALUE_REG    = CapSense_MEASURE_FULL_RANGE_LOW;
 225:Generated_Source\PSoC5/CapSense.c ****             CapSense_PWM_CH1_PERIOD_LO_REG    = CapSense_MEASURE_FULL_RANGE_LOW;
 226:Generated_Source\PSoC5/CapSense.c ****             CapSense_PWM_CH1_COUNTER_LO_REG   = CapSense_MEASURE_FULL_RANGE_LOW;
 227:Generated_Source\PSoC5/CapSense.c ****             
 228:Generated_Source\PSoC5/CapSense.c ****             /* Raw Counter */
 229:Generated_Source\PSoC5/CapSense.c ****             
 230:Generated_Source\PSoC5/CapSense.c ****             CapSense_RAW_CH1_ADD_VALUE_REG    = CapSense_MEASURE_FULL_RANGE_LOW;
 231:Generated_Source\PSoC5/CapSense.c ****             CapSense_RAW_CH1_PERIOD_HI_REG    = CapSense_MEASURE_FULL_RANGE_LOW;
 232:Generated_Source\PSoC5/CapSense.c ****             CapSense_RAW_CH1_PERIOD_LO_REG    = CapSense_MEASURE_FULL_RANGE_LOW;
 233:Generated_Source\PSoC5/CapSense.c ****             
 234:Generated_Source\PSoC5/CapSense.c ****         #endif  /* (CapSense_IMPLEMENTATION_CH1 == CapSense_MEASURE_IMPLEMENTATION_FF) */
 235:Generated_Source\PSoC5/CapSense.c ****     
 236:Generated_Source\PSoC5/CapSense.c ****     #endif  /* (CapSense_DESIGN_TYPE == TWO_CHANNELS_DESIGN) */
 237:Generated_Source\PSoC5/CapSense.c ****     
 238:Generated_Source\PSoC5/CapSense.c ****     /* Setup ISR */
 239:Generated_Source\PSoC5/CapSense.c ****     CyIntDisable(CapSense_IsrCH0_ISR_NUMBER);
 240:Generated_Source\PSoC5/CapSense.c ****     (void)CyIntSetVector(CapSense_IsrCH0_ISR_NUMBER, &CapSense_IsrCH0_ISR);
 241:Generated_Source\PSoC5/CapSense.c ****     CyIntSetPriority(CapSense_IsrCH0_ISR_NUMBER, CapSense_IsrCH0_ISR_PRIORITY);
 242:Generated_Source\PSoC5/CapSense.c ****     
 243:Generated_Source\PSoC5/CapSense.c ****     #if (CapSense_DESIGN_TYPE == CapSense_TWO_CHANNELS_DESIGN)
 244:Generated_Source\PSoC5/CapSense.c ****         CyIntDisable(CapSense_IsrCH1_ISR_NUMBER);
 245:Generated_Source\PSoC5/CapSense.c ****         CyIntSetVector(CapSense_IsrCH1_ISR_NUMBER, CapSense_IsrCH1_ISR);
 246:Generated_Source\PSoC5/CapSense.c ****         CyIntSetPriority(CapSense_IsrCH1_ISR_NUMBER, CapSense_IsrCH1_ISR_PRIORITY);
 247:Generated_Source\PSoC5/CapSense.c ****     #endif  /* CapSense_DESIGN_TYPE */
 248:Generated_Source\PSoC5/CapSense.c ****     
 249:Generated_Source\PSoC5/CapSense.c ****     /* Setup AMux Bus: Connect Cmod, Cmp, Idac */
 250:Generated_Source\PSoC5/CapSense.c ****     CapSense_AMuxCH0_Init();
 251:Generated_Source\PSoC5/CapSense.c ****     CapSense_AMuxCH0_Connect(CapSense_AMuxCH0_CMOD_CHANNEL);
 252:Generated_Source\PSoC5/CapSense.c ****     CapSense_AMuxCH0_Connect(CapSense_AMuxCH0_CMP_VP_CHANNEL);
 253:Generated_Source\PSoC5/CapSense.c ****     #if (CapSense_CURRENT_SOURCE)
 254:Generated_Source\PSoC5/CapSense.c ****         CapSense_AMuxCH0_Connect(CapSense_AMuxCH0_IDAC_CHANNEL);
 255:Generated_Source\PSoC5/CapSense.c ****     #endif  /* CapSense_CURRENT_SOURCE */
 256:Generated_Source\PSoC5/CapSense.c ****     
 257:Generated_Source\PSoC5/CapSense.c ****     #if (CapSense_DESIGN_TYPE == CapSense_TWO_CHANNELS_DESIGN) 
 258:Generated_Source\PSoC5/CapSense.c ****         CapSense_AMuxCH1_Init();
ARM GAS  C:\Users\Tri94\AppData\Local\Temp\ccFfdnZv.s 			page 6


 259:Generated_Source\PSoC5/CapSense.c ****         CapSense_AMuxCH1_Connect(CapSense_AMuxCH1_CMOD_CHANNEL);
 260:Generated_Source\PSoC5/CapSense.c ****         CapSense_AMuxCH1_Connect(CapSense_AMuxCH1_CMP_VP_CHANNEL);
 261:Generated_Source\PSoC5/CapSense.c ****         #if (CapSense_CURRENT_SOURCE)
 262:Generated_Source\PSoC5/CapSense.c ****             CapSense_AMuxCH1_Connect(CapSense_AMuxCH1_IDAC_CHANNEL);
 263:Generated_Source\PSoC5/CapSense.c ****         #endif  /* CapSense_CURRENT_SOURCE */
 264:Generated_Source\PSoC5/CapSense.c ****     #endif  /* CapSense_DESIGN_TYPE */
 265:Generated_Source\PSoC5/CapSense.c ****     
 266:Generated_Source\PSoC5/CapSense.c ****     /* Int Rb */
 267:Generated_Source\PSoC5/CapSense.c ****     #if (CapSense_CURRENT_SOURCE == CapSense_EXTERNAL_RB)
 268:Generated_Source\PSoC5/CapSense.c ****         CapSense_InitRb();
 269:Generated_Source\PSoC5/CapSense.c ****     #endif /* (CapSense_CURRENT_SOURCE == CapSense_EXTERNAL_RB) */
 270:Generated_Source\PSoC5/CapSense.c ****     
 271:Generated_Source\PSoC5/CapSense.c ****     /* Enable window generation */
 272:Generated_Source\PSoC5/CapSense.c ****     CapSense_CONTROL_REG |= CapSense_CTRL_WINDOW_EN__CH0;
 273:Generated_Source\PSoC5/CapSense.c ****     #if (CapSense_DESIGN_TYPE == CapSense_TWO_CHANNELS_DESIGN)
 274:Generated_Source\PSoC5/CapSense.c ****         CapSense_CONTROL_REG |= CapSense_CTRL_WINDOW_EN__CH1;
 275:Generated_Source\PSoC5/CapSense.c ****     #endif  /* CapSense_DESIGN_TYPE */
 276:Generated_Source\PSoC5/CapSense.c ****     
 277:Generated_Source\PSoC5/CapSense.c ****     /* Initialize Cmp and Idac */
 278:Generated_Source\PSoC5/CapSense.c ****     CapSense_CompCH0_Init();
 279:Generated_Source\PSoC5/CapSense.c ****     #if (CapSense_CURRENT_SOURCE)
 280:Generated_Source\PSoC5/CapSense.c ****         CapSense_IdacCH0_Init();
 281:Generated_Source\PSoC5/CapSense.c ****         CapSense_IdacCH0_SetPolarity(CapSense_IdacCH0_IDIR);
 282:Generated_Source\PSoC5/CapSense.c ****         CapSense_IdacCH0_SetRange(CapSense_IDAC_RANGE_VALUE);
 283:Generated_Source\PSoC5/CapSense.c ****         CapSense_IdacCH0_SetValue(CapSense_TURN_OFF_IDAC);
 284:Generated_Source\PSoC5/CapSense.c ****     #endif  /* CapSense_CURRENT_SOURCE */
 285:Generated_Source\PSoC5/CapSense.c ****     
 286:Generated_Source\PSoC5/CapSense.c ****     #if (CapSense_DESIGN_TYPE == CapSense_TWO_CHANNELS_DESIGN) 
 287:Generated_Source\PSoC5/CapSense.c ****         CapSense_CompCH1_Init();
 288:Generated_Source\PSoC5/CapSense.c ****         #if (CapSense_CURRENT_SOURCE)
 289:Generated_Source\PSoC5/CapSense.c ****             CapSense_IdacCH1_Init();
 290:Generated_Source\PSoC5/CapSense.c ****             CapSense_IdacCH1_SetPolarity(CapSense_IdacCH1_IDIR);
 291:Generated_Source\PSoC5/CapSense.c ****             CapSense_IdacCH1_SetRange(CapSense_IDAC_RANGE_VALUE);
 292:Generated_Source\PSoC5/CapSense.c ****             CapSense_IdacCH1_SetValue(CapSense_TURN_OFF_IDAC);
 293:Generated_Source\PSoC5/CapSense.c ****         #endif  /* CapSense_CURRENT_SOURCE */
 294:Generated_Source\PSoC5/CapSense.c ****     #endif  /* CapSense_DESIGN_TYPE */
 295:Generated_Source\PSoC5/CapSense.c ****     
 296:Generated_Source\PSoC5/CapSense.c ****     /* Initialize Vref if as VDAC */
 297:Generated_Source\PSoC5/CapSense.c ****     #if (CapSense_VREF_OPTIONS == CapSense_VREF_VDAC)
 298:Generated_Source\PSoC5/CapSense.c ****         CapSense_VdacRefCH0_Init();
 299:Generated_Source\PSoC5/CapSense.c ****         #if (CapSense_DESIGN_TYPE == CapSense_TWO_CHANNELS_DESIGN)
 300:Generated_Source\PSoC5/CapSense.c ****             CapSense_VdacRefCH1_Init();
 301:Generated_Source\PSoC5/CapSense.c ****         #endif  /* CapSense_DESIGN_TYPE */
 302:Generated_Source\PSoC5/CapSense.c ****     #endif  /* CapSense_VREF_OPTIONS */
 303:Generated_Source\PSoC5/CapSense.c **** }
 304:Generated_Source\PSoC5/CapSense.c **** 
 305:Generated_Source\PSoC5/CapSense.c **** 
 306:Generated_Source\PSoC5/CapSense.c **** /*******************************************************************************
 307:Generated_Source\PSoC5/CapSense.c **** * Function Name: CapSense_Enable
 308:Generated_Source\PSoC5/CapSense.c **** ********************************************************************************
 309:Generated_Source\PSoC5/CapSense.c **** *
 310:Generated_Source\PSoC5/CapSense.c **** * Summary:
 311:Generated_Source\PSoC5/CapSense.c **** *  Enables active mode power template bits for number of component used within 
 312:Generated_Source\PSoC5/CapSense.c **** *  CapSense.
 313:Generated_Source\PSoC5/CapSense.c **** *
 314:Generated_Source\PSoC5/CapSense.c **** * Parameters:
 315:Generated_Source\PSoC5/CapSense.c **** *  None
ARM GAS  C:\Users\Tri94\AppData\Local\Temp\ccFfdnZv.s 			page 7


 316:Generated_Source\PSoC5/CapSense.c **** *
 317:Generated_Source\PSoC5/CapSense.c **** * Return:
 318:Generated_Source\PSoC5/CapSense.c **** *  None
 319:Generated_Source\PSoC5/CapSense.c **** *
 320:Generated_Source\PSoC5/CapSense.c **** *******************************************************************************/
 321:Generated_Source\PSoC5/CapSense.c **** void CapSense_Enable(void) 
 322:Generated_Source\PSoC5/CapSense.c **** {
  28              		.loc 1 322 0
  29              		.cfi_startproc
  30              		@ args = 0, pretend = 0, frame = 0
  31              		@ frame_needed = 0, uses_anonymous_args = 0
  32 0000 10B5     		push	{r4, lr}
  33              		.cfi_def_cfa_offset 8
  34              		.cfi_offset 4, -8
  35              		.cfi_offset 14, -4
 323:Generated_Source\PSoC5/CapSense.c ****     uint8 enableInterrupts;
 324:Generated_Source\PSoC5/CapSense.c ****     
 325:Generated_Source\PSoC5/CapSense.c ****     enableInterrupts = CyEnterCriticalSection();
  36              		.loc 1 325 0
  37 0002 FFF7FEFF 		bl	CyEnterCriticalSection
  38              	.LVL0:
  39 0006 0446     		mov	r4, r0
  40              	.LVL1:
 326:Generated_Source\PSoC5/CapSense.c ****     
 327:Generated_Source\PSoC5/CapSense.c ****     /* Enable Prescaler */
 328:Generated_Source\PSoC5/CapSense.c ****     #if (CapSense_PRESCALER_OPTIONS == CapSense_PRESCALER_UDB)
 329:Generated_Source\PSoC5/CapSense.c ****         /* Do nothing  for UDB */
 330:Generated_Source\PSoC5/CapSense.c ****     #elif (CapSense_PRESCALER_OPTIONS == CapSense_PRESCALER_FF)
 331:Generated_Source\PSoC5/CapSense.c ****         CapSense_PRESCALER_ACT_PWRMGR_REG  |= CapSense_PRESCALER_ACT_PWR_EN;
 332:Generated_Source\PSoC5/CapSense.c ****         CapSense_PRESCALER_STBY_PWRMGR_REG |= CapSense_PRESCALER_STBY_PWR_EN;
 333:Generated_Source\PSoC5/CapSense.c ****         
 334:Generated_Source\PSoC5/CapSense.c ****     #else
 335:Generated_Source\PSoC5/CapSense.c ****         /* Do nothing = config without prescaler */
 336:Generated_Source\PSoC5/CapSense.c ****     #endif  /* (CapSense_PRESCALER_OPTIONS == CapSense_PRESCALER_UDB) */
 337:Generated_Source\PSoC5/CapSense.c ****     
 338:Generated_Source\PSoC5/CapSense.c ****     /* Enable ScanSpeed */
 339:Generated_Source\PSoC5/CapSense.c ****     CapSense_SCANSPEED_AUX_CONTROL_REG |= CapSense_SCANSPEED_CTRL_ENABLE;
  41              		.loc 1 339 0
  42 0008 134A     		ldr	r2, .L3
  43 000a 1378     		ldrb	r3, [r2]	@ zero_extendqisi2
  44 000c 43F02003 		orr	r3, r3, #32
  45 0010 1370     		strb	r3, [r2]
 340:Generated_Source\PSoC5/CapSense.c ****     
 341:Generated_Source\PSoC5/CapSense.c ****     /* Enable Measure CH0 */
 342:Generated_Source\PSoC5/CapSense.c ****     #if (CapSense_IMPLEMENTATION_CH0 == CapSense_MEASURE_IMPLEMENTATION_FF)
 343:Generated_Source\PSoC5/CapSense.c ****         /* Window PWM */
 344:Generated_Source\PSoC5/CapSense.c ****         CapSense_PWM_CH0_ACT_PWRMGR_REG  |= CapSense_PWM_CH0_ACT_PWR_EN;
 345:Generated_Source\PSoC5/CapSense.c ****         CapSense_PWM_CH0_STBY_PWRMGR_REG |= CapSense_PWM_CH0_STBY_PWR_EN;
 346:Generated_Source\PSoC5/CapSense.c ****         
 347:Generated_Source\PSoC5/CapSense.c ****         /* Raw Counter */
 348:Generated_Source\PSoC5/CapSense.c ****         CapSense_RAW_CH0_ACT_PWRMGR_REG  |= CapSense_RAW_CH0_ACT_PWR_EN;
 349:Generated_Source\PSoC5/CapSense.c ****         CapSense_RAW_CH0_STBY_PWRMGR_REG |= CapSense_RAW_CH0_STBY_PWR_EN;
 350:Generated_Source\PSoC5/CapSense.c ****         
 351:Generated_Source\PSoC5/CapSense.c ****     #else
 352:Generated_Source\PSoC5/CapSense.c ****         /* Window PWM -  Do nothing */
 353:Generated_Source\PSoC5/CapSense.c ****         /* Raw Counter - Do nothing */
 354:Generated_Source\PSoC5/CapSense.c ****         
ARM GAS  C:\Users\Tri94\AppData\Local\Temp\ccFfdnZv.s 			page 8


 355:Generated_Source\PSoC5/CapSense.c ****     #endif  /* (CapSense_IMPLEMENTATION_CH0 == CapSense_MEASURE_IMPLEMENTATION_FF) */ 
 356:Generated_Source\PSoC5/CapSense.c ****     
 357:Generated_Source\PSoC5/CapSense.c ****     /* Enable Measure CH1*/
 358:Generated_Source\PSoC5/CapSense.c ****     #if (CapSense_DESIGN_TYPE == CapSense_TWO_CHANNELS_DESIGN)
 359:Generated_Source\PSoC5/CapSense.c ****         #if (CapSense_IMPLEMENTATION_CH1 == CapSense_MEASURE_IMPLEMENTATION_FF)
 360:Generated_Source\PSoC5/CapSense.c ****             /* Window PWM */
 361:Generated_Source\PSoC5/CapSense.c ****             CapSense_PWM_CH1_ACT_PWRMGR_REG  |= CapSense_PWM_CH1_ACT_PWR_EN;
 362:Generated_Source\PSoC5/CapSense.c ****             CapSense_PWM_CH1_STBY_PWRMGR_REG |= CapSense_PWM_CH1_STBY_PWR_EN;
 363:Generated_Source\PSoC5/CapSense.c ****             
 364:Generated_Source\PSoC5/CapSense.c ****             /* Raw Counter */
 365:Generated_Source\PSoC5/CapSense.c ****             CapSense_RAW_CH1_ACT_PWRMGR_REG  |= CapSense_RAW_CH1_ACT_PWR_EN;
 366:Generated_Source\PSoC5/CapSense.c ****             CapSense_RAW_CH1_STBY_PWRMGR_REG |= CapSense_RAW_CH1_STBY_PWR_EN;
 367:Generated_Source\PSoC5/CapSense.c ****            
 368:Generated_Source\PSoC5/CapSense.c ****         #else
 369:Generated_Source\PSoC5/CapSense.c ****         /* Window PWM -  Do nothing */
 370:Generated_Source\PSoC5/CapSense.c ****         /* Raw Counter - Do nothing */
 371:Generated_Source\PSoC5/CapSense.c ****         
 372:Generated_Source\PSoC5/CapSense.c ****         #endif  /* (CapSense_IMPLEMENTATION_CH1 == CapSense_MEASURE_IMPLEMENTATION_FF) */
 373:Generated_Source\PSoC5/CapSense.c ****     
 374:Generated_Source\PSoC5/CapSense.c ****     #endif  /* (CapSense_DESIGN_TYPE == TWO_CHANNELS_DESIGN)*/
 375:Generated_Source\PSoC5/CapSense.c ****     
 376:Generated_Source\PSoC5/CapSense.c ****     /* Enable the Clock */
 377:Generated_Source\PSoC5/CapSense.c ****     #if (CapSense_CLOCK_SOURCE == CapSense_INTERNAL_CLOCK)
 378:Generated_Source\PSoC5/CapSense.c ****        CapSense_IntClock_Enable();
  46              		.loc 1 378 0
  47 0012 FFF7FEFF 		bl	CapSense_IntClock_Start
  48              	.LVL2:
 379:Generated_Source\PSoC5/CapSense.c ****     #endif  /* CapSense_CLOCK_SOURCE */
 380:Generated_Source\PSoC5/CapSense.c ****     
 381:Generated_Source\PSoC5/CapSense.c ****     /* Setup Cmp and Idac */
 382:Generated_Source\PSoC5/CapSense.c ****     CapSense_CompCH0_Enable();
  49              		.loc 1 382 0
  50 0016 FFF7FEFF 		bl	CapSense_CompCH0_Enable
  51              	.LVL3:
 383:Generated_Source\PSoC5/CapSense.c ****     #if (CapSense_CURRENT_SOURCE)
 384:Generated_Source\PSoC5/CapSense.c ****         CapSense_IdacCH0_Enable();
  52              		.loc 1 384 0
  53 001a FFF7FEFF 		bl	CapSense_IdacCH0_Enable
  54              	.LVL4:
 385:Generated_Source\PSoC5/CapSense.c ****     #endif  /* CapSense_CURRENT_SOURCE */
 386:Generated_Source\PSoC5/CapSense.c ****     
 387:Generated_Source\PSoC5/CapSense.c ****     #if (CapSense_DESIGN_TYPE == CapSense_TWO_CHANNELS_DESIGN) 
 388:Generated_Source\PSoC5/CapSense.c ****         CapSense_CompCH1_Enable();
 389:Generated_Source\PSoC5/CapSense.c ****         #if (CapSense_CURRENT_SOURCE)
 390:Generated_Source\PSoC5/CapSense.c ****             CapSense_IdacCH1_Enable();
 391:Generated_Source\PSoC5/CapSense.c ****         #endif  /* CapSense_CURRENT_SOURCE */
 392:Generated_Source\PSoC5/CapSense.c ****     #endif  /* CapSense_DESIGN_TYPE */
 393:Generated_Source\PSoC5/CapSense.c ****     
 394:Generated_Source\PSoC5/CapSense.c ****     /* Enable Vref */
 395:Generated_Source\PSoC5/CapSense.c ****     #if (CapSense_VREF_OPTIONS == CapSense_VREF_VDAC)
 396:Generated_Source\PSoC5/CapSense.c ****         CapSense_VdacRefCH0_Enable();
 397:Generated_Source\PSoC5/CapSense.c ****         CapSense_VdacRefCH0_SetValue(CapSense_VdacRefCH0_DEFAULT_DATA);
 398:Generated_Source\PSoC5/CapSense.c ****         #if (CapSense_DESIGN_TYPE == CapSense_TWO_CHANNELS_DESIGN)
 399:Generated_Source\PSoC5/CapSense.c ****             CapSense_VdacRefCH1_Enable();
 400:Generated_Source\PSoC5/CapSense.c ****             CapSense_VdacRefCH1_SetValue(CapSense_VdacRefCH1_DEFAULT_DATA);
 401:Generated_Source\PSoC5/CapSense.c ****         #endif  /* (CapSense_DESIGN_TYPE == CapSense_TWO_CHANNELS_DESIGN) */
 402:Generated_Source\PSoC5/CapSense.c ****     #else
ARM GAS  C:\Users\Tri94\AppData\Local\Temp\ccFfdnZv.s 			page 9


 403:Generated_Source\PSoC5/CapSense.c ****         /* Enable CapSense Buf */
 404:Generated_Source\PSoC5/CapSense.c ****         CapSense_BufCH0_STBY_PWRMGR_REG |= CapSense_BufCH0_STBY_PWR_EN;
  55              		.loc 1 404 0
  56 001e 0F4A     		ldr	r2, .L3+4
  57 0020 1378     		ldrb	r3, [r2]	@ zero_extendqisi2
  58 0022 43F01003 		orr	r3, r3, #16
  59 0026 1370     		strb	r3, [r2]
 405:Generated_Source\PSoC5/CapSense.c ****         CapSense_BufCH0_ACT_PWRMGR_REG  |= CapSense_BufCH0_ACT_PWR_EN;
  60              		.loc 1 405 0
  61 0028 103A     		subs	r2, r2, #16
  62 002a 1378     		ldrb	r3, [r2]	@ zero_extendqisi2
  63 002c 43F01003 		orr	r3, r3, #16
  64 0030 1370     		strb	r3, [r2]
 406:Generated_Source\PSoC5/CapSense.c ****         
 407:Generated_Source\PSoC5/CapSense.c ****         #if (CapSense_DESIGN_TYPE == CapSense_TWO_CHANNELS_DESIGN)
 408:Generated_Source\PSoC5/CapSense.c ****             CapSense_BufCH1_STBY_PWRMGR_REG |= CapSense_BufCH1_STBY_PWR_EN;
 409:Generated_Source\PSoC5/CapSense.c ****             CapSense_BufCH1_ACT_PWRMGR_REG  |= CapSense_BufCH1_ACT_PWR_EN;
 410:Generated_Source\PSoC5/CapSense.c ****         #endif  /* (CapSense_DESIGN_TYPE == CapSense_TWO_CHANNELS_DESIGN) */
 411:Generated_Source\PSoC5/CapSense.c ****     #endif  /* (CapSense_VREF_VDAC == CapSense_VREF_OPTIONS) */
 412:Generated_Source\PSoC5/CapSense.c ****     
 413:Generated_Source\PSoC5/CapSense.c ****     /* Set reference on AMux Bus */
 414:Generated_Source\PSoC5/CapSense.c ****     #if (CapSense_VREF_OPTIONS == CapSense_VREF_VDAC)
 415:Generated_Source\PSoC5/CapSense.c ****         /* Connect Vdac to AMux Bus */
 416:Generated_Source\PSoC5/CapSense.c ****         CapSense_AMuxCH0_Connect(CapSense_AMuxCH0_VREF_CHANNEL);
 417:Generated_Source\PSoC5/CapSense.c ****         #if (CapSense_DESIGN_TYPE == CapSense_TWO_CHANNELS_DESIGN)
 418:Generated_Source\PSoC5/CapSense.c ****             CapSense_AMuxCH1_Connect(CapSense_AMuxCH1_VREF_CHANNEL);
 419:Generated_Source\PSoC5/CapSense.c ****         #endif  /* (CapSense_DESIGN_TYPE == CapSense_TWO_CHANNELS_DESIGN) */
 420:Generated_Source\PSoC5/CapSense.c ****         
 421:Generated_Source\PSoC5/CapSense.c ****     #else
 422:Generated_Source\PSoC5/CapSense.c ****         /* Enable CapSense Buf */
 423:Generated_Source\PSoC5/CapSense.c ****         CapSense_BufCH0_CAPS_CFG0_REG |= CapSense_CSBUF_ENABLE;
  65              		.loc 1 423 0
  66 0032 02F5A652 		add	r2, r2, #5312
  67 0036 0532     		adds	r2, r2, #5
  68 0038 1378     		ldrb	r3, [r2]	@ zero_extendqisi2
  69 003a 43F00103 		orr	r3, r3, #1
  70 003e 1370     		strb	r3, [r2]
 424:Generated_Source\PSoC5/CapSense.c ****         
 425:Generated_Source\PSoC5/CapSense.c ****         #if (CapSense_DESIGN_TYPE == CapSense_TWO_CHANNELS_DESIGN)
 426:Generated_Source\PSoC5/CapSense.c ****             CapSense_BufCH1_CAPS_CFG0_REG |= CapSense_CSBUF_ENABLE;
 427:Generated_Source\PSoC5/CapSense.c ****         #endif  /* (CapSense_DESIGN_TYPE == CapSense_TWO_CHANNELS_DESIGN) */
 428:Generated_Source\PSoC5/CapSense.c ****     #endif  /* (CapSense_VREF_VDAC == CapSense_VREF_OPTIONS)*/
 429:Generated_Source\PSoC5/CapSense.c ****     
 430:Generated_Source\PSoC5/CapSense.c ****     CyExitCriticalSection(enableInterrupts);
  71              		.loc 1 430 0
  72 0040 2046     		mov	r0, r4
  73 0042 FFF7FEFF 		bl	CyExitCriticalSection
  74              	.LVL5:
 431:Generated_Source\PSoC5/CapSense.c ****     
 432:Generated_Source\PSoC5/CapSense.c ****     /* Enable interrupt */
 433:Generated_Source\PSoC5/CapSense.c ****     CyIntEnable(CapSense_IsrCH0_ISR_NUMBER);
  75              		.loc 1 433 0
  76 0046 0122     		movs	r2, #1
  77 0048 054B     		ldr	r3, .L3+8
  78 004a 1A60     		str	r2, [r3]
 434:Generated_Source\PSoC5/CapSense.c ****     #if (CapSense_DESIGN_TYPE == CapSense_TWO_CHANNELS_DESIGN) 
 435:Generated_Source\PSoC5/CapSense.c ****         CyIntEnable(CapSense_IsrCH1_ISR_NUMBER);
ARM GAS  C:\Users\Tri94\AppData\Local\Temp\ccFfdnZv.s 			page 10


 436:Generated_Source\PSoC5/CapSense.c ****     #endif  /* CapSense_DESIGN_TYPE */
 437:Generated_Source\PSoC5/CapSense.c ****     
 438:Generated_Source\PSoC5/CapSense.c ****     /* Set CapSense Enable state */
 439:Generated_Source\PSoC5/CapSense.c ****     CapSense_CONTROL_REG |= CapSense_CTRL_CAPSENSE_EN;
  79              		.loc 1 439 0
  80 004c 054A     		ldr	r2, .L3+12
  81 004e 1378     		ldrb	r3, [r2]	@ zero_extendqisi2
  82 0050 43F08003 		orr	r3, r3, #128
  83 0054 1370     		strb	r3, [r2]
  84 0056 10BD     		pop	{r4, pc}
  85              	.LVL6:
  86              	.L4:
  87              		.align	2
  88              	.L3:
  89 0058 9A640040 		.word	1073767578
  90 005c BB430040 		.word	1073759163
  91 0060 00E100E0 		.word	-536813312
  92 0064 79640040 		.word	1073767545
  93              		.cfi_endproc
  94              	.LFE1:
  95              		.size	CapSense_Enable, .-CapSense_Enable
  96              		.section	.text.CapSense_FindNextSensor,"ax",%progbits
  97              		.align	2
  98              		.global	CapSense_FindNextSensor
  99              		.thumb
 100              		.thumb_func
 101              		.type	CapSense_FindNextSensor, %function
 102              	CapSense_FindNextSensor:
 103              	.LFB4:
 440:Generated_Source\PSoC5/CapSense.c **** }
 441:Generated_Source\PSoC5/CapSense.c **** 
 442:Generated_Source\PSoC5/CapSense.c **** 
 443:Generated_Source\PSoC5/CapSense.c **** /*******************************************************************************
 444:Generated_Source\PSoC5/CapSense.c **** * Function Name: CapSense_Start
 445:Generated_Source\PSoC5/CapSense.c **** ********************************************************************************
 446:Generated_Source\PSoC5/CapSense.c **** *
 447:Generated_Source\PSoC5/CapSense.c **** * Summary:
 448:Generated_Source\PSoC5/CapSense.c **** *  Initializes registers and starts the CSD method of CapSense component. Reset 
 449:Generated_Source\PSoC5/CapSense.c **** *  all sensors to an inactive state. Enables interrupts for sensors scanning.
 450:Generated_Source\PSoC5/CapSense.c **** *  When Auto Tuning (SmartSense) mode is selected the tuning procedure is 
 451:Generated_Source\PSoC5/CapSense.c **** *  applied for all sensors.
 452:Generated_Source\PSoC5/CapSense.c **** *
 453:Generated_Source\PSoC5/CapSense.c **** * Parameters:
 454:Generated_Source\PSoC5/CapSense.c **** *  None
 455:Generated_Source\PSoC5/CapSense.c **** *
 456:Generated_Source\PSoC5/CapSense.c **** * Return:
 457:Generated_Source\PSoC5/CapSense.c **** *  None
 458:Generated_Source\PSoC5/CapSense.c **** *
 459:Generated_Source\PSoC5/CapSense.c **** * Global Variables:
 460:Generated_Source\PSoC5/CapSense.c **** *  CapSense_initVar - used to check initial configuration, modified on 
 461:Generated_Source\PSoC5/CapSense.c **** *  first function call.
 462:Generated_Source\PSoC5/CapSense.c **** *  CapSense_lowLevelTuningDone - used to notify the Tuner GUI that 
 463:Generated_Source\PSoC5/CapSense.c **** *  tuning of scanning parameters are done.
 464:Generated_Source\PSoC5/CapSense.c **** *
 465:Generated_Source\PSoC5/CapSense.c **** * Reentrant:
 466:Generated_Source\PSoC5/CapSense.c **** *  No
 467:Generated_Source\PSoC5/CapSense.c **** *
ARM GAS  C:\Users\Tri94\AppData\Local\Temp\ccFfdnZv.s 			page 11


 468:Generated_Source\PSoC5/CapSense.c **** * Note:
 469:Generated_Source\PSoC5/CapSense.c **** *  All widgets are enabled by default except proximity widgets. Proximity widgets 
 470:Generated_Source\PSoC5/CapSense.c **** *  must be manually enabled as their long scan time is incompatible 
 471:Generated_Source\PSoC5/CapSense.c **** *  with the fast response required of other widget types. 
 472:Generated_Source\PSoC5/CapSense.c **** *
 473:Generated_Source\PSoC5/CapSense.c **** *******************************************************************************/
 474:Generated_Source\PSoC5/CapSense.c **** void CapSense_Start(void)  
 475:Generated_Source\PSoC5/CapSense.c **** {
 476:Generated_Source\PSoC5/CapSense.c ****     if (CapSense_initVar == 0u)
 477:Generated_Source\PSoC5/CapSense.c ****     {
 478:Generated_Source\PSoC5/CapSense.c ****         CapSense_Init();
 479:Generated_Source\PSoC5/CapSense.c ****         CapSense_initVar = 1u;
 480:Generated_Source\PSoC5/CapSense.c ****     }
 481:Generated_Source\PSoC5/CapSense.c ****     CapSense_Enable();
 482:Generated_Source\PSoC5/CapSense.c ****     
 483:Generated_Source\PSoC5/CapSense.c ****     /* AutoTunning start */
 484:Generated_Source\PSoC5/CapSense.c ****     #if (CapSense_TUNING_METHOD == CapSense_AUTO_TUNING)
 485:Generated_Source\PSoC5/CapSense.c ****         /* AutoTune by sensor or pair of sensor basis */
 486:Generated_Source\PSoC5/CapSense.c ****         CapSense_AutoTune();
 487:Generated_Source\PSoC5/CapSense.c ****         CapSense_lowLevelTuningDone = 1u;
 488:Generated_Source\PSoC5/CapSense.c ****     #endif /* (CapSense_TUNING_METHOD == CapSense_AUTO_TUNING) */
 489:Generated_Source\PSoC5/CapSense.c **** }
 490:Generated_Source\PSoC5/CapSense.c **** 
 491:Generated_Source\PSoC5/CapSense.c **** 
 492:Generated_Source\PSoC5/CapSense.c **** /*******************************************************************************
 493:Generated_Source\PSoC5/CapSense.c **** * Function Name: CapSense_Stop
 494:Generated_Source\PSoC5/CapSense.c **** ********************************************************************************
 495:Generated_Source\PSoC5/CapSense.c **** *
 496:Generated_Source\PSoC5/CapSense.c **** * Summary:
 497:Generated_Source\PSoC5/CapSense.c **** *  Stops the sensors scanner, disables internal interrupts, and resets all 
 498:Generated_Source\PSoC5/CapSense.c **** *  sensors to an inactive state. Disables Active mode power template bits for 
 499:Generated_Source\PSoC5/CapSense.c **** *  number of component used within CapSense.
 500:Generated_Source\PSoC5/CapSense.c **** *
 501:Generated_Source\PSoC5/CapSense.c **** * Parameters:
 502:Generated_Source\PSoC5/CapSense.c **** *  None
 503:Generated_Source\PSoC5/CapSense.c **** *
 504:Generated_Source\PSoC5/CapSense.c **** * Return:
 505:Generated_Source\PSoC5/CapSense.c **** *  None
 506:Generated_Source\PSoC5/CapSense.c **** *
 507:Generated_Source\PSoC5/CapSense.c **** * Side Effects:
 508:Generated_Source\PSoC5/CapSense.c **** *  This function should be called after scans will be completed.
 509:Generated_Source\PSoC5/CapSense.c **** *
 510:Generated_Source\PSoC5/CapSense.c **** *******************************************************************************/
 511:Generated_Source\PSoC5/CapSense.c **** void CapSense_Stop(void) 
 512:Generated_Source\PSoC5/CapSense.c **** {
 513:Generated_Source\PSoC5/CapSense.c ****     /* Stop Capsensing */
 514:Generated_Source\PSoC5/CapSense.c ****     CapSense_CONTROL_REG &= (uint8)(~CapSense_CTRL_START);
 515:Generated_Source\PSoC5/CapSense.c ****     
 516:Generated_Source\PSoC5/CapSense.c ****     /* Disable interrupt */
 517:Generated_Source\PSoC5/CapSense.c ****     CyIntDisable(CapSense_IsrCH0_ISR_NUMBER);
 518:Generated_Source\PSoC5/CapSense.c ****     #if (CapSense_DESIGN_TYPE == CapSense_TWO_CHANNELS_DESIGN) 
 519:Generated_Source\PSoC5/CapSense.c ****         CyIntDisable(CapSense_IsrCH1_ISR_NUMBER);
 520:Generated_Source\PSoC5/CapSense.c ****     #endif  /* CapSense_DESIGN_TYPE */
 521:Generated_Source\PSoC5/CapSense.c ****     
 522:Generated_Source\PSoC5/CapSense.c ****     /* Clear all sensors */
 523:Generated_Source\PSoC5/CapSense.c ****     CapSense_ClearSensors();
 524:Generated_Source\PSoC5/CapSense.c ****     
ARM GAS  C:\Users\Tri94\AppData\Local\Temp\ccFfdnZv.s 			page 12


 525:Generated_Source\PSoC5/CapSense.c ****     /* Disable Prescaler */
 526:Generated_Source\PSoC5/CapSense.c ****     #if (CapSense_PRESCALER_OPTIONS == CapSense_PRESCALER_UDB)
 527:Generated_Source\PSoC5/CapSense.c ****         /* Do nothing  for UDB */
 528:Generated_Source\PSoC5/CapSense.c ****     #elif (CapSense_PRESCALER_OPTIONS == CapSense_PRESCALER_FF)        
 529:Generated_Source\PSoC5/CapSense.c ****         CapSense_PRESCALER_ACT_PWRMGR_REG  &= ~CapSense_PRESCALER_ACT_PWR_EN;
 530:Generated_Source\PSoC5/CapSense.c ****         CapSense_PRESCALER_STBY_PWRMGR_REG &= ~CapSense_PRESCALER_STBY_PWR_EN;
 531:Generated_Source\PSoC5/CapSense.c ****         
 532:Generated_Source\PSoC5/CapSense.c ****     #else
 533:Generated_Source\PSoC5/CapSense.c ****         /* Do nothing = config without prescaler */
 534:Generated_Source\PSoC5/CapSense.c ****     #endif  /* (CapSense_PRESCALER_OPTIONS == CapSense_PRESCALER_UDB) */
 535:Generated_Source\PSoC5/CapSense.c ****     
 536:Generated_Source\PSoC5/CapSense.c ****     /* Disable ScanSpeed */
 537:Generated_Source\PSoC5/CapSense.c ****     CapSense_SCANSPEED_AUX_CONTROL_REG &= (uint8)(~CapSense_SCANSPEED_CTRL_ENABLE);
 538:Generated_Source\PSoC5/CapSense.c ****     
 539:Generated_Source\PSoC5/CapSense.c ****     /* Disable Measure CH0 */
 540:Generated_Source\PSoC5/CapSense.c ****     #if (CapSense_IMPLEMENTATION_CH0 == CapSense_MEASURE_IMPLEMENTATION_FF)
 541:Generated_Source\PSoC5/CapSense.c ****         /* Window PWM */
 542:Generated_Source\PSoC5/CapSense.c ****         CapSense_PWM_CH0_ACT_PWRMGR_REG  &= ~CapSense_PWM_CH0_ACT_PWR_EN;
 543:Generated_Source\PSoC5/CapSense.c ****         CapSense_PWM_CH0_STBY_PWRMGR_REG &= ~CapSense_PWM_CH0_STBY_PWR_EN;
 544:Generated_Source\PSoC5/CapSense.c **** 
 545:Generated_Source\PSoC5/CapSense.c ****         /* Raw Counter */
 546:Generated_Source\PSoC5/CapSense.c ****         CapSense_RAW_CH0_ACT_PWRMGR_REG  &= ~CapSense_RAW_CH0_ACT_PWR_EN;
 547:Generated_Source\PSoC5/CapSense.c ****         CapSense_RAW_CH0_STBY_PWRMGR_REG &= ~CapSense_RAW_CH0_STBY_PWR_EN;
 548:Generated_Source\PSoC5/CapSense.c **** 
 549:Generated_Source\PSoC5/CapSense.c ****     #else
 550:Generated_Source\PSoC5/CapSense.c ****         /* Window PWM -  Do nothing */
 551:Generated_Source\PSoC5/CapSense.c ****         /* Raw Counter - Do nothing */
 552:Generated_Source\PSoC5/CapSense.c ****         
 553:Generated_Source\PSoC5/CapSense.c ****     #endif  /* (CapSense_IMPLEMENTATION_CH0 == CapSense_MEASURE_IMPLEMENTATION_FF) */ 
 554:Generated_Source\PSoC5/CapSense.c ****     
 555:Generated_Source\PSoC5/CapSense.c ****     /* Disable Measure CH1 */
 556:Generated_Source\PSoC5/CapSense.c ****     #if (CapSense_DESIGN_TYPE == CapSense_TWO_CHANNELS_DESIGN)
 557:Generated_Source\PSoC5/CapSense.c ****         #if (CapSense_IMPLEMENTATION_CH1 == CapSense_MEASURE_IMPLEMENTATION_FF)
 558:Generated_Source\PSoC5/CapSense.c ****             /* Window PWM */
 559:Generated_Source\PSoC5/CapSense.c ****             CapSense_PWM_CH1_ACT_PWRMGR_REG  &= ~CapSense_PWM_CH1_ACT_PWR_EN;
 560:Generated_Source\PSoC5/CapSense.c ****             CapSense_PWM_CH1_STBY_PWRMGR_REG &= ~CapSense_PWM_CH1_STBY_PWR_EN;
 561:Generated_Source\PSoC5/CapSense.c ****     
 562:Generated_Source\PSoC5/CapSense.c ****             /* Raw Counter */
 563:Generated_Source\PSoC5/CapSense.c ****             CapSense_RAW_CH1_ACT_PWRMGR_REG  &= ~CapSense_RAW_CH1_ACT_PWR_EN;
 564:Generated_Source\PSoC5/CapSense.c ****             CapSense_RAW_CH1_STBY_PWRMGR_REG &= ~CapSense_RAW_CH1_STBY_PWR_EN;
 565:Generated_Source\PSoC5/CapSense.c ****            
 566:Generated_Source\PSoC5/CapSense.c ****         #else
 567:Generated_Source\PSoC5/CapSense.c ****         /* Window PWM -  Do nothing */
 568:Generated_Source\PSoC5/CapSense.c ****         /* Raw Counter - Do nothing */
 569:Generated_Source\PSoC5/CapSense.c ****         
 570:Generated_Source\PSoC5/CapSense.c ****         #endif  /* (CapSense_IMPLEMENTATION_CH1 == CapSense_MEASURE_IMPLEMENTATION_FF) */
 571:Generated_Source\PSoC5/CapSense.c ****     
 572:Generated_Source\PSoC5/CapSense.c ****     #endif  /* (CapSense_DESIGN_TYPE == TWO_CHANNELS_DESIGN)*/
 573:Generated_Source\PSoC5/CapSense.c ****     
 574:Generated_Source\PSoC5/CapSense.c ****     /* Disable the Clock */
 575:Generated_Source\PSoC5/CapSense.c ****     #if (CapSense_CLOCK_SOURCE == CapSense_INTERNAL_CLOCK)
 576:Generated_Source\PSoC5/CapSense.c ****        CapSense_IntClock_Stop();
 577:Generated_Source\PSoC5/CapSense.c ****     #endif  /* CapSense_CLOCK_SOURCE */
 578:Generated_Source\PSoC5/CapSense.c ****     
 579:Generated_Source\PSoC5/CapSense.c ****     /* Disable power from Cmp and Idac */
 580:Generated_Source\PSoC5/CapSense.c ****     CapSense_CompCH0_Stop();
 581:Generated_Source\PSoC5/CapSense.c ****     #if (CapSense_CURRENT_SOURCE)
ARM GAS  C:\Users\Tri94\AppData\Local\Temp\ccFfdnZv.s 			page 13


 582:Generated_Source\PSoC5/CapSense.c ****         CapSense_IdacCH0_Stop();
 583:Generated_Source\PSoC5/CapSense.c ****     #endif  /* CapSense_CURRENT_SOURCE */
 584:Generated_Source\PSoC5/CapSense.c ****     
 585:Generated_Source\PSoC5/CapSense.c ****     #if (CapSense_DESIGN_TYPE == CapSense_TWO_CHANNELS_DESIGN) 
 586:Generated_Source\PSoC5/CapSense.c ****         CapSense_CompCH1_Stop();
 587:Generated_Source\PSoC5/CapSense.c ****         #if (CapSense_CURRENT_SOURCE)
 588:Generated_Source\PSoC5/CapSense.c ****             CapSense_IdacCH1_Stop();
 589:Generated_Source\PSoC5/CapSense.c ****         #endif  /* CapSense_CURRENT_SOURCE */
 590:Generated_Source\PSoC5/CapSense.c ****     #endif  /* CapSense_DESIGN_TYPE */    
 591:Generated_Source\PSoC5/CapSense.c ****     
 592:Generated_Source\PSoC5/CapSense.c ****     /* Disable Vref if as VDAC */
 593:Generated_Source\PSoC5/CapSense.c ****     #if (CapSense_VREF_OPTIONS == CapSense_VREF_VDAC)
 594:Generated_Source\PSoC5/CapSense.c ****         CapSense_VdacRefCH0_Stop();
 595:Generated_Source\PSoC5/CapSense.c ****         #if (CapSense_DESIGN_TYPE == CapSense_TWO_CHANNELS_DESIGN)
 596:Generated_Source\PSoC5/CapSense.c ****             CapSense_VdacRefCH1_Stop();
 597:Generated_Source\PSoC5/CapSense.c ****         #endif  /* CapSense_DESIGN_TYPE */
 598:Generated_Source\PSoC5/CapSense.c ****     #endif  /* CapSense_VREF_OPTIONS */
 599:Generated_Source\PSoC5/CapSense.c **** 
 600:Generated_Source\PSoC5/CapSense.c ****     #if (CapSense_VREF_VDAC == CapSense_VREF_OPTIONS)
 601:Generated_Source\PSoC5/CapSense.c ****         /* The Idac turn off before */
 602:Generated_Source\PSoC5/CapSense.c ****     #else
 603:Generated_Source\PSoC5/CapSense.c ****         /* Enable CapSense Buf */
 604:Generated_Source\PSoC5/CapSense.c ****         CapSense_BufCH0_CAPS_CFG0_REG &= (uint8)(~CapSense_CSBUF_ENABLE);
 605:Generated_Source\PSoC5/CapSense.c ****         CapSense_BufCH0_ACT_PWRMGR_REG &= (uint8)(~CapSense_BufCH0_ACT_PWR_EN);
 606:Generated_Source\PSoC5/CapSense.c ****         CapSense_BufCH0_STBY_PWRMGR_REG &= (uint8)(~CapSense_BufCH0_STBY_PWR_EN);
 607:Generated_Source\PSoC5/CapSense.c ****         
 608:Generated_Source\PSoC5/CapSense.c ****         #if (CapSense_DESIGN_TYPE == CapSense_TWO_CHANNELS_DESIGN)
 609:Generated_Source\PSoC5/CapSense.c ****             CapSense_BufCH1_CAPS_CFG0_REG &= (uint8)(~CapSense_CSBUF_ENABLE);
 610:Generated_Source\PSoC5/CapSense.c ****             CapSense_BufCH1_ACT_PWRMGR_REG &= (uint8)(~CapSense_BufCH1_ACT_PWR_EN);
 611:Generated_Source\PSoC5/CapSense.c ****             CapSense_BufCH1_STBY_PWRMGR_REG &= (uint8)(~CapSense_BufCH1_STBY_PWR_EN);
 612:Generated_Source\PSoC5/CapSense.c ****         #endif  /*(CapSense_DESIGN_TYPE == CapSense_TWO_CHANNELS_DESIGN) */
 613:Generated_Source\PSoC5/CapSense.c ****     #endif  /* (CapSense_VREF_VDAC == CapSense_VREF_OPTIONS) */
 614:Generated_Source\PSoC5/CapSense.c ****     
 615:Generated_Source\PSoC5/CapSense.c ****     /* Set CapSense Disable state */
 616:Generated_Source\PSoC5/CapSense.c ****     CapSense_CONTROL_REG &= (uint8)(~CapSense_CTRL_CAPSENSE_EN);
 617:Generated_Source\PSoC5/CapSense.c **** }
 618:Generated_Source\PSoC5/CapSense.c **** 
 619:Generated_Source\PSoC5/CapSense.c **** 
 620:Generated_Source\PSoC5/CapSense.c **** #if (CapSense_DESIGN_TYPE == CapSense_ONE_CHANNEL_DESIGN)
 621:Generated_Source\PSoC5/CapSense.c ****     /*******************************************************************************
 622:Generated_Source\PSoC5/CapSense.c ****     * Function Name: CapSense_FindNextSensor
 623:Generated_Source\PSoC5/CapSense.c ****     ********************************************************************************
 624:Generated_Source\PSoC5/CapSense.c ****     *
 625:Generated_Source\PSoC5/CapSense.c ****     * Summary:
 626:Generated_Source\PSoC5/CapSense.c ****     *  Finds next sensor to scan. 
 627:Generated_Source\PSoC5/CapSense.c ****     *
 628:Generated_Source\PSoC5/CapSense.c ****     * Parameters:
 629:Generated_Source\PSoC5/CapSense.c ****     *  snsIndex:  Current index of sensor.
 630:Generated_Source\PSoC5/CapSense.c ****     *
 631:Generated_Source\PSoC5/CapSense.c ****     * Return:
 632:Generated_Source\PSoC5/CapSense.c ****     *  Returns the next sensor index to scan.
 633:Generated_Source\PSoC5/CapSense.c ****     *
 634:Generated_Source\PSoC5/CapSense.c ****     * Global Variables:
 635:Generated_Source\PSoC5/CapSense.c ****     *  CapSense_sensorEnableMask[ ] - used to store bit masks of enabled 
 636:Generated_Source\PSoC5/CapSense.c ****     *  sensors.
 637:Generated_Source\PSoC5/CapSense.c ****     *  CapSense_sensorEnableMask[0] contains the masked bits for sensors 0
 638:Generated_Source\PSoC5/CapSense.c ****     *  through 7 (sensor 0 is bit 0, sensor 1 is bit 1).
ARM GAS  C:\Users\Tri94\AppData\Local\Temp\ccFfdnZv.s 			page 14


 639:Generated_Source\PSoC5/CapSense.c ****     *  CapSense_sensorEnableMask[1] contains the masked bits for sensors 
 640:Generated_Source\PSoC5/CapSense.c ****     *  8 through 15 (if needed), and so on.
 641:Generated_Source\PSoC5/CapSense.c ****     *    0 - sensor doesn't scan by CapSense_ScanEnabledWidgets().
 642:Generated_Source\PSoC5/CapSense.c ****     *    1 - sensor scans by CapSense_ScanEnabledWidgets().
 643:Generated_Source\PSoC5/CapSense.c ****     *
 644:Generated_Source\PSoC5/CapSense.c ****     * Note: 
 645:Generated_Source\PSoC5/CapSense.c ****     *  This function has effect on current scanning scanning and should not
 646:Generated_Source\PSoC5/CapSense.c ****     *  be used outisde of component.
 647:Generated_Source\PSoC5/CapSense.c ****     *
 648:Generated_Source\PSoC5/CapSense.c ****     *******************************************************************************/
 649:Generated_Source\PSoC5/CapSense.c ****     uint8 CapSense_FindNextSensor(uint8 snsIndex) CYREENTRANT
 650:Generated_Source\PSoC5/CapSense.c ****     {
 104              		.loc 1 650 0
 105              		.cfi_startproc
 106              		@ args = 0, pretend = 0, frame = 0
 107              		@ frame_needed = 0, uses_anonymous_args = 0
 108              		@ link register save eliminated.
 109              	.LVL7:
 110              	.L7:
 651:Generated_Source\PSoC5/CapSense.c ****         uint8 pos;
 652:Generated_Source\PSoC5/CapSense.c ****         uint8 enMask;
 653:Generated_Source\PSoC5/CapSense.c ****         
 654:Generated_Source\PSoC5/CapSense.c ****         /* Check if sensor enabled */
 655:Generated_Source\PSoC5/CapSense.c ****         do
 656:Generated_Source\PSoC5/CapSense.c ****         {
 657:Generated_Source\PSoC5/CapSense.c ****             /* Proceed with the next sensor */
 658:Generated_Source\PSoC5/CapSense.c ****             snsIndex++;
 111              		.loc 1 658 0
 112 0000 0130     		adds	r0, r0, #1
 113 0002 C0B2     		uxtb	r0, r0
 114              	.LVL8:
 659:Generated_Source\PSoC5/CapSense.c ****             if(snsIndex == CapSense_TOTAL_SENSOR_COUNT)
 115              		.loc 1 659 0
 116 0004 0128     		cmp	r0, #1
 117 0006 08D0     		beq	.L6
 660:Generated_Source\PSoC5/CapSense.c ****             {
 661:Generated_Source\PSoC5/CapSense.c ****                 break;
 662:Generated_Source\PSoC5/CapSense.c ****             }
 663:Generated_Source\PSoC5/CapSense.c ****             pos = (snsIndex >> 3u);
 118              		.loc 1 663 0
 119 0008 C208     		lsrs	r2, r0, #3
 664:Generated_Source\PSoC5/CapSense.c ****             enMask = 0x01u << (snsIndex & 0x07u);
 120              		.loc 1 664 0
 121 000a 00F00701 		and	r1, r0, #7
 122 000e 0123     		movs	r3, #1
 123 0010 8B40     		lsls	r3, r3, r1
 124              	.LVL9:
 665:Generated_Source\PSoC5/CapSense.c ****         }    
 666:Generated_Source\PSoC5/CapSense.c ****         while((CapSense_sensorEnableMask[pos] & enMask) == 0u);
 125              		.loc 1 666 0
 126 0012 0249     		ldr	r1, .L8
 127 0014 8A5C     		ldrb	r2, [r1, r2]	@ zero_extendqisi2
 128 0016 1342     		tst	r3, r2
 129 0018 F2D0     		beq	.L7
 130              	.LVL10:
 131              	.L6:
 667:Generated_Source\PSoC5/CapSense.c ****         
ARM GAS  C:\Users\Tri94\AppData\Local\Temp\ccFfdnZv.s 			page 15


 668:Generated_Source\PSoC5/CapSense.c ****         return snsIndex;
 669:Generated_Source\PSoC5/CapSense.c ****     }
 132              		.loc 1 669 0
 133 001a 7047     		bx	lr
 134              	.L9:
 135              		.align	2
 136              	.L8:
 137 001c 00000000 		.word	.LANCHOR0
 138              		.cfi_endproc
 139              	.LFE4:
 140              		.size	CapSense_FindNextSensor, .-CapSense_FindNextSensor
 141              		.section	.text.CapSense_IsBusy,"ax",%progbits
 142              		.align	2
 143              		.global	CapSense_IsBusy
 144              		.thumb
 145              		.thumb_func
 146              		.type	CapSense_IsBusy, %function
 147              	CapSense_IsBusy:
 148              	.LFB8:
 670:Generated_Source\PSoC5/CapSense.c ****  #endif  /* CapSense_DESIGN_TYPE == CapSense_ONE_CHANNEL_DESIGN */
 671:Generated_Source\PSoC5/CapSense.c ****  
 672:Generated_Source\PSoC5/CapSense.c ****  
 673:Generated_Source\PSoC5/CapSense.c **** #if (CapSense_DESIGN_TYPE == CapSense_TWO_CHANNELS_DESIGN)
 674:Generated_Source\PSoC5/CapSense.c ****     /*******************************************************************************
 675:Generated_Source\PSoC5/CapSense.c ****     * Function Name: CapSense_FindNextPair
 676:Generated_Source\PSoC5/CapSense.c ****     ********************************************************************************
 677:Generated_Source\PSoC5/CapSense.c ****     *
 678:Generated_Source\PSoC5/CapSense.c ****     * Summary:
 679:Generated_Source\PSoC5/CapSense.c ****     *  Finds next pair or sensor to scan. Sets condition bits to skip scanning.
 680:Generated_Source\PSoC5/CapSense.c ****     *  
 681:Generated_Source\PSoC5/CapSense.c ****     * Parameters:
 682:Generated_Source\PSoC5/CapSense.c ****     *  snsIndex:  Current index pair of sensors.
 683:Generated_Source\PSoC5/CapSense.c ****     *
 684:Generated_Source\PSoC5/CapSense.c ****     * Return:
 685:Generated_Source\PSoC5/CapSense.c ****     *  Returns the next pair of sensors index to scan.
 686:Generated_Source\PSoC5/CapSense.c ****     *
 687:Generated_Source\PSoC5/CapSense.c ****     * Global Variables:
 688:Generated_Source\PSoC5/CapSense.c ****     *  CapSense_sensorEnableMask[ ] - used to store bit masks of enabled 
 689:Generated_Source\PSoC5/CapSense.c ****     *  sensors.
 690:Generated_Source\PSoC5/CapSense.c ****     *  CapSense_sensorEnableMask[0] contains the masked bits for sensors 0
 691:Generated_Source\PSoC5/CapSense.c ****     *  through 7 (sensor 0 is bit 0, sensor 1 is bit 1).
 692:Generated_Source\PSoC5/CapSense.c ****     *  CapSense_sensorEnableMask[1] contains the masked bits for sensors 
 693:Generated_Source\PSoC5/CapSense.c ****     *  8 through 15 (if needed), and so on.
 694:Generated_Source\PSoC5/CapSense.c ****     *    0 - sensor doesn't scan by CapSense_ScanEnabledWidgets().
 695:Generated_Source\PSoC5/CapSense.c ****     *    1 - sensor scans by CapSense_ScanEnabledWidgets().
 696:Generated_Source\PSoC5/CapSense.c ****     *
 697:Generated_Source\PSoC5/CapSense.c ****     * Note: 
 698:Generated_Source\PSoC5/CapSense.c ****     *  This function has effect on control signals set for scanning and should not
 699:Generated_Source\PSoC5/CapSense.c ****     *  be used outisde of component.
 700:Generated_Source\PSoC5/CapSense.c ****     *
 701:Generated_Source\PSoC5/CapSense.c ****     *******************************************************************************/
 702:Generated_Source\PSoC5/CapSense.c ****     uint8 CapSense_FindNextPair(uint8 snsIndex) CYREENTRANT
 703:Generated_Source\PSoC5/CapSense.c ****     {
 704:Generated_Source\PSoC5/CapSense.c ****         uint8 posCh;
 705:Generated_Source\PSoC5/CapSense.c ****         uint8 enMaskCh;
 706:Generated_Source\PSoC5/CapSense.c ****         uint8 newRegValue;
 707:Generated_Source\PSoC5/CapSense.c ****         uint8 indexCh0 = snsIndex;
ARM GAS  C:\Users\Tri94\AppData\Local\Temp\ccFfdnZv.s 			page 16


 708:Generated_Source\PSoC5/CapSense.c ****         uint8 indexCh1 = snsIndex + CapSense_TOTAL_SENSOR_COUNT__CH0;
 709:Generated_Source\PSoC5/CapSense.c ****         
 710:Generated_Source\PSoC5/CapSense.c ****         /* Find enabled sensor on channel 0 */
 711:Generated_Source\PSoC5/CapSense.c ****         do
 712:Generated_Source\PSoC5/CapSense.c ****         {
 713:Generated_Source\PSoC5/CapSense.c ****             /* Procced the scanning */
 714:Generated_Source\PSoC5/CapSense.c ****             indexCh0++;
 715:Generated_Source\PSoC5/CapSense.c ****             if (indexCh0 >= CapSense_TOTAL_SENSOR_COUNT__CH0)
 716:Generated_Source\PSoC5/CapSense.c ****             {
 717:Generated_Source\PSoC5/CapSense.c ****                 /* Lets hadle now all from CH1 */
 718:Generated_Source\PSoC5/CapSense.c ****                 indexCh0 = CapSense_END_OF_SCAN__CH0;
 719:Generated_Source\PSoC5/CapSense.c ****                 break;
 720:Generated_Source\PSoC5/CapSense.c ****             }
 721:Generated_Source\PSoC5/CapSense.c ****             
 722:Generated_Source\PSoC5/CapSense.c ****             posCh = (indexCh0 >> 3u);
 723:Generated_Source\PSoC5/CapSense.c ****             enMaskCh = 0x01u << (indexCh0 & 0x07u);
 724:Generated_Source\PSoC5/CapSense.c ****         }
 725:Generated_Source\PSoC5/CapSense.c ****         while((CapSense_sensorEnableMask[posCh] & enMaskCh) == 0u);
 726:Generated_Source\PSoC5/CapSense.c ****         
 727:Generated_Source\PSoC5/CapSense.c ****         /* Find enabled sensor on channel 1 */
 728:Generated_Source\PSoC5/CapSense.c ****         do
 729:Generated_Source\PSoC5/CapSense.c ****         {
 730:Generated_Source\PSoC5/CapSense.c ****             /* Procced the scanning */
 731:Generated_Source\PSoC5/CapSense.c ****             indexCh1++;        
 732:Generated_Source\PSoC5/CapSense.c ****             if (indexCh1 >= CapSense_TOTAL_SENSOR_COUNT)
 733:Generated_Source\PSoC5/CapSense.c ****             {
 734:Generated_Source\PSoC5/CapSense.c ****                 /* Lets hadle now all from CH0 */
 735:Generated_Source\PSoC5/CapSense.c ****                 indexCh1 = CapSense_END_OF_SCAN__CH1;
 736:Generated_Source\PSoC5/CapSense.c ****                 break;
 737:Generated_Source\PSoC5/CapSense.c ****             }
 738:Generated_Source\PSoC5/CapSense.c ****             
 739:Generated_Source\PSoC5/CapSense.c ****             posCh = (indexCh1 >> 3u);
 740:Generated_Source\PSoC5/CapSense.c ****             enMaskCh = 0x01u << (indexCh1 & 0x07u);
 741:Generated_Source\PSoC5/CapSense.c ****         } 
 742:Generated_Source\PSoC5/CapSense.c ****         while((CapSense_sensorEnableMask[posCh] & enMaskCh) == 0u);
 743:Generated_Source\PSoC5/CapSense.c ****         
 744:Generated_Source\PSoC5/CapSense.c ****         indexCh1 -= CapSense_TOTAL_SENSOR_COUNT__CH0;
 745:Generated_Source\PSoC5/CapSense.c ****         
 746:Generated_Source\PSoC5/CapSense.c ****         /* Find the pair to scan */
 747:Generated_Source\PSoC5/CapSense.c ****         if(indexCh0 == indexCh1)
 748:Generated_Source\PSoC5/CapSense.c ****         {
 749:Generated_Source\PSoC5/CapSense.c ****             /* Scans TWO Channels */
 750:Generated_Source\PSoC5/CapSense.c ****             snsIndex = indexCh0;
 751:Generated_Source\PSoC5/CapSense.c ****             
 752:Generated_Source\PSoC5/CapSense.c ****             CapSense_CONTROL_REG |= (CapSense_CTRL_WINDOW_EN__CH0 | 
 753:Generated_Source\PSoC5/CapSense.c ****                                              CapSense_CTRL_WINDOW_EN__CH1);
 754:Generated_Source\PSoC5/CapSense.c ****         }
 755:Generated_Source\PSoC5/CapSense.c ****         else if(indexCh0 < indexCh1)
 756:Generated_Source\PSoC5/CapSense.c ****         {
 757:Generated_Source\PSoC5/CapSense.c ****            /* Scans Channel ONE only */
 758:Generated_Source\PSoC5/CapSense.c ****            snsIndex = indexCh0;
 759:Generated_Source\PSoC5/CapSense.c ****            
 760:Generated_Source\PSoC5/CapSense.c ****             newRegValue = CapSense_CONTROL_REG;
 761:Generated_Source\PSoC5/CapSense.c ****             newRegValue |= CapSense_CTRL_WINDOW_EN__CH0;
 762:Generated_Source\PSoC5/CapSense.c ****             newRegValue &= ~CapSense_CTRL_WINDOW_EN__CH1;
 763:Generated_Source\PSoC5/CapSense.c ****             CapSense_CONTROL_REG = newRegValue;
 764:Generated_Source\PSoC5/CapSense.c ****         }
ARM GAS  C:\Users\Tri94\AppData\Local\Temp\ccFfdnZv.s 			page 17


 765:Generated_Source\PSoC5/CapSense.c ****         else
 766:Generated_Source\PSoC5/CapSense.c ****         {
 767:Generated_Source\PSoC5/CapSense.c ****             /* Scans Channel TWO only */
 768:Generated_Source\PSoC5/CapSense.c ****             snsIndex = indexCh1;
 769:Generated_Source\PSoC5/CapSense.c ****             
 770:Generated_Source\PSoC5/CapSense.c ****             newRegValue = CapSense_CONTROL_REG;
 771:Generated_Source\PSoC5/CapSense.c ****             newRegValue |= CapSense_CTRL_WINDOW_EN__CH1;
 772:Generated_Source\PSoC5/CapSense.c ****             newRegValue &= ~CapSense_CTRL_WINDOW_EN__CH0;
 773:Generated_Source\PSoC5/CapSense.c ****             CapSense_CONTROL_REG = newRegValue;
 774:Generated_Source\PSoC5/CapSense.c ****         }
 775:Generated_Source\PSoC5/CapSense.c ****         
 776:Generated_Source\PSoC5/CapSense.c ****         return (snsIndex);
 777:Generated_Source\PSoC5/CapSense.c ****     }
 778:Generated_Source\PSoC5/CapSense.c **** #endif  /* CapSense_DESIGN_TYPE == CapSense_TWO_CHANNELS_DESIGN */
 779:Generated_Source\PSoC5/CapSense.c **** 
 780:Generated_Source\PSoC5/CapSense.c **** 
 781:Generated_Source\PSoC5/CapSense.c **** /*******************************************************************************
 782:Generated_Source\PSoC5/CapSense.c **** * Function Name: CapSense_SetScanSlotSettings
 783:Generated_Source\PSoC5/CapSense.c **** ********************************************************************************
 784:Generated_Source\PSoC5/CapSense.c **** *
 785:Generated_Source\PSoC5/CapSense.c **** * Summary:
 786:Generated_Source\PSoC5/CapSense.c **** *  Sets the scan settings of the selected scan slot (sensor or pair of sensors). 
 787:Generated_Source\PSoC5/CapSense.c **** *  The scan settings incorporate IDAC value (for IDAC configurations) for every 
 788:Generated_Source\PSoC5/CapSense.c **** *  sensor and resolution. The resolution is the same for all sensors within 
 789:Generated_Source\PSoC5/CapSense.c **** *  widget.
 790:Generated_Source\PSoC5/CapSense.c **** *
 791:Generated_Source\PSoC5/CapSense.c **** * Parameters:
 792:Generated_Source\PSoC5/CapSense.c **** *  slot:  Scan slot number (sensor or pair of sensors).
 793:Generated_Source\PSoC5/CapSense.c **** *
 794:Generated_Source\PSoC5/CapSense.c **** * Return:
 795:Generated_Source\PSoC5/CapSense.c **** *  None
 796:Generated_Source\PSoC5/CapSense.c **** *
 797:Generated_Source\PSoC5/CapSense.c **** * Global Variables:
 798:Generated_Source\PSoC5/CapSense.c **** *  CapSense_idacSettings[] - used to store idac value for every sensor.
 799:Generated_Source\PSoC5/CapSense.c **** *  CapSense_widgetResolution[] - used to store scan resolution of every 
 800:Generated_Source\PSoC5/CapSense.c **** *  widget.
 801:Generated_Source\PSoC5/CapSense.c **** *
 802:Generated_Source\PSoC5/CapSense.c **** *******************************************************************************/
 803:Generated_Source\PSoC5/CapSense.c **** void CapSense_SetScanSlotSettings(uint8 slot) CYREENTRANT
 804:Generated_Source\PSoC5/CapSense.c **** {
 805:Generated_Source\PSoC5/CapSense.c ****     uint8 widget;
 806:Generated_Source\PSoC5/CapSense.c ****     
 807:Generated_Source\PSoC5/CapSense.c ****     #if (CapSense_DESIGN_TYPE == CapSense_ONE_CHANNEL_DESIGN)
 808:Generated_Source\PSoC5/CapSense.c ****         /* Define widget sensor belongs to */
 809:Generated_Source\PSoC5/CapSense.c ****         widget = CapSense_widgetNumber[slot];
 810:Generated_Source\PSoC5/CapSense.c ****         
 811:Generated_Source\PSoC5/CapSense.c ****         /* Set Idac Value */
 812:Generated_Source\PSoC5/CapSense.c ****         #if (CapSense_CURRENT_SOURCE)
 813:Generated_Source\PSoC5/CapSense.c ****             CapSense_IdacCH0_SetValue(CapSense_idacSettings[slot]);
 814:Generated_Source\PSoC5/CapSense.c ****         #endif  /* CapSense_CURRENT_SOURCE */
 815:Generated_Source\PSoC5/CapSense.c ****         
 816:Generated_Source\PSoC5/CapSense.c ****         /* Window PWM */
 817:Generated_Source\PSoC5/CapSense.c ****         #if (CapSense_IMPLEMENTATION_CH0 == CapSense_MEASURE_IMPLEMENTATION_FF)
 818:Generated_Source\PSoC5/CapSense.c ****             CY_SET_REG16(CapSense_PWM_CH0_PERIOD_PTR,
 819:Generated_Source\PSoC5/CapSense.c ****                 ((uint16) CapSense_widgetResolution[widget] << 8u) | CapSense_MEASURE_FULL_RANGE_LO
 820:Generated_Source\PSoC5/CapSense.c ****         #else
 821:Generated_Source\PSoC5/CapSense.c ****             CapSense_PWM_CH0_PERIOD_HI_REG = CapSense_widgetResolution[widget];
ARM GAS  C:\Users\Tri94\AppData\Local\Temp\ccFfdnZv.s 			page 18


 822:Generated_Source\PSoC5/CapSense.c ****         #endif  /* (CapSense_IMPLEMENTATION_CH0 == CapSense_MEASURE_IMPLEMENTATION_FF) */ 
 823:Generated_Source\PSoC5/CapSense.c **** 
 824:Generated_Source\PSoC5/CapSense.c ****         #if ( (CapSense_MULTIPLE_PRESCALER_ENABLED) || \
 825:Generated_Source\PSoC5/CapSense.c ****               (CapSense_TUNING_METHOD == CapSense_AUTO_TUNING) )
 826:Generated_Source\PSoC5/CapSense.c ****             CapSense_SetPrescaler(CapSense_analogSwitchDivider[slot]);
 827:Generated_Source\PSoC5/CapSense.c ****         #elif (CapSense_PRESCALER_OPTIONS)
 828:Generated_Source\PSoC5/CapSense.c ****             CapSense_SetPrescaler(CapSense_analogSwitchDivider);
 829:Generated_Source\PSoC5/CapSense.c ****         #endif /* ((CapSense_MULTIPLE_PRESCALER_ENABLED) || \
 830:Generated_Source\PSoC5/CapSense.c ****                *   (CapSense_TUNING_METHOD == CapSense_AUTO_TUNING))
 831:Generated_Source\PSoC5/CapSense.c ****                */
 832:Generated_Source\PSoC5/CapSense.c **** 
 833:Generated_Source\PSoC5/CapSense.c ****     #else
 834:Generated_Source\PSoC5/CapSense.c ****         if(slot < CapSense_TOTAL_SENSOR_COUNT__CH0)
 835:Generated_Source\PSoC5/CapSense.c ****         {
 836:Generated_Source\PSoC5/CapSense.c ****             /* Define widget sensor belongs to */
 837:Generated_Source\PSoC5/CapSense.c ****             widget = CapSense_widgetNumber[slot];
 838:Generated_Source\PSoC5/CapSense.c ****             
 839:Generated_Source\PSoC5/CapSense.c ****             /* Set Idac Value */
 840:Generated_Source\PSoC5/CapSense.c ****             #if (CapSense_CURRENT_SOURCE)
 841:Generated_Source\PSoC5/CapSense.c ****                 CapSense_IdacCH0_SetValue(CapSense_idacSettings[slot]);
 842:Generated_Source\PSoC5/CapSense.c ****             #endif  /* CapSense_CURRENT_SOURCE */
 843:Generated_Source\PSoC5/CapSense.c ****             
 844:Generated_Source\PSoC5/CapSense.c ****             /* Set Pwm Resolution */
 845:Generated_Source\PSoC5/CapSense.c ****             #if (CapSense_IMPLEMENTATION_CH0 == CapSense_MEASURE_IMPLEMENTATION_FF)
 846:Generated_Source\PSoC5/CapSense.c ****                 CY_SET_REG16(CapSense_PWM_CH0_PERIOD_PTR,
 847:Generated_Source\PSoC5/CapSense.c ****                   ((uint16) CapSense_widgetResolution[widget] << 8u) | CapSense_MEASURE_FULL_RANGE_
 848:Generated_Source\PSoC5/CapSense.c ****             #else
 849:Generated_Source\PSoC5/CapSense.c ****                 CapSense_PWM_CH0_PERIOD_HI_REG = CapSense_widgetResolution[widget];
 850:Generated_Source\PSoC5/CapSense.c ****             #endif  /* (CapSense_IMPLEMENTATION_CH0 == CapSense_MEASURE_IMPLEMENTATION_FF)*/ 
 851:Generated_Source\PSoC5/CapSense.c ****         }
 852:Generated_Source\PSoC5/CapSense.c ****         
 853:Generated_Source\PSoC5/CapSense.c ****         if(slot < CapSense_TOTAL_SENSOR_COUNT__CH1)
 854:Generated_Source\PSoC5/CapSense.c ****         {
 855:Generated_Source\PSoC5/CapSense.c ****             widget = CapSense_widgetNumber[slot+CapSense_TOTAL_SENSOR_COUNT__CH0];
 856:Generated_Source\PSoC5/CapSense.c ****         
 857:Generated_Source\PSoC5/CapSense.c ****             /* Set Idac Value */
 858:Generated_Source\PSoC5/CapSense.c ****             #if (CapSense_CURRENT_SOURCE)
 859:Generated_Source\PSoC5/CapSense.c ****                 CapSense_IdacCH1_SetValue(CapSense_idacSettings[slot+
 860:Generated_Source\PSoC5/CapSense.c ****                                                                              CapSense_TOTAL_SENSOR_
 861:Generated_Source\PSoC5/CapSense.c ****             #endif  /* CapSense_CURRENT_SOURCE */
 862:Generated_Source\PSoC5/CapSense.c ****             
 863:Generated_Source\PSoC5/CapSense.c ****             /* Set Pwm Resolution */
 864:Generated_Source\PSoC5/CapSense.c ****             #if (CapSense_IMPLEMENTATION_CH1 == CapSense_MEASURE_IMPLEMENTATION_FF)
 865:Generated_Source\PSoC5/CapSense.c ****                 CY_SET_REG16(CapSense_PWM_CH1_PERIOD_PTR,
 866:Generated_Source\PSoC5/CapSense.c ****                   ((uint16) CapSense_widgetResolution[widget] << 8u) | CapSense_MEASURE_FULL_RANGE_
 867:Generated_Source\PSoC5/CapSense.c ****             #else
 868:Generated_Source\PSoC5/CapSense.c ****                 CapSense_PWM_CH1_PERIOD_HI_REG = CapSense_widgetResolution[widget];
 869:Generated_Source\PSoC5/CapSense.c ****             #endif  /* (CapSense_IMPLEMENTATION_CH1 == CapSense_MEASURE_IMPLEMENTATION_FF)*/ 
 870:Generated_Source\PSoC5/CapSense.c ****         }
 871:Generated_Source\PSoC5/CapSense.c **** 
 872:Generated_Source\PSoC5/CapSense.c ****         #if ( (CapSense_MULTIPLE_PRESCALER_ENABLED) || \
 873:Generated_Source\PSoC5/CapSense.c ****               (CapSense_TUNING_METHOD == CapSense_AUTO_TUNING) )
 874:Generated_Source\PSoC5/CapSense.c ****             CapSense_SetPrescaler(CapSense_analogSwitchDivider[slot]);
 875:Generated_Source\PSoC5/CapSense.c ****         #elif (CapSense_PRESCALER_OPTIONS)
 876:Generated_Source\PSoC5/CapSense.c ****             CapSense_SetPrescaler(CapSense_analogSwitchDivider);
 877:Generated_Source\PSoC5/CapSense.c ****         #endif /* ((CapSense_MULTIPLE_PRESCALER_ENABLED) || \
 878:Generated_Source\PSoC5/CapSense.c ****                *   (CapSense_TUNING_METHOD == CapSense_AUTO_TUNING))
ARM GAS  C:\Users\Tri94\AppData\Local\Temp\ccFfdnZv.s 			page 19


 879:Generated_Source\PSoC5/CapSense.c ****                */
 880:Generated_Source\PSoC5/CapSense.c **** 
 881:Generated_Source\PSoC5/CapSense.c ****     #endif  /* CapSense_DESIGN_TYPE */
 882:Generated_Source\PSoC5/CapSense.c **** }
 883:Generated_Source\PSoC5/CapSense.c **** 
 884:Generated_Source\PSoC5/CapSense.c **** 
 885:Generated_Source\PSoC5/CapSense.c **** /*******************************************************************************
 886:Generated_Source\PSoC5/CapSense.c **** * Function Name: CapSense_ScanSensor
 887:Generated_Source\PSoC5/CapSense.c **** ********************************************************************************
 888:Generated_Source\PSoC5/CapSense.c **** *
 889:Generated_Source\PSoC5/CapSense.c **** * Summary:
 890:Generated_Source\PSoC5/CapSense.c **** *  Sets scan settings and starts scanning a sensor or pair of combined sensors
 891:Generated_Source\PSoC5/CapSense.c **** *  on each channel. If two channels are configured, two sensors may be scanned 
 892:Generated_Source\PSoC5/CapSense.c **** *  at the same time. After scanning is complete the isr copies the measured 
 893:Generated_Source\PSoC5/CapSense.c **** *  sensor raw data to the global array. Use of the isr ensures this function 
 894:Generated_Source\PSoC5/CapSense.c **** *  is non-blocking. Each sensor has a unique number within the sensor array. 
 895:Generated_Source\PSoC5/CapSense.c **** *  This number is assigned by the CapSense customizer in sequence.
 896:Generated_Source\PSoC5/CapSense.c **** *
 897:Generated_Source\PSoC5/CapSense.c **** * Parameters:
 898:Generated_Source\PSoC5/CapSense.c **** *  sensor:  Sensor number.
 899:Generated_Source\PSoC5/CapSense.c **** *
 900:Generated_Source\PSoC5/CapSense.c **** * Return:
 901:Generated_Source\PSoC5/CapSense.c **** *  None
 902:Generated_Source\PSoC5/CapSense.c **** *
 903:Generated_Source\PSoC5/CapSense.c **** * Global Variables:
 904:Generated_Source\PSoC5/CapSense.c **** *  CapSense_csv - used to provide status and mode of scanning process. 
 905:Generated_Source\PSoC5/CapSense.c **** *  Sets busy status(scan in progress) and mode of scan as single scan.
 906:Generated_Source\PSoC5/CapSense.c **** *  For two channel design the additional bits are set to define if scan a 
 907:Generated_Source\PSoC5/CapSense.c **** *  pair of sensors or single one.
 908:Generated_Source\PSoC5/CapSense.c **** *  CapSense_sensorIndex - used to store sensor scanning sensor number.
 909:Generated_Source\PSoC5/CapSense.c **** *  Sets to provided sensor argument.
 910:Generated_Source\PSoC5/CapSense.c **** *
 911:Generated_Source\PSoC5/CapSense.c **** * Reentrant:
 912:Generated_Source\PSoC5/CapSense.c **** *  No
 913:Generated_Source\PSoC5/CapSense.c **** *
 914:Generated_Source\PSoC5/CapSense.c **** *******************************************************************************/
 915:Generated_Source\PSoC5/CapSense.c **** void CapSense_ScanSensor(uint8 sensor)  
 916:Generated_Source\PSoC5/CapSense.c **** {
 917:Generated_Source\PSoC5/CapSense.c ****     /* Clears status/control variable and set sensorIndex */
 918:Generated_Source\PSoC5/CapSense.c ****     CapSense_csv = 0u;
 919:Generated_Source\PSoC5/CapSense.c ****     CapSense_sensorIndex = sensor;
 920:Generated_Source\PSoC5/CapSense.c ****     
 921:Generated_Source\PSoC5/CapSense.c ****     #if (CapSense_DESIGN_TYPE == CapSense_ONE_CHANNEL_DESIGN)
 922:Generated_Source\PSoC5/CapSense.c ****         /* Start of sensor scan */
 923:Generated_Source\PSoC5/CapSense.c ****         CapSense_csv = (CapSense_SW_STS_BUSY | CapSense_SW_CTRL_SINGLE_SCAN);
 924:Generated_Source\PSoC5/CapSense.c ****         CapSense_PreScan(sensor);
 925:Generated_Source\PSoC5/CapSense.c ****         
 926:Generated_Source\PSoC5/CapSense.c ****     #else
 927:Generated_Source\PSoC5/CapSense.c ****         /* CH0: check end of scan conditions */
 928:Generated_Source\PSoC5/CapSense.c ****         if(sensor < CapSense_TOTAL_SENSOR_COUNT__CH0)
 929:Generated_Source\PSoC5/CapSense.c ****         {
 930:Generated_Source\PSoC5/CapSense.c ****             CapSense_CONTROL_REG |= CapSense_CTRL_WINDOW_EN__CH0;
 931:Generated_Source\PSoC5/CapSense.c ****         }
 932:Generated_Source\PSoC5/CapSense.c ****         else
 933:Generated_Source\PSoC5/CapSense.c ****         {
 934:Generated_Source\PSoC5/CapSense.c ****             CapSense_CONTROL_REG &= ~CapSense_CTRL_WINDOW_EN__CH0;
 935:Generated_Source\PSoC5/CapSense.c ****         }
ARM GAS  C:\Users\Tri94\AppData\Local\Temp\ccFfdnZv.s 			page 20


 936:Generated_Source\PSoC5/CapSense.c ****         
 937:Generated_Source\PSoC5/CapSense.c ****         /* CH1: check end of scan conditions */
 938:Generated_Source\PSoC5/CapSense.c ****         if(sensor < CapSense_TOTAL_SENSOR_COUNT__CH1)
 939:Generated_Source\PSoC5/CapSense.c ****         {
 940:Generated_Source\PSoC5/CapSense.c ****             CapSense_CONTROL_REG |= CapSense_CTRL_WINDOW_EN__CH1;
 941:Generated_Source\PSoC5/CapSense.c ****         }
 942:Generated_Source\PSoC5/CapSense.c ****         else
 943:Generated_Source\PSoC5/CapSense.c ****         {
 944:Generated_Source\PSoC5/CapSense.c ****             CapSense_CONTROL_REG &= ~CapSense_CTRL_WINDOW_EN__CH1;
 945:Generated_Source\PSoC5/CapSense.c ****         }
 946:Generated_Source\PSoC5/CapSense.c ****         
 947:Generated_Source\PSoC5/CapSense.c ****         /* Start sensor scan */
 948:Generated_Source\PSoC5/CapSense.c ****         if( ((CapSense_CONTROL_REG & CapSense_CTRL_WINDOW_EN__CH0) != 0u) || 
 949:Generated_Source\PSoC5/CapSense.c ****             ((CapSense_CONTROL_REG & CapSense_CTRL_WINDOW_EN__CH1) != 0u) )
 950:Generated_Source\PSoC5/CapSense.c ****         {
 951:Generated_Source\PSoC5/CapSense.c ****         
 952:Generated_Source\PSoC5/CapSense.c ****             CapSense_csv |= (CapSense_SW_STS_BUSY | CapSense_SW_CTRL_SINGLE_SCAN);
 953:Generated_Source\PSoC5/CapSense.c ****             CapSense_PreScan(sensor);
 954:Generated_Source\PSoC5/CapSense.c ****         }
 955:Generated_Source\PSoC5/CapSense.c ****         
 956:Generated_Source\PSoC5/CapSense.c ****     #endif  /* CapSense_DESIGN_TYPE */
 957:Generated_Source\PSoC5/CapSense.c **** }
 958:Generated_Source\PSoC5/CapSense.c **** 
 959:Generated_Source\PSoC5/CapSense.c **** 
 960:Generated_Source\PSoC5/CapSense.c **** /*******************************************************************************
 961:Generated_Source\PSoC5/CapSense.c **** * Function Name: CapSense_ScanEnableWidgets
 962:Generated_Source\PSoC5/CapSense.c **** ********************************************************************************
 963:Generated_Source\PSoC5/CapSense.c **** *
 964:Generated_Source\PSoC5/CapSense.c **** * Summary:
 965:Generated_Source\PSoC5/CapSense.c **** *  Scans all of the enabled widgets. Starts scanning a sensor or pair of sensors 
 966:Generated_Source\PSoC5/CapSense.c **** *  within enabled widget. The isr proceeding scanning next sensor or pair till 
 967:Generated_Source\PSoC5/CapSense.c **** *  all enabled widgets will be scanned. Use of the isr ensures this function is 
 968:Generated_Source\PSoC5/CapSense.c **** *  non-blocking. All widgets are enabled by default except proximity widgets. 
 969:Generated_Source\PSoC5/CapSense.c **** *  Proximity widgets must be manually enabled as their long scan time is 
 970:Generated_Source\PSoC5/CapSense.c **** *  incompatible with fast response desired of other widget types.
 971:Generated_Source\PSoC5/CapSense.c **** *
 972:Generated_Source\PSoC5/CapSense.c **** * Parameters:
 973:Generated_Source\PSoC5/CapSense.c **** *  None
 974:Generated_Source\PSoC5/CapSense.c **** *
 975:Generated_Source\PSoC5/CapSense.c **** * Return:
 976:Generated_Source\PSoC5/CapSense.c **** *  None
 977:Generated_Source\PSoC5/CapSense.c **** *
 978:Generated_Source\PSoC5/CapSense.c **** * Global Variables:
 979:Generated_Source\PSoC5/CapSense.c **** *  CapSense_csv - used to provide status and mode of scanning process. 
 980:Generated_Source\PSoC5/CapSense.c **** *  Sets busy status(scan in progress) and clears single scan mode.
 981:Generated_Source\PSoC5/CapSense.c **** *  For two channel design the additional bits are set to define if scan a 
 982:Generated_Source\PSoC5/CapSense.c **** *  pair of sensors or single one. 
 983:Generated_Source\PSoC5/CapSense.c **** *  CapSense_sensorIndex - used to store sensor scanning sensor number.
 984:Generated_Source\PSoC5/CapSense.c **** *  Sets to 0xFF and provided to function CapSense_FindNextSensor or
 985:Generated_Source\PSoC5/CapSense.c **** *  CapSense_FindNextPair, these functions starts with sensor index
 986:Generated_Source\PSoC5/CapSense.c **** *  increment and overflow of uint8 gives desired index 0.
 987:Generated_Source\PSoC5/CapSense.c **** *
 988:Generated_Source\PSoC5/CapSense.c **** * Reentrant:
 989:Generated_Source\PSoC5/CapSense.c **** *  No
 990:Generated_Source\PSoC5/CapSense.c **** *
 991:Generated_Source\PSoC5/CapSense.c **** *******************************************************************************/
 992:Generated_Source\PSoC5/CapSense.c **** void CapSense_ScanEnabledWidgets(void) 
ARM GAS  C:\Users\Tri94\AppData\Local\Temp\ccFfdnZv.s 			page 21


 993:Generated_Source\PSoC5/CapSense.c **** {
 994:Generated_Source\PSoC5/CapSense.c ****     /* Clears status/control variable and set sensorIndex */
 995:Generated_Source\PSoC5/CapSense.c ****     CapSense_csv = 0u;
 996:Generated_Source\PSoC5/CapSense.c ****     CapSense_sensorIndex = 0xFFu;
 997:Generated_Source\PSoC5/CapSense.c ****     
 998:Generated_Source\PSoC5/CapSense.c ****     #if (CapSense_DESIGN_TYPE == CapSense_ONE_CHANNEL_DESIGN)
 999:Generated_Source\PSoC5/CapSense.c ****         /* Find next sensor */
1000:Generated_Source\PSoC5/CapSense.c ****         CapSense_sensorIndex = CapSense_FindNextSensor(CapSense_sensorIndex);
1001:Generated_Source\PSoC5/CapSense.c **** 
1002:Generated_Source\PSoC5/CapSense.c ****         /* Check end of scan condition */
1003:Generated_Source\PSoC5/CapSense.c ****         if(CapSense_sensorIndex < CapSense_TOTAL_SENSOR_COUNT)
1004:Generated_Source\PSoC5/CapSense.c ****         {
1005:Generated_Source\PSoC5/CapSense.c ****             CapSense_csv |= CapSense_SW_STS_BUSY;
1006:Generated_Source\PSoC5/CapSense.c ****             CapSense_PreScan(CapSense_sensorIndex);
1007:Generated_Source\PSoC5/CapSense.c ****         }
1008:Generated_Source\PSoC5/CapSense.c ****         
1009:Generated_Source\PSoC5/CapSense.c ****     #else
1010:Generated_Source\PSoC5/CapSense.c ****         /* Find next sensor and set proper control register */
1011:Generated_Source\PSoC5/CapSense.c ****         CapSense_sensorIndex = CapSense_FindNextPair(CapSense_sensorIndex);
1012:Generated_Source\PSoC5/CapSense.c ****         
1013:Generated_Source\PSoC5/CapSense.c ****         /* Start sensor scan */
1014:Generated_Source\PSoC5/CapSense.c ****         if((CapSense_sensorIndex < CapSense_TOTAL_SENSOR_COUNT__CH0) || 
1015:Generated_Source\PSoC5/CapSense.c ****            (CapSense_sensorIndex < CapSense_TOTAL_SENSOR_COUNT__CH1))
1016:Generated_Source\PSoC5/CapSense.c ****         {
1017:Generated_Source\PSoC5/CapSense.c ****             CapSense_csv |= CapSense_SW_STS_BUSY;
1018:Generated_Source\PSoC5/CapSense.c ****             CapSense_PreScan(CapSense_sensorIndex);
1019:Generated_Source\PSoC5/CapSense.c ****         }
1020:Generated_Source\PSoC5/CapSense.c ****         
1021:Generated_Source\PSoC5/CapSense.c ****     #endif  /* CapSense_DESIGN_TYPE */
1022:Generated_Source\PSoC5/CapSense.c **** }
1023:Generated_Source\PSoC5/CapSense.c **** 
1024:Generated_Source\PSoC5/CapSense.c **** 
1025:Generated_Source\PSoC5/CapSense.c **** /*******************************************************************************
1026:Generated_Source\PSoC5/CapSense.c **** * Function Name: CapSense_IsBusy
1027:Generated_Source\PSoC5/CapSense.c **** ********************************************************************************
1028:Generated_Source\PSoC5/CapSense.c **** *
1029:Generated_Source\PSoC5/CapSense.c **** * Summary:
1030:Generated_Source\PSoC5/CapSense.c **** *  Returns the state of CapSense component. The 1 means that scanning in 
1031:Generated_Source\PSoC5/CapSense.c **** *  progress and 0 means that scanning is complete.
1032:Generated_Source\PSoC5/CapSense.c **** *
1033:Generated_Source\PSoC5/CapSense.c **** * Parameters:
1034:Generated_Source\PSoC5/CapSense.c **** *  None
1035:Generated_Source\PSoC5/CapSense.c **** *
1036:Generated_Source\PSoC5/CapSense.c **** * Return:
1037:Generated_Source\PSoC5/CapSense.c **** *  Returns the state of scanning. 1 - scanning in progress, 0 - scanning 
1038:Generated_Source\PSoC5/CapSense.c **** *  completed.
1039:Generated_Source\PSoC5/CapSense.c **** *
1040:Generated_Source\PSoC5/CapSense.c **** * Global Variables:
1041:Generated_Source\PSoC5/CapSense.c **** *  CapSense_csv - used to provide status and mode of scanning process. 
1042:Generated_Source\PSoC5/CapSense.c **** *  Checks the busy status.
1043:Generated_Source\PSoC5/CapSense.c **** *
1044:Generated_Source\PSoC5/CapSense.c **** *******************************************************************************/
1045:Generated_Source\PSoC5/CapSense.c **** uint8 CapSense_IsBusy(void) 
1046:Generated_Source\PSoC5/CapSense.c **** {
 149              		.loc 1 1046 0
 150              		.cfi_startproc
 151              		@ args = 0, pretend = 0, frame = 0
ARM GAS  C:\Users\Tri94\AppData\Local\Temp\ccFfdnZv.s 			page 22


 152              		@ frame_needed = 0, uses_anonymous_args = 0
 153              		@ link register save eliminated.
1047:Generated_Source\PSoC5/CapSense.c ****     return ((0u != (CapSense_csv & CapSense_SW_STS_BUSY)) ? 1u : 0u);
 154              		.loc 1 1047 0
 155 0000 024B     		ldr	r3, .L11
 156 0002 1878     		ldrb	r0, [r3]	@ zero_extendqisi2
1048:Generated_Source\PSoC5/CapSense.c **** }
 157              		.loc 1 1048 0
 158 0004 00F00100 		and	r0, r0, #1
 159 0008 7047     		bx	lr
 160              	.L12:
 161 000a 00BF     		.align	2
 162              	.L11:
 163 000c 00000000 		.word	CapSense_csv
 164              		.cfi_endproc
 165              	.LFE8:
 166              		.size	CapSense_IsBusy, .-CapSense_IsBusy
 167              		.section	.text.CapSense_ReadSensorRaw,"ax",%progbits
 168              		.align	2
 169              		.global	CapSense_ReadSensorRaw
 170              		.thumb
 171              		.thumb_func
 172              		.type	CapSense_ReadSensorRaw, %function
 173              	CapSense_ReadSensorRaw:
 174              	.LFB9:
1049:Generated_Source\PSoC5/CapSense.c **** 
1050:Generated_Source\PSoC5/CapSense.c **** 
1051:Generated_Source\PSoC5/CapSense.c **** /*******************************************************************************
1052:Generated_Source\PSoC5/CapSense.c **** * Function Name: CapSense_ReadSensorRaw
1053:Generated_Source\PSoC5/CapSense.c **** ********************************************************************************
1054:Generated_Source\PSoC5/CapSense.c **** *
1055:Generated_Source\PSoC5/CapSense.c **** * Summary:
1056:Generated_Source\PSoC5/CapSense.c **** *  Returns scan sensor raw data from the CapSense_sensorRaw[] array. 
1057:Generated_Source\PSoC5/CapSense.c **** *  Each scan sensor has a unique number within the sensor array. This number 
1058:Generated_Source\PSoC5/CapSense.c **** *  is assigned by the CapSense customizer in sequence.
1059:Generated_Source\PSoC5/CapSense.c **** *
1060:Generated_Source\PSoC5/CapSense.c **** * Parameters:
1061:Generated_Source\PSoC5/CapSense.c **** *  sensor:  Sensor number.
1062:Generated_Source\PSoC5/CapSense.c **** *
1063:Generated_Source\PSoC5/CapSense.c **** * Return:
1064:Generated_Source\PSoC5/CapSense.c **** *  Returns current raw data value for defined sensor number.
1065:Generated_Source\PSoC5/CapSense.c **** *
1066:Generated_Source\PSoC5/CapSense.c **** * Global Variables:
1067:Generated_Source\PSoC5/CapSense.c **** *  CapSense_sensorRaw[] - used to store sensors raw data.
1068:Generated_Source\PSoC5/CapSense.c **** *
1069:Generated_Source\PSoC5/CapSense.c **** *******************************************************************************/
1070:Generated_Source\PSoC5/CapSense.c **** uint16 CapSense_ReadSensorRaw(uint8 sensor) 
1071:Generated_Source\PSoC5/CapSense.c **** {
 175              		.loc 1 1071 0
 176              		.cfi_startproc
 177              		@ args = 0, pretend = 0, frame = 0
 178              		@ frame_needed = 0, uses_anonymous_args = 0
 179              		@ link register save eliminated.
 180              	.LVL11:
1072:Generated_Source\PSoC5/CapSense.c ****     return (CapSense_sensorRaw[sensor]);
1073:Generated_Source\PSoC5/CapSense.c **** }
 181              		.loc 1 1073 0
ARM GAS  C:\Users\Tri94\AppData\Local\Temp\ccFfdnZv.s 			page 23


 182 0000 014B     		ldr	r3, .L14
 183 0002 33F81000 		ldrh	r0, [r3, r0, lsl #1]
 184              	.LVL12:
 185 0006 7047     		bx	lr
 186              	.L15:
 187              		.align	2
 188              	.L14:
 189 0008 00000000 		.word	CapSense_sensorRaw
 190              		.cfi_endproc
 191              	.LFE9:
 192              		.size	CapSense_ReadSensorRaw, .-CapSense_ReadSensorRaw
 193              		.section	.text.CapSense_EnableSensor,"ax",%progbits
 194              		.align	2
 195              		.global	CapSense_EnableSensor
 196              		.thumb
 197              		.thumb_func
 198              		.type	CapSense_EnableSensor, %function
 199              	CapSense_EnableSensor:
 200              	.LFB11:
1074:Generated_Source\PSoC5/CapSense.c **** 
1075:Generated_Source\PSoC5/CapSense.c **** 
1076:Generated_Source\PSoC5/CapSense.c **** /*******************************************************************************
1077:Generated_Source\PSoC5/CapSense.c **** * Function Name: CapSense_ClearSensors
1078:Generated_Source\PSoC5/CapSense.c **** ********************************************************************************
1079:Generated_Source\PSoC5/CapSense.c **** *
1080:Generated_Source\PSoC5/CapSense.c **** * Summary:
1081:Generated_Source\PSoC5/CapSense.c **** *  Resets all sensors to the non-sampling state by sequentially disconnecting
1082:Generated_Source\PSoC5/CapSense.c **** *  all sensors from Analog MUX Bus and putting them to inactive state.
1083:Generated_Source\PSoC5/CapSense.c **** *
1084:Generated_Source\PSoC5/CapSense.c **** * Parameters:
1085:Generated_Source\PSoC5/CapSense.c **** *  None
1086:Generated_Source\PSoC5/CapSense.c **** *
1087:Generated_Source\PSoC5/CapSense.c **** * Return:
1088:Generated_Source\PSoC5/CapSense.c **** *  None
1089:Generated_Source\PSoC5/CapSense.c **** *
1090:Generated_Source\PSoC5/CapSense.c **** *******************************************************************************/
1091:Generated_Source\PSoC5/CapSense.c **** void CapSense_ClearSensors(void) 
1092:Generated_Source\PSoC5/CapSense.c **** {
1093:Generated_Source\PSoC5/CapSense.c ****     uint8 i;
1094:Generated_Source\PSoC5/CapSense.c ****    
1095:Generated_Source\PSoC5/CapSense.c ****     for (i = 0u; i < CapSense_TOTAL_SENSOR_COUNT; i++)
1096:Generated_Source\PSoC5/CapSense.c ****     {
1097:Generated_Source\PSoC5/CapSense.c ****         CapSense_DisableScanSlot(i);
1098:Generated_Source\PSoC5/CapSense.c ****     }
1099:Generated_Source\PSoC5/CapSense.c **** }
1100:Generated_Source\PSoC5/CapSense.c **** 
1101:Generated_Source\PSoC5/CapSense.c **** 
1102:Generated_Source\PSoC5/CapSense.c **** #if (CapSense_IS_COMPLEX_SCANSLOTS)
1103:Generated_Source\PSoC5/CapSense.c ****     /*******************************************************************************
1104:Generated_Source\PSoC5/CapSense.c ****     * Function Name: CapSense_EnableScanSlot
1105:Generated_Source\PSoC5/CapSense.c ****     ********************************************************************************
1106:Generated_Source\PSoC5/CapSense.c ****     *
1107:Generated_Source\PSoC5/CapSense.c ****     * Summary:
1108:Generated_Source\PSoC5/CapSense.c ****     *  Configures the selected slot to measure during the next measurement 
1109:Generated_Source\PSoC5/CapSense.c ****     *  cycle. The corresponding pin/pins are set to Analog High-Z mode and 
1110:Generated_Source\PSoC5/CapSense.c ****     *  connected to the Analog Mux Bus. This also enables the comparator function.
1111:Generated_Source\PSoC5/CapSense.c ****     *
ARM GAS  C:\Users\Tri94\AppData\Local\Temp\ccFfdnZv.s 			page 24


1112:Generated_Source\PSoC5/CapSense.c ****     * Parameters:
1113:Generated_Source\PSoC5/CapSense.c ****     *  slot:  Slot number.
1114:Generated_Source\PSoC5/CapSense.c ****     *
1115:Generated_Source\PSoC5/CapSense.c ****     * Return:
1116:Generated_Source\PSoC5/CapSense.c ****     *  None
1117:Generated_Source\PSoC5/CapSense.c ****     *
1118:Generated_Source\PSoC5/CapSense.c ****     * Global Constants:
1119:Generated_Source\PSoC5/CapSense.c ****     *  CapSense_portTable[]  - used to store the port number that pin 
1120:Generated_Source\PSoC5/CapSense.c ****     *  belongs to for every sensor.
1121:Generated_Source\PSoC5/CapSense.c ****     *  CapSense_maskTable[]  - used to store the pin within the port for 
1122:Generated_Source\PSoC5/CapSense.c ****     *  every sensor.
1123:Generated_Source\PSoC5/CapSense.c ****     *  CapSense_indexTable[] - used to store indexes of complex sensors.
1124:Generated_Source\PSoC5/CapSense.c ****     *  The offset and position in this array are stored in port and mask table for 
1125:Generated_Source\PSoC5/CapSense.c ****     *  complex sensors.
1126:Generated_Source\PSoC5/CapSense.c ****     *  The bit 7 (msb) is used to define the sensor type: single or complex.
1127:Generated_Source\PSoC5/CapSense.c ****     *
1128:Generated_Source\PSoC5/CapSense.c ****     *******************************************************************************/
1129:Generated_Source\PSoC5/CapSense.c ****     void CapSense_EnableScanSlot(uint8 slot) CYREENTRANT
1130:Generated_Source\PSoC5/CapSense.c ****     {
1131:Generated_Source\PSoC5/CapSense.c ****         uint8 j;
1132:Generated_Source\PSoC5/CapSense.c ****         uint8 snsNumber;
1133:Generated_Source\PSoC5/CapSense.c ****         const uint8 CYCODE *index;
1134:Generated_Source\PSoC5/CapSense.c ****         /* Read the sensor type: single or complex */
1135:Generated_Source\PSoC5/CapSense.c ****         uint8 snsType = CapSense_portTable[slot];
1136:Generated_Source\PSoC5/CapSense.c ****         
1137:Generated_Source\PSoC5/CapSense.c ****         /* Check if sensor is complex */
1138:Generated_Source\PSoC5/CapSense.c ****         if ((snsType & CapSense_COMPLEX_SS_FLAG) == 0u)
1139:Generated_Source\PSoC5/CapSense.c ****         {
1140:Generated_Source\PSoC5/CapSense.c ****             /* Enable sensor (signle) */
1141:Generated_Source\PSoC5/CapSense.c ****             CapSense_EnableSensor(slot);
1142:Generated_Source\PSoC5/CapSense.c ****         }
1143:Generated_Source\PSoC5/CapSense.c ****         else
1144:Generated_Source\PSoC5/CapSense.c ****         {
1145:Generated_Source\PSoC5/CapSense.c ****             /* Enable complex sensor */
1146:Generated_Source\PSoC5/CapSense.c ****             snsType &= ~CapSense_COMPLEX_SS_FLAG;
1147:Generated_Source\PSoC5/CapSense.c ****             index = &CapSense_indexTable[snsType];
1148:Generated_Source\PSoC5/CapSense.c ****             snsNumber = CapSense_maskTable[slot];
1149:Generated_Source\PSoC5/CapSense.c ****                         
1150:Generated_Source\PSoC5/CapSense.c ****             for (j=0u; j < snsNumber; j++)
1151:Generated_Source\PSoC5/CapSense.c ****             {
1152:Generated_Source\PSoC5/CapSense.c ****                 CapSense_EnableSensor(index[j]);
1153:Generated_Source\PSoC5/CapSense.c ****             }
1154:Generated_Source\PSoC5/CapSense.c ****         } 
1155:Generated_Source\PSoC5/CapSense.c ****     }
1156:Generated_Source\PSoC5/CapSense.c ****     
1157:Generated_Source\PSoC5/CapSense.c ****     
1158:Generated_Source\PSoC5/CapSense.c ****     /*******************************************************************************
1159:Generated_Source\PSoC5/CapSense.c ****     * Function Name: CapSense_DisableScanSlot
1160:Generated_Source\PSoC5/CapSense.c ****     ********************************************************************************
1161:Generated_Source\PSoC5/CapSense.c ****     *
1162:Generated_Source\PSoC5/CapSense.c ****     * Summary:
1163:Generated_Source\PSoC5/CapSense.c ****     *  Disables the selected slot. The corresponding pin/pis is/are disconnected 
1164:Generated_Source\PSoC5/CapSense.c ****     *  from the Analog Mux Bus and connected to GND, High_Z or Shield electrode.
1165:Generated_Source\PSoC5/CapSense.c ****     *
1166:Generated_Source\PSoC5/CapSense.c ****     * Parameters:
1167:Generated_Source\PSoC5/CapSense.c ****     *  slot:  Slot number.
1168:Generated_Source\PSoC5/CapSense.c ****     *
ARM GAS  C:\Users\Tri94\AppData\Local\Temp\ccFfdnZv.s 			page 25


1169:Generated_Source\PSoC5/CapSense.c ****     * Return:
1170:Generated_Source\PSoC5/CapSense.c ****     *  None
1171:Generated_Source\PSoC5/CapSense.c ****     *
1172:Generated_Source\PSoC5/CapSense.c ****     * Global Variables:
1173:Generated_Source\PSoC5/CapSense.c ****     *  CapSense_portTable[]  - used to store the port number that pin 
1174:Generated_Source\PSoC5/CapSense.c ****     *  belongs to for every sensor.
1175:Generated_Source\PSoC5/CapSense.c ****     *  CapSense_maskTable[]  - used to store the pin within the port for 
1176:Generated_Source\PSoC5/CapSense.c ****     *  every sensor.
1177:Generated_Source\PSoC5/CapSense.c ****     *  CapSense_indexTable[] - used to store indexes of complex sensors.
1178:Generated_Source\PSoC5/CapSense.c ****     *  The offset and position in this array are stored in port and mask table for 
1179:Generated_Source\PSoC5/CapSense.c ****     *  complex sensors.
1180:Generated_Source\PSoC5/CapSense.c ****     *  The 7bit(msb) is used to define the sensor type: single or complex.
1181:Generated_Source\PSoC5/CapSense.c ****     *
1182:Generated_Source\PSoC5/CapSense.c ****     *******************************************************************************/
1183:Generated_Source\PSoC5/CapSense.c ****     void CapSense_DisableScanSlot(uint8 slot) CYREENTRANT
1184:Generated_Source\PSoC5/CapSense.c ****     {
1185:Generated_Source\PSoC5/CapSense.c ****         uint8 j;
1186:Generated_Source\PSoC5/CapSense.c ****         uint8 snsNumber;
1187:Generated_Source\PSoC5/CapSense.c ****         const uint8 CYCODE *index;
1188:Generated_Source\PSoC5/CapSense.c ****         /* Read the sensor type: single or complex */
1189:Generated_Source\PSoC5/CapSense.c ****         uint8 snsType = CapSense_portTable[slot];
1190:Generated_Source\PSoC5/CapSense.c ****         
1191:Generated_Source\PSoC5/CapSense.c ****         /* Check if sensor is complex */
1192:Generated_Source\PSoC5/CapSense.c ****         if ((snsType & CapSense_COMPLEX_SS_FLAG) == 0u)
1193:Generated_Source\PSoC5/CapSense.c ****         {
1194:Generated_Source\PSoC5/CapSense.c ****             /* Disable sensor (signle) */
1195:Generated_Source\PSoC5/CapSense.c ****             CapSense_DisableSensor(slot);
1196:Generated_Source\PSoC5/CapSense.c ****         }
1197:Generated_Source\PSoC5/CapSense.c ****         else
1198:Generated_Source\PSoC5/CapSense.c ****         {
1199:Generated_Source\PSoC5/CapSense.c ****             /* Disable complex sensor */
1200:Generated_Source\PSoC5/CapSense.c ****             snsType &= ~CapSense_COMPLEX_SS_FLAG;
1201:Generated_Source\PSoC5/CapSense.c ****             index = &CapSense_indexTable[snsType];
1202:Generated_Source\PSoC5/CapSense.c ****             snsNumber = CapSense_maskTable[slot];
1203:Generated_Source\PSoC5/CapSense.c ****                         
1204:Generated_Source\PSoC5/CapSense.c ****             for (j=0u; j < snsNumber; j++)
1205:Generated_Source\PSoC5/CapSense.c ****             {
1206:Generated_Source\PSoC5/CapSense.c ****                 CapSense_DisableSensor(index[j]);
1207:Generated_Source\PSoC5/CapSense.c ****             }
1208:Generated_Source\PSoC5/CapSense.c ****         } 
1209:Generated_Source\PSoC5/CapSense.c ****     }
1210:Generated_Source\PSoC5/CapSense.c **** #endif  /* CapSense_IS_COMPLEX_SCANSLOTS */
1211:Generated_Source\PSoC5/CapSense.c **** 
1212:Generated_Source\PSoC5/CapSense.c **** 
1213:Generated_Source\PSoC5/CapSense.c **** /*******************************************************************************
1214:Generated_Source\PSoC5/CapSense.c **** * Function Name: CapSense_EnableSensor
1215:Generated_Source\PSoC5/CapSense.c **** ********************************************************************************
1216:Generated_Source\PSoC5/CapSense.c **** *
1217:Generated_Source\PSoC5/CapSense.c **** * Summary:
1218:Generated_Source\PSoC5/CapSense.c **** *  Configures the selected sensor to measure during the next measurement cycle.
1219:Generated_Source\PSoC5/CapSense.c **** *  The corresponding pins are set to Analog High-Z mode and connected to the
1220:Generated_Source\PSoC5/CapSense.c **** *  Analog Mux Bus. This also enables the comparator function.
1221:Generated_Source\PSoC5/CapSense.c **** *
1222:Generated_Source\PSoC5/CapSense.c **** * Parameters:
1223:Generated_Source\PSoC5/CapSense.c **** *  sensor:  Sensor number.
1224:Generated_Source\PSoC5/CapSense.c **** *
1225:Generated_Source\PSoC5/CapSense.c **** * Return:
ARM GAS  C:\Users\Tri94\AppData\Local\Temp\ccFfdnZv.s 			page 26


1226:Generated_Source\PSoC5/CapSense.c **** *  None
1227:Generated_Source\PSoC5/CapSense.c **** *
1228:Generated_Source\PSoC5/CapSense.c **** * Global Variables:
1229:Generated_Source\PSoC5/CapSense.c **** *  CapSense_portTable[] - used to store the port number that pin 
1230:Generated_Source\PSoC5/CapSense.c **** *  belongs to for every sensor.
1231:Generated_Source\PSoC5/CapSense.c **** *  CapSense_maskTable[] - used to store the pin within the port for 
1232:Generated_Source\PSoC5/CapSense.c **** *  every sensor.
1233:Generated_Source\PSoC5/CapSense.c **** *  CapSense_csTable[]   - used to store the pointers to CAPS_SEL 
1234:Generated_Source\PSoC5/CapSense.c **** *  registers for every port.
1235:Generated_Source\PSoC5/CapSense.c **** *  CapSense_pcTable[]   - used to store the pointers to PC pin 
1236:Generated_Source\PSoC5/CapSense.c **** *  register for every sensor.
1237:Generated_Source\PSoC5/CapSense.c **** *  CapSense_amuxIndex[] - used to store corrected AMUX index when 
1238:Generated_Source\PSoC5/CapSense.c **** *  complex sensors are defeined.
1239:Generated_Source\PSoC5/CapSense.c **** *
1240:Generated_Source\PSoC5/CapSense.c **** *******************************************************************************/
1241:Generated_Source\PSoC5/CapSense.c **** void CapSense_EnableSensor(uint8 sensor) CYREENTRANT
1242:Generated_Source\PSoC5/CapSense.c **** {
 201              		.loc 1 1242 0
 202              		.cfi_startproc
 203              		@ args = 0, pretend = 0, frame = 0
 204              		@ frame_needed = 0, uses_anonymous_args = 0
 205              	.LVL13:
 206 0000 08B5     		push	{r3, lr}
 207              		.cfi_def_cfa_offset 8
 208              		.cfi_offset 3, -8
 209              		.cfi_offset 14, -4
 210              	.LVL14:
1243:Generated_Source\PSoC5/CapSense.c ****     uint8 port = CapSense_portTable[sensor];
1244:Generated_Source\PSoC5/CapSense.c ****     uint8 mask = CapSense_maskTable[sensor];
1245:Generated_Source\PSoC5/CapSense.c ****     
1246:Generated_Source\PSoC5/CapSense.c ****     #if ((CapSense_DESIGN_TYPE == CapSense_TWO_CHANNELS_DESIGN) && \
1247:Generated_Source\PSoC5/CapSense.c ****          (CapSense_IS_COMPLEX_SCANSLOTS))
1248:Generated_Source\PSoC5/CapSense.c ****         uint8 amuxCh = CapSense_amuxIndex[sensor];
1249:Generated_Source\PSoC5/CapSense.c ****     #endif  /* ((CapSense_DESIGN_TYPE == CapSense_TWO_CHANNELS_DESIGN) && \
1250:Generated_Source\PSoC5/CapSense.c ****             *   (CapSense_IS_COMPLEX_SCANSLOTS))
1251:Generated_Source\PSoC5/CapSense.c ****             */
1252:Generated_Source\PSoC5/CapSense.c ****     
1253:Generated_Source\PSoC5/CapSense.c ****     /* Make sensor High-Z */
1254:Generated_Source\PSoC5/CapSense.c ****     *CapSense_pcTable[sensor] = CapSense_PRT_PC_HIGHZ;
 211              		.loc 1 1254 0
 212 0002 0922     		movs	r2, #9
 213 0004 044B     		ldr	r3, .L18
 214 0006 1A70     		strb	r2, [r3]
1255:Generated_Source\PSoC5/CapSense.c ****     
1256:Generated_Source\PSoC5/CapSense.c ****     /* Connect to DSI output */
1257:Generated_Source\PSoC5/CapSense.c **** 	if(port == 15u)
1258:Generated_Source\PSoC5/CapSense.c **** 	{
1259:Generated_Source\PSoC5/CapSense.c **** 		port = 7u;
1260:Generated_Source\PSoC5/CapSense.c **** 	}
1261:Generated_Source\PSoC5/CapSense.c ****     *CapSense_csTable[port] |= mask;
 215              		.loc 1 1261 0
 216 0008 044A     		ldr	r2, .L18+4
 217 000a 1378     		ldrb	r3, [r2]	@ zero_extendqisi2
 218 000c 43F00103 		orr	r3, r3, #1
 219 0010 1370     		strb	r3, [r2]
1262:Generated_Source\PSoC5/CapSense.c ****     
1263:Generated_Source\PSoC5/CapSense.c ****     /* Connect to AMUX */
ARM GAS  C:\Users\Tri94\AppData\Local\Temp\ccFfdnZv.s 			page 27


1264:Generated_Source\PSoC5/CapSense.c ****     #if (CapSense_DESIGN_TYPE == CapSense_ONE_CHANNEL_DESIGN)
1265:Generated_Source\PSoC5/CapSense.c ****         #if (CapSense_IS_COMPLEX_SCANSLOTS)
1266:Generated_Source\PSoC5/CapSense.c ****             CapSense_AMuxCH0_Connect(CapSense_amuxIndex[sensor]);
1267:Generated_Source\PSoC5/CapSense.c ****         #else
1268:Generated_Source\PSoC5/CapSense.c ****             CapSense_AMuxCH0_Connect(sensor);
 220              		.loc 1 1268 0
 221 0012 FFF7FEFF 		bl	CapSense_AMuxCH0_Set
 222              	.LVL15:
 223 0016 08BD     		pop	{r3, pc}
 224              	.L19:
 225              		.align	2
 226              	.L18:
 227 0018 18500040 		.word	1073762328
 228 001c 1E520040 		.word	1073762846
 229              		.cfi_endproc
 230              	.LFE11:
 231              		.size	CapSense_EnableSensor, .-CapSense_EnableSensor
 232              		.section	.text.CapSense_DisableSensor,"ax",%progbits
 233              		.align	2
 234              		.global	CapSense_DisableSensor
 235              		.thumb
 236              		.thumb_func
 237              		.type	CapSense_DisableSensor, %function
 238              	CapSense_DisableSensor:
 239              	.LFB12:
1269:Generated_Source\PSoC5/CapSense.c ****         #endif  /* CapSense_IS_COMPLEX_SCANSLOTS */
1270:Generated_Source\PSoC5/CapSense.c ****                 
1271:Generated_Source\PSoC5/CapSense.c ****     #else
1272:Generated_Source\PSoC5/CapSense.c ****         #if (CapSense_IS_COMPLEX_SCANSLOTS)
1273:Generated_Source\PSoC5/CapSense.c ****             if ((amuxCh & CapSense_CHANNEL1_FLAG) == 0u)
1274:Generated_Source\PSoC5/CapSense.c ****             {
1275:Generated_Source\PSoC5/CapSense.c ****                 CapSense_AMuxCH0_Connect(amuxCh);
1276:Generated_Source\PSoC5/CapSense.c ****             } 
1277:Generated_Source\PSoC5/CapSense.c ****             else
1278:Generated_Source\PSoC5/CapSense.c ****             {
1279:Generated_Source\PSoC5/CapSense.c ****                 amuxCh &= ~ CapSense_CHANNEL1_FLAG;
1280:Generated_Source\PSoC5/CapSense.c ****                 CapSense_AMuxCH1_Connect(amuxCh);
1281:Generated_Source\PSoC5/CapSense.c ****             }
1282:Generated_Source\PSoC5/CapSense.c ****             
1283:Generated_Source\PSoC5/CapSense.c ****         #else
1284:Generated_Source\PSoC5/CapSense.c ****             if (sensor < CapSense_TOTAL_SENSOR_COUNT__CH0) 
1285:Generated_Source\PSoC5/CapSense.c ****             {
1286:Generated_Source\PSoC5/CapSense.c ****                 CapSense_AMuxCH0_Connect(sensor);
1287:Generated_Source\PSoC5/CapSense.c ****             } 
1288:Generated_Source\PSoC5/CapSense.c ****             else
1289:Generated_Source\PSoC5/CapSense.c ****             {
1290:Generated_Source\PSoC5/CapSense.c ****                 CapSense_AMuxCH1_Connect(sensor - CapSense_TOTAL_SENSOR_COUNT__CH0);
1291:Generated_Source\PSoC5/CapSense.c ****             }
1292:Generated_Source\PSoC5/CapSense.c ****             
1293:Generated_Source\PSoC5/CapSense.c ****         #endif  /* CapSense_IS_COMPLEX_SCANSLOTS */
1294:Generated_Source\PSoC5/CapSense.c ****         
1295:Generated_Source\PSoC5/CapSense.c ****     #endif  /* CapSense_DESIGN_TYPE == CapSense_ONE_CHANNEL_DESIGN */
1296:Generated_Source\PSoC5/CapSense.c **** }
1297:Generated_Source\PSoC5/CapSense.c **** 
1298:Generated_Source\PSoC5/CapSense.c **** 
1299:Generated_Source\PSoC5/CapSense.c **** /*******************************************************************************
1300:Generated_Source\PSoC5/CapSense.c **** * Function Name: CapSense_DisableSensor
ARM GAS  C:\Users\Tri94\AppData\Local\Temp\ccFfdnZv.s 			page 28


1301:Generated_Source\PSoC5/CapSense.c **** ********************************************************************************
1302:Generated_Source\PSoC5/CapSense.c **** *
1303:Generated_Source\PSoC5/CapSense.c **** * Summary:
1304:Generated_Source\PSoC5/CapSense.c **** *  Disables the selected sensor. The corresponding pin is disconnected from the
1305:Generated_Source\PSoC5/CapSense.c **** *  Analog Mux Bus and connected to GND, High_Z or Shield electrode.
1306:Generated_Source\PSoC5/CapSense.c **** *
1307:Generated_Source\PSoC5/CapSense.c **** * Parameters:
1308:Generated_Source\PSoC5/CapSense.c **** *  sensor:  Sensor number
1309:Generated_Source\PSoC5/CapSense.c **** *
1310:Generated_Source\PSoC5/CapSense.c **** * Return:
1311:Generated_Source\PSoC5/CapSense.c **** *  None
1312:Generated_Source\PSoC5/CapSense.c **** *
1313:Generated_Source\PSoC5/CapSense.c **** * Global Variables:
1314:Generated_Source\PSoC5/CapSense.c **** *  CapSense_portTable[] - used to store the port number that pin 
1315:Generated_Source\PSoC5/CapSense.c **** *  belongs to for every sensor.
1316:Generated_Source\PSoC5/CapSense.c **** *  CapSense_maskTable[] - used to store the pin within the port for 
1317:Generated_Source\PSoC5/CapSense.c **** *  every sensor.
1318:Generated_Source\PSoC5/CapSense.c **** *  CapSense_csTable[]   - used to store the pointers to CAPS_SEL 
1319:Generated_Source\PSoC5/CapSense.c **** *  registers for every port.
1320:Generated_Source\PSoC5/CapSense.c **** *  CapSense_pcTable[]   - used to store the pointers to PC pin 
1321:Generated_Source\PSoC5/CapSense.c **** *  register for every sensor.
1322:Generated_Source\PSoC5/CapSense.c **** *  CapSense_amuxIndex[] - used to store corrected AMUX index when 
1323:Generated_Source\PSoC5/CapSense.c **** *  complex sensors are defeined.
1324:Generated_Source\PSoC5/CapSense.c **** *
1325:Generated_Source\PSoC5/CapSense.c **** *******************************************************************************/
1326:Generated_Source\PSoC5/CapSense.c **** void CapSense_DisableSensor(uint8 sensor) CYREENTRANT
1327:Generated_Source\PSoC5/CapSense.c **** {
 240              		.loc 1 1327 0
 241              		.cfi_startproc
 242              		@ args = 0, pretend = 0, frame = 0
 243              		@ frame_needed = 0, uses_anonymous_args = 0
 244              	.LVL16:
 245 0000 08B5     		push	{r3, lr}
 246              		.cfi_def_cfa_offset 8
 247              		.cfi_offset 3, -8
 248              		.cfi_offset 14, -4
 249              	.LVL17:
1328:Generated_Source\PSoC5/CapSense.c ****     uint8 port = CapSense_portTable[sensor];
1329:Generated_Source\PSoC5/CapSense.c ****     uint8 mask = CapSense_maskTable[sensor];
1330:Generated_Source\PSoC5/CapSense.c ****     
1331:Generated_Source\PSoC5/CapSense.c ****     #if ((CapSense_DESIGN_TYPE == CapSense_TWO_CHANNELS_DESIGN) && \
1332:Generated_Source\PSoC5/CapSense.c ****          (CapSense_IS_COMPLEX_SCANSLOTS))
1333:Generated_Source\PSoC5/CapSense.c ****         uint8 amuxCh = CapSense_amuxIndex[sensor];
1334:Generated_Source\PSoC5/CapSense.c ****     #endif  /* ((CapSense_DESIGN_TYPE == CapSense_TWO_CHANNELS_DESIGN) && \
1335:Generated_Source\PSoC5/CapSense.c ****             *   (CapSense_IS_COMPLEX_SCANSLOTS))
1336:Generated_Source\PSoC5/CapSense.c ****             */
1337:Generated_Source\PSoC5/CapSense.c ****     
1338:Generated_Source\PSoC5/CapSense.c ****     /* Disconnect from AMUX */
1339:Generated_Source\PSoC5/CapSense.c ****     #if (CapSense_DESIGN_TYPE == CapSense_ONE_CHANNEL_DESIGN)
1340:Generated_Source\PSoC5/CapSense.c ****         #if (CapSense_IS_COMPLEX_SCANSLOTS)
1341:Generated_Source\PSoC5/CapSense.c ****             CapSense_AMuxCH0_Disconnect(CapSense_amuxIndex[sensor]);
1342:Generated_Source\PSoC5/CapSense.c ****         #else
1343:Generated_Source\PSoC5/CapSense.c ****             CapSense_AMuxCH0_Disconnect(sensor);
 250              		.loc 1 1343 0
 251 0002 FFF7FEFF 		bl	CapSense_AMuxCH0_Unset
 252              	.LVL18:
1344:Generated_Source\PSoC5/CapSense.c ****         #endif  /* CapSense_IS_COMPLEX_SCANSLOTS */
ARM GAS  C:\Users\Tri94\AppData\Local\Temp\ccFfdnZv.s 			page 29


1345:Generated_Source\PSoC5/CapSense.c ****                 
1346:Generated_Source\PSoC5/CapSense.c ****     #else
1347:Generated_Source\PSoC5/CapSense.c ****         #if (CapSense_IS_COMPLEX_SCANSLOTS)
1348:Generated_Source\PSoC5/CapSense.c ****             if ((amuxCh & CapSense_CHANNEL1_FLAG) == 0u)
1349:Generated_Source\PSoC5/CapSense.c ****             {
1350:Generated_Source\PSoC5/CapSense.c ****                 CapSense_AMuxCH0_Disconnect(amuxCh);
1351:Generated_Source\PSoC5/CapSense.c ****             } 
1352:Generated_Source\PSoC5/CapSense.c ****             else
1353:Generated_Source\PSoC5/CapSense.c ****             {
1354:Generated_Source\PSoC5/CapSense.c ****                 amuxCh &= ~ CapSense_CHANNEL1_FLAG;
1355:Generated_Source\PSoC5/CapSense.c ****                 CapSense_AMuxCH1_Disconnect(amuxCh);
1356:Generated_Source\PSoC5/CapSense.c ****             }
1357:Generated_Source\PSoC5/CapSense.c ****             
1358:Generated_Source\PSoC5/CapSense.c ****         #else
1359:Generated_Source\PSoC5/CapSense.c ****             if (sensor < CapSense_TOTAL_SENSOR_COUNT__CH0) 
1360:Generated_Source\PSoC5/CapSense.c ****             {
1361:Generated_Source\PSoC5/CapSense.c ****                 CapSense_AMuxCH0_Disconnect(sensor);
1362:Generated_Source\PSoC5/CapSense.c ****             } 
1363:Generated_Source\PSoC5/CapSense.c ****             else
1364:Generated_Source\PSoC5/CapSense.c ****             {
1365:Generated_Source\PSoC5/CapSense.c ****                 CapSense_AMuxCH1_Disconnect(sensor - CapSense_TOTAL_SENSOR_COUNT__CH0);
1366:Generated_Source\PSoC5/CapSense.c ****             }
1367:Generated_Source\PSoC5/CapSense.c ****             
1368:Generated_Source\PSoC5/CapSense.c ****         #endif  /* CapSense_IS_COMPLEX_SCANSLOTS */
1369:Generated_Source\PSoC5/CapSense.c ****         
1370:Generated_Source\PSoC5/CapSense.c ****     #endif  /* CapSense_DESIGN_TYPE */
1371:Generated_Source\PSoC5/CapSense.c ****     
1372:Generated_Source\PSoC5/CapSense.c ****     /* Disconnect from DSI output */
1373:Generated_Source\PSoC5/CapSense.c **** 	if(port == 15u)
1374:Generated_Source\PSoC5/CapSense.c **** 	{
1375:Generated_Source\PSoC5/CapSense.c **** 		port = 7u;
1376:Generated_Source\PSoC5/CapSense.c **** 	}
1377:Generated_Source\PSoC5/CapSense.c ****     *CapSense_csTable[port] &= (uint8)~mask;
 253              		.loc 1 1377 0
 254 0006 044A     		ldr	r2, .L22
 255 0008 1378     		ldrb	r3, [r2]	@ zero_extendqisi2
 256 000a 23F00103 		bic	r3, r3, #1
 257 000e 1370     		strb	r3, [r2]
1378:Generated_Source\PSoC5/CapSense.c ****     
1379:Generated_Source\PSoC5/CapSense.c ****     /* Set sensor to inactive state */
1380:Generated_Source\PSoC5/CapSense.c ****     #if (CapSense_CONNECT_INACTIVE_SNS == CapSense_CIS_GND)
1381:Generated_Source\PSoC5/CapSense.c ****         *CapSense_pcTable[sensor] = CapSense_PRT_PC_GND;
 258              		.loc 1 1381 0
 259 0010 0822     		movs	r2, #8
 260 0012 024B     		ldr	r3, .L22+4
 261 0014 1A70     		strb	r2, [r3]
 262 0016 08BD     		pop	{r3, pc}
 263              	.L23:
 264              		.align	2
 265              	.L22:
 266 0018 1E520040 		.word	1073762846
 267 001c 18500040 		.word	1073762328
 268              		.cfi_endproc
 269              	.LFE12:
 270              		.size	CapSense_DisableSensor, .-CapSense_DisableSensor
 271              		.section	.text.CapSense_ClearSensors,"ax",%progbits
 272              		.align	2
ARM GAS  C:\Users\Tri94\AppData\Local\Temp\ccFfdnZv.s 			page 30


 273              		.global	CapSense_ClearSensors
 274              		.thumb
 275              		.thumb_func
 276              		.type	CapSense_ClearSensors, %function
 277              	CapSense_ClearSensors:
 278              	.LFB10:
1092:Generated_Source\PSoC5/CapSense.c ****     uint8 i;
 279              		.loc 1 1092 0
 280              		.cfi_startproc
 281              		@ args = 0, pretend = 0, frame = 0
 282              		@ frame_needed = 0, uses_anonymous_args = 0
 283 0000 10B5     		push	{r4, lr}
 284              		.cfi_def_cfa_offset 8
 285              		.cfi_offset 4, -8
 286              		.cfi_offset 14, -4
 287              	.LVL19:
1095:Generated_Source\PSoC5/CapSense.c ****     {
 288              		.loc 1 1095 0
 289 0002 0024     		movs	r4, #0
 290 0004 04E0     		b	.L25
 291              	.LVL20:
 292              	.L26:
1097:Generated_Source\PSoC5/CapSense.c ****     }
 293              		.loc 1 1097 0 discriminator 3
 294 0006 2046     		mov	r0, r4
 295 0008 FFF7FEFF 		bl	CapSense_DisableSensor
 296              	.LVL21:
1095:Generated_Source\PSoC5/CapSense.c ****     {
 297              		.loc 1 1095 0 discriminator 3
 298 000c 0134     		adds	r4, r4, #1
 299              	.LVL22:
 300 000e E4B2     		uxtb	r4, r4
 301              	.LVL23:
 302              	.L25:
1095:Generated_Source\PSoC5/CapSense.c ****     {
 303              		.loc 1 1095 0 is_stmt 0 discriminator 1
 304 0010 002C     		cmp	r4, #0
 305 0012 F8D0     		beq	.L26
1099:Generated_Source\PSoC5/CapSense.c **** 
 306              		.loc 1 1099 0 is_stmt 1
 307 0014 10BD     		pop	{r4, pc}
 308              		.cfi_endproc
 309              	.LFE10:
 310              		.size	CapSense_ClearSensors, .-CapSense_ClearSensors
 311 0016 00BF     		.section	.text.CapSense_Stop,"ax",%progbits
 312              		.align	2
 313              		.global	CapSense_Stop
 314              		.thumb
 315              		.thumb_func
 316              		.type	CapSense_Stop, %function
 317              	CapSense_Stop:
 318              	.LFB3:
 512:Generated_Source\PSoC5/CapSense.c ****     /* Stop Capsensing */
 319              		.loc 1 512 0
 320              		.cfi_startproc
 321              		@ args = 0, pretend = 0, frame = 0
 322              		@ frame_needed = 0, uses_anonymous_args = 0
ARM GAS  C:\Users\Tri94\AppData\Local\Temp\ccFfdnZv.s 			page 31


 323 0000 10B5     		push	{r4, lr}
 324              		.cfi_def_cfa_offset 8
 325              		.cfi_offset 4, -8
 326              		.cfi_offset 14, -4
 514:Generated_Source\PSoC5/CapSense.c ****     
 327              		.loc 1 514 0
 328 0002 154C     		ldr	r4, .L30
 329 0004 2378     		ldrb	r3, [r4]	@ zero_extendqisi2
 330 0006 03F0FD03 		and	r3, r3, #253
 331 000a 2370     		strb	r3, [r4]
 517:Generated_Source\PSoC5/CapSense.c ****     #if (CapSense_DESIGN_TYPE == CapSense_TWO_CHANNELS_DESIGN) 
 332              		.loc 1 517 0
 333 000c 0122     		movs	r2, #1
 334 000e 134B     		ldr	r3, .L30+4
 335 0010 1A60     		str	r2, [r3]
 523:Generated_Source\PSoC5/CapSense.c ****     
 336              		.loc 1 523 0
 337 0012 FFF7FEFF 		bl	CapSense_ClearSensors
 338              	.LVL24:
 537:Generated_Source\PSoC5/CapSense.c ****     
 339              		.loc 1 537 0
 340 0016 124A     		ldr	r2, .L30+8
 341 0018 1378     		ldrb	r3, [r2]	@ zero_extendqisi2
 342 001a 03F0DF03 		and	r3, r3, #223
 343 001e 1370     		strb	r3, [r2]
 576:Generated_Source\PSoC5/CapSense.c ****     #endif  /* CapSense_CLOCK_SOURCE */
 344              		.loc 1 576 0
 345 0020 FFF7FEFF 		bl	CapSense_IntClock_Stop
 346              	.LVL25:
 580:Generated_Source\PSoC5/CapSense.c ****     #if (CapSense_CURRENT_SOURCE)
 347              		.loc 1 580 0
 348 0024 FFF7FEFF 		bl	CapSense_CompCH0_Stop
 349              	.LVL26:
 582:Generated_Source\PSoC5/CapSense.c ****     #endif  /* CapSense_CURRENT_SOURCE */
 350              		.loc 1 582 0
 351 0028 FFF7FEFF 		bl	CapSense_IdacCH0_Stop
 352              	.LVL27:
 604:Generated_Source\PSoC5/CapSense.c ****         CapSense_BufCH0_ACT_PWRMGR_REG &= (uint8)(~CapSense_BufCH0_ACT_PWR_EN);
 353              		.loc 1 604 0
 354 002c 0D4A     		ldr	r2, .L30+12
 355 002e 1378     		ldrb	r3, [r2]	@ zero_extendqisi2
 356 0030 03F0FE03 		and	r3, r3, #254
 357 0034 1370     		strb	r3, [r2]
 605:Generated_Source\PSoC5/CapSense.c ****         CapSense_BufCH0_STBY_PWRMGR_REG &= (uint8)(~CapSense_BufCH0_STBY_PWR_EN);
 358              		.loc 1 605 0
 359 0036 A2F5A652 		sub	r2, r2, #5312
 360 003a 053A     		subs	r2, r2, #5
 361 003c 1378     		ldrb	r3, [r2]	@ zero_extendqisi2
 362 003e 03F0EF03 		and	r3, r3, #239
 363 0042 1370     		strb	r3, [r2]
 606:Generated_Source\PSoC5/CapSense.c ****         
 364              		.loc 1 606 0
 365 0044 1032     		adds	r2, r2, #16
 366 0046 1378     		ldrb	r3, [r2]	@ zero_extendqisi2
 367 0048 03F0EF03 		and	r3, r3, #239
 368 004c 1370     		strb	r3, [r2]
 616:Generated_Source\PSoC5/CapSense.c **** }
ARM GAS  C:\Users\Tri94\AppData\Local\Temp\ccFfdnZv.s 			page 32


 369              		.loc 1 616 0
 370 004e 2378     		ldrb	r3, [r4]	@ zero_extendqisi2
 371 0050 03F07F03 		and	r3, r3, #127
 372 0054 2370     		strb	r3, [r4]
 373 0056 10BD     		pop	{r4, pc}
 374              	.L31:
 375              		.align	2
 376              	.L30:
 377 0058 79640040 		.word	1073767545
 378 005c 80E100E0 		.word	-536813184
 379 0060 9A640040 		.word	1073767578
 380 0064 70580040 		.word	1073764464
 381              		.cfi_endproc
 382              	.LFE3:
 383              		.size	CapSense_Stop, .-CapSense_Stop
 384              		.section	.text.CapSense_PostScan,"ax",%progbits
 385              		.align	2
 386              		.global	CapSense_PostScan
 387              		.thumb
 388              		.thumb_func
 389              		.type	CapSense_PostScan, %function
 390              	CapSense_PostScan:
 391              	.LFB14:
1382:Generated_Source\PSoC5/CapSense.c ****     #elif (CapSense_CONNECT_INACTIVE_SNS == CapSense_CIS_HIGHZ)
1383:Generated_Source\PSoC5/CapSense.c ****         *CapSense_pcTable[sensor] = CapSense_PRT_PC_HIGHZ;
1384:Generated_Source\PSoC5/CapSense.c ****     #else
1385:Generated_Source\PSoC5/CapSense.c ****         *CapSense_pcTable[sensor] = CapSense_PRT_PC_SHIELD;
1386:Generated_Source\PSoC5/CapSense.c ****     #endif  /* (CapSense_CONNECT_INACTIVE_SNS == CapSense_CIS_GND) */
1387:Generated_Source\PSoC5/CapSense.c **** }
1388:Generated_Source\PSoC5/CapSense.c **** 
1389:Generated_Source\PSoC5/CapSense.c **** 
1390:Generated_Source\PSoC5/CapSense.c **** /*******************************************************************************
1391:Generated_Source\PSoC5/CapSense.c **** * Function Name: CapSense_PreScan
1392:Generated_Source\PSoC5/CapSense.c **** ********************************************************************************
1393:Generated_Source\PSoC5/CapSense.c **** *
1394:Generated_Source\PSoC5/CapSense.c **** * Summary:
1395:Generated_Source\PSoC5/CapSense.c **** *  Set required settings, enable sensor, remove Vref from AMUX and start the 
1396:Generated_Source\PSoC5/CapSense.c **** *  scanning process of the sensor.
1397:Generated_Source\PSoC5/CapSense.c **** *
1398:Generated_Source\PSoC5/CapSense.c **** * Parameters:
1399:Generated_Source\PSoC5/CapSense.c **** *  sensor:  Sensor number.
1400:Generated_Source\PSoC5/CapSense.c **** *
1401:Generated_Source\PSoC5/CapSense.c **** * Return:
1402:Generated_Source\PSoC5/CapSense.c **** *  None
1403:Generated_Source\PSoC5/CapSense.c **** *
1404:Generated_Source\PSoC5/CapSense.c **** * Global Variables:
1405:Generated_Source\PSoC5/CapSense.c **** *  CapSense_rbTable[] - used to store pointers to PC pin registers for 
1406:Generated_Source\PSoC5/CapSense.c **** *  every bleed resistor (Rb). Only available when Current Source is External 
1407:Generated_Source\PSoC5/CapSense.c **** *  resistor.
1408:Generated_Source\PSoC5/CapSense.c **** *
1409:Generated_Source\PSoC5/CapSense.c **** *******************************************************************************/
1410:Generated_Source\PSoC5/CapSense.c **** void CapSense_PreScan(uint8 sensor) CYREENTRANT
1411:Generated_Source\PSoC5/CapSense.c **** {
1412:Generated_Source\PSoC5/CapSense.c ****     /* Set Sensor Settings */
1413:Generated_Source\PSoC5/CapSense.c ****     CapSense_SetScanSlotSettings(sensor);
1414:Generated_Source\PSoC5/CapSense.c ****     
1415:Generated_Source\PSoC5/CapSense.c ****     /* Place disable interrupts here to eliminate influence on start of scanning */
ARM GAS  C:\Users\Tri94\AppData\Local\Temp\ccFfdnZv.s 			page 33


1416:Generated_Source\PSoC5/CapSense.c ****     /* `#START CapSense_PreScan_DisableInt` */
1417:Generated_Source\PSoC5/CapSense.c **** 
1418:Generated_Source\PSoC5/CapSense.c ****     /* `#END` */
1419:Generated_Source\PSoC5/CapSense.c ****     
1420:Generated_Source\PSoC5/CapSense.c ****     #ifdef CapSense_PRE_SCAN_DISABLE_INT_CALLBACK
1421:Generated_Source\PSoC5/CapSense.c ****     CapSense_PreScan_DisableInt_Callback();
1422:Generated_Source\PSoC5/CapSense.c ****     #endif /* CapSense_PRE_SCAN_DISABLE_INT_CALLBACK */
1423:Generated_Source\PSoC5/CapSense.c **** 
1424:Generated_Source\PSoC5/CapSense.c ****     /* Resets digital and pre-charge clocks */
1425:Generated_Source\PSoC5/CapSense.c ****     CapSense_CONTROL_REG |= CapSense_CTRL_SYNC_EN;
1426:Generated_Source\PSoC5/CapSense.c ****         
1427:Generated_Source\PSoC5/CapSense.c ****     #if (CapSense_DESIGN_TYPE == CapSense_ONE_CHANNEL_DESIGN)
1428:Generated_Source\PSoC5/CapSense.c ****         #if (CapSense_CURRENT_SOURCE == CapSense_IDAC_SOURCE)
1429:Generated_Source\PSoC5/CapSense.c ****             /* Disable Vref from AMux */
1430:Generated_Source\PSoC5/CapSense.c ****             #if (CapSense_VREF_VDAC == CapSense_VREF_OPTIONS)
1431:Generated_Source\PSoC5/CapSense.c ****                 CapSense_AMuxCH0_Disconnect(CapSense_AMuxCH0_VREF_CHANNEL);
1432:Generated_Source\PSoC5/CapSense.c ****             #else
1433:Generated_Source\PSoC5/CapSense.c ****                 CapSense_BufCH0_CAPS_CFG0_REG &= ~CapSense_CSBUF_ENABLE;
1434:Generated_Source\PSoC5/CapSense.c ****             #endif  /* (CapSense_VREF_VDAC != CapSense_VREF_OPTIONS) */
1435:Generated_Source\PSoC5/CapSense.c **** 
1436:Generated_Source\PSoC5/CapSense.c ****             /* Enable Sensor */
1437:Generated_Source\PSoC5/CapSense.c ****             CapSense_EnableScanSlot(sensor);
1438:Generated_Source\PSoC5/CapSense.c ****             
1439:Generated_Source\PSoC5/CapSense.c ****         #elif (CapSense_CURRENT_SOURCE == CapSense_IDAC_SINK)
1440:Generated_Source\PSoC5/CapSense.c ****             /* Connect IDAC */
1441:Generated_Source\PSoC5/CapSense.c ****             CapSense_AMuxCH0_Connect(CapSense_AMuxCH0_IDAC_CHANNEL);
1442:Generated_Source\PSoC5/CapSense.c ****             
1443:Generated_Source\PSoC5/CapSense.c ****             /* Enable Sensor */
1444:Generated_Source\PSoC5/CapSense.c ****             CapSense_EnableScanSlot(sensor);
1445:Generated_Source\PSoC5/CapSense.c ****                 
1446:Generated_Source\PSoC5/CapSense.c ****             /* Disable CapSense Buffer */
1447:Generated_Source\PSoC5/CapSense.c ****             CapSense_BufCH0_CAPS_CFG0_REG &= (uint8)~CapSense_CSBUF_ENABLE;
1448:Generated_Source\PSoC5/CapSense.c ****             
1449:Generated_Source\PSoC5/CapSense.c ****         #else
1450:Generated_Source\PSoC5/CapSense.c ****             /* Connect DSI output to Rb */
1451:Generated_Source\PSoC5/CapSense.c ****             *CapSense_rbTable[CapSense_extRbCh0Cur] |= CapSense_BYP_MASK;
1452:Generated_Source\PSoC5/CapSense.c ****             
1453:Generated_Source\PSoC5/CapSense.c ****             /* Enable Sensor */
1454:Generated_Source\PSoC5/CapSense.c ****             CapSense_EnableScanSlot(sensor);
1455:Generated_Source\PSoC5/CapSense.c ****              
1456:Generated_Source\PSoC5/CapSense.c ****             /* Disable CapSense Buffer */
1457:Generated_Source\PSoC5/CapSense.c ****             CapSense_BufCH0_CAPS_CFG0_REG &= ~CapSense_CSBUF_ENABLE;
1458:Generated_Source\PSoC5/CapSense.c ****         
1459:Generated_Source\PSoC5/CapSense.c ****         #endif  /* (CapSense_CURRENT_SOURCE == CapSense_IDAC_SOURCE) */
1460:Generated_Source\PSoC5/CapSense.c ****         
1461:Generated_Source\PSoC5/CapSense.c ****     #else
1462:Generated_Source\PSoC5/CapSense.c **** 
1463:Generated_Source\PSoC5/CapSense.c ****         if((CapSense_CONTROL_REG & CapSense_CTRL_WINDOW_EN__CH0) != 0u)
1464:Generated_Source\PSoC5/CapSense.c ****         {
1465:Generated_Source\PSoC5/CapSense.c ****             #if (CapSense_CURRENT_SOURCE == CapSense_IDAC_SOURCE)
1466:Generated_Source\PSoC5/CapSense.c ****                 /* Disable Vref from AMux */
1467:Generated_Source\PSoC5/CapSense.c ****                 #if (CapSense_VREF_VDAC == CapSense_VREF_OPTIONS)
1468:Generated_Source\PSoC5/CapSense.c ****                     CapSense_AMuxCH0_Disconnect(CapSense_AMuxCH0_VREF_CHANNEL);
1469:Generated_Source\PSoC5/CapSense.c ****                 #else
1470:Generated_Source\PSoC5/CapSense.c ****                     CapSense_BufCH0_CAPS_CFG0_REG &= ~CapSense_CSBUF_ENABLE;
1471:Generated_Source\PSoC5/CapSense.c ****                 #endif  /* (CapSense_VREF_VDAC != CapSense_VREF_OPTIONS) */
1472:Generated_Source\PSoC5/CapSense.c ****                 
ARM GAS  C:\Users\Tri94\AppData\Local\Temp\ccFfdnZv.s 			page 34


1473:Generated_Source\PSoC5/CapSense.c ****                 /* Enable Sensor */
1474:Generated_Source\PSoC5/CapSense.c ****                 CapSense_EnableScanSlot(sensor);
1475:Generated_Source\PSoC5/CapSense.c ****                 
1476:Generated_Source\PSoC5/CapSense.c ****             #elif (CapSense_CURRENT_SOURCE == CapSense_IDAC_SINK)
1477:Generated_Source\PSoC5/CapSense.c ****                 /* Connect IDAC */
1478:Generated_Source\PSoC5/CapSense.c ****                 CapSense_AMuxCH0_Connect(CapSense_AMuxCH0_IDAC_CHANNEL);
1479:Generated_Source\PSoC5/CapSense.c ****                 
1480:Generated_Source\PSoC5/CapSense.c ****                 /* Enable Sensor */
1481:Generated_Source\PSoC5/CapSense.c ****                 CapSense_EnableScanSlot(sensor);
1482:Generated_Source\PSoC5/CapSense.c ****                     
1483:Generated_Source\PSoC5/CapSense.c ****                 /* Disable Vref from AMux */
1484:Generated_Source\PSoC5/CapSense.c ****                 CapSense_BufCH0_CAPS_CFG0_REG &= ~CapSense_CSBUF_ENABLE;
1485:Generated_Source\PSoC5/CapSense.c ****                 
1486:Generated_Source\PSoC5/CapSense.c ****             #else
1487:Generated_Source\PSoC5/CapSense.c ****                 /* Connect DSI output to Rb */
1488:Generated_Source\PSoC5/CapSense.c ****                 *CapSense_rbTable[CapSense_extRbCh0Cur] |= CapSense_BYP_MASK;
1489:Generated_Source\PSoC5/CapSense.c ****                 
1490:Generated_Source\PSoC5/CapSense.c ****                 /* Enable Sensor */
1491:Generated_Source\PSoC5/CapSense.c ****                 CapSense_EnableScanSlot(sensor);
1492:Generated_Source\PSoC5/CapSense.c ****                     
1493:Generated_Source\PSoC5/CapSense.c ****                 /* Disable Vref from AMux */
1494:Generated_Source\PSoC5/CapSense.c ****                 CapSense_BufCH0_CAPS_CFG0_REG &= ~CapSense_CSBUF_ENABLE;
1495:Generated_Source\PSoC5/CapSense.c ****             
1496:Generated_Source\PSoC5/CapSense.c ****             #endif  /* (CapSense_CURRENT_SOURCE == CapSense_IDAC_SOURCE) */
1497:Generated_Source\PSoC5/CapSense.c ****             
1498:Generated_Source\PSoC5/CapSense.c ****         }
1499:Generated_Source\PSoC5/CapSense.c ****         
1500:Generated_Source\PSoC5/CapSense.c ****         if((CapSense_CONTROL_REG & CapSense_CTRL_WINDOW_EN__CH1) != 0u)
1501:Generated_Source\PSoC5/CapSense.c ****         {
1502:Generated_Source\PSoC5/CapSense.c ****             sensor += CapSense_TOTAL_SENSOR_COUNT__CH0;
1503:Generated_Source\PSoC5/CapSense.c ****             
1504:Generated_Source\PSoC5/CapSense.c ****             #if (CapSense_CURRENT_SOURCE == CapSense_IDAC_SOURCE)
1505:Generated_Source\PSoC5/CapSense.c ****                 /* Disable Vref from AMux */
1506:Generated_Source\PSoC5/CapSense.c ****                 #if (CapSense_VREF_VDAC == CapSense_VREF_OPTIONS)
1507:Generated_Source\PSoC5/CapSense.c ****                    CapSense_AMuxCH1_Disconnect(CapSense_AMuxCH1_VREF_CHANNEL);
1508:Generated_Source\PSoC5/CapSense.c ****                 #else 
1509:Generated_Source\PSoC5/CapSense.c ****                     CapSense_BufCH1_CAPS_CFG0_REG &= ~CapSense_CSBUF_ENABLE;
1510:Generated_Source\PSoC5/CapSense.c ****                 #endif  /* (CapSense_VREF_VDAC == CapSense_VREF_OPTIONS) */
1511:Generated_Source\PSoC5/CapSense.c ****                 
1512:Generated_Source\PSoC5/CapSense.c ****                 /* Enable Sensor */
1513:Generated_Source\PSoC5/CapSense.c ****                 CapSense_EnableScanSlot(sensor);
1514:Generated_Source\PSoC5/CapSense.c ****                 
1515:Generated_Source\PSoC5/CapSense.c ****             #elif (CapSense_CURRENT_SOURCE == CapSense_IDAC_SINK)
1516:Generated_Source\PSoC5/CapSense.c ****                 /* Connect IDAC */
1517:Generated_Source\PSoC5/CapSense.c ****                 CapSense_AMuxCH1_Connect(CapSense_AMuxCH1_IDAC_CHANNEL);
1518:Generated_Source\PSoC5/CapSense.c ****                 
1519:Generated_Source\PSoC5/CapSense.c ****                 /* Enable Sensor */
1520:Generated_Source\PSoC5/CapSense.c ****                 CapSense_EnableScanSlot(sensor);
1521:Generated_Source\PSoC5/CapSense.c ****                     
1522:Generated_Source\PSoC5/CapSense.c ****                 /* Disable Vref from AMux */
1523:Generated_Source\PSoC5/CapSense.c ****                 CapSense_BufCH1_CAPS_CFG0_REG &= ~CapSense_CSBUF_ENABLE;
1524:Generated_Source\PSoC5/CapSense.c ****                 
1525:Generated_Source\PSoC5/CapSense.c ****             #else
1526:Generated_Source\PSoC5/CapSense.c ****                 /* Connect DSI output to Rb */
1527:Generated_Source\PSoC5/CapSense.c ****                 *CapSense_rbTable[CapSense_extRbCh1Cur] |= CapSense_BYP_MASK;
1528:Generated_Source\PSoC5/CapSense.c ****                 
1529:Generated_Source\PSoC5/CapSense.c ****                 /* Enable Sensor */
ARM GAS  C:\Users\Tri94\AppData\Local\Temp\ccFfdnZv.s 			page 35


1530:Generated_Source\PSoC5/CapSense.c ****                 CapSense_EnableScanSlot(sensor);
1531:Generated_Source\PSoC5/CapSense.c ****                 
1532:Generated_Source\PSoC5/CapSense.c ****                 /* Disable Vref from AMux */
1533:Generated_Source\PSoC5/CapSense.c ****                 CapSense_BufCH1_CAPS_CFG0_REG &= ~CapSense_CSBUF_ENABLE;
1534:Generated_Source\PSoC5/CapSense.c ****             
1535:Generated_Source\PSoC5/CapSense.c ****             #endif  /* (CapSense_CURRENT_SOURCE == CapSense_IDAC_SOURCE) */
1536:Generated_Source\PSoC5/CapSense.c ****         }
1537:Generated_Source\PSoC5/CapSense.c ****     
1538:Generated_Source\PSoC5/CapSense.c ****     #endif  /* (CapSense_DESIGN_TYPE == CapSense_ONE_CHANNEL_DESIGN) */
1539:Generated_Source\PSoC5/CapSense.c ****     
1540:Generated_Source\PSoC5/CapSense.c ****     /* Start measurament, pre-charge clocks are running and PRS as well */
1541:Generated_Source\PSoC5/CapSense.c ****     CapSense_CONTROL_REG |= CapSense_CTRL_START;
1542:Generated_Source\PSoC5/CapSense.c ****     
1543:Generated_Source\PSoC5/CapSense.c ****     /* Place enable interrupts here to eliminate influence on start of scanning */
1544:Generated_Source\PSoC5/CapSense.c ****     /* `#START CapSense_PreScan_EnableInt` */
1545:Generated_Source\PSoC5/CapSense.c **** 
1546:Generated_Source\PSoC5/CapSense.c ****     /* `#END` */
1547:Generated_Source\PSoC5/CapSense.c **** 
1548:Generated_Source\PSoC5/CapSense.c ****     #ifdef CapSense_PRE_SCAN_ENABLE_INT_CALLBACK
1549:Generated_Source\PSoC5/CapSense.c ****         CapSense_PreScan_EnableInt_Callback();
1550:Generated_Source\PSoC5/CapSense.c ****     #endif /* CapSense_PRE_SCAN_ENABLE_INT_CALLBACK */
1551:Generated_Source\PSoC5/CapSense.c **** }
1552:Generated_Source\PSoC5/CapSense.c **** 
1553:Generated_Source\PSoC5/CapSense.c **** 
1554:Generated_Source\PSoC5/CapSense.c **** #if (CapSense_DESIGN_TYPE == CapSense_ONE_CHANNEL_DESIGN)
1555:Generated_Source\PSoC5/CapSense.c ****     /*******************************************************************************
1556:Generated_Source\PSoC5/CapSense.c ****     * Function Name: CapSense_PostScan
1557:Generated_Source\PSoC5/CapSense.c ****     ********************************************************************************
1558:Generated_Source\PSoC5/CapSense.c ****     *
1559:Generated_Source\PSoC5/CapSense.c ****     * Summary:
1560:Generated_Source\PSoC5/CapSense.c ****     *  Store results of measurament in CapSense_SensorResult[] array,
1561:Generated_Source\PSoC5/CapSense.c ****     *  sets scan sensor in none sampling state, turn off Idac(Current Source IDAC),
1562:Generated_Source\PSoC5/CapSense.c ****     *  disconnect IDAC(Sink mode) or bleed resistor (Rb) and apply Vref on AMUX.
1563:Generated_Source\PSoC5/CapSense.c ****     *  Only one channel designs.
1564:Generated_Source\PSoC5/CapSense.c ****     *
1565:Generated_Source\PSoC5/CapSense.c ****     * Parameters:
1566:Generated_Source\PSoC5/CapSense.c ****     *  sensor:  Sensor number.
1567:Generated_Source\PSoC5/CapSense.c ****     *
1568:Generated_Source\PSoC5/CapSense.c ****     * Return:
1569:Generated_Source\PSoC5/CapSense.c ****     *  None
1570:Generated_Source\PSoC5/CapSense.c ****     *
1571:Generated_Source\PSoC5/CapSense.c ****     * Global Variables:
1572:Generated_Source\PSoC5/CapSense.c ****     *  CapSense_sensorRaw[] - used to store sensors raw data.
1573:Generated_Source\PSoC5/CapSense.c ****     *
1574:Generated_Source\PSoC5/CapSense.c ****     * Reentrant:
1575:Generated_Source\PSoC5/CapSense.c ****     *  No
1576:Generated_Source\PSoC5/CapSense.c ****     *
1577:Generated_Source\PSoC5/CapSense.c ****     *******************************************************************************/
1578:Generated_Source\PSoC5/CapSense.c ****     void CapSense_PostScan(uint8 sensor) CYREENTRANT
1579:Generated_Source\PSoC5/CapSense.c ****     {
 392              		.loc 1 1579 0
 393              		.cfi_startproc
 394              		@ args = 0, pretend = 0, frame = 0
 395              		@ frame_needed = 0, uses_anonymous_args = 0
 396              	.LVL28:
 397 0000 10B5     		push	{r4, lr}
 398              		.cfi_def_cfa_offset 8
ARM GAS  C:\Users\Tri94\AppData\Local\Temp\ccFfdnZv.s 			page 36


 399              		.cfi_offset 4, -8
 400              		.cfi_offset 14, -4
1580:Generated_Source\PSoC5/CapSense.c ****         /* Stop Capsensing and rearm sync */
1581:Generated_Source\PSoC5/CapSense.c ****         CapSense_CONTROL_REG &= (uint8)~(CapSense_CTRL_START | CapSense_CTRL_SYNC_EN);
 401              		.loc 1 1581 0
 402 0002 0E4A     		ldr	r2, .L34
 403 0004 1378     		ldrb	r3, [r2]	@ zero_extendqisi2
 404 0006 03F0FC03 		and	r3, r3, #252
 405 000a 1370     		strb	r3, [r2]
1582:Generated_Source\PSoC5/CapSense.c ****         
1583:Generated_Source\PSoC5/CapSense.c ****         /* Read SlotResult from Raw Counter */
1584:Generated_Source\PSoC5/CapSense.c ****         #if (CapSense_IMPLEMENTATION_CH0 == CapSense_MEASURE_IMPLEMENTATION_FF)
1585:Generated_Source\PSoC5/CapSense.c ****             CapSense_sensorRaw[sensor]  = CapSense_MEASURE_FULL_RANGE - 
1586:Generated_Source\PSoC5/CapSense.c ****                                                       CY_GET_REG16(CapSense_RAW_CH0_COUNTER_PTR);
1587:Generated_Source\PSoC5/CapSense.c ****         #else
1588:Generated_Source\PSoC5/CapSense.c ****             CapSense_sensorRaw[sensor]  = ((uint16) CapSense_RAW_CH0_COUNTER_HI_REG << 8u);
 406              		.loc 1 1588 0
 407 000c 0C4B     		ldr	r3, .L34+4
 408 000e 1B78     		ldrb	r3, [r3]	@ zero_extendqisi2
 409 0010 1B02     		lsls	r3, r3, #8
 410 0012 0C49     		ldr	r1, .L34+8
 411 0014 21F81030 		strh	r3, [r1, r0, lsl #1]	@ movhi
1589:Generated_Source\PSoC5/CapSense.c ****             CapSense_sensorRaw[sensor] |= (uint16) CapSense_RAW_CH0_COUNTER_LO_REG;
 412              		.loc 1 1589 0
 413 0018 6C3A     		subs	r2, r2, #108
 414 001a 1278     		ldrb	r2, [r2]	@ zero_extendqisi2
 415 001c 1343     		orrs	r3, r3, r2
1590:Generated_Source\PSoC5/CapSense.c ****             CapSense_sensorRaw[sensor]  = CapSense_MEASURE_FULL_RANGE -
 416              		.loc 1 1590 0
 417 001e DB43     		mvns	r3, r3
 418 0020 21F81030 		strh	r3, [r1, r0, lsl #1]	@ movhi
1591:Generated_Source\PSoC5/CapSense.c ****                                                       CapSense_sensorRaw[sensor];
1592:Generated_Source\PSoC5/CapSense.c ****         #endif  /* (CapSense_IMPLEMENTATION == CapSense_MEASURE_IMPLEMENTATION_FF) */
1593:Generated_Source\PSoC5/CapSense.c ****         
1594:Generated_Source\PSoC5/CapSense.c ****         /* Disable Sensor */
1595:Generated_Source\PSoC5/CapSense.c ****         CapSense_DisableScanSlot(sensor);
 419              		.loc 1 1595 0
 420 0024 FFF7FEFF 		bl	CapSense_DisableSensor
 421              	.LVL29:
1596:Generated_Source\PSoC5/CapSense.c ****         
1597:Generated_Source\PSoC5/CapSense.c ****         #if(CapSense_CURRENT_SOURCE)
1598:Generated_Source\PSoC5/CapSense.c ****             /* Turn off IDAC */
1599:Generated_Source\PSoC5/CapSense.c ****             CapSense_IdacCH0_SetValue(CapSense_TURN_OFF_IDAC);
 422              		.loc 1 1599 0
 423 0028 0020     		movs	r0, #0
 424 002a FFF7FEFF 		bl	CapSense_IdacCH0_SetValue
 425              	.LVL30:
1600:Generated_Source\PSoC5/CapSense.c ****             #if (CapSense_CURRENT_SOURCE == CapSense_IDAC_SINK)
1601:Generated_Source\PSoC5/CapSense.c ****                 /* Disconnect IDAC */
1602:Generated_Source\PSoC5/CapSense.c ****                 CapSense_AMuxCH0_Disconnect(CapSense_AMuxCH0_IDAC_CHANNEL);
1603:Generated_Source\PSoC5/CapSense.c ****             #endif  /* (CapSense_CURRENT_SOURCE == CapSense_IDAC_SINK) */
1604:Generated_Source\PSoC5/CapSense.c ****         #else
1605:Generated_Source\PSoC5/CapSense.c ****             /* Disconnect DSI output from Rb */
1606:Generated_Source\PSoC5/CapSense.c ****             *CapSense_rbTable[CapSense_extRbCh0Cur] &= ~CapSense_BYP_MASK; 
1607:Generated_Source\PSoC5/CapSense.c ****         #endif  /* (CapSense_CURRENT_SOURCE)*/
1608:Generated_Source\PSoC5/CapSense.c ****             
1609:Generated_Source\PSoC5/CapSense.c ****         /* Enable Vref on AMUX */
ARM GAS  C:\Users\Tri94\AppData\Local\Temp\ccFfdnZv.s 			page 37


1610:Generated_Source\PSoC5/CapSense.c ****         #if (CapSense_VREF_OPTIONS == CapSense_VREF_VDAC)
1611:Generated_Source\PSoC5/CapSense.c ****             CapSense_AMuxCH0_Connect(CapSense_AMuxCH0_VREF_CHANNEL);
1612:Generated_Source\PSoC5/CapSense.c ****         #else
1613:Generated_Source\PSoC5/CapSense.c ****             CapSense_BufCH0_CAPS_CFG0_REG |= CapSense_CSBUF_ENABLE;
 426              		.loc 1 1613 0
 427 002e 064A     		ldr	r2, .L34+12
 428 0030 1378     		ldrb	r3, [r2]	@ zero_extendqisi2
 429 0032 43F00103 		orr	r3, r3, #1
 430 0036 1370     		strb	r3, [r2]
 431 0038 10BD     		pop	{r4, pc}
 432              	.L35:
 433 003a 00BF     		.align	2
 434              	.L34:
 435 003c 79640040 		.word	1073767545
 436 0040 1D640040 		.word	1073767453
 437 0044 00000000 		.word	CapSense_sensorRaw
 438 0048 70580040 		.word	1073764464
 439              		.cfi_endproc
 440              	.LFE14:
 441              		.size	CapSense_PostScan, .-CapSense_PostScan
 442              		.section	.text.CapSense_SetPrescaler,"ax",%progbits
 443              		.align	2
 444              		.global	CapSense_SetPrescaler
 445              		.thumb
 446              		.thumb_func
 447              		.type	CapSense_SetPrescaler, %function
 448              	CapSense_SetPrescaler:
 449              	.LFB15:
1614:Generated_Source\PSoC5/CapSense.c ****         #endif  /* (CapSense_VREF_VDAC == CapSense_VREF_OPTIONS) */
1615:Generated_Source\PSoC5/CapSense.c ****     }
1616:Generated_Source\PSoC5/CapSense.c ****     
1617:Generated_Source\PSoC5/CapSense.c **** #else
1618:Generated_Source\PSoC5/CapSense.c **** 
1619:Generated_Source\PSoC5/CapSense.c ****     /*******************************************************************************
1620:Generated_Source\PSoC5/CapSense.c ****     * Function Name: CapSense_PostScan
1621:Generated_Source\PSoC5/CapSense.c ****     ********************************************************************************
1622:Generated_Source\PSoC5/CapSense.c ****     *
1623:Generated_Source\PSoC5/CapSense.c ****     * Summary:
1624:Generated_Source\PSoC5/CapSense.c ****     *  Store results of measurament in CapSense_SensorResult[] array,
1625:Generated_Source\PSoC5/CapSense.c ****     *  sets scan sensor in none sampling state, turn off Idac(Current Source IDAC),
1626:Generated_Source\PSoC5/CapSense.c ****     *  disconnect IDAC(Sink mode) or bleed resistor (Rb) and apply Vref on AMUX.
1627:Generated_Source\PSoC5/CapSense.c ****     *  Only used for channel 0 in two channes designs.
1628:Generated_Source\PSoC5/CapSense.c ****     *
1629:Generated_Source\PSoC5/CapSense.c ****     * Parameters:
1630:Generated_Source\PSoC5/CapSense.c ****     *  sensor:  Sensor number.
1631:Generated_Source\PSoC5/CapSense.c ****     *
1632:Generated_Source\PSoC5/CapSense.c ****     * Return:
1633:Generated_Source\PSoC5/CapSense.c ****     *  None
1634:Generated_Source\PSoC5/CapSense.c ****     *
1635:Generated_Source\PSoC5/CapSense.c ****     * Global Variables:
1636:Generated_Source\PSoC5/CapSense.c ****     *  CapSense_sensorRaw[] - used to store sensors raw data.
1637:Generated_Source\PSoC5/CapSense.c ****     *
1638:Generated_Source\PSoC5/CapSense.c ****     * Reentrant:
1639:Generated_Source\PSoC5/CapSense.c ****     *  No
1640:Generated_Source\PSoC5/CapSense.c ****     *
1641:Generated_Source\PSoC5/CapSense.c ****     *******************************************************************************/
1642:Generated_Source\PSoC5/CapSense.c ****     void CapSense_PostScanCh0(uint8 sensor) CYREENTRANT
ARM GAS  C:\Users\Tri94\AppData\Local\Temp\ccFfdnZv.s 			page 38


1643:Generated_Source\PSoC5/CapSense.c ****     {
1644:Generated_Source\PSoC5/CapSense.c ****         if (((CapSense_CONTROL_REG & CapSense_CTRL_WINDOW_EN__CH0) == 0u) && 
1645:Generated_Source\PSoC5/CapSense.c ****             ((CapSense_CONTROL_REG & CapSense_CTRL_WINDOW_EN__CH1) == 0u)) 
1646:Generated_Source\PSoC5/CapSense.c ****         {
1647:Generated_Source\PSoC5/CapSense.c ****             /* Stop Capsensing and rearm sync */
1648:Generated_Source\PSoC5/CapSense.c ****             CapSense_CONTROL_REG &= ~(CapSense_CTRL_START | CapSense_CTRL_SYNC_EN);
1649:Generated_Source\PSoC5/CapSense.c ****         }
1650:Generated_Source\PSoC5/CapSense.c ****         
1651:Generated_Source\PSoC5/CapSense.c ****         /* Read SlotResult from Raw Counter */
1652:Generated_Source\PSoC5/CapSense.c ****         #if (CapSense_IMPLEMENTATION_CH0 == CapSense_MEASURE_IMPLEMENTATION_FF)
1653:Generated_Source\PSoC5/CapSense.c ****             CapSense_sensorRaw[sensor]  = CapSense_MEASURE_FULL_RANGE - 
1654:Generated_Source\PSoC5/CapSense.c ****                                                       CY_GET_REG16(CapSense_RAW_CH0_COUNTER_PTR);
1655:Generated_Source\PSoC5/CapSense.c ****         #else
1656:Generated_Source\PSoC5/CapSense.c ****             CapSense_sensorRaw[sensor]  = ((uint16) CapSense_RAW_CH0_COUNTER_HI_REG << 8u);
1657:Generated_Source\PSoC5/CapSense.c ****             CapSense_sensorRaw[sensor] |= (uint16) CapSense_RAW_CH0_COUNTER_LO_REG;
1658:Generated_Source\PSoC5/CapSense.c ****             CapSense_sensorRaw[sensor]  = CapSense_MEASURE_FULL_RANGE - 
1659:Generated_Source\PSoC5/CapSense.c ****                                                       CapSense_sensorRaw[sensor];
1660:Generated_Source\PSoC5/CapSense.c ****         #endif  /* (CapSense_IMPLEMENTATION_CH0 == CapSense_MEASURE_IMPLEMENTATION_FF)*/
1661:Generated_Source\PSoC5/CapSense.c ****         
1662:Generated_Source\PSoC5/CapSense.c ****         /* Disable Sensor */
1663:Generated_Source\PSoC5/CapSense.c ****         CapSense_DisableScanSlot(sensor);
1664:Generated_Source\PSoC5/CapSense.c ****         
1665:Generated_Source\PSoC5/CapSense.c ****         #if (CapSense_CURRENT_SOURCE)
1666:Generated_Source\PSoC5/CapSense.c ****             /* Turn off IDAC */
1667:Generated_Source\PSoC5/CapSense.c ****             CapSense_IdacCH0_SetValue(CapSense_TURN_OFF_IDAC);
1668:Generated_Source\PSoC5/CapSense.c ****             #if (CapSense_CURRENT_SOURCE == CapSense_IDAC_SINK)
1669:Generated_Source\PSoC5/CapSense.c ****                 /* Disconnect IDAC */
1670:Generated_Source\PSoC5/CapSense.c ****                 CapSense_AMuxCH0_Disconnect(CapSense_AMuxCH0_IDAC_CHANNEL);
1671:Generated_Source\PSoC5/CapSense.c ****             #endif  /* (CapSense_CURRENT_SOURCE == CapSense_IDAC_SINK) */
1672:Generated_Source\PSoC5/CapSense.c ****         #else
1673:Generated_Source\PSoC5/CapSense.c ****             /* Disconnect DSI output from Rb */
1674:Generated_Source\PSoC5/CapSense.c ****             *CapSense_rbTable[CapSense_extRbCh0Cur] &= ~CapSense_BYP_MASK; 
1675:Generated_Source\PSoC5/CapSense.c ****         #endif  /* (CapSense_CURRENT_SOURCE)*/
1676:Generated_Source\PSoC5/CapSense.c ****         
1677:Generated_Source\PSoC5/CapSense.c ****         /* Enable Vref on AMUX */
1678:Generated_Source\PSoC5/CapSense.c ****         #if (CapSense_VREF_OPTIONS == CapSense_VREF_VDAC)
1679:Generated_Source\PSoC5/CapSense.c ****             CapSense_AMuxCH0_Connect(CapSense_AMuxCH0_VREF_CHANNEL);
1680:Generated_Source\PSoC5/CapSense.c ****         #else
1681:Generated_Source\PSoC5/CapSense.c ****             CapSense_BufCH0_CAPS_CFG0_REG |= CapSense_CSBUF_ENABLE;
1682:Generated_Source\PSoC5/CapSense.c ****         #endif  /* (CapSense_VREF_VDAC == CapSense_VREF_OPTIONS) */
1683:Generated_Source\PSoC5/CapSense.c ****     }
1684:Generated_Source\PSoC5/CapSense.c ****     
1685:Generated_Source\PSoC5/CapSense.c ****     
1686:Generated_Source\PSoC5/CapSense.c ****     /*******************************************************************************
1687:Generated_Source\PSoC5/CapSense.c ****     * Function Name: CapSense_PostScanCh1
1688:Generated_Source\PSoC5/CapSense.c ****     ********************************************************************************
1689:Generated_Source\PSoC5/CapSense.c ****     *
1690:Generated_Source\PSoC5/CapSense.c ****     * Summary:
1691:Generated_Source\PSoC5/CapSense.c ****     *  Store results of measurament in CapSense_SensorResult[] array,
1692:Generated_Source\PSoC5/CapSense.c ****     *  sets scan sensor in none sampling state, turn off Idac(Current Source IDAC), 
1693:Generated_Source\PSoC5/CapSense.c ****     *  disconnect IDAC(Sink mode) or bleed resistor (Rb) and apply Vref on AMUX.
1694:Generated_Source\PSoC5/CapSense.c ****     *  Only used for channel 1 in two channes designs.
1695:Generated_Source\PSoC5/CapSense.c ****     *
1696:Generated_Source\PSoC5/CapSense.c ****     * Parameters:
1697:Generated_Source\PSoC5/CapSense.c ****     *  sensor:  Sensor number.
1698:Generated_Source\PSoC5/CapSense.c ****     *
1699:Generated_Source\PSoC5/CapSense.c ****     * Return:
ARM GAS  C:\Users\Tri94\AppData\Local\Temp\ccFfdnZv.s 			page 39


1700:Generated_Source\PSoC5/CapSense.c ****     *  None
1701:Generated_Source\PSoC5/CapSense.c ****     *
1702:Generated_Source\PSoC5/CapSense.c ****     * Global Variables:
1703:Generated_Source\PSoC5/CapSense.c ****     *  CapSense_sensorRaw[] - used to store sensors raw data.
1704:Generated_Source\PSoC5/CapSense.c ****     *
1705:Generated_Source\PSoC5/CapSense.c ****     * Reentrant:
1706:Generated_Source\PSoC5/CapSense.c ****     *  No
1707:Generated_Source\PSoC5/CapSense.c ****     *
1708:Generated_Source\PSoC5/CapSense.c ****     *******************************************************************************/
1709:Generated_Source\PSoC5/CapSense.c ****     void CapSense_PostScanCh1(uint8 sensor) CYREENTRANT
1710:Generated_Source\PSoC5/CapSense.c ****     {
1711:Generated_Source\PSoC5/CapSense.c ****         if (((CapSense_CONTROL_REG & CapSense_CTRL_WINDOW_EN__CH0) == 0u) && 
1712:Generated_Source\PSoC5/CapSense.c ****             ((CapSense_CONTROL_REG & CapSense_CTRL_WINDOW_EN__CH1) == 0u))
1713:Generated_Source\PSoC5/CapSense.c ****         {
1714:Generated_Source\PSoC5/CapSense.c ****             /* Stop Capsensing and rearm sync */
1715:Generated_Source\PSoC5/CapSense.c ****             CapSense_CONTROL_REG &= ~(CapSense_CTRL_START | CapSense_CTRL_SYNC_EN);
1716:Generated_Source\PSoC5/CapSense.c ****         }
1717:Generated_Source\PSoC5/CapSense.c ****         
1718:Generated_Source\PSoC5/CapSense.c ****         /* Read SlotResult from Raw Counter */
1719:Generated_Source\PSoC5/CapSense.c ****         #if (CapSense_IMPLEMENTATION_CH1 == CapSense_MEASURE_IMPLEMENTATION_FF)
1720:Generated_Source\PSoC5/CapSense.c ****             CapSense_sensorRaw[sensor]  = CapSense_MEASURE_FULL_RANGE - 
1721:Generated_Source\PSoC5/CapSense.c ****                                                       CY_GET_REG16(CapSense_RAW_CH1_COUNTER_PTR);
1722:Generated_Source\PSoC5/CapSense.c ****         #else
1723:Generated_Source\PSoC5/CapSense.c ****             CapSense_sensorRaw[sensor]  = ((uint16) CapSense_RAW_CH1_COUNTER_HI_REG << 8u);
1724:Generated_Source\PSoC5/CapSense.c ****             CapSense_sensorRaw[sensor] |= (uint16) CapSense_RAW_CH1_COUNTER_LO_REG;
1725:Generated_Source\PSoC5/CapSense.c ****             CapSense_sensorRaw[sensor]  = CapSense_MEASURE_FULL_RANGE - 
1726:Generated_Source\PSoC5/CapSense.c ****                                                       CapSense_sensorRaw[sensor];
1727:Generated_Source\PSoC5/CapSense.c ****         #endif  /* (CapSense_IMPLEMENTATION_CH1 == CapSense_MEASURE_IMPLEMENTATION_FF)*/
1728:Generated_Source\PSoC5/CapSense.c ****         
1729:Generated_Source\PSoC5/CapSense.c ****         /* Disable Sensor */
1730:Generated_Source\PSoC5/CapSense.c ****         CapSense_DisableScanSlot(sensor);
1731:Generated_Source\PSoC5/CapSense.c ****         
1732:Generated_Source\PSoC5/CapSense.c ****         #if (CapSense_CURRENT_SOURCE)
1733:Generated_Source\PSoC5/CapSense.c ****             /* Turn off IDAC */
1734:Generated_Source\PSoC5/CapSense.c ****             CapSense_IdacCH1_SetValue(CapSense_TURN_OFF_IDAC);
1735:Generated_Source\PSoC5/CapSense.c ****             #if (CapSense_CURRENT_SOURCE == CapSense_IDAC_SINK)
1736:Generated_Source\PSoC5/CapSense.c ****                 /* Disconnect IDAC */
1737:Generated_Source\PSoC5/CapSense.c ****                 CapSense_AMuxCH1_Disconnect(CapSense_AMuxCH1_IDAC_CHANNEL);
1738:Generated_Source\PSoC5/CapSense.c ****             #endif  /* (CapSense_CURRENT_SOURCE == CapSense_IDAC_SINK) */
1739:Generated_Source\PSoC5/CapSense.c ****         #else
1740:Generated_Source\PSoC5/CapSense.c ****             /* Disconnect DSI output from Rb */
1741:Generated_Source\PSoC5/CapSense.c ****             *CapSense_rbTable[CapSense_extRbCh1Cur] &= ~CapSense_BYP_MASK; 
1742:Generated_Source\PSoC5/CapSense.c ****         #endif  /* (CapSense_CURRENT_SOURCE)*/
1743:Generated_Source\PSoC5/CapSense.c **** 
1744:Generated_Source\PSoC5/CapSense.c ****         /* Enable Vref on AMUX */
1745:Generated_Source\PSoC5/CapSense.c ****         #if (CapSense_VREF_OPTIONS == CapSense_VREF_VDAC)
1746:Generated_Source\PSoC5/CapSense.c ****             CapSense_AMuxCH1_Connect(CapSense_AMuxCH1_VREF_CHANNEL);
1747:Generated_Source\PSoC5/CapSense.c ****         #else
1748:Generated_Source\PSoC5/CapSense.c ****             CapSense_BufCH1_CAPS_CFG0_REG |= CapSense_CSBUF_ENABLE;
1749:Generated_Source\PSoC5/CapSense.c ****         #endif  /* (CapSense_VREF_VDAC == CapSense_VREF_OPTIONS) */
1750:Generated_Source\PSoC5/CapSense.c ****     }
1751:Generated_Source\PSoC5/CapSense.c ****     
1752:Generated_Source\PSoC5/CapSense.c **** #endif  /* CapSense_DESIGN_TYPE */
1753:Generated_Source\PSoC5/CapSense.c **** 
1754:Generated_Source\PSoC5/CapSense.c **** 
1755:Generated_Source\PSoC5/CapSense.c **** #if (CapSense_CURRENT_SOURCE == CapSense_EXTERNAL_RB)
1756:Generated_Source\PSoC5/CapSense.c ****     /*******************************************************************************
ARM GAS  C:\Users\Tri94\AppData\Local\Temp\ccFfdnZv.s 			page 40


1757:Generated_Source\PSoC5/CapSense.c ****     * Function Name:  CapSense_InitRb
1758:Generated_Source\PSoC5/CapSense.c ****     ********************************************************************************
1759:Generated_Source\PSoC5/CapSense.c ****     *
1760:Generated_Source\PSoC5/CapSense.c ****     * Summary:
1761:Generated_Source\PSoC5/CapSense.c ****     *  Sets all Rbleed resistor to High-Z mode. The first Rbleed resistor is active
1762:Generated_Source\PSoC5/CapSense.c ****     *  while next measure.
1763:Generated_Source\PSoC5/CapSense.c ****     *  This function is available only if Current Source is External Resistor.
1764:Generated_Source\PSoC5/CapSense.c ****     *
1765:Generated_Source\PSoC5/CapSense.c ****     * Parameters:
1766:Generated_Source\PSoC5/CapSense.c ****     *  None
1767:Generated_Source\PSoC5/CapSense.c ****     *
1768:Generated_Source\PSoC5/CapSense.c ****     * Return:
1769:Generated_Source\PSoC5/CapSense.c ****     *  None
1770:Generated_Source\PSoC5/CapSense.c ****     *
1771:Generated_Source\PSoC5/CapSense.c ****     ********************************************************************************/
1772:Generated_Source\PSoC5/CapSense.c ****     void CapSense_InitRb(void) 
1773:Generated_Source\PSoC5/CapSense.c ****     {
1774:Generated_Source\PSoC5/CapSense.c ****         uint8 i;
1775:Generated_Source\PSoC5/CapSense.c ****         
1776:Generated_Source\PSoC5/CapSense.c ****         /* Disable all Rb */
1777:Generated_Source\PSoC5/CapSense.c ****         for(i = 0u; i < CapSense_TOTAL_RB_NUMBER; i++)
1778:Generated_Source\PSoC5/CapSense.c ****         {
1779:Generated_Source\PSoC5/CapSense.c ****             /* Make High-Z */
1780:Generated_Source\PSoC5/CapSense.c ****             *CapSense_rbTable[i] = CapSense_PRT_PC_HIGHZ;
1781:Generated_Source\PSoC5/CapSense.c ****         }
1782:Generated_Source\PSoC5/CapSense.c ****     }
1783:Generated_Source\PSoC5/CapSense.c ****     
1784:Generated_Source\PSoC5/CapSense.c ****     
1785:Generated_Source\PSoC5/CapSense.c ****     /*******************************************************************************
1786:Generated_Source\PSoC5/CapSense.c ****     * Function Name: CapSense_SetRBleed
1787:Generated_Source\PSoC5/CapSense.c ****     ********************************************************************************
1788:Generated_Source\PSoC5/CapSense.c ****     *
1789:Generated_Source\PSoC5/CapSense.c ****     * Summary:
1790:Generated_Source\PSoC5/CapSense.c ****     *  Sets the pin to use for the bleed resistor (Rb) connection. This function
1791:Generated_Source\PSoC5/CapSense.c ****     *  can be called at runtime to select the current Rb pin setting from those 
1792:Generated_Source\PSoC5/CapSense.c ****     *  defined customizer. The function overwrites the component parameter setting. 
1793:Generated_Source\PSoC5/CapSense.c ****     *  This function is available only if Current Source is External Resistor.
1794:Generated_Source\PSoC5/CapSense.c ****     * 
1795:Generated_Source\PSoC5/CapSense.c ****     * Parameters:
1796:Generated_Source\PSoC5/CapSense.c ****     *  rbleed:  Ordering number for bleed resistor terminal defined in CapSense
1797:Generated_Source\PSoC5/CapSense.c ****     *  customizer.
1798:Generated_Source\PSoC5/CapSense.c ****     *
1799:Generated_Source\PSoC5/CapSense.c ****     * Return:
1800:Generated_Source\PSoC5/CapSense.c ****     *  None
1801:Generated_Source\PSoC5/CapSense.c ****     *
1802:Generated_Source\PSoC5/CapSense.c ****     * Global Variables:
1803:Generated_Source\PSoC5/CapSense.c ****     *  CapSense_extRbCh0Cur - used to store current number of active 
1804:Generated_Source\PSoC5/CapSense.c ****     *  bleed resistor (Rb) of channel 0.
1805:Generated_Source\PSoC5/CapSense.c ****     *  CapSense_extRbCh1Cur - used to store current number of active 
1806:Generated_Source\PSoC5/CapSense.c ****     *  bleed resistor (Rb) of channel 1.
1807:Generated_Source\PSoC5/CapSense.c ****     *  The active bleed resistor (Rb) pin will be used while next measurement  
1808:Generated_Source\PSoC5/CapSense.c ****     *  cycle.
1809:Generated_Source\PSoC5/CapSense.c ****     *
1810:Generated_Source\PSoC5/CapSense.c ****     * Reentrant:
1811:Generated_Source\PSoC5/CapSense.c ****     *  No
1812:Generated_Source\PSoC5/CapSense.c ****     *
1813:Generated_Source\PSoC5/CapSense.c ****     *******************************************************************************/
ARM GAS  C:\Users\Tri94\AppData\Local\Temp\ccFfdnZv.s 			page 41


1814:Generated_Source\PSoC5/CapSense.c ****     void CapSense_SetRBleed(uint8 rbleed) 
1815:Generated_Source\PSoC5/CapSense.c ****     {
1816:Generated_Source\PSoC5/CapSense.c ****         #if (CapSense_DESIGN_TYPE == CapSense_ONE_CHANNEL_DESIGN)
1817:Generated_Source\PSoC5/CapSense.c ****             CapSense_extRbCh0Cur = rbleed;
1818:Generated_Source\PSoC5/CapSense.c ****             
1819:Generated_Source\PSoC5/CapSense.c ****         #else
1820:Generated_Source\PSoC5/CapSense.c ****             if(rbleed < CapSense_TOTAL_RB_NUMBER__CH0)
1821:Generated_Source\PSoC5/CapSense.c ****             {
1822:Generated_Source\PSoC5/CapSense.c ****                 CapSense_extRbCh0Cur = rbleed;
1823:Generated_Source\PSoC5/CapSense.c ****             }
1824:Generated_Source\PSoC5/CapSense.c ****             else
1825:Generated_Source\PSoC5/CapSense.c ****             {
1826:Generated_Source\PSoC5/CapSense.c ****                 CapSense_extRbCh1Cur = (rbleed - CapSense_TOTAL_RB_NUMBER__CH0);   
1827:Generated_Source\PSoC5/CapSense.c ****             }
1828:Generated_Source\PSoC5/CapSense.c ****     
1829:Generated_Source\PSoC5/CapSense.c ****         #endif  /* CapSense_DESIGN_TYPE == CapSense_ONE_CHANNEL_DESIGN */ 
1830:Generated_Source\PSoC5/CapSense.c ****     }
1831:Generated_Source\PSoC5/CapSense.c **** #endif /* CapSense_CURRENT_SOURCE == CapSense_EXTERNAL_RB */ 
1832:Generated_Source\PSoC5/CapSense.c **** 
1833:Generated_Source\PSoC5/CapSense.c **** #if (CapSense_PRESCALER_OPTIONS)
1834:Generated_Source\PSoC5/CapSense.c ****     /*******************************************************************************
1835:Generated_Source\PSoC5/CapSense.c ****     * Function Name: CapSense_SetPrescaler
1836:Generated_Source\PSoC5/CapSense.c ****     ********************************************************************************
1837:Generated_Source\PSoC5/CapSense.c ****     *
1838:Generated_Source\PSoC5/CapSense.c ****     * Summary:
1839:Generated_Source\PSoC5/CapSense.c ****     *  Sets analog switch divider.
1840:Generated_Source\PSoC5/CapSense.c ****     *
1841:Generated_Source\PSoC5/CapSense.c ****     * Parameters:
1842:Generated_Source\PSoC5/CapSense.c ****     *  prescaler:  Sets prescaler divider values.
1843:Generated_Source\PSoC5/CapSense.c ****     *
1844:Generated_Source\PSoC5/CapSense.c ****     * Return:
1845:Generated_Source\PSoC5/CapSense.c ****     *  None
1846:Generated_Source\PSoC5/CapSense.c ****     *
1847:Generated_Source\PSoC5/CapSense.c ****     *******************************************************************************/
1848:Generated_Source\PSoC5/CapSense.c ****     void CapSense_SetPrescaler(uint8 prescaler) CYREENTRANT
1849:Generated_Source\PSoC5/CapSense.c ****     {
 450              		.loc 1 1849 0
 451              		.cfi_startproc
 452              		@ args = 0, pretend = 0, frame = 0
 453              		@ frame_needed = 0, uses_anonymous_args = 0
 454              		@ link register save eliminated.
 455              	.LVL31:
1850:Generated_Source\PSoC5/CapSense.c ****         /* Set Prescaler */
1851:Generated_Source\PSoC5/CapSense.c ****         #if (CapSense_PRESCALER_OPTIONS == CapSense_PRESCALER_UDB)
1852:Generated_Source\PSoC5/CapSense.c ****             CapSense_PRESCALER_PERIOD_REG = prescaler;
 456              		.loc 1 1852 0
 457 0000 024B     		ldr	r3, .L37
 458 0002 1870     		strb	r0, [r3]
1853:Generated_Source\PSoC5/CapSense.c ****             CapSense_PRESCALER_COMPARE_REG = (prescaler >> 1u);
 459              		.loc 1 1853 0
 460 0004 4008     		lsrs	r0, r0, #1
 461              	.LVL32:
 462 0006 1033     		adds	r3, r3, #16
 463              	.LVL33:
 464 0008 1870     		strb	r0, [r3]
 465              	.LVL34:
 466 000a 7047     		bx	lr
ARM GAS  C:\Users\Tri94\AppData\Local\Temp\ccFfdnZv.s 			page 42


 467              	.L38:
 468              		.align	2
 469              	.L37:
 470 000c 28640040 		.word	1073767464
 471              		.cfi_endproc
 472              	.LFE15:
 473              		.size	CapSense_SetPrescaler, .-CapSense_SetPrescaler
 474              		.section	.text.CapSense_SetScanSlotSettings,"ax",%progbits
 475              		.align	2
 476              		.global	CapSense_SetScanSlotSettings
 477              		.thumb
 478              		.thumb_func
 479              		.type	CapSense_SetScanSlotSettings, %function
 480              	CapSense_SetScanSlotSettings:
 481              	.LFB5:
 804:Generated_Source\PSoC5/CapSense.c ****     uint8 widget;
 482              		.loc 1 804 0
 483              		.cfi_startproc
 484              		@ args = 0, pretend = 0, frame = 0
 485              		@ frame_needed = 0, uses_anonymous_args = 0
 486              	.LVL35:
 487 0000 38B5     		push	{r3, r4, r5, lr}
 488              		.cfi_def_cfa_offset 16
 489              		.cfi_offset 3, -16
 490              		.cfi_offset 4, -12
 491              		.cfi_offset 5, -8
 492              		.cfi_offset 14, -4
 493 0002 0446     		mov	r4, r0
 494              	.LVL36:
 813:Generated_Source\PSoC5/CapSense.c ****         #endif  /* CapSense_CURRENT_SOURCE */
 495              		.loc 1 813 0
 496 0004 054D     		ldr	r5, .L41
 497 0006 285C     		ldrb	r0, [r5, r0]	@ zero_extendqisi2
 498              	.LVL37:
 499 0008 FFF7FEFF 		bl	CapSense_IdacCH0_SetValue
 500              	.LVL38:
 821:Generated_Source\PSoC5/CapSense.c ****         #endif  /* (CapSense_IMPLEMENTATION_CH0 == CapSense_MEASURE_IMPLEMENTATION_FF) */ 
 501              		.loc 1 821 0
 502 000c 2A79     		ldrb	r2, [r5, #4]	@ zero_extendqisi2
 503 000e 044B     		ldr	r3, .L41+4
 504 0010 1A70     		strb	r2, [r3]
 826:Generated_Source\PSoC5/CapSense.c ****         #elif (CapSense_PRESCALER_OPTIONS)
 505              		.loc 1 826 0
 506 0012 044B     		ldr	r3, .L41+8
 507 0014 185D     		ldrb	r0, [r3, r4]	@ zero_extendqisi2
 508 0016 FFF7FEFF 		bl	CapSense_SetPrescaler
 509              	.LVL39:
 510 001a 38BD     		pop	{r3, r4, r5, pc}
 511              	.L42:
 512              		.align	2
 513              	.L41:
 514 001c 00000000 		.word	.LANCHOR1
 515 0020 5C640040 		.word	1073767516
 516 0024 00000000 		.word	CapSense_analogSwitchDivider
 517              		.cfi_endproc
 518              	.LFE5:
 519              		.size	CapSense_SetScanSlotSettings, .-CapSense_SetScanSlotSettings
ARM GAS  C:\Users\Tri94\AppData\Local\Temp\ccFfdnZv.s 			page 43


 520              		.section	.text.CapSense_PreScan,"ax",%progbits
 521              		.align	2
 522              		.global	CapSense_PreScan
 523              		.thumb
 524              		.thumb_func
 525              		.type	CapSense_PreScan, %function
 526              	CapSense_PreScan:
 527              	.LFB13:
1411:Generated_Source\PSoC5/CapSense.c ****     /* Set Sensor Settings */
 528              		.loc 1 1411 0
 529              		.cfi_startproc
 530              		@ args = 0, pretend = 0, frame = 0
 531              		@ frame_needed = 0, uses_anonymous_args = 0
 532              	.LVL40:
 533 0000 38B5     		push	{r3, r4, r5, lr}
 534              		.cfi_def_cfa_offset 16
 535              		.cfi_offset 3, -16
 536              		.cfi_offset 4, -12
 537              		.cfi_offset 5, -8
 538              		.cfi_offset 14, -4
 539 0002 0546     		mov	r5, r0
1413:Generated_Source\PSoC5/CapSense.c ****     
 540              		.loc 1 1413 0
 541 0004 FFF7FEFF 		bl	CapSense_SetScanSlotSettings
 542              	.LVL41:
1425:Generated_Source\PSoC5/CapSense.c ****         
 543              		.loc 1 1425 0
 544 0008 084C     		ldr	r4, .L45
 545 000a 2378     		ldrb	r3, [r4]	@ zero_extendqisi2
 546 000c 43F00103 		orr	r3, r3, #1
 547 0010 2370     		strb	r3, [r4]
1433:Generated_Source\PSoC5/CapSense.c ****             #endif  /* (CapSense_VREF_VDAC != CapSense_VREF_OPTIONS) */
 548              		.loc 1 1433 0
 549 0012 074A     		ldr	r2, .L45+4
 550 0014 1378     		ldrb	r3, [r2]	@ zero_extendqisi2
 551 0016 03F0FE03 		and	r3, r3, #254
 552 001a 1370     		strb	r3, [r2]
1437:Generated_Source\PSoC5/CapSense.c ****             
 553              		.loc 1 1437 0
 554 001c 2846     		mov	r0, r5
 555 001e FFF7FEFF 		bl	CapSense_EnableSensor
 556              	.LVL42:
1541:Generated_Source\PSoC5/CapSense.c ****     
 557              		.loc 1 1541 0
 558 0022 2378     		ldrb	r3, [r4]	@ zero_extendqisi2
 559 0024 43F00203 		orr	r3, r3, #2
 560 0028 2370     		strb	r3, [r4]
 561 002a 38BD     		pop	{r3, r4, r5, pc}
 562              	.L46:
 563              		.align	2
 564              	.L45:
 565 002c 79640040 		.word	1073767545
 566 0030 70580040 		.word	1073764464
 567              		.cfi_endproc
 568              	.LFE13:
 569              		.size	CapSense_PreScan, .-CapSense_PreScan
 570              		.section	.text.CapSense_ScanSensor,"ax",%progbits
ARM GAS  C:\Users\Tri94\AppData\Local\Temp\ccFfdnZv.s 			page 44


 571              		.align	2
 572              		.global	CapSense_ScanSensor
 573              		.thumb
 574              		.thumb_func
 575              		.type	CapSense_ScanSensor, %function
 576              	CapSense_ScanSensor:
 577              	.LFB6:
 916:Generated_Source\PSoC5/CapSense.c ****     /* Clears status/control variable and set sensorIndex */
 578              		.loc 1 916 0
 579              		.cfi_startproc
 580              		@ args = 0, pretend = 0, frame = 0
 581              		@ frame_needed = 0, uses_anonymous_args = 0
 582              	.LVL43:
 583 0000 08B5     		push	{r3, lr}
 584              		.cfi_def_cfa_offset 8
 585              		.cfi_offset 3, -8
 586              		.cfi_offset 14, -4
 918:Generated_Source\PSoC5/CapSense.c ****     CapSense_sensorIndex = sensor;
 587              		.loc 1 918 0
 588 0002 054B     		ldr	r3, .L49
 589 0004 0022     		movs	r2, #0
 590 0006 1A70     		strb	r2, [r3]
 919:Generated_Source\PSoC5/CapSense.c ****     
 591              		.loc 1 919 0
 592 0008 044A     		ldr	r2, .L49+4
 593 000a 1070     		strb	r0, [r2]
 923:Generated_Source\PSoC5/CapSense.c ****         CapSense_PreScan(sensor);
 594              		.loc 1 923 0
 595 000c 8122     		movs	r2, #129
 596 000e 1A70     		strb	r2, [r3]
 924:Generated_Source\PSoC5/CapSense.c ****         
 597              		.loc 1 924 0
 598 0010 FFF7FEFF 		bl	CapSense_PreScan
 599              	.LVL44:
 600 0014 08BD     		pop	{r3, pc}
 601              	.L50:
 602 0016 00BF     		.align	2
 603              	.L49:
 604 0018 00000000 		.word	CapSense_csv
 605 001c 00000000 		.word	CapSense_sensorIndex
 606              		.cfi_endproc
 607              	.LFE6:
 608              		.size	CapSense_ScanSensor, .-CapSense_ScanSensor
 609              		.section	.text.CapSense_ScanEnabledWidgets,"ax",%progbits
 610              		.align	2
 611              		.global	CapSense_ScanEnabledWidgets
 612              		.thumb
 613              		.thumb_func
 614              		.type	CapSense_ScanEnabledWidgets, %function
 615              	CapSense_ScanEnabledWidgets:
 616              	.LFB7:
 993:Generated_Source\PSoC5/CapSense.c ****     /* Clears status/control variable and set sensorIndex */
 617              		.loc 1 993 0
 618              		.cfi_startproc
 619              		@ args = 0, pretend = 0, frame = 0
 620              		@ frame_needed = 0, uses_anonymous_args = 0
 621 0000 10B5     		push	{r4, lr}
ARM GAS  C:\Users\Tri94\AppData\Local\Temp\ccFfdnZv.s 			page 45


 622              		.cfi_def_cfa_offset 8
 623              		.cfi_offset 4, -8
 624              		.cfi_offset 14, -4
 995:Generated_Source\PSoC5/CapSense.c ****     CapSense_sensorIndex = 0xFFu;
 625              		.loc 1 995 0
 626 0002 0022     		movs	r2, #0
 627 0004 0A4B     		ldr	r3, .L54
 628 0006 1A70     		strb	r2, [r3]
 996:Generated_Source\PSoC5/CapSense.c ****     
 629              		.loc 1 996 0
 630 0008 0A4C     		ldr	r4, .L54+4
 631 000a FF23     		movs	r3, #255
 632 000c 2370     		strb	r3, [r4]
1000:Generated_Source\PSoC5/CapSense.c **** 
 633              		.loc 1 1000 0
 634 000e 2078     		ldrb	r0, [r4]	@ zero_extendqisi2
 635 0010 FFF7FEFF 		bl	CapSense_FindNextSensor
 636              	.LVL45:
 637 0014 2070     		strb	r0, [r4]
1003:Generated_Source\PSoC5/CapSense.c ****         {
 638              		.loc 1 1003 0
 639 0016 2378     		ldrb	r3, [r4]	@ zero_extendqisi2
 640 0018 13F0FF0F 		tst	r3, #255
 641 001c 07D1     		bne	.L51
1005:Generated_Source\PSoC5/CapSense.c ****             CapSense_PreScan(CapSense_sensorIndex);
 642              		.loc 1 1005 0
 643 001e 044A     		ldr	r2, .L54
 644 0020 1378     		ldrb	r3, [r2]	@ zero_extendqisi2
 645 0022 43F00103 		orr	r3, r3, #1
 646 0026 1370     		strb	r3, [r2]
1006:Generated_Source\PSoC5/CapSense.c ****         }
 647              		.loc 1 1006 0
 648 0028 2078     		ldrb	r0, [r4]	@ zero_extendqisi2
 649 002a FFF7FEFF 		bl	CapSense_PreScan
 650              	.LVL46:
 651              	.L51:
 652 002e 10BD     		pop	{r4, pc}
 653              	.L55:
 654              		.align	2
 655              	.L54:
 656 0030 00000000 		.word	CapSense_csv
 657 0034 00000000 		.word	CapSense_sensorIndex
 658              		.cfi_endproc
 659              	.LFE7:
 660              		.size	CapSense_ScanEnabledWidgets, .-CapSense_ScanEnabledWidgets
 661              		.section	.text.CapSense_GetPrescaler,"ax",%progbits
 662              		.align	2
 663              		.global	CapSense_GetPrescaler
 664              		.thumb
 665              		.thumb_func
 666              		.type	CapSense_GetPrescaler, %function
 667              	CapSense_GetPrescaler:
 668              	.LFB16:
1854:Generated_Source\PSoC5/CapSense.c ****         #elif (CapSense_PRESCALER_OPTIONS == CapSense_PRESCALER_FF)
1855:Generated_Source\PSoC5/CapSense.c ****             CY_SET_REG16(CapSense_PRESCALER_PERIOD_PTR, (uint16) prescaler);
1856:Generated_Source\PSoC5/CapSense.c ****             CY_SET_REG16(CapSense_PRESCALER_COMPARE_PTR, (uint16) (prescaler >> 1u));
1857:Generated_Source\PSoC5/CapSense.c ****         #else
ARM GAS  C:\Users\Tri94\AppData\Local\Temp\ccFfdnZv.s 			page 46


1858:Generated_Source\PSoC5/CapSense.c ****             /* Do nothing = config without prescaler */
1859:Generated_Source\PSoC5/CapSense.c ****         #endif  /* (CapSense_PRESCALER_OPTIONS == CapSense_PRESCALER_UDB) */
1860:Generated_Source\PSoC5/CapSense.c ****     }
1861:Generated_Source\PSoC5/CapSense.c **** 
1862:Generated_Source\PSoC5/CapSense.c **** 
1863:Generated_Source\PSoC5/CapSense.c ****     /*******************************************************************************
1864:Generated_Source\PSoC5/CapSense.c ****     * Function Name: CapSense_GetPrescaler
1865:Generated_Source\PSoC5/CapSense.c ****     ********************************************************************************
1866:Generated_Source\PSoC5/CapSense.c ****     *
1867:Generated_Source\PSoC5/CapSense.c ****     * Summary:
1868:Generated_Source\PSoC5/CapSense.c ****     *  Gets analog switch divider.
1869:Generated_Source\PSoC5/CapSense.c ****     *
1870:Generated_Source\PSoC5/CapSense.c ****     * Parameters:
1871:Generated_Source\PSoC5/CapSense.c ****     *  None
1872:Generated_Source\PSoC5/CapSense.c ****     *
1873:Generated_Source\PSoC5/CapSense.c ****     * Return:
1874:Generated_Source\PSoC5/CapSense.c ****     *   Returns the prescaler divider value.
1875:Generated_Source\PSoC5/CapSense.c ****     *
1876:Generated_Source\PSoC5/CapSense.c ****     *******************************************************************************/
1877:Generated_Source\PSoC5/CapSense.c ****     uint8 CapSense_GetPrescaler(void) 
1878:Generated_Source\PSoC5/CapSense.c ****     {
 669              		.loc 1 1878 0
 670              		.cfi_startproc
 671              		@ args = 0, pretend = 0, frame = 0
 672              		@ frame_needed = 0, uses_anonymous_args = 0
 673              		@ link register save eliminated.
 674              	.LVL47:
1879:Generated_Source\PSoC5/CapSense.c ****         uint8 prescaler = 0u;
1880:Generated_Source\PSoC5/CapSense.c **** 
1881:Generated_Source\PSoC5/CapSense.c ****         /* Get Prescaler */
1882:Generated_Source\PSoC5/CapSense.c ****         #if (CapSense_PRESCALER_OPTIONS == CapSense_PRESCALER_UDB)
1883:Generated_Source\PSoC5/CapSense.c ****             prescaler = CapSense_PRESCALER_PERIOD_REG;
 675              		.loc 1 1883 0
 676 0000 014B     		ldr	r3, .L57
 677 0002 1878     		ldrb	r0, [r3]	@ zero_extendqisi2
 678              	.LVL48:
1884:Generated_Source\PSoC5/CapSense.c ****             
1885:Generated_Source\PSoC5/CapSense.c ****         #elif (CapSense_PRESCALER_OPTIONS == CapSense_PRESCALER_FF)
1886:Generated_Source\PSoC5/CapSense.c ****             prescaler = (uint8) CY_GET_REG16(CapSense_PRESCALER_PERIOD_PTR);
1887:Generated_Source\PSoC5/CapSense.c ****             
1888:Generated_Source\PSoC5/CapSense.c ****         #else
1889:Generated_Source\PSoC5/CapSense.c ****             /* Do nothing = config without prescaler */
1890:Generated_Source\PSoC5/CapSense.c ****         #endif  /* (CapSense_PRESCALER_OPTIONS == CapSense_PRESCALER_UDB) */
1891:Generated_Source\PSoC5/CapSense.c ****         
1892:Generated_Source\PSoC5/CapSense.c ****         return (prescaler);
1893:Generated_Source\PSoC5/CapSense.c ****     }
 679              		.loc 1 1893 0
 680 0004 7047     		bx	lr
 681              	.L58:
 682 0006 00BF     		.align	2
 683              	.L57:
 684 0008 28640040 		.word	1073767464
 685              		.cfi_endproc
 686              	.LFE16:
 687              		.size	CapSense_GetPrescaler, .-CapSense_GetPrescaler
 688              		.section	.text.CapSense_SetScanSpeed,"ax",%progbits
 689              		.align	2
ARM GAS  C:\Users\Tri94\AppData\Local\Temp\ccFfdnZv.s 			page 47


 690              		.global	CapSense_SetScanSpeed
 691              		.thumb
 692              		.thumb_func
 693              		.type	CapSense_SetScanSpeed, %function
 694              	CapSense_SetScanSpeed:
 695              	.LFB17:
1894:Generated_Source\PSoC5/CapSense.c **** #endif  /* CapSense_PRESCALER_OPTIONS */
1895:Generated_Source\PSoC5/CapSense.c **** 
1896:Generated_Source\PSoC5/CapSense.c **** 
1897:Generated_Source\PSoC5/CapSense.c **** /*******************************************************************************
1898:Generated_Source\PSoC5/CapSense.c **** * Function Name: CapSense_SetScanSpeed
1899:Generated_Source\PSoC5/CapSense.c **** ********************************************************************************
1900:Generated_Source\PSoC5/CapSense.c **** *
1901:Generated_Source\PSoC5/CapSense.c **** * Summary:
1902:Generated_Source\PSoC5/CapSense.c **** *  Sets ScanSpeed divider.
1903:Generated_Source\PSoC5/CapSense.c **** *
1904:Generated_Source\PSoC5/CapSense.c **** * Parameters:
1905:Generated_Source\PSoC5/CapSense.c **** *  scanspeed:  Sets ScanSpeed divider.
1906:Generated_Source\PSoC5/CapSense.c **** *
1907:Generated_Source\PSoC5/CapSense.c **** * Return:
1908:Generated_Source\PSoC5/CapSense.c **** *  None
1909:Generated_Source\PSoC5/CapSense.c **** *
1910:Generated_Source\PSoC5/CapSense.c **** *******************************************************************************/
1911:Generated_Source\PSoC5/CapSense.c **** void CapSense_SetScanSpeed(uint8 scanSpeed) 
1912:Generated_Source\PSoC5/CapSense.c **** {
 696              		.loc 1 1912 0
 697              		.cfi_startproc
 698              		@ args = 0, pretend = 0, frame = 0
 699              		@ frame_needed = 0, uses_anonymous_args = 0
 700              		@ link register save eliminated.
 701              	.LVL49:
1913:Generated_Source\PSoC5/CapSense.c ****     CapSense_SCANSPEED_PERIOD_REG = scanSpeed; 
 702              		.loc 1 1913 0
 703 0000 014B     		ldr	r3, .L60
 704 0002 1870     		strb	r0, [r3]
 705 0004 7047     		bx	lr
 706              	.L61:
 707 0006 00BF     		.align	2
 708              	.L60:
 709 0008 8A640040 		.word	1073767562
 710              		.cfi_endproc
 711              	.LFE17:
 712              		.size	CapSense_SetScanSpeed, .-CapSense_SetScanSpeed
 713              		.section	.text.CapSense_SetAnalogSwitchesSource,"ax",%progbits
 714              		.align	2
 715              		.global	CapSense_SetAnalogSwitchesSource
 716              		.thumb
 717              		.thumb_func
 718              		.type	CapSense_SetAnalogSwitchesSource, %function
 719              	CapSense_SetAnalogSwitchesSource:
 720              	.LFB18:
1914:Generated_Source\PSoC5/CapSense.c **** }
1915:Generated_Source\PSoC5/CapSense.c **** 
1916:Generated_Source\PSoC5/CapSense.c **** 
1917:Generated_Source\PSoC5/CapSense.c **** #if (CapSense_PRS_OPTIONS)
1918:Generated_Source\PSoC5/CapSense.c ****     /*******************************************************************************
1919:Generated_Source\PSoC5/CapSense.c ****     * Function Name: CapSense_SetAnalogSwitchesSource
ARM GAS  C:\Users\Tri94\AppData\Local\Temp\ccFfdnZv.s 			page 48


1920:Generated_Source\PSoC5/CapSense.c ****     ********************************************************************************
1921:Generated_Source\PSoC5/CapSense.c ****     *
1922:Generated_Source\PSoC5/CapSense.c ****     * Summary:
1923:Generated_Source\PSoC5/CapSense.c ****     *  Selects the Analog switches source between PRS and prescaler. It is useful
1924:Generated_Source\PSoC5/CapSense.c ****     *  for sensor capacitance determination for sensors with low self-capacitance.
1925:Generated_Source\PSoC5/CapSense.c ****     *  This function is used in auto-tuning procedure.
1926:Generated_Source\PSoC5/CapSense.c ****     *
1927:Generated_Source\PSoC5/CapSense.c ****     * Parameters:
1928:Generated_Source\PSoC5/CapSense.c ****     *  src:  analog switches source:
1929:Generated_Source\PSoC5/CapSense.c ****     *           CapSense_ANALOG_SWITCHES_SRC_PRESCALER - selects prescaler
1930:Generated_Source\PSoC5/CapSense.c ****     *           CapSense_ANALOG_SWITCHES_SRC_PRS - selects PRS
1931:Generated_Source\PSoC5/CapSense.c ****     *
1932:Generated_Source\PSoC5/CapSense.c ****     * Return:
1933:Generated_Source\PSoC5/CapSense.c ****     *  None
1934:Generated_Source\PSoC5/CapSense.c ****     *
1935:Generated_Source\PSoC5/CapSense.c ****     * Reentrant:
1936:Generated_Source\PSoC5/CapSense.c ****     *  No
1937:Generated_Source\PSoC5/CapSense.c ****     *******************************************************************************/
1938:Generated_Source\PSoC5/CapSense.c ****     void CapSense_SetAnalogSwitchesSource(uint8 src)
1939:Generated_Source\PSoC5/CapSense.c ****                       
1940:Generated_Source\PSoC5/CapSense.c ****     {
 721              		.loc 1 1940 0
 722              		.cfi_startproc
 723              		@ args = 0, pretend = 0, frame = 0
 724              		@ frame_needed = 0, uses_anonymous_args = 0
 725              		@ link register save eliminated.
 726              	.LVL50:
1941:Generated_Source\PSoC5/CapSense.c ****         if(src == CapSense_ANALOG_SWITCHES_SRC_PRESCALER)
 727              		.loc 1 1941 0
 728 0000 0128     		cmp	r0, #1
 729 0002 05D1     		bne	.L63
1942:Generated_Source\PSoC5/CapSense.c ****         {
1943:Generated_Source\PSoC5/CapSense.c ****             CapSense_CONTROL_REG &= (uint8)~0x10u;
 730              		.loc 1 1943 0
 731 0004 054A     		ldr	r2, .L65
 732 0006 1378     		ldrb	r3, [r2]	@ zero_extendqisi2
 733 0008 03F0EF03 		and	r3, r3, #239
 734 000c 1370     		strb	r3, [r2]
 735 000e 7047     		bx	lr
 736              	.L63:
1944:Generated_Source\PSoC5/CapSense.c ****         }
1945:Generated_Source\PSoC5/CapSense.c ****         else
1946:Generated_Source\PSoC5/CapSense.c ****         {
1947:Generated_Source\PSoC5/CapSense.c ****             CapSense_CONTROL_REG |= 0x10u;
 737              		.loc 1 1947 0
 738 0010 024A     		ldr	r2, .L65
 739 0012 1378     		ldrb	r3, [r2]	@ zero_extendqisi2
 740 0014 43F01003 		orr	r3, r3, #16
 741 0018 1370     		strb	r3, [r2]
 742 001a 7047     		bx	lr
 743              	.L66:
 744              		.align	2
 745              	.L65:
 746 001c 79640040 		.word	1073767545
 747              		.cfi_endproc
 748              	.LFE18:
 749              		.size	CapSense_SetAnalogSwitchesSource, .-CapSense_SetAnalogSwitchesSource
ARM GAS  C:\Users\Tri94\AppData\Local\Temp\ccFfdnZv.s 			page 49


 750              		.section	.text.CapSense_Init,"ax",%progbits
 751              		.align	2
 752              		.global	CapSense_Init
 753              		.thumb
 754              		.thumb_func
 755              		.type	CapSense_Init, %function
 756              	CapSense_Init:
 757              	.LFB0:
  97:Generated_Source\PSoC5/CapSense.c ****     #if ( (CapSense_PRS_OPTIONS) || \
 758              		.loc 1 97 0
 759              		.cfi_startproc
 760              		@ args = 0, pretend = 0, frame = 0
 761              		@ frame_needed = 0, uses_anonymous_args = 0
 762 0000 38B5     		push	{r3, r4, r5, lr}
 763              		.cfi_def_cfa_offset 16
 764              		.cfi_offset 3, -16
 765              		.cfi_offset 4, -12
 766              		.cfi_offset 5, -8
 767              		.cfi_offset 14, -4
 111:Generated_Source\PSoC5/CapSense.c **** 
 768              		.loc 1 111 0
 769 0002 FFF7FEFF 		bl	CapSense_ClearSensors
 770              	.LVL51:
 127:Generated_Source\PSoC5/CapSense.c ****     #endif /* (CapSense_PRS_OPTIONS) */
 771              		.loc 1 127 0
 772 0006 0220     		movs	r0, #2
 773 0008 FFF7FEFF 		bl	CapSense_SetAnalogSwitchesSource
 774              	.LVL52:
 143:Generated_Source\PSoC5/CapSense.c ****         CapSense_AUX_CONTROL_A_REG |= CapSense_AUXCTRL_FIFO_SINGLE_REG;
 775              		.loc 1 143 0
 776 000c FFF7FEFF 		bl	CyEnterCriticalSection
 777              	.LVL53:
 144:Generated_Source\PSoC5/CapSense.c ****         CapSense_AUX_CONTROL_B_REG |= CapSense_AUXCTRL_FIFO_SINGLE_REG;
 778              		.loc 1 144 0
 779 0010 2E4A     		ldr	r2, .L69
 780 0012 1378     		ldrb	r3, [r2]	@ zero_extendqisi2
 781 0014 43F00303 		orr	r3, r3, #3
 782 0018 1370     		strb	r3, [r2]
 145:Generated_Source\PSoC5/CapSense.c ****         CyExitCriticalSection(enableInterrupts);
 783              		.loc 1 145 0
 784 001a 0132     		adds	r2, r2, #1
 785 001c 1378     		ldrb	r3, [r2]	@ zero_extendqisi2
 786 001e 43F00303 		orr	r3, r3, #3
 787 0022 1370     		strb	r3, [r2]
 146:Generated_Source\PSoC5/CapSense.c ****         
 788              		.loc 1 146 0
 789 0024 FFF7FEFF 		bl	CyExitCriticalSection
 790              	.LVL54:
 149:Generated_Source\PSoC5/CapSense.c ****         /* Write FIFO with seed */
 791              		.loc 1 149 0
 792 0028 4FF43442 		mov	r2, #46080
 793 002c 284B     		ldr	r3, .L69+4
 794 002e 1A80     		strh	r2, [r3]	@ movhi
 151:Generated_Source\PSoC5/CapSense.c ****                 
 795              		.loc 1 151 0
 796 0030 4FF6FF74 		movw	r4, #65535
 797 0034 2033     		adds	r3, r3, #32
ARM GAS  C:\Users\Tri94\AppData\Local\Temp\ccFfdnZv.s 			page 50


 798 0036 1C80     		strh	r4, [r3]	@ movhi
 171:Generated_Source\PSoC5/CapSense.c ****     
 799              		.loc 1 171 0
 800 0038 0725     		movs	r5, #7
 801 003a 4033     		adds	r3, r3, #64
 802 003c 1D70     		strb	r5, [r3]
 187:Generated_Source\PSoC5/CapSense.c ****         CapSense_PWM_CH0_AUX_CONTROL_REG |= CapSense_AUXCTRL_FIFO_SINGLE_REG;
 803              		.loc 1 187 0
 804 003e FFF7FEFF 		bl	CyEnterCriticalSection
 805              	.LVL55:
 188:Generated_Source\PSoC5/CapSense.c ****         CapSense_RAW_CH0_AUX_CONTROL_REG |= CapSense_AUXCTRL_FIFO_SINGLE_REG;
 806              		.loc 1 188 0
 807 0042 244A     		ldr	r2, .L69+8
 808 0044 1378     		ldrb	r3, [r2]	@ zero_extendqisi2
 809 0046 43F00303 		orr	r3, r3, #3
 810 004a 1370     		strb	r3, [r2]
 189:Generated_Source\PSoC5/CapSense.c ****         CyExitCriticalSection(enableInterrupts);
 811              		.loc 1 189 0
 812 004c 0132     		adds	r2, r2, #1
 813 004e 1378     		ldrb	r3, [r2]	@ zero_extendqisi2
 814 0050 43F00303 		orr	r3, r3, #3
 815 0054 1370     		strb	r3, [r2]
 190:Generated_Source\PSoC5/CapSense.c ****         
 816              		.loc 1 190 0
 817 0056 FFF7FEFF 		bl	CyExitCriticalSection
 818              	.LVL56:
 193:Generated_Source\PSoC5/CapSense.c ****         CapSense_PWM_CH0_PERIOD_LO_REG    = CapSense_MEASURE_FULL_RANGE_LOW;
 819              		.loc 1 193 0
 820 005a FF23     		movs	r3, #255
 821 005c 1E4A     		ldr	r2, .L69+12
 822 005e 1470     		strb	r4, [r2]
 194:Generated_Source\PSoC5/CapSense.c ****         CapSense_PWM_CH0_COUNTER_LO_REG   = CapSense_MEASURE_FULL_RANGE_LOW;
 823              		.loc 1 194 0
 824 0060 2032     		adds	r2, r2, #32
 825 0062 1370     		strb	r3, [r2]
 195:Generated_Source\PSoC5/CapSense.c ****         
 826              		.loc 1 195 0
 827 0064 403A     		subs	r2, r2, #64
 828 0066 1370     		strb	r3, [r2]
 198:Generated_Source\PSoC5/CapSense.c ****         CapSense_RAW_CH0_PERIOD_HI_REG    = CapSense_MEASURE_FULL_RANGE_LOW;
 829              		.loc 1 198 0
 830 0068 2132     		adds	r2, r2, #33
 831 006a 1370     		strb	r3, [r2]
 199:Generated_Source\PSoC5/CapSense.c ****         CapSense_RAW_CH0_PERIOD_LO_REG    = CapSense_MEASURE_FULL_RANGE_LOW;
 832              		.loc 1 199 0
 833 006c 3032     		adds	r2, r2, #48
 834 006e 1370     		strb	r3, [r2]
 200:Generated_Source\PSoC5/CapSense.c ****         
 835              		.loc 1 200 0
 836 0070 103A     		subs	r2, r2, #16
 837 0072 1370     		strb	r3, [r2]
 239:Generated_Source\PSoC5/CapSense.c ****     (void)CyIntSetVector(CapSense_IsrCH0_ISR_NUMBER, &CapSense_IsrCH0_ISR);
 838              		.loc 1 239 0
 839 0074 0124     		movs	r4, #1
 840 0076 03F1E023 		add	r3, r3, #-536813568
 841 007a 8133     		adds	r3, r3, #129
 842 007c 1C60     		str	r4, [r3]
ARM GAS  C:\Users\Tri94\AppData\Local\Temp\ccFfdnZv.s 			page 51


 240:Generated_Source\PSoC5/CapSense.c ****     CyIntSetPriority(CapSense_IsrCH0_ISR_NUMBER, CapSense_IsrCH0_ISR_PRIORITY);
 843              		.loc 1 240 0
 844 007e 1749     		ldr	r1, .L69+16
 845 0080 0020     		movs	r0, #0
 846 0082 FFF7FEFF 		bl	CyIntSetVector
 847              	.LVL57:
 241:Generated_Source\PSoC5/CapSense.c ****     
 848              		.loc 1 241 0
 849 0086 2946     		mov	r1, r5
 850 0088 0020     		movs	r0, #0
 851 008a FFF7FEFF 		bl	CyIntSetPriority
 852              	.LVL58:
 250:Generated_Source\PSoC5/CapSense.c ****     CapSense_AMuxCH0_Connect(CapSense_AMuxCH0_CMOD_CHANNEL);
 853              		.loc 1 250 0
 854 008e FFF7FEFF 		bl	CapSense_AMuxCH0_Init
 855              	.LVL59:
 251:Generated_Source\PSoC5/CapSense.c ****     CapSense_AMuxCH0_Connect(CapSense_AMuxCH0_CMP_VP_CHANNEL);
 856              		.loc 1 251 0
 857 0092 2046     		mov	r0, r4
 858 0094 FFF7FEFF 		bl	CapSense_AMuxCH0_Set
 859              	.LVL60:
 252:Generated_Source\PSoC5/CapSense.c ****     #if (CapSense_CURRENT_SOURCE)
 860              		.loc 1 252 0
 861 0098 0220     		movs	r0, #2
 862 009a FFF7FEFF 		bl	CapSense_AMuxCH0_Set
 863              	.LVL61:
 254:Generated_Source\PSoC5/CapSense.c ****     #endif  /* CapSense_CURRENT_SOURCE */
 864              		.loc 1 254 0
 865 009e 0320     		movs	r0, #3
 866 00a0 FFF7FEFF 		bl	CapSense_AMuxCH0_Set
 867              	.LVL62:
 272:Generated_Source\PSoC5/CapSense.c ****     #if (CapSense_DESIGN_TYPE == CapSense_TWO_CHANNELS_DESIGN)
 868              		.loc 1 272 0
 869 00a4 0E4A     		ldr	r2, .L69+20
 870 00a6 1378     		ldrb	r3, [r2]	@ zero_extendqisi2
 871 00a8 43F00403 		orr	r3, r3, #4
 872 00ac 1370     		strb	r3, [r2]
 278:Generated_Source\PSoC5/CapSense.c ****     #if (CapSense_CURRENT_SOURCE)
 873              		.loc 1 278 0
 874 00ae FFF7FEFF 		bl	CapSense_CompCH0_Init
 875              	.LVL63:
 280:Generated_Source\PSoC5/CapSense.c ****         CapSense_IdacCH0_SetPolarity(CapSense_IdacCH0_IDIR);
 876              		.loc 1 280 0
 877 00b2 FFF7FEFF 		bl	CapSense_IdacCH0_Init
 878              	.LVL64:
 281:Generated_Source\PSoC5/CapSense.c ****         CapSense_IdacCH0_SetRange(CapSense_IDAC_RANGE_VALUE);
 879              		.loc 1 281 0
 880 00b6 0020     		movs	r0, #0
 881 00b8 FFF7FEFF 		bl	CapSense_IdacCH0_SetPolarity
 882              	.LVL65:
 282:Generated_Source\PSoC5/CapSense.c ****         CapSense_IdacCH0_SetValue(CapSense_TURN_OFF_IDAC);
 883              		.loc 1 282 0
 884 00bc 0420     		movs	r0, #4
 885 00be FFF7FEFF 		bl	CapSense_IdacCH0_SetRange
 886              	.LVL66:
 283:Generated_Source\PSoC5/CapSense.c ****     #endif  /* CapSense_CURRENT_SOURCE */
 887              		.loc 1 283 0
ARM GAS  C:\Users\Tri94\AppData\Local\Temp\ccFfdnZv.s 			page 52


 888 00c2 0020     		movs	r0, #0
 889 00c4 FFF7FEFF 		bl	CapSense_IdacCH0_SetValue
 890              	.LVL67:
 891 00c8 38BD     		pop	{r3, r4, r5, pc}
 892              	.L70:
 893 00ca 00BF     		.align	2
 894              	.L69:
 895 00cc 9A640040 		.word	1073767578
 896 00d0 2A640040 		.word	1073767466
 897 00d4 9C640040 		.word	1073767580
 898 00d8 2C640040 		.word	1073767468
 899 00dc 00000000 		.word	CapSense_IsrCH0_ISR
 900 00e0 79640040 		.word	1073767545
 901              		.cfi_endproc
 902              	.LFE0:
 903              		.size	CapSense_Init, .-CapSense_Init
 904              		.section	.text.CapSense_Start,"ax",%progbits
 905              		.align	2
 906              		.global	CapSense_Start
 907              		.thumb
 908              		.thumb_func
 909              		.type	CapSense_Start, %function
 910              	CapSense_Start:
 911              	.LFB2:
 475:Generated_Source\PSoC5/CapSense.c ****     if (CapSense_initVar == 0u)
 912              		.loc 1 475 0
 913              		.cfi_startproc
 914              		@ args = 0, pretend = 0, frame = 0
 915              		@ frame_needed = 0, uses_anonymous_args = 0
 916 0000 08B5     		push	{r3, lr}
 917              		.cfi_def_cfa_offset 8
 918              		.cfi_offset 3, -8
 919              		.cfi_offset 14, -4
 476:Generated_Source\PSoC5/CapSense.c ****     {
 920              		.loc 1 476 0
 921 0002 084B     		ldr	r3, .L74
 922 0004 5B78     		ldrb	r3, [r3, #1]	@ zero_extendqisi2
 923 0006 23B9     		cbnz	r3, .L72
 478:Generated_Source\PSoC5/CapSense.c ****         CapSense_initVar = 1u;
 924              		.loc 1 478 0
 925 0008 FFF7FEFF 		bl	CapSense_Init
 926              	.LVL68:
 479:Generated_Source\PSoC5/CapSense.c ****     }
 927              		.loc 1 479 0
 928 000c 0122     		movs	r2, #1
 929 000e 054B     		ldr	r3, .L74
 930 0010 5A70     		strb	r2, [r3, #1]
 931              	.L72:
 481:Generated_Source\PSoC5/CapSense.c ****     
 932              		.loc 1 481 0
 933 0012 FFF7FEFF 		bl	CapSense_Enable
 934              	.LVL69:
 486:Generated_Source\PSoC5/CapSense.c ****         CapSense_lowLevelTuningDone = 1u;
 935              		.loc 1 486 0
 936 0016 FFF7FEFF 		bl	CapSense_AutoTune
 937              	.LVL70:
 487:Generated_Source\PSoC5/CapSense.c ****     #endif /* (CapSense_TUNING_METHOD == CapSense_AUTO_TUNING) */
ARM GAS  C:\Users\Tri94\AppData\Local\Temp\ccFfdnZv.s 			page 53


 938              		.loc 1 487 0
 939 001a 0122     		movs	r2, #1
 940 001c 024B     		ldr	r3, .L74+4
 941 001e 5A71     		strb	r2, [r3, #5]
 942 0020 08BD     		pop	{r3, pc}
 943              	.L75:
 944 0022 00BF     		.align	2
 945              	.L74:
 946 0024 00000000 		.word	.LANCHOR0
 947 0028 00000000 		.word	.LANCHOR1
 948              		.cfi_endproc
 949              	.LFE2:
 950              		.size	CapSense_Start, .-CapSense_Start
 951              		.global	CapSense_widgetNumber
 952              		.comm	CapSense_analogSwitchDivider,1,4
 953              		.global	CapSense_widgetResolution
 954              		.global	CapSense_idacSettings
 955              		.global	CapSense_csTable
 956              		.global	CapSense_maskTable
 957              		.global	CapSense_portTable
 958              		.global	CapSense_pcTable
 959              		.global	CapSense_sensorEnableMask
 960              		.comm	CapSense_sensorRaw,2,4
 961              		.global	CapSense_lowLevelTuningDone
 962              		.comm	CapSense_sensorIndex,1,1
 963              		.comm	CapSense_csv,1,1
 964              		.section	.rodata
 965              		.align	2
 966              		.type	CapSense_widgetNumber, %object
 967              		.size	CapSense_widgetNumber, 1
 968              	CapSense_widgetNumber:
 969 0000 00       		.space	1
 970 0001 000000   		.space	3
 971              		.type	CapSense_csTable, %object
 972              		.size	CapSense_csTable, 32
 973              	CapSense_csTable:
 974 0004 06520040 		.word	1073762822
 975 0008 0E520040 		.word	1073762830
 976 000c 16520040 		.word	1073762838
 977 0010 1E520040 		.word	1073762846
 978 0014 26520040 		.word	1073762854
 979 0018 2E520040 		.word	1073762862
 980 001c 36520040 		.word	1073762870
 981 0020 7E520040 		.word	1073762942
 982              		.type	CapSense_maskTable, %object
 983              		.size	CapSense_maskTable, 1
 984              	CapSense_maskTable:
 985 0024 01       		.byte	1
 986 0025 000000   		.space	3
 987              		.type	CapSense_portTable, %object
 988              		.size	CapSense_portTable, 1
 989              	CapSense_portTable:
 990 0028 03       		.byte	3
 991 0029 000000   		.space	3
 992              		.type	CapSense_pcTable, %object
 993              		.size	CapSense_pcTable, 4
 994              	CapSense_pcTable:
ARM GAS  C:\Users\Tri94\AppData\Local\Temp\ccFfdnZv.s 			page 54


 995 002c 18500040 		.word	1073762328
 996              		.data
 997              		.align	2
 998              		.set	.LANCHOR1,. + 0
 999              		.type	CapSense_idacSettings, %object
 1000              		.size	CapSense_idacSettings, 1
 1001              	CapSense_idacSettings:
 1002 0000 C8       		.byte	-56
 1003 0001 000000   		.space	3
 1004              		.type	CapSense_widgetResolution, %object
 1005              		.size	CapSense_widgetResolution, 1
 1006              	CapSense_widgetResolution:
 1007 0004 03       		.byte	3
 1008              		.type	CapSense_lowLevelTuningDone, %object
 1009              		.size	CapSense_lowLevelTuningDone, 1
 1010              	CapSense_lowLevelTuningDone:
 1011 0005 01       		.byte	1
 1012              		.bss
 1013              		.align	2
 1014              		.set	.LANCHOR0,. + 0
 1015              		.type	CapSense_sensorEnableMask, %object
 1016              		.size	CapSense_sensorEnableMask, 1
 1017              	CapSense_sensorEnableMask:
 1018 0000 00       		.space	1
 1019              		.type	CapSense_initVar, %object
 1020              		.size	CapSense_initVar, 1
 1021              	CapSense_initVar:
 1022 0001 00       		.space	1
 1023              		.text
 1024              	.Letext0:
 1025              		.file 2 "Generated_Source\\PSoC5\\cytypes.h"
 1026              		.file 3 "Generated_Source\\PSoC5\\CyLib.h"
 1027              		.file 4 "Generated_Source\\PSoC5\\CapSense_IntClock.h"
 1028              		.file 5 "Generated_Source\\PSoC5\\CapSense_CompCH0.h"
 1029              		.file 6 "Generated_Source\\PSoC5\\CapSense_IdacCH0.h"
 1030              		.file 7 "Generated_Source\\PSoC5\\cyfitter_cfg.h"
 1031              		.file 8 "Generated_Source\\PSoC5\\CapSense_AMuxCH0.h"
 1032              		.file 9 "Generated_Source\\PSoC5\\CapSense.h"