ARM GAS  C:\Users\Tri94\AppData\Local\Temp\ccpNRt3N.s 			page 1


   1              		.syntax unified
   2              		.cpu cortex-m3
   3              		.fpu softvfp
   4              		.eabi_attribute 20, 1
   5              		.eabi_attribute 21, 1
   6              		.eabi_attribute 23, 3
   7              		.eabi_attribute 24, 1
   8              		.eabi_attribute 25, 1
   9              		.eabi_attribute 26, 1
  10              		.eabi_attribute 30, 1
  11              		.eabi_attribute 34, 1
  12              		.eabi_attribute 18, 4
  13              		.thumb
  14              		.syntax unified
  15              		.file	"CapSense_CSHL.c"
  16              		.text
  17              	.Ltext0:
  18              		.cfi_sections	.debug_frame
  19              		.section	.text.CapSense_BaseInit,"ax",%progbits
  20              		.align	2
  21              		.global	CapSense_BaseInit
  22              		.thumb
  23              		.thumb_func
  24              		.type	CapSense_BaseInit, %function
  25              	CapSense_BaseInit:
  26              	.LFB0:
  27              		.file 1 "Generated_Source\\PSoC5\\CapSense_CSHL.c"
   1:Generated_Source\PSoC5/CapSense_CSHL.c **** /*******************************************************************************
   2:Generated_Source\PSoC5/CapSense_CSHL.c **** * File Name: CapSense_CSHL.c
   3:Generated_Source\PSoC5/CapSense_CSHL.c **** * Version 3.50
   4:Generated_Source\PSoC5/CapSense_CSHL.c **** *
   5:Generated_Source\PSoC5/CapSense_CSHL.c **** * Description:
   6:Generated_Source\PSoC5/CapSense_CSHL.c **** *  This file provides the source code to the High Level APIs for the CapSesne
   7:Generated_Source\PSoC5/CapSense_CSHL.c **** *  CSD component.
   8:Generated_Source\PSoC5/CapSense_CSHL.c **** *
   9:Generated_Source\PSoC5/CapSense_CSHL.c **** * Note:
  10:Generated_Source\PSoC5/CapSense_CSHL.c **** *
  11:Generated_Source\PSoC5/CapSense_CSHL.c **** ********************************************************************************
  12:Generated_Source\PSoC5/CapSense_CSHL.c **** * Copyright 2008-2013, Cypress Semiconductor Corporation.  All rights reserved.
  13:Generated_Source\PSoC5/CapSense_CSHL.c **** * You may use this file only in accordance with the license, terms, conditions,
  14:Generated_Source\PSoC5/CapSense_CSHL.c **** * disclaimers, and limitations in the end user license agreement accompanying
  15:Generated_Source\PSoC5/CapSense_CSHL.c **** * the software package with which this file was provided.
  16:Generated_Source\PSoC5/CapSense_CSHL.c **** *******************************************************************************/
  17:Generated_Source\PSoC5/CapSense_CSHL.c **** 
  18:Generated_Source\PSoC5/CapSense_CSHL.c **** #include "CapSense_CSHL.h"
  19:Generated_Source\PSoC5/CapSense_CSHL.c **** 
  20:Generated_Source\PSoC5/CapSense_CSHL.c **** /* Storage of filters data */
  21:Generated_Source\PSoC5/CapSense_CSHL.c **** #if ( (CapSense_RAW_FILTER_MASK & CapSense_MEDIAN_FILTER) | \
  22:Generated_Source\PSoC5/CapSense_CSHL.c ****       (CapSense_RAW_FILTER_MASK & CapSense_AVERAGING_FILTER) )
  23:Generated_Source\PSoC5/CapSense_CSHL.c **** 
  24:Generated_Source\PSoC5/CapSense_CSHL.c ****     uint16 CapSense_rawFilterData1[CapSense_TOTAL_SENSOR_COUNT];
  25:Generated_Source\PSoC5/CapSense_CSHL.c ****     uint16 CapSense_rawFilterData2[CapSense_TOTAL_SENSOR_COUNT];
  26:Generated_Source\PSoC5/CapSense_CSHL.c **** 
  27:Generated_Source\PSoC5/CapSense_CSHL.c **** #elif ( (CapSense_RAW_FILTER_MASK & CapSense_IIR2_FILTER)   | \
  28:Generated_Source\PSoC5/CapSense_CSHL.c ****         (CapSense_RAW_FILTER_MASK & CapSense_IIR4_FILTER)   | \
  29:Generated_Source\PSoC5/CapSense_CSHL.c ****         (CapSense_RAW_FILTER_MASK & CapSense_JITTER_FILTER) | \
  30:Generated_Source\PSoC5/CapSense_CSHL.c ****         (CapSense_RAW_FILTER_MASK & CapSense_IIR8_FILTER)   | \
ARM GAS  C:\Users\Tri94\AppData\Local\Temp\ccpNRt3N.s 			page 2


  31:Generated_Source\PSoC5/CapSense_CSHL.c ****         (CapSense_RAW_FILTER_MASK & CapSense_IIR16_FILTER) )
  32:Generated_Source\PSoC5/CapSense_CSHL.c ****         
  33:Generated_Source\PSoC5/CapSense_CSHL.c ****     uint16 CapSense_rawFilterData1[CapSense_TOTAL_SENSOR_COUNT];
  34:Generated_Source\PSoC5/CapSense_CSHL.c **** 
  35:Generated_Source\PSoC5/CapSense_CSHL.c **** #else
  36:Generated_Source\PSoC5/CapSense_CSHL.c ****     /* No Raw filters */
  37:Generated_Source\PSoC5/CapSense_CSHL.c **** #endif  /* ( (CapSense_RAW_FILTER_MASK & CapSense_MEDIAN_FILTER) || \
  38:Generated_Source\PSoC5/CapSense_CSHL.c ****         *    (CapSense_RAW_FILTER_MASK & CapSense_AVERAGING_FILTER) )
  39:Generated_Source\PSoC5/CapSense_CSHL.c ****         */
  40:Generated_Source\PSoC5/CapSense_CSHL.c **** 
  41:Generated_Source\PSoC5/CapSense_CSHL.c **** uint16 CapSense_sensorBaseline[CapSense_TOTAL_SENSOR_COUNT];
  42:Generated_Source\PSoC5/CapSense_CSHL.c **** uint8 CapSense_sensorBaselineLow[CapSense_TOTAL_SENSOR_COUNT];
  43:Generated_Source\PSoC5/CapSense_CSHL.c **** uint8 CapSense_sensorSignal[CapSense_TOTAL_SENSOR_COUNT];
  44:Generated_Source\PSoC5/CapSense_CSHL.c **** uint8 CapSense_sensorOnMask[(((CapSense_TOTAL_SENSOR_COUNT - 1u) / 8u) + 1u)];
  45:Generated_Source\PSoC5/CapSense_CSHL.c **** 
  46:Generated_Source\PSoC5/CapSense_CSHL.c **** uint8 CapSense_lowBaselineResetCnt[CapSense_TOTAL_SENSOR_COUNT];
  47:Generated_Source\PSoC5/CapSense_CSHL.c **** 
  48:Generated_Source\PSoC5/CapSense_CSHL.c **** uint8 CapSense_fingerThreshold[] = {
  49:Generated_Source\PSoC5/CapSense_CSHL.c ****     100u, 
  50:Generated_Source\PSoC5/CapSense_CSHL.c **** };
  51:Generated_Source\PSoC5/CapSense_CSHL.c **** 
  52:Generated_Source\PSoC5/CapSense_CSHL.c **** uint8 CapSense_noiseThreshold[] = {
  53:Generated_Source\PSoC5/CapSense_CSHL.c ****     20u, 
  54:Generated_Source\PSoC5/CapSense_CSHL.c **** };
  55:Generated_Source\PSoC5/CapSense_CSHL.c **** 
  56:Generated_Source\PSoC5/CapSense_CSHL.c **** uint8 CapSense_hysteresis[] = {
  57:Generated_Source\PSoC5/CapSense_CSHL.c ****     10u, 
  58:Generated_Source\PSoC5/CapSense_CSHL.c **** };
  59:Generated_Source\PSoC5/CapSense_CSHL.c **** 
  60:Generated_Source\PSoC5/CapSense_CSHL.c **** uint8 CapSense_debounce[] = {
  61:Generated_Source\PSoC5/CapSense_CSHL.c ****     1u, 
  62:Generated_Source\PSoC5/CapSense_CSHL.c **** };
  63:Generated_Source\PSoC5/CapSense_CSHL.c **** 
  64:Generated_Source\PSoC5/CapSense_CSHL.c **** uint8 CapSense_debounceCounter[] = {
  65:Generated_Source\PSoC5/CapSense_CSHL.c ****     0u, 0u, 
  66:Generated_Source\PSoC5/CapSense_CSHL.c **** };
  67:Generated_Source\PSoC5/CapSense_CSHL.c **** 
  68:Generated_Source\PSoC5/CapSense_CSHL.c **** const uint8 CYCODE CapSense_rawDataIndex[] = {
  69:Generated_Source\PSoC5/CapSense_CSHL.c ****     0u, /* ProximitySensor0__PROX */
  70:Generated_Source\PSoC5/CapSense_CSHL.c **** 
  71:Generated_Source\PSoC5/CapSense_CSHL.c **** };
  72:Generated_Source\PSoC5/CapSense_CSHL.c **** 
  73:Generated_Source\PSoC5/CapSense_CSHL.c **** const uint8 CYCODE CapSense_numberOfSensors[] = {
  74:Generated_Source\PSoC5/CapSense_CSHL.c ****     1u, /* ProximitySensor0__PROX */
  75:Generated_Source\PSoC5/CapSense_CSHL.c **** 
  76:Generated_Source\PSoC5/CapSense_CSHL.c **** };
  77:Generated_Source\PSoC5/CapSense_CSHL.c **** 
  78:Generated_Source\PSoC5/CapSense_CSHL.c **** 
  79:Generated_Source\PSoC5/CapSense_CSHL.c **** 
  80:Generated_Source\PSoC5/CapSense_CSHL.c **** 
  81:Generated_Source\PSoC5/CapSense_CSHL.c **** /*******************************************************************************
  82:Generated_Source\PSoC5/CapSense_CSHL.c **** * Function Name: CapSense_BaseInit
  83:Generated_Source\PSoC5/CapSense_CSHL.c **** ********************************************************************************
  84:Generated_Source\PSoC5/CapSense_CSHL.c **** *
  85:Generated_Source\PSoC5/CapSense_CSHL.c **** * Summary:
  86:Generated_Source\PSoC5/CapSense_CSHL.c **** *  Loads the CapSense_sensorBaseline[sensor] array element with an 
  87:Generated_Source\PSoC5/CapSense_CSHL.c **** *  initial value which is equal to raw count value. 
ARM GAS  C:\Users\Tri94\AppData\Local\Temp\ccpNRt3N.s 			page 3


  88:Generated_Source\PSoC5/CapSense_CSHL.c **** *  Resets to zero CapSense_sensorBaselineLow[sensor] and 
  89:Generated_Source\PSoC5/CapSense_CSHL.c **** *  CapSense_sensorSignal[sensor] array element.
  90:Generated_Source\PSoC5/CapSense_CSHL.c **** *  Loads CapSense_debounceCounter[sensor] array element with initial 
  91:Generated_Source\PSoC5/CapSense_CSHL.c **** *  value equal CapSense_debounce[].
  92:Generated_Source\PSoC5/CapSense_CSHL.c **** *  Loads the CapSense_rawFilterData2[sensor] and 
  93:Generated_Source\PSoC5/CapSense_CSHL.c **** *  CapSense_rawFilterData2[sensor] array element with an 
  94:Generated_Source\PSoC5/CapSense_CSHL.c **** *  initial value which is equal raw count value if raw data filter is enabled.
  95:Generated_Source\PSoC5/CapSense_CSHL.c **** *
  96:Generated_Source\PSoC5/CapSense_CSHL.c **** * Parameters:
  97:Generated_Source\PSoC5/CapSense_CSHL.c **** *  sensor:  Sensor number.
  98:Generated_Source\PSoC5/CapSense_CSHL.c **** *
  99:Generated_Source\PSoC5/CapSense_CSHL.c **** * Return:
 100:Generated_Source\PSoC5/CapSense_CSHL.c **** *  None
 101:Generated_Source\PSoC5/CapSense_CSHL.c **** *
 102:Generated_Source\PSoC5/CapSense_CSHL.c **** * Global Variables:
 103:Generated_Source\PSoC5/CapSense_CSHL.c **** *  CapSense_sensorBaseline[]    - used to store baseline value.
 104:Generated_Source\PSoC5/CapSense_CSHL.c **** *  CapSense_sensorBaselineLow[] - used to store fraction byte of 
 105:Generated_Source\PSoC5/CapSense_CSHL.c **** *  baseline value.
 106:Generated_Source\PSoC5/CapSense_CSHL.c **** *  CapSense_sensorSignal[]      - used to store diffence between 
 107:Generated_Source\PSoC5/CapSense_CSHL.c **** *  current value of raw data and previous value of baseline.
 108:Generated_Source\PSoC5/CapSense_CSHL.c **** *  CapSense_debounceCounter[]   - used to store current debounce 
 109:Generated_Source\PSoC5/CapSense_CSHL.c **** *  counter of sensor. Widget which has this parameter are buttons, matrix 
 110:Generated_Source\PSoC5/CapSense_CSHL.c **** *  buttons, proximity, guard. All other widgets haven't debounce parameter
 111:Generated_Source\PSoC5/CapSense_CSHL.c **** *  and use the last element of this array with value 0 (it means no debounce).
 112:Generated_Source\PSoC5/CapSense_CSHL.c **** *  CapSense_rawFilterData1[]    - used to store previous sample of 
 113:Generated_Source\PSoC5/CapSense_CSHL.c **** *  any enabled raw data filter.
 114:Generated_Source\PSoC5/CapSense_CSHL.c **** *  CapSense_rawFilterData2[]    - used to store before previous sample
 115:Generated_Source\PSoC5/CapSense_CSHL.c **** *  of enabled raw data filter. Only required for median or average filters.
 116:Generated_Source\PSoC5/CapSense_CSHL.c **** *
 117:Generated_Source\PSoC5/CapSense_CSHL.c **** * Reentrant:
 118:Generated_Source\PSoC5/CapSense_CSHL.c **** *  No
 119:Generated_Source\PSoC5/CapSense_CSHL.c **** *
 120:Generated_Source\PSoC5/CapSense_CSHL.c **** *******************************************************************************/
 121:Generated_Source\PSoC5/CapSense_CSHL.c **** void CapSense_BaseInit(uint8 sensor) 
 122:Generated_Source\PSoC5/CapSense_CSHL.c **** {
  28              		.loc 1 122 0
  29              		.cfi_startproc
  30              		@ args = 0, pretend = 0, frame = 0
  31              		@ frame_needed = 0, uses_anonymous_args = 0
  32              		@ link register save eliminated.
  33              	.LVL0:
  34 0000 10B4     		push	{r4}
  35              		.cfi_def_cfa_offset 4
  36              		.cfi_offset 4, -4
 123:Generated_Source\PSoC5/CapSense_CSHL.c ****     #if ((CapSense_TOTAL_BUTTONS_COUNT) || (CapSense_TOTAL_MATRIX_BUTTONS_COUNT) || \
 124:Generated_Source\PSoC5/CapSense_CSHL.c ****          (CapSense_TOTAL_GENERICS_COUNT))
 125:Generated_Source\PSoC5/CapSense_CSHL.c ****         uint8 widget = CapSense_widgetNumber[sensor];
  37              		.loc 1 125 0
  38 0002 0B4B     		ldr	r3, .L3
  39 0004 1A5C     		ldrb	r2, [r3, r0]	@ zero_extendqisi2
  40              	.LVL1:
 126:Generated_Source\PSoC5/CapSense_CSHL.c ****     #endif /* ((CapSense_TOTAL_MATRIX_BUTTONS_COUNT) || (CapSense_TOTAL_MATRIX_BUTTONS_COUNT)) */
 127:Generated_Source\PSoC5/CapSense_CSHL.c ****     
 128:Generated_Source\PSoC5/CapSense_CSHL.c ****     #if (CapSense_TOTAL_MATRIX_BUTTONS_COUNT)
 129:Generated_Source\PSoC5/CapSense_CSHL.c ****         uint8 debounceIndex;
 130:Generated_Source\PSoC5/CapSense_CSHL.c ****     #endif  /* (CapSense_TOTAL_MATRIX_BUTTONS_COUNT) */
 131:Generated_Source\PSoC5/CapSense_CSHL.c ****     
ARM GAS  C:\Users\Tri94\AppData\Local\Temp\ccpNRt3N.s 			page 4


 132:Generated_Source\PSoC5/CapSense_CSHL.c ****     #if (CapSense_TOTAL_GENERICS_COUNT)
 133:Generated_Source\PSoC5/CapSense_CSHL.c ****         /* Exclude generic widget */
 134:Generated_Source\PSoC5/CapSense_CSHL.c ****         if(widget < CapSense_END_OF_WIDGETS_INDEX)
 135:Generated_Source\PSoC5/CapSense_CSHL.c ****         {
 136:Generated_Source\PSoC5/CapSense_CSHL.c ****     #endif  /* CapSense_TOTAL_GENERICS_COUNT */
 137:Generated_Source\PSoC5/CapSense_CSHL.c ****     
 138:Generated_Source\PSoC5/CapSense_CSHL.c ****     /* Initialize Baseline */
 139:Generated_Source\PSoC5/CapSense_CSHL.c ****     CapSense_sensorBaseline[sensor] = CapSense_sensorRaw[sensor];
  41              		.loc 1 139 0
  42 0006 0B4B     		ldr	r3, .L3+4
  43 0008 33F81030 		ldrh	r3, [r3, r0, lsl #1]
  44 000c 0A49     		ldr	r1, .L3+8
  45 000e 21F81030 		strh	r3, [r1, r0, lsl #1]	@ movhi
 140:Generated_Source\PSoC5/CapSense_CSHL.c ****     CapSense_sensorBaselineLow[sensor] = 0u;
  46              		.loc 1 140 0
  47 0012 0021     		movs	r1, #0
  48 0014 094C     		ldr	r4, .L3+12
  49 0016 2154     		strb	r1, [r4, r0]
 141:Generated_Source\PSoC5/CapSense_CSHL.c ****     CapSense_sensorSignal[sensor] = 0u;
  50              		.loc 1 141 0
  51 0018 094C     		ldr	r4, .L3+16
  52 001a 2154     		strb	r1, [r4, r0]
 142:Generated_Source\PSoC5/CapSense_CSHL.c ****         
 143:Generated_Source\PSoC5/CapSense_CSHL.c ****     CapSense_debounceCounter[widget] =  CapSense_debounce[widget];
  53              		.loc 1 143 0
  54 001c 0949     		ldr	r1, .L3+20
  55 001e 8C5C     		ldrb	r4, [r1, r2]	@ zero_extendqisi2
  56 0020 0949     		ldr	r1, .L3+24
  57 0022 8C54     		strb	r4, [r1, r2]
 144:Generated_Source\PSoC5/CapSense_CSHL.c **** 
 145:Generated_Source\PSoC5/CapSense_CSHL.c ****     
 146:Generated_Source\PSoC5/CapSense_CSHL.c ****     #if ((CapSense_RAW_FILTER_MASK & CapSense_MEDIAN_FILTER) |\
 147:Generated_Source\PSoC5/CapSense_CSHL.c ****          (CapSense_RAW_FILTER_MASK & CapSense_AVERAGING_FILTER))
 148:Generated_Source\PSoC5/CapSense_CSHL.c **** 
 149:Generated_Source\PSoC5/CapSense_CSHL.c ****         CapSense_rawFilterData1[sensor] = CapSense_sensorRaw[sensor];
 150:Generated_Source\PSoC5/CapSense_CSHL.c ****         CapSense_rawFilterData2[sensor] = CapSense_sensorRaw[sensor];
 151:Generated_Source\PSoC5/CapSense_CSHL.c ****     
 152:Generated_Source\PSoC5/CapSense_CSHL.c ****     #elif ((CapSense_RAW_FILTER_MASK & CapSense_IIR2_FILTER) |\
 153:Generated_Source\PSoC5/CapSense_CSHL.c ****            (CapSense_RAW_FILTER_MASK & CapSense_IIR4_FILTER) |\
 154:Generated_Source\PSoC5/CapSense_CSHL.c ****            (CapSense_RAW_FILTER_MASK & CapSense_JITTER_FILTER) |\
 155:Generated_Source\PSoC5/CapSense_CSHL.c ****            (CapSense_RAW_FILTER_MASK & CapSense_IIR8_FILTER) |\
 156:Generated_Source\PSoC5/CapSense_CSHL.c ****            (CapSense_RAW_FILTER_MASK & CapSense_IIR16_FILTER))
 157:Generated_Source\PSoC5/CapSense_CSHL.c ****             
 158:Generated_Source\PSoC5/CapSense_CSHL.c ****         CapSense_rawFilterData1[sensor] = CapSense_sensorRaw[sensor];
  58              		.loc 1 158 0
  59 0024 094A     		ldr	r2, .L3+28
  60              	.LVL2:
  61 0026 22F81030 		strh	r3, [r2, r0, lsl #1]	@ movhi
 159:Generated_Source\PSoC5/CapSense_CSHL.c ****     
 160:Generated_Source\PSoC5/CapSense_CSHL.c ****     #else
 161:Generated_Source\PSoC5/CapSense_CSHL.c ****         /* No Raw filters */
 162:Generated_Source\PSoC5/CapSense_CSHL.c ****     #endif  /* ((CapSense_RAW_FILTER_MASK & CapSense_MEDIAN_FILTER) | \
 163:Generated_Source\PSoC5/CapSense_CSHL.c ****             *   (CapSense_RAW_FILTER_MASK & CapSense_AVERAGING_FILTER))
 164:Generated_Source\PSoC5/CapSense_CSHL.c ****             */
 165:Generated_Source\PSoC5/CapSense_CSHL.c ****     
 166:Generated_Source\PSoC5/CapSense_CSHL.c ****     #if (CapSense_TOTAL_GENERICS_COUNT)
 167:Generated_Source\PSoC5/CapSense_CSHL.c ****         /* Exclude generic widget */
ARM GAS  C:\Users\Tri94\AppData\Local\Temp\ccpNRt3N.s 			page 5


 168:Generated_Source\PSoC5/CapSense_CSHL.c ****         }
 169:Generated_Source\PSoC5/CapSense_CSHL.c ****     #endif  /* CapSense_TOTAL_GENERICS_COUNT */
 170:Generated_Source\PSoC5/CapSense_CSHL.c **** }
  62              		.loc 1 170 0
  63 002a 10BC     		pop	{r4}
  64              		.cfi_restore 4
  65              		.cfi_def_cfa_offset 0
  66 002c 7047     		bx	lr
  67              	.L4:
  68 002e 00BF     		.align	2
  69              	.L3:
  70 0030 00000000 		.word	CapSense_widgetNumber
  71 0034 00000000 		.word	CapSense_sensorRaw
  72 0038 00000000 		.word	CapSense_sensorBaseline
  73 003c 00000000 		.word	CapSense_sensorBaselineLow
  74 0040 00000000 		.word	CapSense_sensorSignal
  75 0044 00000000 		.word	.LANCHOR0
  76 0048 00000000 		.word	.LANCHOR1
  77 004c 00000000 		.word	CapSense_rawFilterData1
  78              		.cfi_endproc
  79              	.LFE0:
  80              		.size	CapSense_BaseInit, .-CapSense_BaseInit
  81              		.section	.text.CapSense_InitializeSensorBaseline,"ax",%progbits
  82              		.align	2
  83              		.global	CapSense_InitializeSensorBaseline
  84              		.thumb
  85              		.thumb_func
  86              		.type	CapSense_InitializeSensorBaseline, %function
  87              	CapSense_InitializeSensorBaseline:
  88              	.LFB1:
 171:Generated_Source\PSoC5/CapSense_CSHL.c **** 
 172:Generated_Source\PSoC5/CapSense_CSHL.c **** 
 173:Generated_Source\PSoC5/CapSense_CSHL.c **** /*******************************************************************************
 174:Generated_Source\PSoC5/CapSense_CSHL.c **** * Function Name: CapSense_InitializeSensorBaseline
 175:Generated_Source\PSoC5/CapSense_CSHL.c **** ********************************************************************************
 176:Generated_Source\PSoC5/CapSense_CSHL.c **** *
 177:Generated_Source\PSoC5/CapSense_CSHL.c **** * Summary:
 178:Generated_Source\PSoC5/CapSense_CSHL.c **** *  Loads the CapSense_sensorBaseline[sensor] array element with an 
 179:Generated_Source\PSoC5/CapSense_CSHL.c **** *  initial value by scanning the selected sensor (one channel design) or pair 
 180:Generated_Source\PSoC5/CapSense_CSHL.c **** *  of sensors (two channels designs). The raw count value is copied into the 
 181:Generated_Source\PSoC5/CapSense_CSHL.c **** *  baseline array for each sensor. The raw data filters are initialized if 
 182:Generated_Source\PSoC5/CapSense_CSHL.c **** *  enabled.
 183:Generated_Source\PSoC5/CapSense_CSHL.c **** *
 184:Generated_Source\PSoC5/CapSense_CSHL.c **** * Parameters:
 185:Generated_Source\PSoC5/CapSense_CSHL.c **** *  sensor:  Sensor number.
 186:Generated_Source\PSoC5/CapSense_CSHL.c **** *
 187:Generated_Source\PSoC5/CapSense_CSHL.c **** * Return:
 188:Generated_Source\PSoC5/CapSense_CSHL.c **** *  None
 189:Generated_Source\PSoC5/CapSense_CSHL.c **** *
 190:Generated_Source\PSoC5/CapSense_CSHL.c **** * Reentrant:
 191:Generated_Source\PSoC5/CapSense_CSHL.c **** *  No
 192:Generated_Source\PSoC5/CapSense_CSHL.c **** *
 193:Generated_Source\PSoC5/CapSense_CSHL.c **** *******************************************************************************/
 194:Generated_Source\PSoC5/CapSense_CSHL.c **** void CapSense_InitializeSensorBaseline(uint8 sensor)
 195:Generated_Source\PSoC5/CapSense_CSHL.c ****                           
 196:Generated_Source\PSoC5/CapSense_CSHL.c **** {
  89              		.loc 1 196 0
ARM GAS  C:\Users\Tri94\AppData\Local\Temp\ccpNRt3N.s 			page 6


  90              		.cfi_startproc
  91              		@ args = 0, pretend = 0, frame = 0
  92              		@ frame_needed = 0, uses_anonymous_args = 0
  93              	.LVL3:
  94 0000 10B5     		push	{r4, lr}
  95              		.cfi_def_cfa_offset 8
  96              		.cfi_offset 4, -8
  97              		.cfi_offset 14, -4
  98 0002 0446     		mov	r4, r0
 197:Generated_Source\PSoC5/CapSense_CSHL.c ****     /* Scan sensor */
 198:Generated_Source\PSoC5/CapSense_CSHL.c ****     CapSense_ScanSensor(sensor);
  99              		.loc 1 198 0
 100 0004 FFF7FEFF 		bl	CapSense_ScanSensor
 101              	.LVL4:
 102              	.L6:
 199:Generated_Source\PSoC5/CapSense_CSHL.c ****     while(CapSense_IsBusy() != 0u)
 103              		.loc 1 199 0 discriminator 1
 104 0008 FFF7FEFF 		bl	CapSense_IsBusy
 105              	.LVL5:
 106 000c 0028     		cmp	r0, #0
 107 000e FBD1     		bne	.L6
 200:Generated_Source\PSoC5/CapSense_CSHL.c ****     {
 201:Generated_Source\PSoC5/CapSense_CSHL.c ****         /* Wait while busy */
 202:Generated_Source\PSoC5/CapSense_CSHL.c ****     }
 203:Generated_Source\PSoC5/CapSense_CSHL.c ****     
 204:Generated_Source\PSoC5/CapSense_CSHL.c ****     #if (CapSense_DESIGN_TYPE == CapSense_ONE_CHANNEL_DESIGN)
 205:Generated_Source\PSoC5/CapSense_CSHL.c ****         /* Initialize Baseline, Signal and debounce counters */       
 206:Generated_Source\PSoC5/CapSense_CSHL.c ****         CapSense_BaseInit(sensor);
 108              		.loc 1 206 0
 109 0010 2046     		mov	r0, r4
 110 0012 FFF7FEFF 		bl	CapSense_BaseInit
 111              	.LVL6:
 112 0016 10BD     		pop	{r4, pc}
 113              		.cfi_endproc
 114              	.LFE1:
 115              		.size	CapSense_InitializeSensorBaseline, .-CapSense_InitializeSensorBaseline
 116              		.section	.text.CapSense_InitializeAllBaselines,"ax",%progbits
 117              		.align	2
 118              		.global	CapSense_InitializeAllBaselines
 119              		.thumb
 120              		.thumb_func
 121              		.type	CapSense_InitializeAllBaselines, %function
 122              	CapSense_InitializeAllBaselines:
 123              	.LFB2:
 207:Generated_Source\PSoC5/CapSense_CSHL.c ****         
 208:Generated_Source\PSoC5/CapSense_CSHL.c ****     #else
 209:Generated_Source\PSoC5/CapSense_CSHL.c ****     
 210:Generated_Source\PSoC5/CapSense_CSHL.c ****         if(sensor < CapSense_TOTAL_SENSOR_COUNT__CH0)
 211:Generated_Source\PSoC5/CapSense_CSHL.c ****         {
 212:Generated_Source\PSoC5/CapSense_CSHL.c ****             /* Initialize Baseline, Signal and debounce counters */ 
 213:Generated_Source\PSoC5/CapSense_CSHL.c ****             CapSense_BaseInit(sensor);
 214:Generated_Source\PSoC5/CapSense_CSHL.c ****         }
 215:Generated_Source\PSoC5/CapSense_CSHL.c ****         
 216:Generated_Source\PSoC5/CapSense_CSHL.c ****         if(sensor < CapSense_TOTAL_SENSOR_COUNT__CH1)
 217:Generated_Source\PSoC5/CapSense_CSHL.c ****         {
 218:Generated_Source\PSoC5/CapSense_CSHL.c ****             /* Initialize Baseline, Signal and debounce counters */
 219:Generated_Source\PSoC5/CapSense_CSHL.c ****             CapSense_BaseInit(sensor + CapSense_TOTAL_SENSOR_COUNT__CH0);
ARM GAS  C:\Users\Tri94\AppData\Local\Temp\ccpNRt3N.s 			page 7


 220:Generated_Source\PSoC5/CapSense_CSHL.c ****         }
 221:Generated_Source\PSoC5/CapSense_CSHL.c ****     
 222:Generated_Source\PSoC5/CapSense_CSHL.c ****     #endif  /* (CapSense_DESIGN_TYPE == CapSense_ONE_CHANNEL_DESIGN) */
 223:Generated_Source\PSoC5/CapSense_CSHL.c **** }
 224:Generated_Source\PSoC5/CapSense_CSHL.c **** 
 225:Generated_Source\PSoC5/CapSense_CSHL.c **** 
 226:Generated_Source\PSoC5/CapSense_CSHL.c **** /*******************************************************************************
 227:Generated_Source\PSoC5/CapSense_CSHL.c **** * Function Name: CapSense_InitializeAllBaselines
 228:Generated_Source\PSoC5/CapSense_CSHL.c **** ********************************************************************************
 229:Generated_Source\PSoC5/CapSense_CSHL.c **** *
 230:Generated_Source\PSoC5/CapSense_CSHL.c **** * Summary:
 231:Generated_Source\PSoC5/CapSense_CSHL.c **** *  Uses the CapSense_InitializeSensorBaseline function to loads the 
 232:Generated_Source\PSoC5/CapSense_CSHL.c **** *  CapSense_sensorBaseline[] array with an initial values by scanning 
 233:Generated_Source\PSoC5/CapSense_CSHL.c **** *  all sensors. The raw count values are copied into the baseline array for 
 234:Generated_Source\PSoC5/CapSense_CSHL.c **** *  all sensors. The raw data filters are initialized if enabled.
 235:Generated_Source\PSoC5/CapSense_CSHL.c **** *
 236:Generated_Source\PSoC5/CapSense_CSHL.c **** * Parameters:
 237:Generated_Source\PSoC5/CapSense_CSHL.c **** *  None
 238:Generated_Source\PSoC5/CapSense_CSHL.c **** *
 239:Generated_Source\PSoC5/CapSense_CSHL.c **** * Return:
 240:Generated_Source\PSoC5/CapSense_CSHL.c **** *  None
 241:Generated_Source\PSoC5/CapSense_CSHL.c **** *
 242:Generated_Source\PSoC5/CapSense_CSHL.c **** * Reentrant:
 243:Generated_Source\PSoC5/CapSense_CSHL.c **** *  No
 244:Generated_Source\PSoC5/CapSense_CSHL.c **** *
 245:Generated_Source\PSoC5/CapSense_CSHL.c **** *******************************************************************************/
 246:Generated_Source\PSoC5/CapSense_CSHL.c **** void CapSense_InitializeAllBaselines(void)
 247:Generated_Source\PSoC5/CapSense_CSHL.c ****                           
 248:Generated_Source\PSoC5/CapSense_CSHL.c **** {
 124              		.loc 1 248 0
 125              		.cfi_startproc
 126              		@ args = 0, pretend = 0, frame = 0
 127              		@ frame_needed = 0, uses_anonymous_args = 0
 128 0000 10B5     		push	{r4, lr}
 129              		.cfi_def_cfa_offset 8
 130              		.cfi_offset 4, -8
 131              		.cfi_offset 14, -4
 132              	.LVL7:
 249:Generated_Source\PSoC5/CapSense_CSHL.c ****     uint8 i;
 250:Generated_Source\PSoC5/CapSense_CSHL.c ****     
 251:Generated_Source\PSoC5/CapSense_CSHL.c ****     /* The baseline initialize by sensor of sensor pair */
 252:Generated_Source\PSoC5/CapSense_CSHL.c ****     for(i = 0u; i < CapSense_TOTAL_SCANSLOT_COUNT; i++)
 133              		.loc 1 252 0
 134 0002 0024     		movs	r4, #0
 135 0004 04E0     		b	.L9
 136              	.LVL8:
 137              	.L10:
 253:Generated_Source\PSoC5/CapSense_CSHL.c ****     {
 254:Generated_Source\PSoC5/CapSense_CSHL.c ****         CapSense_InitializeSensorBaseline(i);
 138              		.loc 1 254 0 discriminator 3
 139 0006 2046     		mov	r0, r4
 140 0008 FFF7FEFF 		bl	CapSense_InitializeSensorBaseline
 141              	.LVL9:
 252:Generated_Source\PSoC5/CapSense_CSHL.c ****     {
 142              		.loc 1 252 0 discriminator 3
 143 000c 0134     		adds	r4, r4, #1
 144              	.LVL10:
ARM GAS  C:\Users\Tri94\AppData\Local\Temp\ccpNRt3N.s 			page 8


 145 000e E4B2     		uxtb	r4, r4
 146              	.LVL11:
 147              	.L9:
 252:Generated_Source\PSoC5/CapSense_CSHL.c ****     {
 148              		.loc 1 252 0 is_stmt 0 discriminator 1
 149 0010 002C     		cmp	r4, #0
 150 0012 F8D0     		beq	.L10
 255:Generated_Source\PSoC5/CapSense_CSHL.c ****     }
 256:Generated_Source\PSoC5/CapSense_CSHL.c **** }
 151              		.loc 1 256 0 is_stmt 1
 152 0014 10BD     		pop	{r4, pc}
 153              		.cfi_endproc
 154              	.LFE2:
 155              		.size	CapSense_InitializeAllBaselines, .-CapSense_InitializeAllBaselines
 156 0016 00BF     		.section	.text.CapSense_InitializeEnabledBaselines,"ax",%progbits
 157              		.align	2
 158              		.global	CapSense_InitializeEnabledBaselines
 159              		.thumb
 160              		.thumb_func
 161              		.type	CapSense_InitializeEnabledBaselines, %function
 162              	CapSense_InitializeEnabledBaselines:
 163              	.LFB3:
 257:Generated_Source\PSoC5/CapSense_CSHL.c **** 
 258:Generated_Source\PSoC5/CapSense_CSHL.c **** 
 259:Generated_Source\PSoC5/CapSense_CSHL.c **** /*******************************************************************************
 260:Generated_Source\PSoC5/CapSense_CSHL.c **** * Function Name: CapSense_InitializeEnabledBaselines
 261:Generated_Source\PSoC5/CapSense_CSHL.c **** ********************************************************************************
 262:Generated_Source\PSoC5/CapSense_CSHL.c **** *
 263:Generated_Source\PSoC5/CapSense_CSHL.c **** * Summary:
 264:Generated_Source\PSoC5/CapSense_CSHL.c **** *  Scans all enabled widgets and the raw count values are copied into the 
 265:Generated_Source\PSoC5/CapSense_CSHL.c **** *  baseline array for all sensors enabled in scanning process. Baselines 
 266:Generated_Source\PSoC5/CapSense_CSHL.c **** *  initialize with zero values for sensors disabled from scanning process. 
 267:Generated_Source\PSoC5/CapSense_CSHL.c **** *  The raw data filters are initialized if enabled.
 268:Generated_Source\PSoC5/CapSense_CSHL.c **** *
 269:Generated_Source\PSoC5/CapSense_CSHL.c **** * Parameters:
 270:Generated_Source\PSoC5/CapSense_CSHL.c **** *  None
 271:Generated_Source\PSoC5/CapSense_CSHL.c **** *
 272:Generated_Source\PSoC5/CapSense_CSHL.c **** * Return:
 273:Generated_Source\PSoC5/CapSense_CSHL.c **** *  None
 274:Generated_Source\PSoC5/CapSense_CSHL.c **** *
 275:Generated_Source\PSoC5/CapSense_CSHL.c **** * Reentrant:
 276:Generated_Source\PSoC5/CapSense_CSHL.c **** *  No
 277:Generated_Source\PSoC5/CapSense_CSHL.c **** *
 278:Generated_Source\PSoC5/CapSense_CSHL.c **** *******************************************************************************/
 279:Generated_Source\PSoC5/CapSense_CSHL.c **** void CapSense_InitializeEnabledBaselines(void)
 280:Generated_Source\PSoC5/CapSense_CSHL.c ****                              
 281:Generated_Source\PSoC5/CapSense_CSHL.c **** {
 164              		.loc 1 281 0
 165              		.cfi_startproc
 166              		@ args = 0, pretend = 0, frame = 0
 167              		@ frame_needed = 0, uses_anonymous_args = 0
 168 0000 10B5     		push	{r4, lr}
 169              		.cfi_def_cfa_offset 8
 170              		.cfi_offset 4, -8
 171              		.cfi_offset 14, -4
 282:Generated_Source\PSoC5/CapSense_CSHL.c ****     uint8 i;
 283:Generated_Source\PSoC5/CapSense_CSHL.c ****     uint8 pos;
ARM GAS  C:\Users\Tri94\AppData\Local\Temp\ccpNRt3N.s 			page 9


 284:Generated_Source\PSoC5/CapSense_CSHL.c ****     uint8 enMask;
 285:Generated_Source\PSoC5/CapSense_CSHL.c ****     
 286:Generated_Source\PSoC5/CapSense_CSHL.c ****     CapSense_ScanEnabledWidgets();
 172              		.loc 1 286 0
 173 0002 FFF7FEFF 		bl	CapSense_ScanEnabledWidgets
 174              	.LVL12:
 175              	.L13:
 287:Generated_Source\PSoC5/CapSense_CSHL.c ****     while(CapSense_IsBusy() != 0u)
 176              		.loc 1 287 0 discriminator 1
 177 0006 FFF7FEFF 		bl	CapSense_IsBusy
 178              	.LVL13:
 179 000a 0028     		cmp	r0, #0
 180 000c FBD1     		bne	.L13
 181 000e 0024     		movs	r4, #0
 182 0010 11E0     		b	.L14
 183              	.LVL14:
 184              	.L16:
 288:Generated_Source\PSoC5/CapSense_CSHL.c ****     {
 289:Generated_Source\PSoC5/CapSense_CSHL.c ****         /* Wait while busy */
 290:Generated_Source\PSoC5/CapSense_CSHL.c ****     }
 291:Generated_Source\PSoC5/CapSense_CSHL.c ****     
 292:Generated_Source\PSoC5/CapSense_CSHL.c ****     for(i = 0u; i < CapSense_TOTAL_SENSOR_COUNT; i++)
 293:Generated_Source\PSoC5/CapSense_CSHL.c ****     {
 294:Generated_Source\PSoC5/CapSense_CSHL.c ****         pos = (i >> 3u);
 185              		.loc 1 294 0
 186 0012 E208     		lsrs	r2, r4, #3
 295:Generated_Source\PSoC5/CapSense_CSHL.c ****         enMask = 0x01u << (i & 0x07u);
 187              		.loc 1 295 0
 188 0014 04F00701 		and	r1, r4, #7
 189 0018 0123     		movs	r3, #1
 190 001a 8B40     		lsls	r3, r3, r1
 191              	.LVL15:
 296:Generated_Source\PSoC5/CapSense_CSHL.c ****         
 297:Generated_Source\PSoC5/CapSense_CSHL.c ****         /* Clear raw data if sensor is disabled from scanning process */
 298:Generated_Source\PSoC5/CapSense_CSHL.c ****         if((CapSense_sensorEnableMask[pos] & enMask) == 0u)
 192              		.loc 1 298 0
 193 001c 0749     		ldr	r1, .L18
 194 001e 8A5C     		ldrb	r2, [r1, r2]	@ zero_extendqisi2
 195 0020 1342     		tst	r3, r2
 196 0022 03D1     		bne	.L15
 299:Generated_Source\PSoC5/CapSense_CSHL.c ****         {
 300:Generated_Source\PSoC5/CapSense_CSHL.c ****             CapSense_sensorRaw[i] = 0u;
 197              		.loc 1 300 0
 198 0024 0022     		movs	r2, #0
 199 0026 064B     		ldr	r3, .L18+4
 200              	.LVL16:
 201 0028 23F81420 		strh	r2, [r3, r4, lsl #1]	@ movhi
 202              	.L15:
 301:Generated_Source\PSoC5/CapSense_CSHL.c ****         }
 302:Generated_Source\PSoC5/CapSense_CSHL.c ****         
 303:Generated_Source\PSoC5/CapSense_CSHL.c ****         /* Initialize baselines */
 304:Generated_Source\PSoC5/CapSense_CSHL.c ****         CapSense_BaseInit(i);
 203              		.loc 1 304 0 discriminator 2
 204 002c 2046     		mov	r0, r4
 205 002e FFF7FEFF 		bl	CapSense_BaseInit
 206              	.LVL17:
 292:Generated_Source\PSoC5/CapSense_CSHL.c ****     {
ARM GAS  C:\Users\Tri94\AppData\Local\Temp\ccpNRt3N.s 			page 10


 207              		.loc 1 292 0 discriminator 2
 208 0032 0134     		adds	r4, r4, #1
 209              	.LVL18:
 210 0034 E4B2     		uxtb	r4, r4
 211              	.LVL19:
 212              	.L14:
 292:Generated_Source\PSoC5/CapSense_CSHL.c ****     {
 213              		.loc 1 292 0 is_stmt 0 discriminator 1
 214 0036 002C     		cmp	r4, #0
 215 0038 EBD0     		beq	.L16
 305:Generated_Source\PSoC5/CapSense_CSHL.c ****     }
 306:Generated_Source\PSoC5/CapSense_CSHL.c **** }  
 216              		.loc 1 306 0 is_stmt 1
 217 003a 10BD     		pop	{r4, pc}
 218              	.LVL20:
 219              	.L19:
 220              		.align	2
 221              	.L18:
 222 003c 00000000 		.word	CapSense_sensorEnableMask
 223 0040 00000000 		.word	CapSense_sensorRaw
 224              		.cfi_endproc
 225              	.LFE3:
 226              		.size	CapSense_InitializeEnabledBaselines, .-CapSense_InitializeEnabledBaselines
 227              		.section	.text.CapSense_CheckIsSensorActive,"ax",%progbits
 228              		.align	2
 229              		.global	CapSense_CheckIsSensorActive
 230              		.thumb
 231              		.thumb_func
 232              		.type	CapSense_CheckIsSensorActive, %function
 233              	CapSense_CheckIsSensorActive:
 234              	.LFB6:
 307:Generated_Source\PSoC5/CapSense_CSHL.c **** 
 308:Generated_Source\PSoC5/CapSense_CSHL.c **** 
 309:Generated_Source\PSoC5/CapSense_CSHL.c **** /*******************************************************************************
 310:Generated_Source\PSoC5/CapSense_CSHL.c **** * Function Name: CapSense_UpdateSensorBaseline
 311:Generated_Source\PSoC5/CapSense_CSHL.c **** ********************************************************************************
 312:Generated_Source\PSoC5/CapSense_CSHL.c **** *
 313:Generated_Source\PSoC5/CapSense_CSHL.c **** * Summary:
 314:Generated_Source\PSoC5/CapSense_CSHL.c **** *  Updates the CapSense_sensorBaseline[sensor] array element using the 
 315:Generated_Source\PSoC5/CapSense_CSHL.c **** *  LP filter with k = 256. The signal calculates the difference of count by 
 316:Generated_Source\PSoC5/CapSense_CSHL.c **** *  subtracting the previous baseline from the current raw count value and stores
 317:Generated_Source\PSoC5/CapSense_CSHL.c **** *  it in CapSense_SensorSignal[sensor]. 
 318:Generated_Source\PSoC5/CapSense_CSHL.c **** *  If auto reset option is enabled the baseline updated regards noise threshold. 
 319:Generated_Source\PSoC5/CapSense_CSHL.c **** *  If auto reset option is disabled the baseline stops updating if signal is 
 320:Generated_Source\PSoC5/CapSense_CSHL.c **** *  greater that zero and baseline loads with raw count value if signal is less 
 321:Generated_Source\PSoC5/CapSense_CSHL.c **** *  that noise threshold.
 322:Generated_Source\PSoC5/CapSense_CSHL.c **** *  Raw data filters are applied to the values if enabled before baseline 
 323:Generated_Source\PSoC5/CapSense_CSHL.c **** *  calculation.
 324:Generated_Source\PSoC5/CapSense_CSHL.c **** *
 325:Generated_Source\PSoC5/CapSense_CSHL.c **** * Parameters:
 326:Generated_Source\PSoC5/CapSense_CSHL.c **** *  sensor:  Sensor number.
 327:Generated_Source\PSoC5/CapSense_CSHL.c **** *
 328:Generated_Source\PSoC5/CapSense_CSHL.c **** * Return:
 329:Generated_Source\PSoC5/CapSense_CSHL.c **** *  None
 330:Generated_Source\PSoC5/CapSense_CSHL.c **** *
 331:Generated_Source\PSoC5/CapSense_CSHL.c **** * Global Variables:
 332:Generated_Source\PSoC5/CapSense_CSHL.c **** *  CapSense_sensorBaseline[]    - used to store baseline value.
ARM GAS  C:\Users\Tri94\AppData\Local\Temp\ccpNRt3N.s 			page 11


 333:Generated_Source\PSoC5/CapSense_CSHL.c **** *  CapSense_sensorBaselineLow[] - used to store fraction byte of 
 334:Generated_Source\PSoC5/CapSense_CSHL.c **** *  baseline value.
 335:Generated_Source\PSoC5/CapSense_CSHL.c **** *  CapSense_sensorSignal[]      - used to store diffence between 
 336:Generated_Source\PSoC5/CapSense_CSHL.c **** *  current value of raw data and previous value of baseline.
 337:Generated_Source\PSoC5/CapSense_CSHL.c **** *  CapSense_rawFilterData1[]    - used to store previous sample of 
 338:Generated_Source\PSoC5/CapSense_CSHL.c **** *  any enabled raw data filter.
 339:Generated_Source\PSoC5/CapSense_CSHL.c **** *  CapSense_rawFilterData2[]    - used to store before previous sample
 340:Generated_Source\PSoC5/CapSense_CSHL.c **** *  of enabled raw data filter. Only required for median or average filters.
 341:Generated_Source\PSoC5/CapSense_CSHL.c **** *
 342:Generated_Source\PSoC5/CapSense_CSHL.c **** * Reentrant:
 343:Generated_Source\PSoC5/CapSense_CSHL.c **** *  No
 344:Generated_Source\PSoC5/CapSense_CSHL.c **** *
 345:Generated_Source\PSoC5/CapSense_CSHL.c **** *******************************************************************************/
 346:Generated_Source\PSoC5/CapSense_CSHL.c ****  void CapSense_UpdateSensorBaseline(uint8 sensor)
 347:Generated_Source\PSoC5/CapSense_CSHL.c ****                                  
 348:Generated_Source\PSoC5/CapSense_CSHL.c **** {
 349:Generated_Source\PSoC5/CapSense_CSHL.c ****     uint32 calc;
 350:Generated_Source\PSoC5/CapSense_CSHL.c ****     uint16 tempRaw;
 351:Generated_Source\PSoC5/CapSense_CSHL.c ****     uint16 filteredRawData;
 352:Generated_Source\PSoC5/CapSense_CSHL.c ****     uint8 widget = CapSense_widgetNumber[sensor];
 353:Generated_Source\PSoC5/CapSense_CSHL.c ****     uint8 noiseThreshold = CapSense_noiseThreshold[widget];
 354:Generated_Source\PSoC5/CapSense_CSHL.c ****     
 355:Generated_Source\PSoC5/CapSense_CSHL.c ****     #if (CapSense_TOTAL_GENERICS_COUNT)
 356:Generated_Source\PSoC5/CapSense_CSHL.c ****         /* Exclude generic widget */
 357:Generated_Source\PSoC5/CapSense_CSHL.c ****         if(widget < CapSense_END_OF_WIDGETS_INDEX)
 358:Generated_Source\PSoC5/CapSense_CSHL.c ****         {
 359:Generated_Source\PSoC5/CapSense_CSHL.c ****     #endif  /* CapSense_TOTAL_GENERICS_COUNT */
 360:Generated_Source\PSoC5/CapSense_CSHL.c ****     
 361:Generated_Source\PSoC5/CapSense_CSHL.c ****     filteredRawData = CapSense_sensorRaw[sensor];
 362:Generated_Source\PSoC5/CapSense_CSHL.c ****     
 363:Generated_Source\PSoC5/CapSense_CSHL.c ****     #if (CapSense_RAW_FILTER_MASK & CapSense_MEDIAN_FILTER)
 364:Generated_Source\PSoC5/CapSense_CSHL.c ****         tempRaw = filteredRawData;
 365:Generated_Source\PSoC5/CapSense_CSHL.c ****         filteredRawData = CapSense_MedianFilter(filteredRawData, CapSense_rawFilterData1[sensor], 
 366:Generated_Source\PSoC5/CapSense_CSHL.c ****                                                         CapSense_rawFilterData2[sensor]);
 367:Generated_Source\PSoC5/CapSense_CSHL.c ****         CapSense_rawFilterData2[sensor] = CapSense_rawFilterData1[sensor];
 368:Generated_Source\PSoC5/CapSense_CSHL.c ****         CapSense_rawFilterData1[sensor] = tempRaw;
 369:Generated_Source\PSoC5/CapSense_CSHL.c ****         
 370:Generated_Source\PSoC5/CapSense_CSHL.c ****     #elif (CapSense_RAW_FILTER_MASK & CapSense_AVERAGING_FILTER)
 371:Generated_Source\PSoC5/CapSense_CSHL.c ****         tempRaw = filteredRawData;
 372:Generated_Source\PSoC5/CapSense_CSHL.c ****         filteredRawData = CapSense_AveragingFilter(filteredRawData, CapSense_rawFilterData1[sensor]
 373:Generated_Source\PSoC5/CapSense_CSHL.c ****                                                            CapSense_rawFilterData2[sensor]);
 374:Generated_Source\PSoC5/CapSense_CSHL.c ****         CapSense_rawFilterData2[sensor] = CapSense_rawFilterData1[sensor];
 375:Generated_Source\PSoC5/CapSense_CSHL.c ****         CapSense_rawFilterData1[sensor] = tempRaw;
 376:Generated_Source\PSoC5/CapSense_CSHL.c ****         
 377:Generated_Source\PSoC5/CapSense_CSHL.c ****     #elif (CapSense_RAW_FILTER_MASK & CapSense_IIR2_FILTER)
 378:Generated_Source\PSoC5/CapSense_CSHL.c ****         filteredRawData = CapSense_IIR2Filter(filteredRawData, CapSense_rawFilterData1[sensor]);
 379:Generated_Source\PSoC5/CapSense_CSHL.c ****         CapSense_rawFilterData1[sensor] = filteredRawData;
 380:Generated_Source\PSoC5/CapSense_CSHL.c ****         
 381:Generated_Source\PSoC5/CapSense_CSHL.c ****     #elif (CapSense_RAW_FILTER_MASK & CapSense_IIR4_FILTER)
 382:Generated_Source\PSoC5/CapSense_CSHL.c ****         filteredRawData = CapSense_IIR4Filter(filteredRawData, CapSense_rawFilterData1[sensor]);
 383:Generated_Source\PSoC5/CapSense_CSHL.c ****         CapSense_rawFilterData1[sensor] = filteredRawData;
 384:Generated_Source\PSoC5/CapSense_CSHL.c ****             
 385:Generated_Source\PSoC5/CapSense_CSHL.c ****     #elif (CapSense_RAW_FILTER_MASK & CapSense_JITTER_FILTER)
 386:Generated_Source\PSoC5/CapSense_CSHL.c ****         filteredRawData = CapSense_JitterFilter(filteredRawData, CapSense_rawFilterData1[sensor]);
 387:Generated_Source\PSoC5/CapSense_CSHL.c ****         CapSense_rawFilterData1[sensor] = filteredRawData;
 388:Generated_Source\PSoC5/CapSense_CSHL.c ****         
 389:Generated_Source\PSoC5/CapSense_CSHL.c ****     #elif (CapSense_RAW_FILTER_MASK & CapSense_IIR8_FILTER)
ARM GAS  C:\Users\Tri94\AppData\Local\Temp\ccpNRt3N.s 			page 12


 390:Generated_Source\PSoC5/CapSense_CSHL.c ****         filteredRawData = CapSense_IIR8Filter(filteredRawData, CapSense_rawFilterData1[sensor]);
 391:Generated_Source\PSoC5/CapSense_CSHL.c ****         CapSense_rawFilterData1[sensor] = filteredRawData;
 392:Generated_Source\PSoC5/CapSense_CSHL.c ****         
 393:Generated_Source\PSoC5/CapSense_CSHL.c ****     #elif (CapSense_RAW_FILTER_MASK & CapSense_IIR16_FILTER)
 394:Generated_Source\PSoC5/CapSense_CSHL.c ****         filteredRawData = CapSense_IIR16Filter(filteredRawData, CapSense_rawFilterData1[sensor]);
 395:Generated_Source\PSoC5/CapSense_CSHL.c ****         CapSense_rawFilterData1[sensor] = filteredRawData;
 396:Generated_Source\PSoC5/CapSense_CSHL.c ****         
 397:Generated_Source\PSoC5/CapSense_CSHL.c ****     #else
 398:Generated_Source\PSoC5/CapSense_CSHL.c ****         /* No Raw filters */
 399:Generated_Source\PSoC5/CapSense_CSHL.c ****     #endif  /* (CapSense_RAW_FILTER_MASK & CapSense_MEDIAN_FILTER) */
 400:Generated_Source\PSoC5/CapSense_CSHL.c ****     
 401:Generated_Source\PSoC5/CapSense_CSHL.c ****     #if (CapSense_TUNING_METHOD == CapSense_AUTO_TUNING)
 402:Generated_Source\PSoC5/CapSense_CSHL.c ****         CapSense_CalculateThresholds(sensor);
 403:Generated_Source\PSoC5/CapSense_CSHL.c ****     #endif /* (CapSense_TUNING_METHOD == CapSense_AUTO_TUNING) */
 404:Generated_Source\PSoC5/CapSense_CSHL.c **** 
 405:Generated_Source\PSoC5/CapSense_CSHL.c **** 
 406:Generated_Source\PSoC5/CapSense_CSHL.c ****     /* Baseline calculation */
 407:Generated_Source\PSoC5/CapSense_CSHL.c ****     /* Calculate difference RawData[cur] - Baseline[prev] */
 408:Generated_Source\PSoC5/CapSense_CSHL.c ****     if(filteredRawData >= CapSense_sensorBaseline[sensor])
 409:Generated_Source\PSoC5/CapSense_CSHL.c ****     {
 410:Generated_Source\PSoC5/CapSense_CSHL.c ****         tempRaw = filteredRawData - CapSense_sensorBaseline[sensor];
 411:Generated_Source\PSoC5/CapSense_CSHL.c ****         widget = 1u;    /* Positive difference - Calculate the Signal */
 412:Generated_Source\PSoC5/CapSense_CSHL.c ****     }
 413:Generated_Source\PSoC5/CapSense_CSHL.c ****     else
 414:Generated_Source\PSoC5/CapSense_CSHL.c ****     {
 415:Generated_Source\PSoC5/CapSense_CSHL.c ****         tempRaw = CapSense_sensorBaseline[sensor] - filteredRawData;
 416:Generated_Source\PSoC5/CapSense_CSHL.c ****         widget = 0u;    /* Negative difference - Do NOT calculate the Signal */
 417:Generated_Source\PSoC5/CapSense_CSHL.c ****     }
 418:Generated_Source\PSoC5/CapSense_CSHL.c **** 
 419:Generated_Source\PSoC5/CapSense_CSHL.c ****     if((widget == 0u) && (tempRaw > (uint16) CapSense_NEGATIVE_NOISE_THRESHOLD))
 420:Generated_Source\PSoC5/CapSense_CSHL.c ****     {
 421:Generated_Source\PSoC5/CapSense_CSHL.c ****         if(CapSense_lowBaselineResetCnt[sensor] >= CapSense_LOW_BASELINE_RESET)
 422:Generated_Source\PSoC5/CapSense_CSHL.c ****         {
 423:Generated_Source\PSoC5/CapSense_CSHL.c ****             CapSense_BaseInit(sensor);
 424:Generated_Source\PSoC5/CapSense_CSHL.c ****             CapSense_lowBaselineResetCnt[sensor] = 0u;
 425:Generated_Source\PSoC5/CapSense_CSHL.c ****         }
 426:Generated_Source\PSoC5/CapSense_CSHL.c ****         else
 427:Generated_Source\PSoC5/CapSense_CSHL.c ****         {
 428:Generated_Source\PSoC5/CapSense_CSHL.c ****             CapSense_lowBaselineResetCnt[sensor]++;
 429:Generated_Source\PSoC5/CapSense_CSHL.c ****         }
 430:Generated_Source\PSoC5/CapSense_CSHL.c ****     }
 431:Generated_Source\PSoC5/CapSense_CSHL.c ****     else
 432:Generated_Source\PSoC5/CapSense_CSHL.c ****     {
 433:Generated_Source\PSoC5/CapSense_CSHL.c ****         #if (CapSense_AUTO_RESET == CapSense_AUTO_RESET_DISABLE)
 434:Generated_Source\PSoC5/CapSense_CSHL.c ****             /* Update Baseline if lower that noiseThreshold */
 435:Generated_Source\PSoC5/CapSense_CSHL.c ****             if ( (tempRaw <= (uint16) noiseThreshold) || 
 436:Generated_Source\PSoC5/CapSense_CSHL.c ****                  ((tempRaw < (uint16) CapSense_NEGATIVE_NOISE_THRESHOLD)
 437:Generated_Source\PSoC5/CapSense_CSHL.c ****                    && (widget == 0u)))
 438:Generated_Source\PSoC5/CapSense_CSHL.c ****             {
 439:Generated_Source\PSoC5/CapSense_CSHL.c ****         #endif /* (CapSense_AUTO_RESET == CapSense_AUTO_RESET_DISABLE) */
 440:Generated_Source\PSoC5/CapSense_CSHL.c ****                 /* Make full Baseline 23 bits */
 441:Generated_Source\PSoC5/CapSense_CSHL.c ****                 calc = (uint32) CapSense_sensorBaseline[sensor] << 8u;
 442:Generated_Source\PSoC5/CapSense_CSHL.c ****                 calc |= (uint32) CapSense_sensorBaselineLow[sensor];
 443:Generated_Source\PSoC5/CapSense_CSHL.c **** 
 444:Generated_Source\PSoC5/CapSense_CSHL.c ****                 /* Add Raw Data to Baseline */
 445:Generated_Source\PSoC5/CapSense_CSHL.c ****                 calc += filteredRawData;
 446:Generated_Source\PSoC5/CapSense_CSHL.c **** 
ARM GAS  C:\Users\Tri94\AppData\Local\Temp\ccpNRt3N.s 			page 13


 447:Generated_Source\PSoC5/CapSense_CSHL.c ****                 /* Sub the high Baseline */
 448:Generated_Source\PSoC5/CapSense_CSHL.c ****                 calc -= CapSense_sensorBaseline[sensor];
 449:Generated_Source\PSoC5/CapSense_CSHL.c **** 
 450:Generated_Source\PSoC5/CapSense_CSHL.c ****                 /* Put Baseline and BaselineLow */
 451:Generated_Source\PSoC5/CapSense_CSHL.c ****                 CapSense_sensorBaseline[sensor] = ((uint16) (calc >> 8u));
 452:Generated_Source\PSoC5/CapSense_CSHL.c ****                 CapSense_sensorBaselineLow[sensor] = ((uint8) calc);
 453:Generated_Source\PSoC5/CapSense_CSHL.c **** 
 454:Generated_Source\PSoC5/CapSense_CSHL.c ****                 CapSense_lowBaselineResetCnt[sensor] = 0u;
 455:Generated_Source\PSoC5/CapSense_CSHL.c ****         #if (CapSense_AUTO_RESET == CapSense_AUTO_RESET_DISABLE)
 456:Generated_Source\PSoC5/CapSense_CSHL.c ****             }
 457:Generated_Source\PSoC5/CapSense_CSHL.c ****         #endif /* (CapSense_AUTO_RESET == CapSense_AUTO_RESET_DISABLE) */
 458:Generated_Source\PSoC5/CapSense_CSHL.c ****     }
 459:Generated_Source\PSoC5/CapSense_CSHL.c **** 
 460:Generated_Source\PSoC5/CapSense_CSHL.c ****     /* Calculate Signal if possitive difference > noiseThreshold */
 461:Generated_Source\PSoC5/CapSense_CSHL.c ****     if((tempRaw > (uint16) noiseThreshold) && (widget != 0u))
 462:Generated_Source\PSoC5/CapSense_CSHL.c ****     {
 463:Generated_Source\PSoC5/CapSense_CSHL.c ****         #if (CapSense_SIGNAL_SIZE == CapSense_SIGNAL_SIZE_UINT8)
 464:Generated_Source\PSoC5/CapSense_CSHL.c ****             /* Over flow defence for uint8 */
 465:Generated_Source\PSoC5/CapSense_CSHL.c ****             if (tempRaw > 0xFFu)
 466:Generated_Source\PSoC5/CapSense_CSHL.c ****             {
 467:Generated_Source\PSoC5/CapSense_CSHL.c ****                 CapSense_sensorSignal[sensor] = 0xFFu;
 468:Generated_Source\PSoC5/CapSense_CSHL.c ****             }    
 469:Generated_Source\PSoC5/CapSense_CSHL.c ****             else 
 470:Generated_Source\PSoC5/CapSense_CSHL.c ****             {
 471:Generated_Source\PSoC5/CapSense_CSHL.c ****                 CapSense_sensorSignal[sensor] = ((uint8) tempRaw);
 472:Generated_Source\PSoC5/CapSense_CSHL.c ****             }
 473:Generated_Source\PSoC5/CapSense_CSHL.c ****         #else
 474:Generated_Source\PSoC5/CapSense_CSHL.c ****             CapSense_sensorSignal[sensor] = ((uint16) tempRaw);
 475:Generated_Source\PSoC5/CapSense_CSHL.c ****         #endif  /* (CapSense_SIGNAL_SIZE == CapSense_SIGNAL_SIZE_UINT8) */
 476:Generated_Source\PSoC5/CapSense_CSHL.c ****     }
 477:Generated_Source\PSoC5/CapSense_CSHL.c ****     else
 478:Generated_Source\PSoC5/CapSense_CSHL.c ****     {
 479:Generated_Source\PSoC5/CapSense_CSHL.c ****         /* Signal is zero */
 480:Generated_Source\PSoC5/CapSense_CSHL.c ****         CapSense_sensorSignal[sensor] = 0u;
 481:Generated_Source\PSoC5/CapSense_CSHL.c ****     }
 482:Generated_Source\PSoC5/CapSense_CSHL.c **** 
 483:Generated_Source\PSoC5/CapSense_CSHL.c ****     #if (CapSense_TOTAL_GENERICS_COUNT)
 484:Generated_Source\PSoC5/CapSense_CSHL.c ****         /* Exclude generic widget */
 485:Generated_Source\PSoC5/CapSense_CSHL.c ****         }
 486:Generated_Source\PSoC5/CapSense_CSHL.c ****     #endif  /* CapSense_TOTAL_GENERICS_COUNT */
 487:Generated_Source\PSoC5/CapSense_CSHL.c **** }
 488:Generated_Source\PSoC5/CapSense_CSHL.c **** 
 489:Generated_Source\PSoC5/CapSense_CSHL.c **** 
 490:Generated_Source\PSoC5/CapSense_CSHL.c **** /*******************************************************************************
 491:Generated_Source\PSoC5/CapSense_CSHL.c **** * Function Name: CapSense_UpdateEnabledBaselines
 492:Generated_Source\PSoC5/CapSense_CSHL.c **** ********************************************************************************
 493:Generated_Source\PSoC5/CapSense_CSHL.c **** *
 494:Generated_Source\PSoC5/CapSense_CSHL.c **** * Summary:
 495:Generated_Source\PSoC5/CapSense_CSHL.c **** *  Checks CapSense_sensorEnableMask[] array and calls the 
 496:Generated_Source\PSoC5/CapSense_CSHL.c **** *  CapSense_UpdateSensorBaseline function to update the baselines 
 497:Generated_Source\PSoC5/CapSense_CSHL.c **** *  for enabled sensors.
 498:Generated_Source\PSoC5/CapSense_CSHL.c **** *
 499:Generated_Source\PSoC5/CapSense_CSHL.c **** * Parameters:
 500:Generated_Source\PSoC5/CapSense_CSHL.c **** *  None
 501:Generated_Source\PSoC5/CapSense_CSHL.c **** *
 502:Generated_Source\PSoC5/CapSense_CSHL.c **** * Return:
 503:Generated_Source\PSoC5/CapSense_CSHL.c **** *  None
ARM GAS  C:\Users\Tri94\AppData\Local\Temp\ccpNRt3N.s 			page 14


 504:Generated_Source\PSoC5/CapSense_CSHL.c **** *
 505:Generated_Source\PSoC5/CapSense_CSHL.c **** * Global Variables:
 506:Generated_Source\PSoC5/CapSense_CSHL.c **** *  CapSense_sensorEnableMask[] - used to store the sensor scanning 
 507:Generated_Source\PSoC5/CapSense_CSHL.c **** *  state.
 508:Generated_Source\PSoC5/CapSense_CSHL.c **** *  CapSense_sensorEnableMask[0] contains the masked bits for sensors 
 509:Generated_Source\PSoC5/CapSense_CSHL.c **** *   0 through 7 (sensor 0 is bit 0, sensor 1 is bit 1).
 510:Generated_Source\PSoC5/CapSense_CSHL.c **** *  CapSense_sensorEnableMask[1] contains the masked bits for 
 511:Generated_Source\PSoC5/CapSense_CSHL.c **** *  sensors 8 through 15 (if needed), and so on.
 512:Generated_Source\PSoC5/CapSense_CSHL.c **** *  0 - sensor doesn't scan by CapSense_ScanEnabledWidgets().
 513:Generated_Source\PSoC5/CapSense_CSHL.c **** *  1 - sensor scans by CapSense_ScanEnabledWidgets().
 514:Generated_Source\PSoC5/CapSense_CSHL.c **** *
 515:Generated_Source\PSoC5/CapSense_CSHL.c **** * Reentrant:
 516:Generated_Source\PSoC5/CapSense_CSHL.c **** *  No
 517:Generated_Source\PSoC5/CapSense_CSHL.c **** *
 518:Generated_Source\PSoC5/CapSense_CSHL.c **** *******************************************************************************/
 519:Generated_Source\PSoC5/CapSense_CSHL.c ****  void CapSense_UpdateEnabledBaselines(void)
 520:Generated_Source\PSoC5/CapSense_CSHL.c ****                                  
 521:Generated_Source\PSoC5/CapSense_CSHL.c **** {
 522:Generated_Source\PSoC5/CapSense_CSHL.c ****     uint8 i;
 523:Generated_Source\PSoC5/CapSense_CSHL.c ****     uint8 pos;
 524:Generated_Source\PSoC5/CapSense_CSHL.c ****     uint8 enMask;
 525:Generated_Source\PSoC5/CapSense_CSHL.c ****     
 526:Generated_Source\PSoC5/CapSense_CSHL.c ****     for(i = 0u; i < CapSense_TOTAL_SENSOR_COUNT; i++)
 527:Generated_Source\PSoC5/CapSense_CSHL.c ****     {
 528:Generated_Source\PSoC5/CapSense_CSHL.c ****         pos = (i >> 3u);
 529:Generated_Source\PSoC5/CapSense_CSHL.c ****         enMask = (uint8)(0x01u << (i & 0x07u));
 530:Generated_Source\PSoC5/CapSense_CSHL.c ****         if((CapSense_sensorEnableMask[pos] & enMask) != 0u)
 531:Generated_Source\PSoC5/CapSense_CSHL.c ****         {
 532:Generated_Source\PSoC5/CapSense_CSHL.c ****             CapSense_UpdateSensorBaseline(i);
 533:Generated_Source\PSoC5/CapSense_CSHL.c ****         }
 534:Generated_Source\PSoC5/CapSense_CSHL.c ****     }
 535:Generated_Source\PSoC5/CapSense_CSHL.c **** }
 536:Generated_Source\PSoC5/CapSense_CSHL.c **** 
 537:Generated_Source\PSoC5/CapSense_CSHL.c **** 
 538:Generated_Source\PSoC5/CapSense_CSHL.c **** /*******************************************************************************
 539:Generated_Source\PSoC5/CapSense_CSHL.c **** * Function Name: CapSense_CheckIsSensorActive
 540:Generated_Source\PSoC5/CapSense_CSHL.c **** ********************************************************************************
 541:Generated_Source\PSoC5/CapSense_CSHL.c **** *
 542:Generated_Source\PSoC5/CapSense_CSHL.c **** * Summary:
 543:Generated_Source\PSoC5/CapSense_CSHL.c **** *  Compares the CapSense_SensorSignal[sensor] array element to finger
 544:Generated_Source\PSoC5/CapSense_CSHL.c **** *  threshold of widget it belongs to. The hysteresis and debounce are taken into 
 545:Generated_Source\PSoC5/CapSense_CSHL.c **** *  account. The hysteresis is added or subtracted from the finger threshold 
 546:Generated_Source\PSoC5/CapSense_CSHL.c **** *  based on whether the sensor is currently active. 
 547:Generated_Source\PSoC5/CapSense_CSHL.c **** *  If the sensor is active, the threshold is lowered by the hysteresis amount.
 548:Generated_Source\PSoC5/CapSense_CSHL.c **** *  If the sensor is inactive, the threshold is raised by the hysteresis amount.
 549:Generated_Source\PSoC5/CapSense_CSHL.c **** *  The debounce counter added to the sensor active transition.
 550:Generated_Source\PSoC5/CapSense_CSHL.c **** *  This function updates CapSense_SensorOnMask[] array element.
 551:Generated_Source\PSoC5/CapSense_CSHL.c **** *
 552:Generated_Source\PSoC5/CapSense_CSHL.c **** * Parameters:
 553:Generated_Source\PSoC5/CapSense_CSHL.c **** *  sensor:  Sensor number.
 554:Generated_Source\PSoC5/CapSense_CSHL.c **** *
 555:Generated_Source\PSoC5/CapSense_CSHL.c **** * Return:
 556:Generated_Source\PSoC5/CapSense_CSHL.c **** *  Returns sensor state 1 if active, 0 if not active.
 557:Generated_Source\PSoC5/CapSense_CSHL.c **** *
 558:Generated_Source\PSoC5/CapSense_CSHL.c **** * Global Variables:
 559:Generated_Source\PSoC5/CapSense_CSHL.c **** *  CapSense_sensorSignal[]      - used to store diffence between 
 560:Generated_Source\PSoC5/CapSense_CSHL.c **** *  current value of raw data and previous value of baseline.
ARM GAS  C:\Users\Tri94\AppData\Local\Temp\ccpNRt3N.s 			page 15


 561:Generated_Source\PSoC5/CapSense_CSHL.c **** *  CapSense_debounceCounter[]   - used to store current debounce 
 562:Generated_Source\PSoC5/CapSense_CSHL.c **** *  counter of sensor. Widget which has this parameter are buttons, matrix 
 563:Generated_Source\PSoC5/CapSense_CSHL.c **** *  buttons, proximity, guard. All other widgets haven't debounce parameter
 564:Generated_Source\PSoC5/CapSense_CSHL.c **** *  and use the last element of this array with value 0 (it means no debounce).
 565:Generated_Source\PSoC5/CapSense_CSHL.c **** *  CapSense_sensorOnMask[] - used to store sensors on/off state.
 566:Generated_Source\PSoC5/CapSense_CSHL.c **** *  CapSense_sensorOnMask[0] contains the masked bits for sensors 
 567:Generated_Source\PSoC5/CapSense_CSHL.c **** *   0 through 7 (sensor 0 is bit 0, sensor 1 is bit 1).
 568:Generated_Source\PSoC5/CapSense_CSHL.c **** *  CapSense_sensorEnableMask[1] contains the masked bits for 
 569:Generated_Source\PSoC5/CapSense_CSHL.c **** *  sensors 8 through 15 (if needed), and so on.
 570:Generated_Source\PSoC5/CapSense_CSHL.c **** *  0 - sensor is inactive.
 571:Generated_Source\PSoC5/CapSense_CSHL.c **** *  1 - sensor is active.
 572:Generated_Source\PSoC5/CapSense_CSHL.c **** *
 573:Generated_Source\PSoC5/CapSense_CSHL.c **** * Reentrant:
 574:Generated_Source\PSoC5/CapSense_CSHL.c **** *  No
 575:Generated_Source\PSoC5/CapSense_CSHL.c **** *
 576:Generated_Source\PSoC5/CapSense_CSHL.c **** *******************************************************************************/
 577:Generated_Source\PSoC5/CapSense_CSHL.c **** uint8 CapSense_CheckIsSensorActive(uint8 sensor)
 578:Generated_Source\PSoC5/CapSense_CSHL.c ****                                   
 579:Generated_Source\PSoC5/CapSense_CSHL.c **** {
 235              		.loc 1 579 0
 236              		.cfi_startproc
 237              		@ args = 0, pretend = 0, frame = 0
 238              		@ frame_needed = 0, uses_anonymous_args = 0
 239              	.LVL21:
 240 0000 F0B5     		push	{r4, r5, r6, r7, lr}
 241              		.cfi_def_cfa_offset 20
 242              		.cfi_offset 4, -20
 243              		.cfi_offset 5, -16
 244              		.cfi_offset 6, -12
 245              		.cfi_offset 7, -8
 246              		.cfi_offset 14, -4
 580:Generated_Source\PSoC5/CapSense_CSHL.c ****     uint8 debounceIndex;
 581:Generated_Source\PSoC5/CapSense_CSHL.c ****     /* Get On/Off mask */
 582:Generated_Source\PSoC5/CapSense_CSHL.c ****     uint8 pos = (sensor >> 3u);
 247              		.loc 1 582 0
 248 0002 C408     		lsrs	r4, r0, #3
 249              	.LVL22:
 583:Generated_Source\PSoC5/CapSense_CSHL.c ****     uint8 onMask = 0x01u << (sensor & 0x07u);
 250              		.loc 1 583 0
 251 0004 00F00702 		and	r2, r0, #7
 252 0008 0123     		movs	r3, #1
 253 000a 9340     		lsls	r3, r3, r2
 254 000c DBB2     		uxtb	r3, r3
 255              	.LVL23:
 584:Generated_Source\PSoC5/CapSense_CSHL.c ****     /* Prepare to find debounce counter index */
 585:Generated_Source\PSoC5/CapSense_CSHL.c ****     uint8 widget = CapSense_widgetNumber[sensor];
 256              		.loc 1 585 0
 257 000e 194A     		ldr	r2, .L27
 258 0010 125C     		ldrb	r2, [r2, r0]	@ zero_extendqisi2
 586:Generated_Source\PSoC5/CapSense_CSHL.c ****     uint8 fingerThreshold = CapSense_fingerThreshold[widget];
 259              		.loc 1 586 0
 260 0012 194D     		ldr	r5, .L27+4
 261 0014 AE18     		adds	r6, r5, r2
 262 0016 3779     		ldrb	r7, [r6, #4]	@ zero_extendqisi2
 263              	.LVL24:
 587:Generated_Source\PSoC5/CapSense_CSHL.c ****     uint8 hysteresis = CapSense_hysteresis[widget];
 264              		.loc 1 587 0
ARM GAS  C:\Users\Tri94\AppData\Local\Temp\ccpNRt3N.s 			page 16


 265 0018 317A     		ldrb	r1, [r6, #8]	@ zero_extendqisi2
 266              	.LVL25:
 588:Generated_Source\PSoC5/CapSense_CSHL.c ****     uint8 debounce = CapSense_debounce[widget];
 267              		.loc 1 588 0
 268 001a AE5C     		ldrb	r6, [r5, r2]	@ zero_extendqisi2
 269              	.LVL26:
 589:Generated_Source\PSoC5/CapSense_CSHL.c ****     
 590:Generated_Source\PSoC5/CapSense_CSHL.c ****     debounceIndex = widget;
 591:Generated_Source\PSoC5/CapSense_CSHL.c **** 
 592:Generated_Source\PSoC5/CapSense_CSHL.c ****     
 593:Generated_Source\PSoC5/CapSense_CSHL.c ****     /* Was on */
 594:Generated_Source\PSoC5/CapSense_CSHL.c ****     if (0u != (CapSense_sensorOnMask[pos] & onMask))
 270              		.loc 1 594 0
 271 001c 174D     		ldr	r5, .L27+8
 272 001e 2D5D     		ldrb	r5, [r5, r4]	@ zero_extendqisi2
 273 0020 2B42     		tst	r3, r5
 274 0022 0DD0     		beq	.L21
 595:Generated_Source\PSoC5/CapSense_CSHL.c ****     {
 596:Generated_Source\PSoC5/CapSense_CSHL.c ****         /* Hysteresis minus */
 597:Generated_Source\PSoC5/CapSense_CSHL.c ****         if (CapSense_sensorSignal[sensor] < (fingerThreshold - hysteresis))
 275              		.loc 1 597 0
 276 0024 DFF85CE0 		ldr	lr, .L27+16
 277 0028 1EF80000 		ldrb	r0, [lr, r0]	@ zero_extendqisi2
 278              	.LVL27:
 279 002c 791A     		subs	r1, r7, r1
 280              	.LVL28:
 281 002e 8842     		cmp	r0, r1
 282 0030 1ADA     		bge	.L22
 598:Generated_Source\PSoC5/CapSense_CSHL.c ****         {
 599:Generated_Source\PSoC5/CapSense_CSHL.c ****             CapSense_sensorOnMask[pos] &= (uint8)~onMask;
 283              		.loc 1 599 0
 284 0032 25EA0305 		bic	r5, r5, r3
 285 0036 1149     		ldr	r1, .L27+8
 286 0038 0D55     		strb	r5, [r1, r4]
 600:Generated_Source\PSoC5/CapSense_CSHL.c ****             CapSense_debounceCounter[debounceIndex] = debounce; 
 287              		.loc 1 600 0
 288 003a 1149     		ldr	r1, .L27+12
 289 003c 8E54     		strb	r6, [r1, r2]
 290 003e 13E0     		b	.L22
 291              	.LVL29:
 292              	.L21:
 601:Generated_Source\PSoC5/CapSense_CSHL.c ****         }
 602:Generated_Source\PSoC5/CapSense_CSHL.c ****     }
 603:Generated_Source\PSoC5/CapSense_CSHL.c ****     else    /* Was off */
 604:Generated_Source\PSoC5/CapSense_CSHL.c ****     {
 605:Generated_Source\PSoC5/CapSense_CSHL.c ****         /* Hysteresis plus */
 606:Generated_Source\PSoC5/CapSense_CSHL.c ****         if (CapSense_sensorSignal[sensor] > (fingerThreshold + hysteresis))
 293              		.loc 1 606 0
 294 0040 DFF840E0 		ldr	lr, .L27+16
 295 0044 1EF80000 		ldrb	r0, [lr, r0]	@ zero_extendqisi2
 296              	.LVL30:
 297 0048 3944     		add	r1, r1, r7
 298              	.LVL31:
 299 004a 8842     		cmp	r0, r1
 300 004c 0ADD     		ble	.L23
 607:Generated_Source\PSoC5/CapSense_CSHL.c ****         {
 608:Generated_Source\PSoC5/CapSense_CSHL.c ****             /* Sensor active, decrement debounce counter */
ARM GAS  C:\Users\Tri94\AppData\Local\Temp\ccpNRt3N.s 			page 17


 609:Generated_Source\PSoC5/CapSense_CSHL.c ****             if (CapSense_debounceCounter[debounceIndex] <= 1u)
 301              		.loc 1 609 0
 302 004e 0C49     		ldr	r1, .L27+12
 303 0050 895C     		ldrb	r1, [r1, r2]	@ zero_extendqisi2
 304 0052 0129     		cmp	r1, #1
 305 0054 02D8     		bhi	.L24
 610:Generated_Source\PSoC5/CapSense_CSHL.c ****             {
 611:Generated_Source\PSoC5/CapSense_CSHL.c ****                 CapSense_sensorOnMask[pos] |= onMask; 
 306              		.loc 1 611 0
 307 0056 1D43     		orrs	r5, r5, r3
 308 0058 0848     		ldr	r0, .L27+8
 309 005a 0555     		strb	r5, [r0, r4]
 310              	.L24:
 612:Generated_Source\PSoC5/CapSense_CSHL.c ****             }
 613:Generated_Source\PSoC5/CapSense_CSHL.c ****             CapSense_debounceCounter[debounceIndex]--;
 311              		.loc 1 613 0
 312 005c 0139     		subs	r1, r1, #1
 313 005e 0848     		ldr	r0, .L27+12
 314 0060 8154     		strb	r1, [r0, r2]
 315 0062 01E0     		b	.L22
 316              	.L23:
 614:Generated_Source\PSoC5/CapSense_CSHL.c ****         }
 615:Generated_Source\PSoC5/CapSense_CSHL.c ****         else
 616:Generated_Source\PSoC5/CapSense_CSHL.c ****         {
 617:Generated_Source\PSoC5/CapSense_CSHL.c ****             /* Sensor inactive - reset Debounce counter */
 618:Generated_Source\PSoC5/CapSense_CSHL.c ****             CapSense_debounceCounter[debounceIndex] = debounce;
 317              		.loc 1 618 0
 318 0064 0649     		ldr	r1, .L27+12
 319 0066 8E54     		strb	r6, [r1, r2]
 320              	.L22:
 619:Generated_Source\PSoC5/CapSense_CSHL.c ****         }
 620:Generated_Source\PSoC5/CapSense_CSHL.c ****     }
 621:Generated_Source\PSoC5/CapSense_CSHL.c ****     
 622:Generated_Source\PSoC5/CapSense_CSHL.c ****     return (((CapSense_sensorOnMask[pos] & onMask) != 0u) ? 1u : 0u);
 321              		.loc 1 622 0
 322 0068 044A     		ldr	r2, .L27+8
 323              	.LVL32:
 324 006a 105D     		ldrb	r0, [r2, r4]	@ zero_extendqisi2
 325 006c 1840     		ands	r0, r3, r0
 326 006e 00D0     		beq	.L25
 327 0070 0120     		movs	r0, #1
 328              	.L25:
 623:Generated_Source\PSoC5/CapSense_CSHL.c **** }
 329              		.loc 1 623 0 discriminator 4
 330 0072 F0BD     		pop	{r4, r5, r6, r7, pc}
 331              	.LVL33:
 332              	.L28:
 333              		.align	2
 334              	.L27:
 335 0074 00000000 		.word	CapSense_widgetNumber
 336 0078 00000000 		.word	.LANCHOR0
 337 007c 00000000 		.word	CapSense_sensorOnMask
 338 0080 00000000 		.word	.LANCHOR1
 339 0084 00000000 		.word	CapSense_sensorSignal
 340              		.cfi_endproc
 341              	.LFE6:
 342              		.size	CapSense_CheckIsSensorActive, .-CapSense_CheckIsSensorActive
ARM GAS  C:\Users\Tri94\AppData\Local\Temp\ccpNRt3N.s 			page 18


 343              		.section	.text.CapSense_CheckIsWidgetActive,"ax",%progbits
 344              		.align	2
 345              		.global	CapSense_CheckIsWidgetActive
 346              		.thumb
 347              		.thumb_func
 348              		.type	CapSense_CheckIsWidgetActive, %function
 349              	CapSense_CheckIsWidgetActive:
 350              	.LFB7:
 624:Generated_Source\PSoC5/CapSense_CSHL.c **** 
 625:Generated_Source\PSoC5/CapSense_CSHL.c **** 
 626:Generated_Source\PSoC5/CapSense_CSHL.c **** /*******************************************************************************
 627:Generated_Source\PSoC5/CapSense_CSHL.c **** * Function Name: CapSense_CheckIsWidgetActive
 628:Generated_Source\PSoC5/CapSense_CSHL.c **** ********************************************************************************
 629:Generated_Source\PSoC5/CapSense_CSHL.c **** *
 630:Generated_Source\PSoC5/CapSense_CSHL.c **** * Summary:
 631:Generated_Source\PSoC5/CapSense_CSHL.c **** *  Use function CapSense_CheckIsSensorActive() to update 
 632:Generated_Source\PSoC5/CapSense_CSHL.c **** *  CapSense_sensorOnMask[] for all sensors within the widget.
 633:Generated_Source\PSoC5/CapSense_CSHL.c **** *  If one of sensors within widget is active the function return that widget is 
 634:Generated_Source\PSoC5/CapSense_CSHL.c **** *  active.
 635:Generated_Source\PSoC5/CapSense_CSHL.c **** *  The touch pad and matrix buttons widgets need to have active sensor within 
 636:Generated_Source\PSoC5/CapSense_CSHL.c **** *  col and row to return widget active status.
 637:Generated_Source\PSoC5/CapSense_CSHL.c **** *
 638:Generated_Source\PSoC5/CapSense_CSHL.c **** * Parameters:
 639:Generated_Source\PSoC5/CapSense_CSHL.c **** *  widget:  widget number.
 640:Generated_Source\PSoC5/CapSense_CSHL.c **** *
 641:Generated_Source\PSoC5/CapSense_CSHL.c **** * Return:
 642:Generated_Source\PSoC5/CapSense_CSHL.c **** *  Returns widget sensor state 1 if one or more sensors within widget is/are 
 643:Generated_Source\PSoC5/CapSense_CSHL.c **** *  active, 0 if all sensors within widget are inactive.
 644:Generated_Source\PSoC5/CapSense_CSHL.c **** *
 645:Generated_Source\PSoC5/CapSense_CSHL.c **** * Reentrant:
 646:Generated_Source\PSoC5/CapSense_CSHL.c **** *  No
 647:Generated_Source\PSoC5/CapSense_CSHL.c **** *
 648:Generated_Source\PSoC5/CapSense_CSHL.c **** *******************************************************************************/
 649:Generated_Source\PSoC5/CapSense_CSHL.c **** uint8 CapSense_CheckIsWidgetActive(uint8 widget)
 650:Generated_Source\PSoC5/CapSense_CSHL.c ****                                  
 651:Generated_Source\PSoC5/CapSense_CSHL.c **** {
 351              		.loc 1 651 0
 352              		.cfi_startproc
 353              		@ args = 0, pretend = 0, frame = 0
 354              		@ frame_needed = 0, uses_anonymous_args = 0
 355              	.LVL34:
 356 0000 08B5     		push	{r3, lr}
 357              		.cfi_def_cfa_offset 8
 358              		.cfi_offset 3, -8
 359              		.cfi_offset 14, -4
 360              	.LVL35:
 652:Generated_Source\PSoC5/CapSense_CSHL.c ****     uint8 rawIndex = CapSense_rawDataIndex[widget];
 653:Generated_Source\PSoC5/CapSense_CSHL.c ****     uint8 numberOfSensors = CapSense_numberOfSensors[widget] + rawIndex;
 654:Generated_Source\PSoC5/CapSense_CSHL.c ****     uint8 state = 0u;
 655:Generated_Source\PSoC5/CapSense_CSHL.c **** 
 656:Generated_Source\PSoC5/CapSense_CSHL.c ****     /* Check all sensors of the widget */
 657:Generated_Source\PSoC5/CapSense_CSHL.c ****     do
 658:Generated_Source\PSoC5/CapSense_CSHL.c ****     {
 659:Generated_Source\PSoC5/CapSense_CSHL.c ****         if(CapSense_CheckIsSensorActive(rawIndex) != 0u)
 361              		.loc 1 659 0
 362 0002 0020     		movs	r0, #0
 363              	.LVL36:
ARM GAS  C:\Users\Tri94\AppData\Local\Temp\ccpNRt3N.s 			page 19


 364 0004 FFF7FEFF 		bl	CapSense_CheckIsSensorActive
 365              	.LVL37:
 366 0008 00B1     		cbz	r0, .L30
 660:Generated_Source\PSoC5/CapSense_CSHL.c ****         {
 661:Generated_Source\PSoC5/CapSense_CSHL.c ****             state = CapSense_SENSOR_1_IS_ACTIVE;
 367              		.loc 1 661 0
 368 000a 0120     		movs	r0, #1
 369              	.L30:
 370              	.LVL38:
 662:Generated_Source\PSoC5/CapSense_CSHL.c ****         }
 663:Generated_Source\PSoC5/CapSense_CSHL.c ****         rawIndex++;
 664:Generated_Source\PSoC5/CapSense_CSHL.c ****     }
 665:Generated_Source\PSoC5/CapSense_CSHL.c ****     while(rawIndex < numberOfSensors);
 666:Generated_Source\PSoC5/CapSense_CSHL.c ****     
 667:Generated_Source\PSoC5/CapSense_CSHL.c **** 
 668:Generated_Source\PSoC5/CapSense_CSHL.c ****     
 669:Generated_Source\PSoC5/CapSense_CSHL.c ****     return (state);
 670:Generated_Source\PSoC5/CapSense_CSHL.c **** }
 371              		.loc 1 670 0
 372 000c 08BD     		pop	{r3, pc}
 373              		.cfi_endproc
 374              	.LFE7:
 375              		.size	CapSense_CheckIsWidgetActive, .-CapSense_CheckIsWidgetActive
 376 000e 00BF     		.section	.text.CapSense_CheckIsAnyWidgetActive,"ax",%progbits
 377              		.align	2
 378              		.global	CapSense_CheckIsAnyWidgetActive
 379              		.thumb
 380              		.thumb_func
 381              		.type	CapSense_CheckIsAnyWidgetActive, %function
 382              	CapSense_CheckIsAnyWidgetActive:
 383              	.LFB8:
 671:Generated_Source\PSoC5/CapSense_CSHL.c **** 
 672:Generated_Source\PSoC5/CapSense_CSHL.c **** 
 673:Generated_Source\PSoC5/CapSense_CSHL.c **** /*******************************************************************************
 674:Generated_Source\PSoC5/CapSense_CSHL.c **** * Function Name: CapSense_CheckIsAnyWidgetActive
 675:Generated_Source\PSoC5/CapSense_CSHL.c **** ********************************************************************************
 676:Generated_Source\PSoC5/CapSense_CSHL.c **** *
 677:Generated_Source\PSoC5/CapSense_CSHL.c **** * Summary:
 678:Generated_Source\PSoC5/CapSense_CSHL.c **** *  Compares all sensors of the CapSense_signal[] array to their finger 
 679:Generated_Source\PSoC5/CapSense_CSHL.c **** *  threshold. Calls CapSense_CheckIsWidgetActive() for each widget so 
 680:Generated_Source\PSoC5/CapSense_CSHL.c **** *  the CapSense_SensorOnMask[] array is up to date after calling this 
 681:Generated_Source\PSoC5/CapSense_CSHL.c **** *  function.
 682:Generated_Source\PSoC5/CapSense_CSHL.c **** *
 683:Generated_Source\PSoC5/CapSense_CSHL.c **** * Parameters:
 684:Generated_Source\PSoC5/CapSense_CSHL.c **** *  widget:  widget number.
 685:Generated_Source\PSoC5/CapSense_CSHL.c **** *
 686:Generated_Source\PSoC5/CapSense_CSHL.c **** * Return:
 687:Generated_Source\PSoC5/CapSense_CSHL.c **** *  Returns 1 if any widget is active, 0 none of widgets are active.
 688:Generated_Source\PSoC5/CapSense_CSHL.c **** *
 689:Generated_Source\PSoC5/CapSense_CSHL.c **** * Reentrant:
 690:Generated_Source\PSoC5/CapSense_CSHL.c **** *  No
 691:Generated_Source\PSoC5/CapSense_CSHL.c **** *
 692:Generated_Source\PSoC5/CapSense_CSHL.c **** *******************************************************************************/
 693:Generated_Source\PSoC5/CapSense_CSHL.c **** uint8 CapSense_CheckIsAnyWidgetActive(void)
 694:Generated_Source\PSoC5/CapSense_CSHL.c ****                                  
 695:Generated_Source\PSoC5/CapSense_CSHL.c **** {
 384              		.loc 1 695 0
ARM GAS  C:\Users\Tri94\AppData\Local\Temp\ccpNRt3N.s 			page 20


 385              		.cfi_startproc
 386              		@ args = 0, pretend = 0, frame = 0
 387              		@ frame_needed = 0, uses_anonymous_args = 0
 388 0000 38B5     		push	{r3, r4, r5, lr}
 389              		.cfi_def_cfa_offset 16
 390              		.cfi_offset 3, -16
 391              		.cfi_offset 4, -12
 392              		.cfi_offset 5, -8
 393              		.cfi_offset 14, -4
 394              	.LVL39:
 696:Generated_Source\PSoC5/CapSense_CSHL.c ****     uint8 i;
 697:Generated_Source\PSoC5/CapSense_CSHL.c ****     uint8 state = 0u;
 395              		.loc 1 697 0
 396 0002 0025     		movs	r5, #0
 698:Generated_Source\PSoC5/CapSense_CSHL.c ****     
 699:Generated_Source\PSoC5/CapSense_CSHL.c ****     for(i = 0u; i < CapSense_TOTAL_WIDGET_COUNT; i++)
 397              		.loc 1 699 0
 398 0004 2C46     		mov	r4, r5
 399 0006 06E0     		b	.L34
 400              	.LVL40:
 401              	.L36:
 700:Generated_Source\PSoC5/CapSense_CSHL.c ****     {
 701:Generated_Source\PSoC5/CapSense_CSHL.c ****         if (CapSense_CheckIsWidgetActive(i) != 0u)
 402              		.loc 1 701 0
 403 0008 2046     		mov	r0, r4
 404 000a FFF7FEFF 		bl	CapSense_CheckIsWidgetActive
 405              	.LVL41:
 406 000e 00B1     		cbz	r0, .L35
 702:Generated_Source\PSoC5/CapSense_CSHL.c ****         {
 703:Generated_Source\PSoC5/CapSense_CSHL.c ****             state = CapSense_WIDGET_IS_ACTIVE;
 407              		.loc 1 703 0
 408 0010 0125     		movs	r5, #1
 409              	.LVL42:
 410              	.L35:
 699:Generated_Source\PSoC5/CapSense_CSHL.c ****     {
 411              		.loc 1 699 0 discriminator 2
 412 0012 0134     		adds	r4, r4, #1
 413              	.LVL43:
 414 0014 E4B2     		uxtb	r4, r4
 415              	.LVL44:
 416              	.L34:
 699:Generated_Source\PSoC5/CapSense_CSHL.c ****     {
 417              		.loc 1 699 0 is_stmt 0 discriminator 1
 418 0016 002C     		cmp	r4, #0
 419 0018 F6D0     		beq	.L36
 704:Generated_Source\PSoC5/CapSense_CSHL.c ****         }
 705:Generated_Source\PSoC5/CapSense_CSHL.c ****     }
 706:Generated_Source\PSoC5/CapSense_CSHL.c ****     
 707:Generated_Source\PSoC5/CapSense_CSHL.c **** 
 708:Generated_Source\PSoC5/CapSense_CSHL.c ****     return (state);
 709:Generated_Source\PSoC5/CapSense_CSHL.c **** }
 420              		.loc 1 709 0 is_stmt 1
 421 001a 2846     		mov	r0, r5
 422 001c 38BD     		pop	{r3, r4, r5, pc}
 423              		.cfi_endproc
 424              	.LFE8:
 425              		.size	CapSense_CheckIsAnyWidgetActive, .-CapSense_CheckIsAnyWidgetActive
ARM GAS  C:\Users\Tri94\AppData\Local\Temp\ccpNRt3N.s 			page 21


 426 001e 00BF     		.section	.text.CapSense_EnableWidget,"ax",%progbits
 427              		.align	2
 428              		.global	CapSense_EnableWidget
 429              		.thumb
 430              		.thumb_func
 431              		.type	CapSense_EnableWidget, %function
 432              	CapSense_EnableWidget:
 433              	.LFB9:
 710:Generated_Source\PSoC5/CapSense_CSHL.c **** 
 711:Generated_Source\PSoC5/CapSense_CSHL.c **** 
 712:Generated_Source\PSoC5/CapSense_CSHL.c **** /*******************************************************************************
 713:Generated_Source\PSoC5/CapSense_CSHL.c **** * Function Name: CapSense_EnableWidget
 714:Generated_Source\PSoC5/CapSense_CSHL.c **** ********************************************************************************
 715:Generated_Source\PSoC5/CapSense_CSHL.c **** *
 716:Generated_Source\PSoC5/CapSense_CSHL.c **** * Summary:
 717:Generated_Source\PSoC5/CapSense_CSHL.c **** *  Enable all widget elements (sensors) to scanning process.
 718:Generated_Source\PSoC5/CapSense_CSHL.c **** *
 719:Generated_Source\PSoC5/CapSense_CSHL.c **** * Parameters:
 720:Generated_Source\PSoC5/CapSense_CSHL.c **** *  widget:  widget number.
 721:Generated_Source\PSoC5/CapSense_CSHL.c **** *
 722:Generated_Source\PSoC5/CapSense_CSHL.c **** * Return:
 723:Generated_Source\PSoC5/CapSense_CSHL.c **** *  None
 724:Generated_Source\PSoC5/CapSense_CSHL.c **** *
 725:Generated_Source\PSoC5/CapSense_CSHL.c **** * Global Variables:
 726:Generated_Source\PSoC5/CapSense_CSHL.c **** *  CapSense_sensorEnableMask[] - used to store the sensor scanning 
 727:Generated_Source\PSoC5/CapSense_CSHL.c **** *  state.
 728:Generated_Source\PSoC5/CapSense_CSHL.c **** *  CapSense_sensorEnableMask[0] contains the masked bits for sensors 
 729:Generated_Source\PSoC5/CapSense_CSHL.c **** *  0 through 7 (sensor 0 is bit 0, sensor 1 is bit 1).
 730:Generated_Source\PSoC5/CapSense_CSHL.c **** *  CapSense_sensorEnableMask[1] contains the masked bits for 
 731:Generated_Source\PSoC5/CapSense_CSHL.c **** *  sensors 8 through 15 (if needed), and so on.
 732:Generated_Source\PSoC5/CapSense_CSHL.c **** *  0 - sensor doesn't scan by CapSense_ScanEnabledWidgets().
 733:Generated_Source\PSoC5/CapSense_CSHL.c **** *  1 - sensor scans by CapSense_ScanEnabledWidgets().
 734:Generated_Source\PSoC5/CapSense_CSHL.c **** *
 735:Generated_Source\PSoC5/CapSense_CSHL.c **** * Reentrant:
 736:Generated_Source\PSoC5/CapSense_CSHL.c **** *  No
 737:Generated_Source\PSoC5/CapSense_CSHL.c **** *
 738:Generated_Source\PSoC5/CapSense_CSHL.c **** *******************************************************************************/
 739:Generated_Source\PSoC5/CapSense_CSHL.c **** void CapSense_EnableWidget(uint8 widget)
 740:Generated_Source\PSoC5/CapSense_CSHL.c ****                                    
 741:Generated_Source\PSoC5/CapSense_CSHL.c **** {
 434              		.loc 1 741 0
 435              		.cfi_startproc
 436              		@ args = 0, pretend = 0, frame = 0
 437              		@ frame_needed = 0, uses_anonymous_args = 0
 438              		@ link register save eliminated.
 439              	.LVL45:
 742:Generated_Source\PSoC5/CapSense_CSHL.c ****     uint8 pos;
 743:Generated_Source\PSoC5/CapSense_CSHL.c ****     uint8 enMask;
 744:Generated_Source\PSoC5/CapSense_CSHL.c ****     uint8 rawIndex = CapSense_rawDataIndex[widget];
 745:Generated_Source\PSoC5/CapSense_CSHL.c ****     uint8 numberOfSensors = CapSense_numberOfSensors[widget] + rawIndex;
 746:Generated_Source\PSoC5/CapSense_CSHL.c ****     
 747:Generated_Source\PSoC5/CapSense_CSHL.c ****     /* Enable all sensors of the widget */
 748:Generated_Source\PSoC5/CapSense_CSHL.c ****     do
 749:Generated_Source\PSoC5/CapSense_CSHL.c ****     {
 750:Generated_Source\PSoC5/CapSense_CSHL.c ****         pos = (rawIndex >> 3u);
 751:Generated_Source\PSoC5/CapSense_CSHL.c ****         enMask = 0x01u << (rawIndex & 0x07u);
 752:Generated_Source\PSoC5/CapSense_CSHL.c ****         
ARM GAS  C:\Users\Tri94\AppData\Local\Temp\ccpNRt3N.s 			page 22


 753:Generated_Source\PSoC5/CapSense_CSHL.c ****         CapSense_sensorEnableMask[pos] |= enMask;
 440              		.loc 1 753 0
 441 0000 024A     		ldr	r2, .L40
 442 0002 1378     		ldrb	r3, [r2]	@ zero_extendqisi2
 443 0004 43F00103 		orr	r3, r3, #1
 444 0008 1370     		strb	r3, [r2]
 445              	.LVL46:
 446 000a 7047     		bx	lr
 447              	.L41:
 448              		.align	2
 449              	.L40:
 450 000c 00000000 		.word	CapSense_sensorEnableMask
 451              		.cfi_endproc
 452              	.LFE9:
 453              		.size	CapSense_EnableWidget, .-CapSense_EnableWidget
 454              		.section	.text.CapSense_DisableWidget,"ax",%progbits
 455              		.align	2
 456              		.global	CapSense_DisableWidget
 457              		.thumb
 458              		.thumb_func
 459              		.type	CapSense_DisableWidget, %function
 460              	CapSense_DisableWidget:
 461              	.LFB10:
 754:Generated_Source\PSoC5/CapSense_CSHL.c ****         rawIndex++;
 755:Generated_Source\PSoC5/CapSense_CSHL.c ****     }
 756:Generated_Source\PSoC5/CapSense_CSHL.c ****     while(rawIndex < numberOfSensors);
 757:Generated_Source\PSoC5/CapSense_CSHL.c ****     
 758:Generated_Source\PSoC5/CapSense_CSHL.c **** 
 759:Generated_Source\PSoC5/CapSense_CSHL.c **** }
 760:Generated_Source\PSoC5/CapSense_CSHL.c **** 
 761:Generated_Source\PSoC5/CapSense_CSHL.c **** 
 762:Generated_Source\PSoC5/CapSense_CSHL.c **** /*******************************************************************************
 763:Generated_Source\PSoC5/CapSense_CSHL.c **** * Function Name: CapSense_DisableWidget
 764:Generated_Source\PSoC5/CapSense_CSHL.c **** ********************************************************************************
 765:Generated_Source\PSoC5/CapSense_CSHL.c **** *
 766:Generated_Source\PSoC5/CapSense_CSHL.c **** * Summary:
 767:Generated_Source\PSoC5/CapSense_CSHL.c **** *  Disable all widget elements (sensors) from scanning process.
 768:Generated_Source\PSoC5/CapSense_CSHL.c **** *
 769:Generated_Source\PSoC5/CapSense_CSHL.c **** * Parameters:
 770:Generated_Source\PSoC5/CapSense_CSHL.c **** *  widget:  widget number.
 771:Generated_Source\PSoC5/CapSense_CSHL.c **** *
 772:Generated_Source\PSoC5/CapSense_CSHL.c **** * Return:
 773:Generated_Source\PSoC5/CapSense_CSHL.c **** *  None
 774:Generated_Source\PSoC5/CapSense_CSHL.c **** *
 775:Generated_Source\PSoC5/CapSense_CSHL.c **** * Global Variables:
 776:Generated_Source\PSoC5/CapSense_CSHL.c **** *  CapSense_sensorEnableMask[] - used to store the sensor scanning 
 777:Generated_Source\PSoC5/CapSense_CSHL.c **** *  state.
 778:Generated_Source\PSoC5/CapSense_CSHL.c **** *  CapSense_sensorEnableMask[0] contains the masked bits for sensors 
 779:Generated_Source\PSoC5/CapSense_CSHL.c **** *  0 through 7 (sensor 0 is bit 0, sensor 1 is bit 1).
 780:Generated_Source\PSoC5/CapSense_CSHL.c **** *  CapSense_sensorEnableMask[1] contains the masked bits for 
 781:Generated_Source\PSoC5/CapSense_CSHL.c **** *  sensors 8 through 15 (if needed), and so on.
 782:Generated_Source\PSoC5/CapSense_CSHL.c **** *  0 - sensor doesn't scan by CapSense_ScanEnabledWidgets().
 783:Generated_Source\PSoC5/CapSense_CSHL.c **** *  1 - sensor scans by CapSense_ScanEnabledWidgets().
 784:Generated_Source\PSoC5/CapSense_CSHL.c **** *
 785:Generated_Source\PSoC5/CapSense_CSHL.c **** * Reentrant:
 786:Generated_Source\PSoC5/CapSense_CSHL.c **** *  No
 787:Generated_Source\PSoC5/CapSense_CSHL.c **** *
ARM GAS  C:\Users\Tri94\AppData\Local\Temp\ccpNRt3N.s 			page 23


 788:Generated_Source\PSoC5/CapSense_CSHL.c **** *******************************************************************************/
 789:Generated_Source\PSoC5/CapSense_CSHL.c **** void CapSense_DisableWidget(uint8 widget)
 790:Generated_Source\PSoC5/CapSense_CSHL.c ****                                     
 791:Generated_Source\PSoC5/CapSense_CSHL.c **** {
 462              		.loc 1 791 0
 463              		.cfi_startproc
 464              		@ args = 0, pretend = 0, frame = 0
 465              		@ frame_needed = 0, uses_anonymous_args = 0
 466              		@ link register save eliminated.
 467              	.LVL47:
 792:Generated_Source\PSoC5/CapSense_CSHL.c ****     uint8 pos;
 793:Generated_Source\PSoC5/CapSense_CSHL.c ****     uint8 enMask;
 794:Generated_Source\PSoC5/CapSense_CSHL.c ****     uint8 rawIndex = CapSense_rawDataIndex[widget];
 795:Generated_Source\PSoC5/CapSense_CSHL.c ****     uint8 numberOfSensors = CapSense_numberOfSensors[widget] + rawIndex;
 796:Generated_Source\PSoC5/CapSense_CSHL.c ****    
 797:Generated_Source\PSoC5/CapSense_CSHL.c ****     /* Disable all sensors of the widget */
 798:Generated_Source\PSoC5/CapSense_CSHL.c ****     do
 799:Generated_Source\PSoC5/CapSense_CSHL.c ****     {
 800:Generated_Source\PSoC5/CapSense_CSHL.c ****         pos = (rawIndex >> 3u);
 801:Generated_Source\PSoC5/CapSense_CSHL.c ****         enMask = 0x01u << (rawIndex & 0x07u);
 802:Generated_Source\PSoC5/CapSense_CSHL.c ****         
 803:Generated_Source\PSoC5/CapSense_CSHL.c ****         CapSense_sensorEnableMask[pos] &= (uint8)~enMask;
 468              		.loc 1 803 0
 469 0000 024A     		ldr	r2, .L43
 470 0002 1378     		ldrb	r3, [r2]	@ zero_extendqisi2
 471 0004 23F00103 		bic	r3, r3, #1
 472 0008 1370     		strb	r3, [r2]
 473              	.LVL48:
 474 000a 7047     		bx	lr
 475              	.L44:
 476              		.align	2
 477              	.L43:
 478 000c 00000000 		.word	CapSense_sensorEnableMask
 479              		.cfi_endproc
 480              	.LFE10:
 481              		.size	CapSense_DisableWidget, .-CapSense_DisableWidget
 482              		.section	.text.CapSense_IIR4Filter,"ax",%progbits
 483              		.align	2
 484              		.global	CapSense_IIR4Filter
 485              		.thumb
 486              		.thumb_func
 487              		.type	CapSense_IIR4Filter, %function
 488              	CapSense_IIR4Filter:
 489              	.LFB11:
 804:Generated_Source\PSoC5/CapSense_CSHL.c ****         rawIndex++;
 805:Generated_Source\PSoC5/CapSense_CSHL.c ****     }
 806:Generated_Source\PSoC5/CapSense_CSHL.c ****     while(rawIndex < numberOfSensors);
 807:Generated_Source\PSoC5/CapSense_CSHL.c ****     
 808:Generated_Source\PSoC5/CapSense_CSHL.c **** 
 809:Generated_Source\PSoC5/CapSense_CSHL.c **** }
 810:Generated_Source\PSoC5/CapSense_CSHL.c **** #if(CapSense_TOTAL_CENTROIDS_COUNT)
 811:Generated_Source\PSoC5/CapSense_CSHL.c ****     /*******************************************************************************
 812:Generated_Source\PSoC5/CapSense_CSHL.c ****     * Function Name: CapSense_FindMaximum
 813:Generated_Source\PSoC5/CapSense_CSHL.c ****     ********************************************************************************
 814:Generated_Source\PSoC5/CapSense_CSHL.c ****     *
 815:Generated_Source\PSoC5/CapSense_CSHL.c ****     * Summary:
 816:Generated_Source\PSoC5/CapSense_CSHL.c ****     *  Finds index of maximum element within defined centroid. Checks 
ARM GAS  C:\Users\Tri94\AppData\Local\Temp\ccpNRt3N.s 			page 24


 817:Generated_Source\PSoC5/CapSense_CSHL.c ****     *  CapSense_SensorSignal[] within defined cenrtoid and 
 818:Generated_Source\PSoC5/CapSense_CSHL.c ****     *  returns index of maximum element. The values below finger threshold are 
 819:Generated_Source\PSoC5/CapSense_CSHL.c ****     *  ignored.
 820:Generated_Source\PSoC5/CapSense_CSHL.c ****     *  The centrod defines by offset of first element and number of elements - count.
 821:Generated_Source\PSoC5/CapSense_CSHL.c ****     *  The diplexed centroid requires at least consecutive two elements above
 822:Generated_Source\PSoC5/CapSense_CSHL.c ****     *  FingerThreshold to find index of maximum element.
 823:Generated_Source\PSoC5/CapSense_CSHL.c ****     * 
 824:Generated_Source\PSoC5/CapSense_CSHL.c ****     * Parameters:
 825:Generated_Source\PSoC5/CapSense_CSHL.c ****     *  offset:  Start index of cetroid in CapSense_sensorSignal[] array.
 826:Generated_Source\PSoC5/CapSense_CSHL.c ****     *  count:   number of elements within centroid.
 827:Generated_Source\PSoC5/CapSense_CSHL.c ****     *  fingerThreshold:  Finger threshould.
 828:Generated_Source\PSoC5/CapSense_CSHL.c ****     *  diplex:   pointer to diplex table.
 829:Generated_Source\PSoC5/CapSense_CSHL.c ****     * 
 830:Generated_Source\PSoC5/CapSense_CSHL.c ****     * Return:
 831:Generated_Source\PSoC5/CapSense_CSHL.c ****     *  Returns index of maximum element within defined centroid.
 832:Generated_Source\PSoC5/CapSense_CSHL.c ****     *  If index of maximum element doesn't find the 0xFF returns.
 833:Generated_Source\PSoC5/CapSense_CSHL.c ****     * 
 834:Generated_Source\PSoC5/CapSense_CSHL.c ****     *******************************************************************************/
 835:Generated_Source\PSoC5/CapSense_CSHL.c ****     #if (CapSense_IS_DIPLEX_SLIDER)
 836:Generated_Source\PSoC5/CapSense_CSHL.c ****         uint8 CapSense_FindMaximum(uint8 offset, uint8 count, uint8 fingerThreshold, const uint8 CY
 837:Generated_Source\PSoC5/CapSense_CSHL.c **** 	                                       
 838:Generated_Source\PSoC5/CapSense_CSHL.c ****     #else 
 839:Generated_Source\PSoC5/CapSense_CSHL.c ****         uint8 CapSense_FindMaximum(uint8 offset, uint8 count, uint8 fingerThreshold)
 840:Generated_Source\PSoC5/CapSense_CSHL.c **** 	                                       
 841:Generated_Source\PSoC5/CapSense_CSHL.c ****     #endif /* (CapSense_IS_DIPLEX_SLIDER) */
 842:Generated_Source\PSoC5/CapSense_CSHL.c ****     {
 843:Generated_Source\PSoC5/CapSense_CSHL.c ****         uint8 i;
 844:Generated_Source\PSoC5/CapSense_CSHL.c ****         #if (CapSense_IS_DIPLEX_SLIDER)        
 845:Generated_Source\PSoC5/CapSense_CSHL.c ****             uint8 curPos = 0u;
 846:Generated_Source\PSoC5/CapSense_CSHL.c ****             /* No centroid at the Start */
 847:Generated_Source\PSoC5/CapSense_CSHL.c ****             uint8 curCntrdSize = 0u;
 848:Generated_Source\PSoC5/CapSense_CSHL.c ****             uint8 curCtrdStartPos = 0xFFu;
 849:Generated_Source\PSoC5/CapSense_CSHL.c ****             /* The biggset centroid is zero */
 850:Generated_Source\PSoC5/CapSense_CSHL.c ****             uint8 biggestCtrdSize = 0u;
 851:Generated_Source\PSoC5/CapSense_CSHL.c ****             uint8 biggestCtrdStartPos = 0u;
 852:Generated_Source\PSoC5/CapSense_CSHL.c ****         #endif /* (CapSense_IS_DIPLEX_SLIDER) */
 853:Generated_Source\PSoC5/CapSense_CSHL.c ****         uint8 maximum = 0xFFu;
 854:Generated_Source\PSoC5/CapSense_CSHL.c ****         uint8 temp = 0u;
 855:Generated_Source\PSoC5/CapSense_CSHL.c ****         uint8 *startOfSlider = &CapSense_sensorSignal[offset]; 
 856:Generated_Source\PSoC5/CapSense_CSHL.c **** 
 857:Generated_Source\PSoC5/CapSense_CSHL.c ****         #if (CapSense_IS_DIPLEX_SLIDER)        
 858:Generated_Source\PSoC5/CapSense_CSHL.c ****             if(diplex != 0u)
 859:Generated_Source\PSoC5/CapSense_CSHL.c ****             {
 860:Generated_Source\PSoC5/CapSense_CSHL.c ****                 /* Initialize */
 861:Generated_Source\PSoC5/CapSense_CSHL.c ****                 i = 0u;
 862:Generated_Source\PSoC5/CapSense_CSHL.c ****                 
 863:Generated_Source\PSoC5/CapSense_CSHL.c ****                 /* Make slider x2 as Diplexed */
 864:Generated_Source\PSoC5/CapSense_CSHL.c ****                 count <<= 1u;
 865:Generated_Source\PSoC5/CapSense_CSHL.c ****                 while(1u)
 866:Generated_Source\PSoC5/CapSense_CSHL.c ****                 { 
 867:Generated_Source\PSoC5/CapSense_CSHL.c ****                     if (startOfSlider[curPos] > 0u)    /* Looking for centroids */
 868:Generated_Source\PSoC5/CapSense_CSHL.c ****                     {
 869:Generated_Source\PSoC5/CapSense_CSHL.c ****                         if (curCtrdStartPos == 0xFFu)
 870:Generated_Source\PSoC5/CapSense_CSHL.c ****                         {
 871:Generated_Source\PSoC5/CapSense_CSHL.c ****                             /* Start of centroid */
 872:Generated_Source\PSoC5/CapSense_CSHL.c ****                             curCtrdStartPos = i;
 873:Generated_Source\PSoC5/CapSense_CSHL.c ****                             curCntrdSize++;
ARM GAS  C:\Users\Tri94\AppData\Local\Temp\ccpNRt3N.s 			page 25


 874:Generated_Source\PSoC5/CapSense_CSHL.c ****                         }
 875:Generated_Source\PSoC5/CapSense_CSHL.c ****                         else
 876:Generated_Source\PSoC5/CapSense_CSHL.c ****                         {
 877:Generated_Source\PSoC5/CapSense_CSHL.c ****                             curCntrdSize++;
 878:Generated_Source\PSoC5/CapSense_CSHL.c ****                         }
 879:Generated_Source\PSoC5/CapSense_CSHL.c ****                     }
 880:Generated_Source\PSoC5/CapSense_CSHL.c ****                     else   /* Select the bigest and indicate zero start */
 881:Generated_Source\PSoC5/CapSense_CSHL.c ****                     {          
 882:Generated_Source\PSoC5/CapSense_CSHL.c ****                         if(curCntrdSize > 0u)
 883:Generated_Source\PSoC5/CapSense_CSHL.c ****                         {
 884:Generated_Source\PSoC5/CapSense_CSHL.c ****                             /* We are in the end of current */
 885:Generated_Source\PSoC5/CapSense_CSHL.c ****                             if(curCntrdSize > biggestCtrdSize)
 886:Generated_Source\PSoC5/CapSense_CSHL.c ****                             {
 887:Generated_Source\PSoC5/CapSense_CSHL.c ****                                 biggestCtrdSize = curCntrdSize;
 888:Generated_Source\PSoC5/CapSense_CSHL.c ****                                 biggestCtrdStartPos = curCtrdStartPos;
 889:Generated_Source\PSoC5/CapSense_CSHL.c ****                             }
 890:Generated_Source\PSoC5/CapSense_CSHL.c ****                             
 891:Generated_Source\PSoC5/CapSense_CSHL.c ****                             curCntrdSize = 0u;
 892:Generated_Source\PSoC5/CapSense_CSHL.c ****                             curCtrdStartPos = 0xFFu;
 893:Generated_Source\PSoC5/CapSense_CSHL.c ****                         }
 894:Generated_Source\PSoC5/CapSense_CSHL.c ****                     }
 895:Generated_Source\PSoC5/CapSense_CSHL.c ****                     
 896:Generated_Source\PSoC5/CapSense_CSHL.c ****                     i++; 
 897:Generated_Source\PSoC5/CapSense_CSHL.c ****                     curPos = diplex[i];
 898:Generated_Source\PSoC5/CapSense_CSHL.c ****                     if(i == count)
 899:Generated_Source\PSoC5/CapSense_CSHL.c ****                     {
 900:Generated_Source\PSoC5/CapSense_CSHL.c ****                         break;
 901:Generated_Source\PSoC5/CapSense_CSHL.c ****                     }            
 902:Generated_Source\PSoC5/CapSense_CSHL.c ****                 }
 903:Generated_Source\PSoC5/CapSense_CSHL.c ****                     
 904:Generated_Source\PSoC5/CapSense_CSHL.c ****                     /* Find the biggest centroid if two are the same size, last one wins
 905:Generated_Source\PSoC5/CapSense_CSHL.c ****                        We are in the end of current */
 906:Generated_Source\PSoC5/CapSense_CSHL.c ****                 if (curCntrdSize >= biggestCtrdSize) 
 907:Generated_Source\PSoC5/CapSense_CSHL.c ****                 {
 908:Generated_Source\PSoC5/CapSense_CSHL.c ****                     biggestCtrdSize = curCntrdSize;
 909:Generated_Source\PSoC5/CapSense_CSHL.c ****                     biggestCtrdStartPos = curCtrdStartPos;
 910:Generated_Source\PSoC5/CapSense_CSHL.c ****                 }
 911:Generated_Source\PSoC5/CapSense_CSHL.c ****             }
 912:Generated_Source\PSoC5/CapSense_CSHL.c ****             else
 913:Generated_Source\PSoC5/CapSense_CSHL.c ****             {
 914:Generated_Source\PSoC5/CapSense_CSHL.c ****                 /* Without diplexing */ 
 915:Generated_Source\PSoC5/CapSense_CSHL.c ****                 biggestCtrdSize = count;
 916:Generated_Source\PSoC5/CapSense_CSHL.c ****             }
 917:Generated_Source\PSoC5/CapSense_CSHL.c ****                         
 918:Generated_Source\PSoC5/CapSense_CSHL.c **** 
 919:Generated_Source\PSoC5/CapSense_CSHL.c ****             /* Check centroid size */
 920:Generated_Source\PSoC5/CapSense_CSHL.c ****             #if (CapSense_IS_NON_DIPLEX_SLIDER)
 921:Generated_Source\PSoC5/CapSense_CSHL.c ****                 if((biggestCtrdSize >= 2u) || ((biggestCtrdSize == 1u) && (diplex == 0u)))
 922:Generated_Source\PSoC5/CapSense_CSHL.c ****             #else                    
 923:Generated_Source\PSoC5/CapSense_CSHL.c ****                 if(biggestCtrdSize >= 2u)
 924:Generated_Source\PSoC5/CapSense_CSHL.c ****             #endif /* (CapSense_IS_NON_DIPLEX_SLIDER) */
 925:Generated_Source\PSoC5/CapSense_CSHL.c ****                 {
 926:Generated_Source\PSoC5/CapSense_CSHL.c ****                     for (i = biggestCtrdStartPos; i < (biggestCtrdStartPos + biggestCtrdSize); i++)
 927:Generated_Source\PSoC5/CapSense_CSHL.c ****                     {
 928:Generated_Source\PSoC5/CapSense_CSHL.c ****                         #if (CapSense_IS_DIPLEX_SLIDER && CapSense_IS_NON_DIPLEX_SLIDER)
 929:Generated_Source\PSoC5/CapSense_CSHL.c ****                             if (diplex == 0u)
 930:Generated_Source\PSoC5/CapSense_CSHL.c ****                             {
ARM GAS  C:\Users\Tri94\AppData\Local\Temp\ccpNRt3N.s 			page 26


 931:Generated_Source\PSoC5/CapSense_CSHL.c ****                                 curPos = i;
 932:Generated_Source\PSoC5/CapSense_CSHL.c ****                             }
 933:Generated_Source\PSoC5/CapSense_CSHL.c ****                             else
 934:Generated_Source\PSoC5/CapSense_CSHL.c ****                             {
 935:Generated_Source\PSoC5/CapSense_CSHL.c ****                                 curPos = diplex[i];
 936:Generated_Source\PSoC5/CapSense_CSHL.c ****                             }                    
 937:Generated_Source\PSoC5/CapSense_CSHL.c ****                         #elif (CapSense_IS_DIPLEX_SLIDER)                    
 938:Generated_Source\PSoC5/CapSense_CSHL.c ****                             curPos = diplex[i];                    
 939:Generated_Source\PSoC5/CapSense_CSHL.c ****                         #endif /* (CapSense_IS_DIPLEX_SLIDER && CapSense_IS_NON_DIPLEX_SLIDER) */
 940:Generated_Source\PSoC5/CapSense_CSHL.c ****                         /* Looking for the grater element within centroid */
 941:Generated_Source\PSoC5/CapSense_CSHL.c ****                         if(startOfSlider[curPos] > fingerThreshold)
 942:Generated_Source\PSoC5/CapSense_CSHL.c ****                         {
 943:Generated_Source\PSoC5/CapSense_CSHL.c ****                             if(startOfSlider[curPos] > temp)
 944:Generated_Source\PSoC5/CapSense_CSHL.c ****                             {
 945:Generated_Source\PSoC5/CapSense_CSHL.c ****                                 maximum = i;
 946:Generated_Source\PSoC5/CapSense_CSHL.c ****                                 temp = startOfSlider[curPos];
 947:Generated_Source\PSoC5/CapSense_CSHL.c ****                             }
 948:Generated_Source\PSoC5/CapSense_CSHL.c ****                         }
 949:Generated_Source\PSoC5/CapSense_CSHL.c ****                     }
 950:Generated_Source\PSoC5/CapSense_CSHL.c ****                 } 
 951:Generated_Source\PSoC5/CapSense_CSHL.c ****         #else
 952:Generated_Source\PSoC5/CapSense_CSHL.c ****             for (i = 0u; i < count; i++)
 953:Generated_Source\PSoC5/CapSense_CSHL.c ****             {                      
 954:Generated_Source\PSoC5/CapSense_CSHL.c ****                 /* Looking for the grater element within centroid */
 955:Generated_Source\PSoC5/CapSense_CSHL.c ****                 if(startOfSlider[i] > fingerThreshold)
 956:Generated_Source\PSoC5/CapSense_CSHL.c ****                 {
 957:Generated_Source\PSoC5/CapSense_CSHL.c ****                     if(startOfSlider[i] > temp)
 958:Generated_Source\PSoC5/CapSense_CSHL.c ****                     {
 959:Generated_Source\PSoC5/CapSense_CSHL.c ****                         maximum = i;
 960:Generated_Source\PSoC5/CapSense_CSHL.c ****                         temp = startOfSlider[i];
 961:Generated_Source\PSoC5/CapSense_CSHL.c ****                     }
 962:Generated_Source\PSoC5/CapSense_CSHL.c ****                 }
 963:Generated_Source\PSoC5/CapSense_CSHL.c ****             }    
 964:Generated_Source\PSoC5/CapSense_CSHL.c ****         #endif /* (CapSense_IS_DIPLEX_SLIDER) */
 965:Generated_Source\PSoC5/CapSense_CSHL.c ****         return (maximum);
 966:Generated_Source\PSoC5/CapSense_CSHL.c ****     }
 967:Generated_Source\PSoC5/CapSense_CSHL.c ****     
 968:Generated_Source\PSoC5/CapSense_CSHL.c ****     
 969:Generated_Source\PSoC5/CapSense_CSHL.c ****     /*******************************************************************************
 970:Generated_Source\PSoC5/CapSense_CSHL.c ****     * Function Name: CapSense_CalcCentroid
 971:Generated_Source\PSoC5/CapSense_CSHL.c ****     ********************************************************************************
 972:Generated_Source\PSoC5/CapSense_CSHL.c ****     *
 973:Generated_Source\PSoC5/CapSense_CSHL.c ****     * Summary:
 974:Generated_Source\PSoC5/CapSense_CSHL.c ****     *  Returns position value calculated accoring index of maximum element and API
 975:Generated_Source\PSoC5/CapSense_CSHL.c ****     *  resolution.
 976:Generated_Source\PSoC5/CapSense_CSHL.c ****     *
 977:Generated_Source\PSoC5/CapSense_CSHL.c ****     * Parameters:
 978:Generated_Source\PSoC5/CapSense_CSHL.c ****     *  type:  widget type.
 979:Generated_Source\PSoC5/CapSense_CSHL.c ****     *  diplex:  pointer to diplex table.
 980:Generated_Source\PSoC5/CapSense_CSHL.c ****     *  maximum:  Index of maximum element within centroid.
 981:Generated_Source\PSoC5/CapSense_CSHL.c ****     *  offset:   Start index of cetroid in CapSense_SensorSignal[] array.
 982:Generated_Source\PSoC5/CapSense_CSHL.c ****     *  count:    Number of elements within centroid.
 983:Generated_Source\PSoC5/CapSense_CSHL.c ****     *  resolution:  multiplicator calculated according to centroid type and
 984:Generated_Source\PSoC5/CapSense_CSHL.c ****     *  API resolution.
 985:Generated_Source\PSoC5/CapSense_CSHL.c ****     *  noiseThreshold:  Noise threshould.
 986:Generated_Source\PSoC5/CapSense_CSHL.c ****     * 
 987:Generated_Source\PSoC5/CapSense_CSHL.c ****     * Return:
ARM GAS  C:\Users\Tri94\AppData\Local\Temp\ccpNRt3N.s 			page 27


 988:Generated_Source\PSoC5/CapSense_CSHL.c ****     *  Returns position value of the slider.
 989:Generated_Source\PSoC5/CapSense_CSHL.c ****     * 
 990:Generated_Source\PSoC5/CapSense_CSHL.c ****     *
 991:Generated_Source\PSoC5/CapSense_CSHL.c ****     * Reentrant:
 992:Generated_Source\PSoC5/CapSense_CSHL.c ****     *  No.
 993:Generated_Source\PSoC5/CapSense_CSHL.c ****     *
 994:Generated_Source\PSoC5/CapSense_CSHL.c ****     *******************************************************************************/
 995:Generated_Source\PSoC5/CapSense_CSHL.c ****     uint8 CapSense_CalcCentroid(uint8 maximum, uint8 offset, 
 996:Generated_Source\PSoC5/CapSense_CSHL.c ****                                         uint8 count, uint16 resolution, uint8 noiseThreshold)
 997:Generated_Source\PSoC5/CapSense_CSHL.c **** 	                                    
 998:Generated_Source\PSoC5/CapSense_CSHL.c ****     {
 999:Generated_Source\PSoC5/CapSense_CSHL.c ****         #if ((CapSense_TOTAL_LINEAR_SLIDERS_COUNT > 0u) || (CapSense_TOTAL_TOUCH_PADS_COUNT > 0u))
1000:Generated_Source\PSoC5/CapSense_CSHL.c ****             uint8 posPrev = 0u;
1001:Generated_Source\PSoC5/CapSense_CSHL.c ****             uint8 posNext = 0u;
1002:Generated_Source\PSoC5/CapSense_CSHL.c ****         #endif /* ((CapSense_TOTAL_LINEAR_SLIDERS_COUNT>0u) || (CapSense_TOTAL_TOUCH_PADS_COUNT>0u)
1003:Generated_Source\PSoC5/CapSense_CSHL.c ****                
1004:Generated_Source\PSoC5/CapSense_CSHL.c ****         #if (CapSense_IS_DIPLEX_SLIDER)                
1005:Generated_Source\PSoC5/CapSense_CSHL.c ****             uint8 pos;
1006:Generated_Source\PSoC5/CapSense_CSHL.c ****         #endif /* (CapSense_IS_DIPLEX_SLIDER) */
1007:Generated_Source\PSoC5/CapSense_CSHL.c ****         
1008:Generated_Source\PSoC5/CapSense_CSHL.c ****         /* Helps while centroid calulation */
1009:Generated_Source\PSoC5/CapSense_CSHL.c ****         static uint8 CapSense_centroid[3u];
1010:Generated_Source\PSoC5/CapSense_CSHL.c **** 
1011:Generated_Source\PSoC5/CapSense_CSHL.c ****         uint8 position;
1012:Generated_Source\PSoC5/CapSense_CSHL.c ****         uint32 numerator;
1013:Generated_Source\PSoC5/CapSense_CSHL.c ****         int32 denominator;
1014:Generated_Source\PSoC5/CapSense_CSHL.c ****         uint8 *startOfSlider = &CapSense_sensorSignal[offset];
1015:Generated_Source\PSoC5/CapSense_CSHL.c ****                     
1016:Generated_Source\PSoC5/CapSense_CSHL.c ****         #if (CapSense_ADD_SLIDER_TYPE)
1017:Generated_Source\PSoC5/CapSense_CSHL.c ****             if(type == CapSense_TYPE_RADIAL_SLIDER)
1018:Generated_Source\PSoC5/CapSense_CSHL.c ****             {
1019:Generated_Source\PSoC5/CapSense_CSHL.c ****         #endif /* (CapSense_ADD_SLIDER_TYPE) */
1020:Generated_Source\PSoC5/CapSense_CSHL.c **** 
1021:Generated_Source\PSoC5/CapSense_CSHL.c ****             #if (CapSense_TOTAL_RADIAL_SLIDERS_COUNT > 0u)                
1022:Generated_Source\PSoC5/CapSense_CSHL.c ****                 /* Copy Signal for found centriod */
1023:Generated_Source\PSoC5/CapSense_CSHL.c ****                 CapSense_centroid[CapSense_POS] = startOfSlider[maximum];
1024:Generated_Source\PSoC5/CapSense_CSHL.c ****                  
1025:Generated_Source\PSoC5/CapSense_CSHL.c ****                 /* Check borders for ROTARY Slider */
1026:Generated_Source\PSoC5/CapSense_CSHL.c ****                 if (maximum == 0u)                   /* Start of centroid */
1027:Generated_Source\PSoC5/CapSense_CSHL.c ****                 { 
1028:Generated_Source\PSoC5/CapSense_CSHL.c ****                     CapSense_centroid[CapSense_POS_PREV] = startOfSlider[count - 1u];
1029:Generated_Source\PSoC5/CapSense_CSHL.c ****                     CapSense_centroid[CapSense_POS_NEXT] = startOfSlider[1u];
1030:Generated_Source\PSoC5/CapSense_CSHL.c ****                 }
1031:Generated_Source\PSoC5/CapSense_CSHL.c ****                 else if (maximum == (count - 1u))    /* End of centroid */
1032:Generated_Source\PSoC5/CapSense_CSHL.c ****                 {
1033:Generated_Source\PSoC5/CapSense_CSHL.c ****                     CapSense_centroid[CapSense_POS_PREV] = startOfSlider[maximum - 1u];
1034:Generated_Source\PSoC5/CapSense_CSHL.c ****                     CapSense_centroid[CapSense_POS_NEXT] = startOfSlider[0u];
1035:Generated_Source\PSoC5/CapSense_CSHL.c ****                 }
1036:Generated_Source\PSoC5/CapSense_CSHL.c ****                 else                                /* Not first Not last */
1037:Generated_Source\PSoC5/CapSense_CSHL.c ****                 {
1038:Generated_Source\PSoC5/CapSense_CSHL.c ****                     CapSense_centroid[CapSense_POS_PREV] = startOfSlider[maximum - 1u];
1039:Generated_Source\PSoC5/CapSense_CSHL.c ****                     CapSense_centroid[CapSense_POS_NEXT] = startOfSlider[maximum + 1u];
1040:Generated_Source\PSoC5/CapSense_CSHL.c ****                 }
1041:Generated_Source\PSoC5/CapSense_CSHL.c ****             #endif /* (CapSense_TOTAL_RADIAL_SLIDERS_COUNT > 0u) */
1042:Generated_Source\PSoC5/CapSense_CSHL.c **** 
1043:Generated_Source\PSoC5/CapSense_CSHL.c ****         #if (CapSense_ADD_SLIDER_TYPE)
1044:Generated_Source\PSoC5/CapSense_CSHL.c ****             }
ARM GAS  C:\Users\Tri94\AppData\Local\Temp\ccpNRt3N.s 			page 28


1045:Generated_Source\PSoC5/CapSense_CSHL.c ****             else
1046:Generated_Source\PSoC5/CapSense_CSHL.c ****             {
1047:Generated_Source\PSoC5/CapSense_CSHL.c ****         #endif /* (CapSense_ADD_SLIDER_TYPE) */
1048:Generated_Source\PSoC5/CapSense_CSHL.c **** 
1049:Generated_Source\PSoC5/CapSense_CSHL.c ****             #if ((CapSense_TOTAL_LINEAR_SLIDERS_COUNT > 0u) || (CapSense_TOTAL_TOUCH_PADS_COUNT > 0
1050:Generated_Source\PSoC5/CapSense_CSHL.c ****                 #if (CapSense_IS_DIPLEX_SLIDER && CapSense_IS_NON_DIPLEX_SLIDER)                   
1051:Generated_Source\PSoC5/CapSense_CSHL.c ****                     /* Calculate next and previous near to maximum */
1052:Generated_Source\PSoC5/CapSense_CSHL.c ****                     if(diplex == 0u)
1053:Generated_Source\PSoC5/CapSense_CSHL.c ****                     {
1054:Generated_Source\PSoC5/CapSense_CSHL.c ****                         pos     = maximum;
1055:Generated_Source\PSoC5/CapSense_CSHL.c ****                         posPrev = maximum - 1u;
1056:Generated_Source\PSoC5/CapSense_CSHL.c ****                         posNext = maximum + 1u; 
1057:Generated_Source\PSoC5/CapSense_CSHL.c ****                     }
1058:Generated_Source\PSoC5/CapSense_CSHL.c ****                     else
1059:Generated_Source\PSoC5/CapSense_CSHL.c ****                     {
1060:Generated_Source\PSoC5/CapSense_CSHL.c ****                         pos     = diplex[maximum];
1061:Generated_Source\PSoC5/CapSense_CSHL.c ****                         posPrev = diplex[maximum - 1u];
1062:Generated_Source\PSoC5/CapSense_CSHL.c ****                         posNext = diplex[maximum + 1u];
1063:Generated_Source\PSoC5/CapSense_CSHL.c ****                         count <<= 1u;
1064:Generated_Source\PSoC5/CapSense_CSHL.c ****                     }                    
1065:Generated_Source\PSoC5/CapSense_CSHL.c ****                 #elif (CapSense_IS_DIPLEX_SLIDER)
1066:Generated_Source\PSoC5/CapSense_CSHL.c ****                     /* Calculate next and previous near to maximum */
1067:Generated_Source\PSoC5/CapSense_CSHL.c ****                     pos     = diplex[maximum];
1068:Generated_Source\PSoC5/CapSense_CSHL.c ****                     posPrev = diplex[maximum - 1u];
1069:Generated_Source\PSoC5/CapSense_CSHL.c ****                     posNext = diplex[maximum + 1u];
1070:Generated_Source\PSoC5/CapSense_CSHL.c ****                     count <<= 1u;                    
1071:Generated_Source\PSoC5/CapSense_CSHL.c ****                 #else                    
1072:Generated_Source\PSoC5/CapSense_CSHL.c ****                     /* Calculate next and previous near to maximum */
1073:Generated_Source\PSoC5/CapSense_CSHL.c ****                     if (maximum >= 1u)
1074:Generated_Source\PSoC5/CapSense_CSHL.c ****                     {
1075:Generated_Source\PSoC5/CapSense_CSHL.c ****                         posPrev = maximum - 1u;
1076:Generated_Source\PSoC5/CapSense_CSHL.c ****                     }
1077:Generated_Source\PSoC5/CapSense_CSHL.c ****                     posNext = maximum + 1u; 
1078:Generated_Source\PSoC5/CapSense_CSHL.c ****                 #endif /* (CapSense_IS_DIPLEX_SLIDER && CapSense_IS_NON_DIPLEX_SLIDER) */
1079:Generated_Source\PSoC5/CapSense_CSHL.c ****                         
1080:Generated_Source\PSoC5/CapSense_CSHL.c ****                 /* Copy Signal for found centriod */
1081:Generated_Source\PSoC5/CapSense_CSHL.c ****                 #if (CapSense_IS_DIPLEX_SLIDER)
1082:Generated_Source\PSoC5/CapSense_CSHL.c ****                     CapSense_centroid[CapSense_POS] = startOfSlider[pos];
1083:Generated_Source\PSoC5/CapSense_CSHL.c ****                 #else
1084:Generated_Source\PSoC5/CapSense_CSHL.c ****                     CapSense_centroid[CapSense_POS] = startOfSlider[maximum];
1085:Generated_Source\PSoC5/CapSense_CSHL.c ****                 #endif /* (CapSense_IS_DIPLEX_SLIDER) */
1086:Generated_Source\PSoC5/CapSense_CSHL.c ****                     
1087:Generated_Source\PSoC5/CapSense_CSHL.c ****                 /* Check borders for LINEAR Slider */
1088:Generated_Source\PSoC5/CapSense_CSHL.c ****                 if (maximum == 0u)                   /* Start of centroid */
1089:Generated_Source\PSoC5/CapSense_CSHL.c ****                 { 
1090:Generated_Source\PSoC5/CapSense_CSHL.c ****                     CapSense_centroid[CapSense_POS_PREV] = 0u;
1091:Generated_Source\PSoC5/CapSense_CSHL.c ****                     CapSense_centroid[CapSense_POS_NEXT] = startOfSlider[posNext];
1092:Generated_Source\PSoC5/CapSense_CSHL.c ****                 }
1093:Generated_Source\PSoC5/CapSense_CSHL.c ****                 else if (maximum == ((count) - 1u)) /* End of centroid */
1094:Generated_Source\PSoC5/CapSense_CSHL.c ****                 {
1095:Generated_Source\PSoC5/CapSense_CSHL.c ****                     CapSense_centroid[CapSense_POS_PREV] = startOfSlider[posPrev];
1096:Generated_Source\PSoC5/CapSense_CSHL.c ****                     CapSense_centroid[CapSense_POS_NEXT] = 0u;
1097:Generated_Source\PSoC5/CapSense_CSHL.c ****                 }
1098:Generated_Source\PSoC5/CapSense_CSHL.c ****                 else                                /* Not first Not last */
1099:Generated_Source\PSoC5/CapSense_CSHL.c ****                 {
1100:Generated_Source\PSoC5/CapSense_CSHL.c ****                     CapSense_centroid[CapSense_POS_PREV] = startOfSlider[posPrev];
1101:Generated_Source\PSoC5/CapSense_CSHL.c ****                     CapSense_centroid[CapSense_POS_NEXT] = startOfSlider[posNext];
ARM GAS  C:\Users\Tri94\AppData\Local\Temp\ccpNRt3N.s 			page 29


1102:Generated_Source\PSoC5/CapSense_CSHL.c ****                 }
1103:Generated_Source\PSoC5/CapSense_CSHL.c ****             #endif /* ((CapSense_TOTAL_LINEAR_SLIDERS_COUNT>0u)||(CapSense_TOTAL_TOUCH_PADS_COUNT>0
1104:Generated_Source\PSoC5/CapSense_CSHL.c **** 
1105:Generated_Source\PSoC5/CapSense_CSHL.c ****         #if (CapSense_ADD_SLIDER_TYPE)
1106:Generated_Source\PSoC5/CapSense_CSHL.c ****             }
1107:Generated_Source\PSoC5/CapSense_CSHL.c ****         #endif /* (CapSense_ADD_SLIDER_TYPE) */
1108:Generated_Source\PSoC5/CapSense_CSHL.c ****     
1109:Generated_Source\PSoC5/CapSense_CSHL.c ****         /* Subtract noiseThreshold */
1110:Generated_Source\PSoC5/CapSense_CSHL.c ****         if(CapSense_centroid[CapSense_POS_PREV] > noiseThreshold)
1111:Generated_Source\PSoC5/CapSense_CSHL.c ****         {
1112:Generated_Source\PSoC5/CapSense_CSHL.c ****             CapSense_centroid[CapSense_POS_PREV] -= noiseThreshold;
1113:Generated_Source\PSoC5/CapSense_CSHL.c ****         }
1114:Generated_Source\PSoC5/CapSense_CSHL.c ****         else
1115:Generated_Source\PSoC5/CapSense_CSHL.c ****         {
1116:Generated_Source\PSoC5/CapSense_CSHL.c ****             CapSense_centroid[CapSense_POS_PREV] = 0u;
1117:Generated_Source\PSoC5/CapSense_CSHL.c ****         }
1118:Generated_Source\PSoC5/CapSense_CSHL.c ****         
1119:Generated_Source\PSoC5/CapSense_CSHL.c ****         /* Maximum always grater than fingerThreshold, so grate than noiseThreshold */
1120:Generated_Source\PSoC5/CapSense_CSHL.c ****         CapSense_centroid[CapSense_POS] -= noiseThreshold;
1121:Generated_Source\PSoC5/CapSense_CSHL.c ****         
1122:Generated_Source\PSoC5/CapSense_CSHL.c ****         /* Subtract noiseThreshold */
1123:Generated_Source\PSoC5/CapSense_CSHL.c ****         if(CapSense_centroid[CapSense_POS_NEXT] > noiseThreshold)
1124:Generated_Source\PSoC5/CapSense_CSHL.c ****         {
1125:Generated_Source\PSoC5/CapSense_CSHL.c ****             CapSense_centroid[CapSense_POS_NEXT] -= noiseThreshold;
1126:Generated_Source\PSoC5/CapSense_CSHL.c ****         }
1127:Generated_Source\PSoC5/CapSense_CSHL.c ****         else
1128:Generated_Source\PSoC5/CapSense_CSHL.c ****         {
1129:Generated_Source\PSoC5/CapSense_CSHL.c ****             CapSense_centroid[CapSense_POS_NEXT] = 0u;
1130:Generated_Source\PSoC5/CapSense_CSHL.c ****         }
1131:Generated_Source\PSoC5/CapSense_CSHL.c ****         
1132:Generated_Source\PSoC5/CapSense_CSHL.c ****         
1133:Generated_Source\PSoC5/CapSense_CSHL.c ****         /* Si+1 - Si-1 */
1134:Generated_Source\PSoC5/CapSense_CSHL.c ****         numerator = (uint32) CapSense_centroid[CapSense_POS_NEXT] -
1135:Generated_Source\PSoC5/CapSense_CSHL.c ****                     (uint32) CapSense_centroid[CapSense_POS_PREV];
1136:Generated_Source\PSoC5/CapSense_CSHL.c **** 
1137:Generated_Source\PSoC5/CapSense_CSHL.c ****         /* Si+1 + Si + Si-1 */
1138:Generated_Source\PSoC5/CapSense_CSHL.c ****         denominator = (int32) CapSense_centroid[CapSense_POS_PREV] + 
1139:Generated_Source\PSoC5/CapSense_CSHL.c ****                       (int32) CapSense_centroid[CapSense_POS] + 
1140:Generated_Source\PSoC5/CapSense_CSHL.c ****                       (int32) CapSense_centroid[CapSense_POS_NEXT];
1141:Generated_Source\PSoC5/CapSense_CSHL.c ****         
1142:Generated_Source\PSoC5/CapSense_CSHL.c ****         /* (numerator/denominator) + maximum */
1143:Generated_Source\PSoC5/CapSense_CSHL.c ****         denominator = (((int32)(uint32)((uint32)numerator << 8u)/denominator) + (int32)(uint32)((ui
1144:Generated_Source\PSoC5/CapSense_CSHL.c **** 
1145:Generated_Source\PSoC5/CapSense_CSHL.c ****         #if(CapSense_TOTAL_RADIAL_SLIDERS_COUNT > 0u)
1146:Generated_Source\PSoC5/CapSense_CSHL.c ****             /* Only required for RADIAL Slider */
1147:Generated_Source\PSoC5/CapSense_CSHL.c ****             if(denominator < 0)
1148:Generated_Source\PSoC5/CapSense_CSHL.c ****             {
1149:Generated_Source\PSoC5/CapSense_CSHL.c ****                 denominator += (int32)((uint16)((uint16) count << 8u));
1150:Generated_Source\PSoC5/CapSense_CSHL.c ****             }
1151:Generated_Source\PSoC5/CapSense_CSHL.c ****         #endif /* (CapSense_TOTAL_RADIAL_SLIDERS_COUNT > 0u) */
1152:Generated_Source\PSoC5/CapSense_CSHL.c **** 
1153:Generated_Source\PSoC5/CapSense_CSHL.c ****         denominator *= (int16)resolution;
1154:Generated_Source\PSoC5/CapSense_CSHL.c **** 
1155:Generated_Source\PSoC5/CapSense_CSHL.c ****         /* Round the relust and put it to uint8 */
1156:Generated_Source\PSoC5/CapSense_CSHL.c ****         position = ((uint8) HI16((uint32)denominator + CapSense_CENTROID_ROUND_VALUE));
1157:Generated_Source\PSoC5/CapSense_CSHL.c **** 
1158:Generated_Source\PSoC5/CapSense_CSHL.c ****         return (position);
ARM GAS  C:\Users\Tri94\AppData\Local\Temp\ccpNRt3N.s 			page 30


1159:Generated_Source\PSoC5/CapSense_CSHL.c ****     }    
1160:Generated_Source\PSoC5/CapSense_CSHL.c **** #endif /* (CapSense_TOTAL_CENTROIDS_COUNT) */
1161:Generated_Source\PSoC5/CapSense_CSHL.c **** 
1162:Generated_Source\PSoC5/CapSense_CSHL.c **** 
1163:Generated_Source\PSoC5/CapSense_CSHL.c **** #if(CapSense_TOTAL_LINEAR_SLIDERS_COUNT > 0u)
1164:Generated_Source\PSoC5/CapSense_CSHL.c ****     /*******************************************************************************
1165:Generated_Source\PSoC5/CapSense_CSHL.c ****     * Function Name: CapSense_GetCentroidPos
1166:Generated_Source\PSoC5/CapSense_CSHL.c ****     ********************************************************************************
1167:Generated_Source\PSoC5/CapSense_CSHL.c ****     *
1168:Generated_Source\PSoC5/CapSense_CSHL.c ****     * Summary:
1169:Generated_Source\PSoC5/CapSense_CSHL.c ****     *  Checks the CapSense_Signal[ ] array for a centroid within
1170:Generated_Source\PSoC5/CapSense_CSHL.c ****     *  slider specified range. The centroid position is calculated to the resolution
1171:Generated_Source\PSoC5/CapSense_CSHL.c ****     *  specified in the CapSense customizer. The position filters are applied to the
1172:Generated_Source\PSoC5/CapSense_CSHL.c ****     *  result if enabled.
1173:Generated_Source\PSoC5/CapSense_CSHL.c ****     *
1174:Generated_Source\PSoC5/CapSense_CSHL.c ****     * Parameters:
1175:Generated_Source\PSoC5/CapSense_CSHL.c ****     *  widget:  Widget number.
1176:Generated_Source\PSoC5/CapSense_CSHL.c ****     *  For every linear slider widget there are defines in this format:
1177:Generated_Source\PSoC5/CapSense_CSHL.c ****     *  #define CapSense_LS__"widget_name"            5
1178:Generated_Source\PSoC5/CapSense_CSHL.c ****     * 
1179:Generated_Source\PSoC5/CapSense_CSHL.c ****     * Return:
1180:Generated_Source\PSoC5/CapSense_CSHL.c ****     *  Returns position value of the linear slider.
1181:Generated_Source\PSoC5/CapSense_CSHL.c ****     *
1182:Generated_Source\PSoC5/CapSense_CSHL.c ****     * Side Effects:
1183:Generated_Source\PSoC5/CapSense_CSHL.c ****     *  If any sensor within the slider widget is active, the function returns values
1184:Generated_Source\PSoC5/CapSense_CSHL.c ****     *  from zero to the API resolution value set in the CapSense customizer. If no
1185:Generated_Source\PSoC5/CapSense_CSHL.c ****     *  sensors are active, the function returns 0xFFFF. If an error occurs during
1186:Generated_Source\PSoC5/CapSense_CSHL.c ****     *  execution of the centroid/diplexing algorithm, the function returns 0xFFFF.
1187:Generated_Source\PSoC5/CapSense_CSHL.c ****     *  There are no checks of widget type argument provided to this function.
1188:Generated_Source\PSoC5/CapSense_CSHL.c ****     *  The unproper widget type provided will cause unexpected position calculations.
1189:Generated_Source\PSoC5/CapSense_CSHL.c ****     *
1190:Generated_Source\PSoC5/CapSense_CSHL.c ****     * Note:
1191:Generated_Source\PSoC5/CapSense_CSHL.c ****     *  If noise counts on the slider segments are greater than the noise
1192:Generated_Source\PSoC5/CapSense_CSHL.c ****     *  threshold, this subroutine may generate a false centroid result. The noise
1193:Generated_Source\PSoC5/CapSense_CSHL.c ****     *  threshold should be set carefully (high enough above the noise level) so
1194:Generated_Source\PSoC5/CapSense_CSHL.c ****     *  that noise will not generate a false centroid.
1195:Generated_Source\PSoC5/CapSense_CSHL.c ****     *
1196:Generated_Source\PSoC5/CapSense_CSHL.c ****     * Reentrant:
1197:Generated_Source\PSoC5/CapSense_CSHL.c ****     *  No.
1198:Generated_Source\PSoC5/CapSense_CSHL.c ****     *
1199:Generated_Source\PSoC5/CapSense_CSHL.c ****     *******************************************************************************/
1200:Generated_Source\PSoC5/CapSense_CSHL.c ****     uint16 CapSense_GetCentroidPos(uint8 widget) 
1201:Generated_Source\PSoC5/CapSense_CSHL.c ****     {
1202:Generated_Source\PSoC5/CapSense_CSHL.c ****         #if (CapSense_IS_DIPLEX_SLIDER)
1203:Generated_Source\PSoC5/CapSense_CSHL.c ****             const uint8 CYCODE *diplex;
1204:Generated_Source\PSoC5/CapSense_CSHL.c ****         #endif /* (CapSense_IS_DIPLEX_SLIDER) */
1205:Generated_Source\PSoC5/CapSense_CSHL.c ****                 
1206:Generated_Source\PSoC5/CapSense_CSHL.c ****         #if (0u != CapSense_LINEAR_SLIDERS_POS_FILTERS_MASK)
1207:Generated_Source\PSoC5/CapSense_CSHL.c ****             uint8 posIndex;
1208:Generated_Source\PSoC5/CapSense_CSHL.c ****             uint8 firstTimeIndex = CapSense_posFiltersData[widget];
1209:Generated_Source\PSoC5/CapSense_CSHL.c ****             uint8 posFiltersMask = CapSense_posFiltersMask[widget];  
1210:Generated_Source\PSoC5/CapSense_CSHL.c ****         #endif /* (0u != CapSense_LINEAR_SLIDERS_POS_FILTERS_MASK) */
1211:Generated_Source\PSoC5/CapSense_CSHL.c **** 
1212:Generated_Source\PSoC5/CapSense_CSHL.c ****         #if ((0u != (CapSense_MEDIAN_FILTER & CapSense_LINEAR_SLIDERS_POS_FILTERS_MASK)) || \
1213:Generated_Source\PSoC5/CapSense_CSHL.c ****              (0u != (CapSense_AVERAGING_FILTER & CapSense_LINEAR_SLIDERS_POS_FILTERS_MASK)))
1214:Generated_Source\PSoC5/CapSense_CSHL.c ****             uint8 tempPos;
1215:Generated_Source\PSoC5/CapSense_CSHL.c ****         #endif /* ((0u != (CapSense_MEDIAN_FILTER & CapSense_LINEAR_SLIDERS_POS_FILTERS_MASK)) || \
ARM GAS  C:\Users\Tri94\AppData\Local\Temp\ccpNRt3N.s 			page 31


1216:Generated_Source\PSoC5/CapSense_CSHL.c ****                *   (0u != (CapSense_AVERAGING_FILTER & CapSense_LINEAR_SLIDERS_POS_FILTERS_MASK)))
1217:Generated_Source\PSoC5/CapSense_CSHL.c ****                */
1218:Generated_Source\PSoC5/CapSense_CSHL.c **** 
1219:Generated_Source\PSoC5/CapSense_CSHL.c ****         uint8 maximum;
1220:Generated_Source\PSoC5/CapSense_CSHL.c ****         uint16 position;
1221:Generated_Source\PSoC5/CapSense_CSHL.c ****         uint8 offset = CapSense_rawDataIndex[widget];
1222:Generated_Source\PSoC5/CapSense_CSHL.c ****         uint8 count = CapSense_numberOfSensors[widget];
1223:Generated_Source\PSoC5/CapSense_CSHL.c ****                         
1224:Generated_Source\PSoC5/CapSense_CSHL.c ****         #if (CapSense_IS_DIPLEX_SLIDER)
1225:Generated_Source\PSoC5/CapSense_CSHL.c ****             if(widget < CapSense_TOTAL_DIPLEXED_SLIDERS_COUNT)
1226:Generated_Source\PSoC5/CapSense_CSHL.c ****             {
1227:Generated_Source\PSoC5/CapSense_CSHL.c ****                 maximum = CapSense_diplexTable[widget];
1228:Generated_Source\PSoC5/CapSense_CSHL.c ****                 diplex = &CapSense_diplexTable[maximum];
1229:Generated_Source\PSoC5/CapSense_CSHL.c ****             }
1230:Generated_Source\PSoC5/CapSense_CSHL.c ****             else
1231:Generated_Source\PSoC5/CapSense_CSHL.c ****             {
1232:Generated_Source\PSoC5/CapSense_CSHL.c ****                 diplex = 0u;
1233:Generated_Source\PSoC5/CapSense_CSHL.c ****             }
1234:Generated_Source\PSoC5/CapSense_CSHL.c ****         #endif /* (CapSense_IS_DIPLEX_SLIDER) */
1235:Generated_Source\PSoC5/CapSense_CSHL.c **** 
1236:Generated_Source\PSoC5/CapSense_CSHL.c ****         /* Find Maximum within centroid */      
1237:Generated_Source\PSoC5/CapSense_CSHL.c ****         #if (CapSense_IS_DIPLEX_SLIDER)        
1238:Generated_Source\PSoC5/CapSense_CSHL.c ****             maximum = CapSense_FindMaximum(offset, count, CapSense_fingerThreshold[widget], diplex)
1239:Generated_Source\PSoC5/CapSense_CSHL.c ****         #else
1240:Generated_Source\PSoC5/CapSense_CSHL.c ****             maximum = CapSense_FindMaximum(offset, count, CapSense_fingerThreshold[widget]);
1241:Generated_Source\PSoC5/CapSense_CSHL.c ****         #endif /* (CapSense_IS_DIPLEX_SLIDER) */
1242:Generated_Source\PSoC5/CapSense_CSHL.c **** 
1243:Generated_Source\PSoC5/CapSense_CSHL.c ****         if (maximum != 0xFFu)
1244:Generated_Source\PSoC5/CapSense_CSHL.c ****         {
1245:Generated_Source\PSoC5/CapSense_CSHL.c ****             /* Calculate centroid */
1246:Generated_Source\PSoC5/CapSense_CSHL.c ****             position = (uint16) CapSense_CalcCentroid(maximum, 
1247:Generated_Source\PSoC5/CapSense_CSHL.c ****                          offset, count, CapSense_centroidMult[widget], CapSense_noiseThreshold[widg
1248:Generated_Source\PSoC5/CapSense_CSHL.c **** 
1249:Generated_Source\PSoC5/CapSense_CSHL.c ****             #if (0u != CapSense_LINEAR_SLIDERS_POS_FILTERS_MASK)
1250:Generated_Source\PSoC5/CapSense_CSHL.c ****                 /* Check if this linear slider has enabled filters */
1251:Generated_Source\PSoC5/CapSense_CSHL.c ****                 if (0u != (posFiltersMask & CapSense_ANY_POS_FILTER))
1252:Generated_Source\PSoC5/CapSense_CSHL.c ****                 {
1253:Generated_Source\PSoC5/CapSense_CSHL.c ****                     /* Caluclate position to store filters data */
1254:Generated_Source\PSoC5/CapSense_CSHL.c ****                     posIndex  = firstTimeIndex + 1u;
1255:Generated_Source\PSoC5/CapSense_CSHL.c ****                     
1256:Generated_Source\PSoC5/CapSense_CSHL.c ****                     if (0u == CapSense_posFiltersData[firstTimeIndex])
1257:Generated_Source\PSoC5/CapSense_CSHL.c ****                     {
1258:Generated_Source\PSoC5/CapSense_CSHL.c ****                         /* Init filters */
1259:Generated_Source\PSoC5/CapSense_CSHL.c ****                         CapSense_posFiltersData[posIndex] = (uint8) position;
1260:Generated_Source\PSoC5/CapSense_CSHL.c ****                         #if ((0u != (CapSense_MEDIAN_FILTER & \
1261:Generated_Source\PSoC5/CapSense_CSHL.c ****                                      CapSense_LINEAR_SLIDERS_POS_FILTERS_MASK)) || \
1262:Generated_Source\PSoC5/CapSense_CSHL.c ****                              (0u != (CapSense_AVERAGING_FILTER & \
1263:Generated_Source\PSoC5/CapSense_CSHL.c ****                                      CapSense_LINEAR_SLIDERS_POS_FILTERS_MASK)))
1264:Generated_Source\PSoC5/CapSense_CSHL.c **** 
1265:Generated_Source\PSoC5/CapSense_CSHL.c ****                             if ( (0u != (posFiltersMask & CapSense_MEDIAN_FILTER)) || 
1266:Generated_Source\PSoC5/CapSense_CSHL.c ****                                  (0u != (posFiltersMask & CapSense_AVERAGING_FILTER)) )
1267:Generated_Source\PSoC5/CapSense_CSHL.c ****                             {
1268:Generated_Source\PSoC5/CapSense_CSHL.c ****                                 CapSense_posFiltersData[posIndex + 1u] = (uint8) position;
1269:Generated_Source\PSoC5/CapSense_CSHL.c ****                             }
1270:Generated_Source\PSoC5/CapSense_CSHL.c ****                         #endif /* ((0u != (CapSense_MEDIAN_FILTER & \
1271:Generated_Source\PSoC5/CapSense_CSHL.c ****                                *           CapSense_LINEAR_SLIDERS_POS_FILTERS_MASK)) || \
1272:Generated_Source\PSoC5/CapSense_CSHL.c ****                                *   (0u != (CapSense_AVERAGING_FILTER & \
ARM GAS  C:\Users\Tri94\AppData\Local\Temp\ccpNRt3N.s 			page 32


1273:Generated_Source\PSoC5/CapSense_CSHL.c ****                                *           CapSense_LINEAR_SLIDERS_POS_FILTERS_MASK)))
1274:Generated_Source\PSoC5/CapSense_CSHL.c ****                                */
1275:Generated_Source\PSoC5/CapSense_CSHL.c ****                         
1276:Generated_Source\PSoC5/CapSense_CSHL.c ****                         CapSense_posFiltersData[firstTimeIndex] = 1u;
1277:Generated_Source\PSoC5/CapSense_CSHL.c ****                     }
1278:Generated_Source\PSoC5/CapSense_CSHL.c ****                     else
1279:Generated_Source\PSoC5/CapSense_CSHL.c ****                     {
1280:Generated_Source\PSoC5/CapSense_CSHL.c ****                         /* Do filtering */
1281:Generated_Source\PSoC5/CapSense_CSHL.c ****                         #if (0u != (CapSense_MEDIAN_FILTER & CapSense_LINEAR_SLIDERS_POS_FILTERS_MA
1282:Generated_Source\PSoC5/CapSense_CSHL.c ****                             if (0u != (posFiltersMask & CapSense_MEDIAN_FILTER))
1283:Generated_Source\PSoC5/CapSense_CSHL.c ****                             {
1284:Generated_Source\PSoC5/CapSense_CSHL.c ****                                 tempPos = (uint8) position;
1285:Generated_Source\PSoC5/CapSense_CSHL.c ****                                 position = CapSense_MedianFilter(position,
1286:Generated_Source\PSoC5/CapSense_CSHL.c ****                                                                 (uint16)CapSense_posFiltersData[pos
1287:Generated_Source\PSoC5/CapSense_CSHL.c ****                                                                 (uint16)CapSense_posFiltersData[pos
1288:Generated_Source\PSoC5/CapSense_CSHL.c ****                                 CapSense_posFiltersData[posIndex + 1u] =
1289:Generated_Source\PSoC5/CapSense_CSHL.c ****                                                                              CapSense_posFiltersDat
1290:Generated_Source\PSoC5/CapSense_CSHL.c ****                                 CapSense_posFiltersData[posIndex] = tempPos;
1291:Generated_Source\PSoC5/CapSense_CSHL.c ****                             }
1292:Generated_Source\PSoC5/CapSense_CSHL.c ****                         #endif /*(0u != (CapSense_MEDIAN_FILTER &
1293:Generated_Source\PSoC5/CapSense_CSHL.c ****                                *         CapSense_LINEAR_SLIDERS_POS_FILTERS_MASK))
1294:Generated_Source\PSoC5/CapSense_CSHL.c ****                                */
1295:Generated_Source\PSoC5/CapSense_CSHL.c **** 
1296:Generated_Source\PSoC5/CapSense_CSHL.c ****                         #if(0u!=(CapSense_AVERAGING_FILTER & CapSense_LINEAR_SLIDERS_POS_FILTERS_MA
1297:Generated_Source\PSoC5/CapSense_CSHL.c ****                             if (0u != (posFiltersMask & CapSense_AVERAGING_FILTER)) 
1298:Generated_Source\PSoC5/CapSense_CSHL.c ****                             {
1299:Generated_Source\PSoC5/CapSense_CSHL.c ****                                 tempPos = (uint8) position;
1300:Generated_Source\PSoC5/CapSense_CSHL.c ****                                 position = CapSense_AveragingFilter(position,
1301:Generated_Source\PSoC5/CapSense_CSHL.c ****                                                                 (uint16)CapSense_posFiltersData[pos
1302:Generated_Source\PSoC5/CapSense_CSHL.c ****                                                                 (uint16)CapSense_posFiltersData[pos
1303:Generated_Source\PSoC5/CapSense_CSHL.c ****                                 CapSense_posFiltersData[posIndex+1u]=CapSense_posFiltersData[posInd
1304:Generated_Source\PSoC5/CapSense_CSHL.c ****                                 CapSense_posFiltersData[posIndex] = tempPos;
1305:Generated_Source\PSoC5/CapSense_CSHL.c ****                             }
1306:Generated_Source\PSoC5/CapSense_CSHL.c ****                         #endif /* (0u != (CapSense_AVERAGING_FILTER & \
1307:Generated_Source\PSoC5/CapSense_CSHL.c ****                                *           CapSense_LINEAR_SLIDERS_POS_FILTERS_MASK))
1308:Generated_Source\PSoC5/CapSense_CSHL.c ****                                */
1309:Generated_Source\PSoC5/CapSense_CSHL.c **** 
1310:Generated_Source\PSoC5/CapSense_CSHL.c ****                         #if (0u != (CapSense_IIR2_FILTER & CapSense_LINEAR_SLIDERS_POS_FILTERS_MASK
1311:Generated_Source\PSoC5/CapSense_CSHL.c ****                             if (0u != (posFiltersMask & CapSense_IIR2_FILTER)) 
1312:Generated_Source\PSoC5/CapSense_CSHL.c ****                             {
1313:Generated_Source\PSoC5/CapSense_CSHL.c ****                                 position = CapSense_IIR2Filter(position,
1314:Generated_Source\PSoC5/CapSense_CSHL.c ****                                                                     (uint16)CapSense_posFiltersData
1315:Generated_Source\PSoC5/CapSense_CSHL.c ****                                 CapSense_posFiltersData[posIndex] = (uint8) position;
1316:Generated_Source\PSoC5/CapSense_CSHL.c ****                             }
1317:Generated_Source\PSoC5/CapSense_CSHL.c ****                         #endif /* (0u != (CapSense_IIR2_FILTER & \
1318:Generated_Source\PSoC5/CapSense_CSHL.c ****                                *          CapSense_LINEAR_SLIDERS_POS_FILTERS_MASK))
1319:Generated_Source\PSoC5/CapSense_CSHL.c ****                                */
1320:Generated_Source\PSoC5/CapSense_CSHL.c **** 
1321:Generated_Source\PSoC5/CapSense_CSHL.c ****                         #if (0u != (CapSense_IIR4_FILTER & CapSense_LINEAR_SLIDERS_POS_FILTERS_MASK
1322:Generated_Source\PSoC5/CapSense_CSHL.c ****                             if (0u != (posFiltersMask & CapSense_IIR4_FILTER))
1323:Generated_Source\PSoC5/CapSense_CSHL.c ****                             {
1324:Generated_Source\PSoC5/CapSense_CSHL.c ****                                 position = CapSense_IIR4Filter(position,
1325:Generated_Source\PSoC5/CapSense_CSHL.c ****                                                                     (uint16)CapSense_posFiltersData
1326:Generated_Source\PSoC5/CapSense_CSHL.c ****                                 CapSense_posFiltersData[posIndex] = (uint8) position;
1327:Generated_Source\PSoC5/CapSense_CSHL.c ****                             }                                
1328:Generated_Source\PSoC5/CapSense_CSHL.c ****                         #endif /* (0u != (CapSense_IIR4_FILTER & \
1329:Generated_Source\PSoC5/CapSense_CSHL.c ****                                *          CapSense_LINEAR_SLIDERS_POS_FILTERS_MASK))
ARM GAS  C:\Users\Tri94\AppData\Local\Temp\ccpNRt3N.s 			page 33


1330:Generated_Source\PSoC5/CapSense_CSHL.c ****                                */
1331:Generated_Source\PSoC5/CapSense_CSHL.c **** 
1332:Generated_Source\PSoC5/CapSense_CSHL.c ****                         #if (0u != (CapSense_JITTER_FILTER & CapSense_LINEAR_SLIDERS_POS_FILTERS_MA
1333:Generated_Source\PSoC5/CapSense_CSHL.c ****                             if (0u != (posFiltersMask & CapSense_JITTER_FILTER))
1334:Generated_Source\PSoC5/CapSense_CSHL.c ****                             {
1335:Generated_Source\PSoC5/CapSense_CSHL.c ****                                 position = CapSense_JitterFilter(position,
1336:Generated_Source\PSoC5/CapSense_CSHL.c ****                                                                     (uint16)CapSense_posFiltersData
1337:Generated_Source\PSoC5/CapSense_CSHL.c ****                                 CapSense_posFiltersData[posIndex] = (uint8) position;
1338:Generated_Source\PSoC5/CapSense_CSHL.c ****                             }
1339:Generated_Source\PSoC5/CapSense_CSHL.c ****                         #endif /* (0u != (CapSense_JITTER_FILTER & \
1340:Generated_Source\PSoC5/CapSense_CSHL.c ****                                *           CapSense_LINEAR_SLIDERS_POS_FILTERS_MASK))
1341:Generated_Source\PSoC5/CapSense_CSHL.c ****                                */
1342:Generated_Source\PSoC5/CapSense_CSHL.c ****                     }
1343:Generated_Source\PSoC5/CapSense_CSHL.c ****                 }
1344:Generated_Source\PSoC5/CapSense_CSHL.c ****             #endif /* (0u != CapSense_LINEAR_SLIDERS_POS_FILTERS_MASK) */
1345:Generated_Source\PSoC5/CapSense_CSHL.c **** 
1346:Generated_Source\PSoC5/CapSense_CSHL.c ****         }
1347:Generated_Source\PSoC5/CapSense_CSHL.c ****         else
1348:Generated_Source\PSoC5/CapSense_CSHL.c ****         {
1349:Generated_Source\PSoC5/CapSense_CSHL.c ****             /* The maximum wasn't found */
1350:Generated_Source\PSoC5/CapSense_CSHL.c ****             position = 0xFFFFu;
1351:Generated_Source\PSoC5/CapSense_CSHL.c **** 
1352:Generated_Source\PSoC5/CapSense_CSHL.c ****             #if(0u != CapSense_LINEAR_SLIDERS_POS_FILTERS_MASK)
1353:Generated_Source\PSoC5/CapSense_CSHL.c ****                 /* Reset the filters */
1354:Generated_Source\PSoC5/CapSense_CSHL.c ****                 if(0u != (posFiltersMask & CapSense_ANY_POS_FILTER))
1355:Generated_Source\PSoC5/CapSense_CSHL.c ****                 {
1356:Generated_Source\PSoC5/CapSense_CSHL.c ****                     CapSense_posFiltersData[firstTimeIndex] = 0u;
1357:Generated_Source\PSoC5/CapSense_CSHL.c ****                 }
1358:Generated_Source\PSoC5/CapSense_CSHL.c ****             #endif /* (0u != CapSense_LINEAR_SLIDERS_POS_FILTERS_MASK) */
1359:Generated_Source\PSoC5/CapSense_CSHL.c ****         }
1360:Generated_Source\PSoC5/CapSense_CSHL.c **** 
1361:Generated_Source\PSoC5/CapSense_CSHL.c ****         
1362:Generated_Source\PSoC5/CapSense_CSHL.c ****         return (position);
1363:Generated_Source\PSoC5/CapSense_CSHL.c ****     }
1364:Generated_Source\PSoC5/CapSense_CSHL.c **** #endif /* (CapSense_TOTAL_LINEAR_SLIDERS_COUNT > 0u) */
1365:Generated_Source\PSoC5/CapSense_CSHL.c **** 
1366:Generated_Source\PSoC5/CapSense_CSHL.c **** 
1367:Generated_Source\PSoC5/CapSense_CSHL.c **** #if(CapSense_TOTAL_RADIAL_SLIDERS_COUNT > 0u)
1368:Generated_Source\PSoC5/CapSense_CSHL.c ****     /*******************************************************************************
1369:Generated_Source\PSoC5/CapSense_CSHL.c ****     * Function Name: CapSense_GetRadialCentroidPos
1370:Generated_Source\PSoC5/CapSense_CSHL.c ****     ********************************************************************************
1371:Generated_Source\PSoC5/CapSense_CSHL.c ****     *
1372:Generated_Source\PSoC5/CapSense_CSHL.c ****     * Summary:
1373:Generated_Source\PSoC5/CapSense_CSHL.c ****     *  Checks the CapSense_Signal[ ] array for a centroid within
1374:Generated_Source\PSoC5/CapSense_CSHL.c ****     *  slider specified range. The centroid position is calculated to the resolution
1375:Generated_Source\PSoC5/CapSense_CSHL.c ****     *  specified in the CapSense customizer. The position filters are applied to the
1376:Generated_Source\PSoC5/CapSense_CSHL.c ****     *  result if enabled.
1377:Generated_Source\PSoC5/CapSense_CSHL.c ****     *
1378:Generated_Source\PSoC5/CapSense_CSHL.c ****     * Parameters:
1379:Generated_Source\PSoC5/CapSense_CSHL.c ****     *  widget:  Widget number.
1380:Generated_Source\PSoC5/CapSense_CSHL.c ****     *  For every radial slider widget there are defines in this format:
1381:Generated_Source\PSoC5/CapSense_CSHL.c ****     *  #define CapSense_RS_"widget_name"            5
1382:Generated_Source\PSoC5/CapSense_CSHL.c ****     * 
1383:Generated_Source\PSoC5/CapSense_CSHL.c ****     * Return:
1384:Generated_Source\PSoC5/CapSense_CSHL.c ****     *  Returns position value of the radial slider.
1385:Generated_Source\PSoC5/CapSense_CSHL.c ****     *
1386:Generated_Source\PSoC5/CapSense_CSHL.c ****     * Side Effects:
ARM GAS  C:\Users\Tri94\AppData\Local\Temp\ccpNRt3N.s 			page 34


1387:Generated_Source\PSoC5/CapSense_CSHL.c ****     *  If any sensor within the slider widget is active, the function returns values
1388:Generated_Source\PSoC5/CapSense_CSHL.c ****     *  from zero to the API resolution value set in the CapSense customizer. If no
1389:Generated_Source\PSoC5/CapSense_CSHL.c ****     *  sensors are active, the function returns 0xFFFF.
1390:Generated_Source\PSoC5/CapSense_CSHL.c ****     *  There are no checks of widget type argument provided to this function.
1391:Generated_Source\PSoC5/CapSense_CSHL.c ****     *  The unproper widget type provided will cause unexpected position calculations.
1392:Generated_Source\PSoC5/CapSense_CSHL.c ****     *
1393:Generated_Source\PSoC5/CapSense_CSHL.c ****     * Note:
1394:Generated_Source\PSoC5/CapSense_CSHL.c ****     *  If noise counts on the slider segments are greater than the noise
1395:Generated_Source\PSoC5/CapSense_CSHL.c ****     *  threshold, this subroutine may generate a false centroid result. The noise
1396:Generated_Source\PSoC5/CapSense_CSHL.c ****     *  threshold should be set carefully (high enough above the noise level) so 
1397:Generated_Source\PSoC5/CapSense_CSHL.c ****     *  that noise will not generate a false centroid.
1398:Generated_Source\PSoC5/CapSense_CSHL.c ****     *
1399:Generated_Source\PSoC5/CapSense_CSHL.c ****     *
1400:Generated_Source\PSoC5/CapSense_CSHL.c ****     * Reentrant:
1401:Generated_Source\PSoC5/CapSense_CSHL.c ****     *  No.
1402:Generated_Source\PSoC5/CapSense_CSHL.c ****     *
1403:Generated_Source\PSoC5/CapSense_CSHL.c ****     *******************************************************************************/
1404:Generated_Source\PSoC5/CapSense_CSHL.c ****      uint16 CapSense_GetRadialCentroidPos(uint8 widget)
1405:Generated_Source\PSoC5/CapSense_CSHL.c **** 	                                       
1406:Generated_Source\PSoC5/CapSense_CSHL.c ****     {
1407:Generated_Source\PSoC5/CapSense_CSHL.c ****         #if (0u != CapSense_RADIAL_SLIDERS_POS_FILTERS_MASK)
1408:Generated_Source\PSoC5/CapSense_CSHL.c ****             uint8 posIndex;
1409:Generated_Source\PSoC5/CapSense_CSHL.c ****             uint8 firstTimeIndex = CapSense_posFiltersData[widget];
1410:Generated_Source\PSoC5/CapSense_CSHL.c ****             uint8 posFiltersMask = CapSense_posFiltersMask[widget]; 
1411:Generated_Source\PSoC5/CapSense_CSHL.c ****         #endif /* (0u != CapSense_RADIAL_SLIDERS_POS_FILTERS_MASK) */
1412:Generated_Source\PSoC5/CapSense_CSHL.c **** 
1413:Generated_Source\PSoC5/CapSense_CSHL.c ****         #if ((0u != (CapSense_MEDIAN_FILTER & CapSense_RADIAL_SLIDERS_POS_FILTERS_MASK)) || \
1414:Generated_Source\PSoC5/CapSense_CSHL.c ****              (0u != (CapSense_AVERAGING_FILTER & CapSense_RADIAL_SLIDERS_POS_FILTERS_MASK)))
1415:Generated_Source\PSoC5/CapSense_CSHL.c ****             uint8 tempPos;
1416:Generated_Source\PSoC5/CapSense_CSHL.c ****         #endif /* ((0u != (CapSense_MEDIAN_FILTER & CapSense_RADIAL_SLIDERS_POS_FILTERS_MASK)) || \
1417:Generated_Source\PSoC5/CapSense_CSHL.c ****                *   (0u != (CapSense_AVERAGING_FILTER & CapSense_RADIAL_SLIDERS_POS_FILTERS_MASK)))
1418:Generated_Source\PSoC5/CapSense_CSHL.c ****                */
1419:Generated_Source\PSoC5/CapSense_CSHL.c **** 
1420:Generated_Source\PSoC5/CapSense_CSHL.c ****         uint8 maximum;
1421:Generated_Source\PSoC5/CapSense_CSHL.c ****         uint16 position;
1422:Generated_Source\PSoC5/CapSense_CSHL.c ****         uint8 offset = CapSense_rawDataIndex[widget];
1423:Generated_Source\PSoC5/CapSense_CSHL.c ****         uint8 count = CapSense_numberOfSensors[widget];
1424:Generated_Source\PSoC5/CapSense_CSHL.c ****         
1425:Generated_Source\PSoC5/CapSense_CSHL.c ****         /* Find Maximum within centroid */        
1426:Generated_Source\PSoC5/CapSense_CSHL.c ****         #if (CapSense_IS_DIPLEX_SLIDER)
1427:Generated_Source\PSoC5/CapSense_CSHL.c ****             maximum = CapSense_FindMaximum(offset, count, CapSense_fingerThreshold[widget], 0u);
1428:Generated_Source\PSoC5/CapSense_CSHL.c ****         #else
1429:Generated_Source\PSoC5/CapSense_CSHL.c ****             maximum = CapSense_FindMaximum(offset, count, CapSense_fingerThreshold[widget]);
1430:Generated_Source\PSoC5/CapSense_CSHL.c ****         #endif /* (CapSense_IS_DIPLEX_SLIDER) */
1431:Generated_Source\PSoC5/CapSense_CSHL.c ****         
1432:Generated_Source\PSoC5/CapSense_CSHL.c ****         if (maximum != 0xFFu)
1433:Generated_Source\PSoC5/CapSense_CSHL.c ****         {
1434:Generated_Source\PSoC5/CapSense_CSHL.c ****             /* Calculate centroid */
1435:Generated_Source\PSoC5/CapSense_CSHL.c ****             position = (uint16) CapSense_CalcCentroid(maximum, 
1436:Generated_Source\PSoC5/CapSense_CSHL.c ****                          offset, count, CapSense_centroidMult[widget], CapSense_noiseThreshold[widg
1437:Generated_Source\PSoC5/CapSense_CSHL.c **** 
1438:Generated_Source\PSoC5/CapSense_CSHL.c ****             #if (0u != CapSense_RADIAL_SLIDERS_POS_FILTERS_MASK)
1439:Generated_Source\PSoC5/CapSense_CSHL.c ****                 /* Check if this Radial slider has enabled filters */
1440:Generated_Source\PSoC5/CapSense_CSHL.c ****                 if (0u != (posFiltersMask & CapSense_ANY_POS_FILTER))
1441:Generated_Source\PSoC5/CapSense_CSHL.c ****                 {
1442:Generated_Source\PSoC5/CapSense_CSHL.c ****                     /* Caluclate position to store filters data */
1443:Generated_Source\PSoC5/CapSense_CSHL.c ****                     posIndex  = firstTimeIndex + 1u;
ARM GAS  C:\Users\Tri94\AppData\Local\Temp\ccpNRt3N.s 			page 35


1444:Generated_Source\PSoC5/CapSense_CSHL.c ****                     
1445:Generated_Source\PSoC5/CapSense_CSHL.c ****                     if (0u == CapSense_posFiltersData[firstTimeIndex])
1446:Generated_Source\PSoC5/CapSense_CSHL.c ****                     {
1447:Generated_Source\PSoC5/CapSense_CSHL.c ****                         /* Init filters */
1448:Generated_Source\PSoC5/CapSense_CSHL.c ****                         CapSense_posFiltersData[posIndex] = (uint8) position;
1449:Generated_Source\PSoC5/CapSense_CSHL.c ****                         #if ((0u != (CapSense_MEDIAN_FILTER & \
1450:Generated_Source\PSoC5/CapSense_CSHL.c ****                                      CapSense_RADIAL_SLIDERS_POS_FILTERS_MASK)) || \
1451:Generated_Source\PSoC5/CapSense_CSHL.c ****                              (0u != (CapSense_AVERAGING_FILTER & \
1452:Generated_Source\PSoC5/CapSense_CSHL.c ****                                      CapSense_RADIAL_SLIDERS_POS_FILTERS_MASK)))
1453:Generated_Source\PSoC5/CapSense_CSHL.c **** 
1454:Generated_Source\PSoC5/CapSense_CSHL.c ****                             if ( (0u != (posFiltersMask & CapSense_MEDIAN_FILTER))  || 
1455:Generated_Source\PSoC5/CapSense_CSHL.c ****                                  (0u != (posFiltersMask & CapSense_AVERAGING_FILTER)) )
1456:Generated_Source\PSoC5/CapSense_CSHL.c ****                             {
1457:Generated_Source\PSoC5/CapSense_CSHL.c ****                                 CapSense_posFiltersData[posIndex + 1u] = (uint8) position;
1458:Generated_Source\PSoC5/CapSense_CSHL.c ****                             }
1459:Generated_Source\PSoC5/CapSense_CSHL.c ****                         #endif /* ((0u != (CapSense_MEDIAN_FILTER & \
1460:Generated_Source\PSoC5/CapSense_CSHL.c ****                                *           CapSense_RADIAL_SLIDERS_POS_FILTERS_MASK)) || \
1461:Generated_Source\PSoC5/CapSense_CSHL.c ****                                *   (0u != (CapSense_AVERAGING_FILTER & \
1462:Generated_Source\PSoC5/CapSense_CSHL.c ****                                *           CapSense_RADIAL_SLIDERS_POS_FILTERS_MASK)))
1463:Generated_Source\PSoC5/CapSense_CSHL.c ****                                */
1464:Generated_Source\PSoC5/CapSense_CSHL.c ****                         
1465:Generated_Source\PSoC5/CapSense_CSHL.c ****                         CapSense_posFiltersData[firstTimeIndex] = 1u;
1466:Generated_Source\PSoC5/CapSense_CSHL.c ****                     }
1467:Generated_Source\PSoC5/CapSense_CSHL.c ****                     else
1468:Generated_Source\PSoC5/CapSense_CSHL.c ****                     {
1469:Generated_Source\PSoC5/CapSense_CSHL.c ****                         /* Do filtering */
1470:Generated_Source\PSoC5/CapSense_CSHL.c ****                         #if (0u != (CapSense_MEDIAN_FILTER & CapSense_RADIAL_SLIDERS_POS_FILTERS_MA
1471:Generated_Source\PSoC5/CapSense_CSHL.c ****                             if (0u != (posFiltersMask & CapSense_MEDIAN_FILTER))
1472:Generated_Source\PSoC5/CapSense_CSHL.c ****                             {
1473:Generated_Source\PSoC5/CapSense_CSHL.c ****                                 tempPos = (uint8) position;
1474:Generated_Source\PSoC5/CapSense_CSHL.c ****                                 position = CapSense_MedianFilter(position,
1475:Generated_Source\PSoC5/CapSense_CSHL.c ****                                                                         CapSense_posFiltersData[pos
1476:Generated_Source\PSoC5/CapSense_CSHL.c ****                                                                         CapSense_posFiltersData[pos
1477:Generated_Source\PSoC5/CapSense_CSHL.c ****                                 CapSense_posFiltersData[posIndex + 1u] = 
1478:Generated_Source\PSoC5/CapSense_CSHL.c ****                                                                               CapSense_posFiltersDa
1479:Generated_Source\PSoC5/CapSense_CSHL.c ****                                 CapSense_posFiltersData[posIndex] = tempPos;
1480:Generated_Source\PSoC5/CapSense_CSHL.c ****                             }
1481:Generated_Source\PSoC5/CapSense_CSHL.c ****                         #endif /* (0u != (CapSense_MEDIAN_FILTER & 
1482:Generated_Source\PSoC5/CapSense_CSHL.c ****                                *          CapSense_RADIAL_SLIDERS_POS_FILTERS_MASK))
1483:Generated_Source\PSoC5/CapSense_CSHL.c ****                                */
1484:Generated_Source\PSoC5/CapSense_CSHL.c **** 
1485:Generated_Source\PSoC5/CapSense_CSHL.c ****                         #if (0u != (CapSense_AVERAGING_FILTER & \
1486:Generated_Source\PSoC5/CapSense_CSHL.c ****                                     CapSense_RADIAL_SLIDERS_POS_FILTERS_MASK))
1487:Generated_Source\PSoC5/CapSense_CSHL.c ****                             if (0u != (posFiltersMask & CapSense_AVERAGING_FILTER))
1488:Generated_Source\PSoC5/CapSense_CSHL.c ****                             {
1489:Generated_Source\PSoC5/CapSense_CSHL.c ****                                 tempPos = (uint8) position;
1490:Generated_Source\PSoC5/CapSense_CSHL.c ****                                 position = CapSense_AveragingFilter(position, 
1491:Generated_Source\PSoC5/CapSense_CSHL.c ****                                                                        CapSense_posFiltersData[posI
1492:Generated_Source\PSoC5/CapSense_CSHL.c ****                                                                        CapSense_posFiltersData[posI
1493:Generated_Source\PSoC5/CapSense_CSHL.c ****                                 CapSense_posFiltersData[posIndex+1u]= CapSense_posFiltersData[posIn
1494:Generated_Source\PSoC5/CapSense_CSHL.c ****                                 CapSense_posFiltersData[posIndex] = tempPos;
1495:Generated_Source\PSoC5/CapSense_CSHL.c ****                             }
1496:Generated_Source\PSoC5/CapSense_CSHL.c ****                         #endif /* (0u != (CapSense_AVERAGING_FILTER & \
1497:Generated_Source\PSoC5/CapSense_CSHL.c ****                                *          CapSense_RADIAL_SLIDERS_POS_FILTERS_MASK))
1498:Generated_Source\PSoC5/CapSense_CSHL.c ****                                */
1499:Generated_Source\PSoC5/CapSense_CSHL.c **** 
1500:Generated_Source\PSoC5/CapSense_CSHL.c ****                         #if (0u != (CapSense_IIR2_FILTER & CapSense_RADIAL_SLIDERS_POS_FILTERS_MASK
ARM GAS  C:\Users\Tri94\AppData\Local\Temp\ccpNRt3N.s 			page 36


1501:Generated_Source\PSoC5/CapSense_CSHL.c ****                             if (0u != (posFiltersMask & CapSense_IIR2_FILTER))
1502:Generated_Source\PSoC5/CapSense_CSHL.c ****                             {
1503:Generated_Source\PSoC5/CapSense_CSHL.c ****                                 position = CapSense_IIR2Filter(position,
1504:Generated_Source\PSoC5/CapSense_CSHL.c ****                                                                     (uint16)CapSense_posFiltersData
1505:Generated_Source\PSoC5/CapSense_CSHL.c ****                                 CapSense_posFiltersData[posIndex] = (uint8) position;
1506:Generated_Source\PSoC5/CapSense_CSHL.c ****                             }
1507:Generated_Source\PSoC5/CapSense_CSHL.c ****                         #endif /* (0u != (CapSense_IIR2_FILTER & 
1508:Generated_Source\PSoC5/CapSense_CSHL.c ****                                *          CapSense_RADIAL_SLIDERS_POS_FILTERS_MASK))
1509:Generated_Source\PSoC5/CapSense_CSHL.c ****                                */
1510:Generated_Source\PSoC5/CapSense_CSHL.c **** 
1511:Generated_Source\PSoC5/CapSense_CSHL.c ****                         #if (0u != (CapSense_IIR4_FILTER & CapSense_RADIAL_SLIDERS_POS_FILTERS_MASK
1512:Generated_Source\PSoC5/CapSense_CSHL.c ****                             if (0u != (posFiltersMask & CapSense_IIR4_FILTER))
1513:Generated_Source\PSoC5/CapSense_CSHL.c ****                             {
1514:Generated_Source\PSoC5/CapSense_CSHL.c ****                                 position = CapSense_IIR4Filter(position,
1515:Generated_Source\PSoC5/CapSense_CSHL.c ****                                                                     (uint16)CapSense_posFiltersData
1516:Generated_Source\PSoC5/CapSense_CSHL.c ****                                 CapSense_posFiltersData[posIndex] = (uint8) position;
1517:Generated_Source\PSoC5/CapSense_CSHL.c ****                             }
1518:Generated_Source\PSoC5/CapSense_CSHL.c ****                         #endif /* (0u != (CapSense_IIR4_FILTER & 
1519:Generated_Source\PSoC5/CapSense_CSHL.c ****                                *          CapSense_RADIAL_SLIDERS_POS_FILTERS_MASK))
1520:Generated_Source\PSoC5/CapSense_CSHL.c ****                                */
1521:Generated_Source\PSoC5/CapSense_CSHL.c **** 
1522:Generated_Source\PSoC5/CapSense_CSHL.c ****                         #if (0u != (CapSense_JITTER_FILTER & CapSense_RADIAL_SLIDERS_POS_FILTERS_MA
1523:Generated_Source\PSoC5/CapSense_CSHL.c ****                             if (0u != (posFiltersMask & CapSense_JITTER_FILTER))
1524:Generated_Source\PSoC5/CapSense_CSHL.c ****                             {
1525:Generated_Source\PSoC5/CapSense_CSHL.c ****                                 position = CapSense_JitterFilter(position, 
1526:Generated_Source\PSoC5/CapSense_CSHL.c ****                                                                          CapSense_posFiltersData[po
1527:Generated_Source\PSoC5/CapSense_CSHL.c ****                                 CapSense_posFiltersData[posIndex] = (uint8) position;
1528:Generated_Source\PSoC5/CapSense_CSHL.c ****                             }
1529:Generated_Source\PSoC5/CapSense_CSHL.c ****                         #endif /* (0u != (CapSense_JITTER_FILTER &
1530:Generated_Source\PSoC5/CapSense_CSHL.c ****                                *           CapSense_RADIAL_SLIDERS_POS_FILTERS_MASK))
1531:Generated_Source\PSoC5/CapSense_CSHL.c ****                                */
1532:Generated_Source\PSoC5/CapSense_CSHL.c ****                     }
1533:Generated_Source\PSoC5/CapSense_CSHL.c ****                 }
1534:Generated_Source\PSoC5/CapSense_CSHL.c ****             #endif /* (0u != CapSense_RADIAL_SLIDERS_POS_FILTERS_MASK) */
1535:Generated_Source\PSoC5/CapSense_CSHL.c **** 
1536:Generated_Source\PSoC5/CapSense_CSHL.c ****         }
1537:Generated_Source\PSoC5/CapSense_CSHL.c ****         else
1538:Generated_Source\PSoC5/CapSense_CSHL.c ****         {
1539:Generated_Source\PSoC5/CapSense_CSHL.c ****             /* The maximum didn't find */
1540:Generated_Source\PSoC5/CapSense_CSHL.c ****             position = 0xFFFFu;
1541:Generated_Source\PSoC5/CapSense_CSHL.c **** 
1542:Generated_Source\PSoC5/CapSense_CSHL.c ****             #if (0u != CapSense_RADIAL_SLIDERS_POS_FILTERS_MASK)
1543:Generated_Source\PSoC5/CapSense_CSHL.c ****                 /* Reset the filters */
1544:Generated_Source\PSoC5/CapSense_CSHL.c ****                 if((posFiltersMask & CapSense_ANY_POS_FILTER) != 0u)
1545:Generated_Source\PSoC5/CapSense_CSHL.c ****                 {
1546:Generated_Source\PSoC5/CapSense_CSHL.c ****                     CapSense_posFiltersData[firstTimeIndex] = 0u;
1547:Generated_Source\PSoC5/CapSense_CSHL.c ****                 }
1548:Generated_Source\PSoC5/CapSense_CSHL.c ****             #endif /* (0u != CapSense_RADIAL_SLIDERS_POS_FILTERS_MASK) */
1549:Generated_Source\PSoC5/CapSense_CSHL.c ****         }
1550:Generated_Source\PSoC5/CapSense_CSHL.c ****         
1551:Generated_Source\PSoC5/CapSense_CSHL.c ****         return (position);
1552:Generated_Source\PSoC5/CapSense_CSHL.c ****     }
1553:Generated_Source\PSoC5/CapSense_CSHL.c **** #endif
1554:Generated_Source\PSoC5/CapSense_CSHL.c **** 
1555:Generated_Source\PSoC5/CapSense_CSHL.c **** 
1556:Generated_Source\PSoC5/CapSense_CSHL.c **** #if(CapSense_TOTAL_TOUCH_PADS_COUNT > 0u)
1557:Generated_Source\PSoC5/CapSense_CSHL.c ****     /*******************************************************************************
ARM GAS  C:\Users\Tri94\AppData\Local\Temp\ccpNRt3N.s 			page 37


1558:Generated_Source\PSoC5/CapSense_CSHL.c ****     * Function Name: CapSense_GetTouchCentroidPos
1559:Generated_Source\PSoC5/CapSense_CSHL.c ****     ********************************************************************************
1560:Generated_Source\PSoC5/CapSense_CSHL.c ****     *
1561:Generated_Source\PSoC5/CapSense_CSHL.c ****     * Summary:
1562:Generated_Source\PSoC5/CapSense_CSHL.c ****     *  If a finger is present on touch pad, this function calculates the X and Y
1563:Generated_Source\PSoC5/CapSense_CSHL.c ****     *  position of the finger by calculating the centroids within touch pad specified
1564:Generated_Source\PSoC5/CapSense_CSHL.c ****     *  range. The X and Y positions are calculated to the API resolutions set in the
1565:Generated_Source\PSoC5/CapSense_CSHL.c ****     *  CapSense customizer. Returns a 1 if a finger is on the touchpad.
1566:Generated_Source\PSoC5/CapSense_CSHL.c ****     *  The position filter is applied to the result if enabled.
1567:Generated_Source\PSoC5/CapSense_CSHL.c ****     *  This function is available only if a touch pad is defined by the CapSense
1568:Generated_Source\PSoC5/CapSense_CSHL.c ****     *  customizer.
1569:Generated_Source\PSoC5/CapSense_CSHL.c ****     *
1570:Generated_Source\PSoC5/CapSense_CSHL.c ****     * Parameters:
1571:Generated_Source\PSoC5/CapSense_CSHL.c ****     *  widget:  Widget number. 
1572:Generated_Source\PSoC5/CapSense_CSHL.c ****     *  For every touchpad widget there are defines in this format:
1573:Generated_Source\PSoC5/CapSense_CSHL.c ****     *  #define CapSense_TP_"widget_name"            5
1574:Generated_Source\PSoC5/CapSense_CSHL.c ****     *
1575:Generated_Source\PSoC5/CapSense_CSHL.c ****     *  pos:     Pointer to the array of two uint16 elements, where result
1576:Generated_Source\PSoC5/CapSense_CSHL.c ****     *  result of calculation of X and Y position are stored.
1577:Generated_Source\PSoC5/CapSense_CSHL.c ****     *  pos[0u]  - position of X
1578:Generated_Source\PSoC5/CapSense_CSHL.c ****     *  pos[1u]  - position of Y
1579:Generated_Source\PSoC5/CapSense_CSHL.c ****     *
1580:Generated_Source\PSoC5/CapSense_CSHL.c ****     * Return:
1581:Generated_Source\PSoC5/CapSense_CSHL.c ****     *  Returns a 1 if a finger is on the touch pad, 0 - if not.
1582:Generated_Source\PSoC5/CapSense_CSHL.c ****     *
1583:Generated_Source\PSoC5/CapSense_CSHL.c ****     * Side Effects:
1584:Generated_Source\PSoC5/CapSense_CSHL.c ****     *   There are no checks of widget type argument provided to this function.
1585:Generated_Source\PSoC5/CapSense_CSHL.c ****     *   The unproper widget type provided will cause unexpected position
1586:Generated_Source\PSoC5/CapSense_CSHL.c ****     *   calculations.
1587:Generated_Source\PSoC5/CapSense_CSHL.c ****     *
1588:Generated_Source\PSoC5/CapSense_CSHL.c ****     * Reentrant:
1589:Generated_Source\PSoC5/CapSense_CSHL.c ****     *  No.
1590:Generated_Source\PSoC5/CapSense_CSHL.c ****     *
1591:Generated_Source\PSoC5/CapSense_CSHL.c ****     *******************************************************************************/
1592:Generated_Source\PSoC5/CapSense_CSHL.c ****     uint8 CapSense_GetTouchCentroidPos(uint8 widget, uint16* pos)
1593:Generated_Source\PSoC5/CapSense_CSHL.c **** 	                                    
1594:Generated_Source\PSoC5/CapSense_CSHL.c ****     {
1595:Generated_Source\PSoC5/CapSense_CSHL.c ****         #if (0u != CapSense_TOUCH_PADS_POS_FILTERS_MASK)
1596:Generated_Source\PSoC5/CapSense_CSHL.c ****             uint8 posXIndex;
1597:Generated_Source\PSoC5/CapSense_CSHL.c ****             uint8 posYIndex;
1598:Generated_Source\PSoC5/CapSense_CSHL.c ****             uint8 firstTimeIndex = CapSense_posFiltersData[widget];
1599:Generated_Source\PSoC5/CapSense_CSHL.c ****             uint8 posFiltersMask = CapSense_posFiltersMask[widget];
1600:Generated_Source\PSoC5/CapSense_CSHL.c ****         #endif /* (0u != CapSense_TOUCH_PADS_POS_FILTERS_MASK) */
1601:Generated_Source\PSoC5/CapSense_CSHL.c **** 
1602:Generated_Source\PSoC5/CapSense_CSHL.c ****         #if ((0u != (CapSense_MEDIAN_FILTER & CapSense_TOUCH_PADS_POS_FILTERS_MASK)) || \
1603:Generated_Source\PSoC5/CapSense_CSHL.c ****              (0u != (CapSense_AVERAGING_FILTER & CapSense_TOUCH_PADS_POS_FILTERS_MASK)))
1604:Generated_Source\PSoC5/CapSense_CSHL.c ****             uint16 tempPos;
1605:Generated_Source\PSoC5/CapSense_CSHL.c ****         #endif /* ((0u != (CapSense_MEDIAN_FILTER & CapSense_TOUCH_PADS_POS_FILTERS_MASK)) || \
1606:Generated_Source\PSoC5/CapSense_CSHL.c ****                *   (0u != (CapSense_AVERAGING_FILTER & CapSense_TOUCH_PADS_POS_FILTERS_MASK)))
1607:Generated_Source\PSoC5/CapSense_CSHL.c ****                */
1608:Generated_Source\PSoC5/CapSense_CSHL.c **** 
1609:Generated_Source\PSoC5/CapSense_CSHL.c ****         uint8 maxX;
1610:Generated_Source\PSoC5/CapSense_CSHL.c ****         uint8 maxY;
1611:Generated_Source\PSoC5/CapSense_CSHL.c ****         uint8 posX;
1612:Generated_Source\PSoC5/CapSense_CSHL.c ****         uint8 posY;
1613:Generated_Source\PSoC5/CapSense_CSHL.c ****         uint8 touch = 0u;
1614:Generated_Source\PSoC5/CapSense_CSHL.c ****         uint8 offset = CapSense_rawDataIndex[widget];
ARM GAS  C:\Users\Tri94\AppData\Local\Temp\ccpNRt3N.s 			page 38


1615:Generated_Source\PSoC5/CapSense_CSHL.c ****         uint8 count = CapSense_numberOfSensors[widget];
1616:Generated_Source\PSoC5/CapSense_CSHL.c ****         
1617:Generated_Source\PSoC5/CapSense_CSHL.c ****         /* Find Maximum within X centroid */
1618:Generated_Source\PSoC5/CapSense_CSHL.c ****         #if (CapSense_IS_DIPLEX_SLIDER)
1619:Generated_Source\PSoC5/CapSense_CSHL.c ****             maxX = CapSense_FindMaximum(offset, count, CapSense_fingerThreshold[widget], 0u);
1620:Generated_Source\PSoC5/CapSense_CSHL.c ****         #else
1621:Generated_Source\PSoC5/CapSense_CSHL.c ****             maxX = CapSense_FindMaximum(offset, count, CapSense_fingerThreshold[widget]);
1622:Generated_Source\PSoC5/CapSense_CSHL.c ****         #endif /* (CapSense_IS_DIPLEX_SLIDER) */
1623:Generated_Source\PSoC5/CapSense_CSHL.c **** 
1624:Generated_Source\PSoC5/CapSense_CSHL.c ****         if (maxX != 0xFFu)
1625:Generated_Source\PSoC5/CapSense_CSHL.c ****         {
1626:Generated_Source\PSoC5/CapSense_CSHL.c ****             offset = CapSense_rawDataIndex[widget + 1u];
1627:Generated_Source\PSoC5/CapSense_CSHL.c ****             count = CapSense_numberOfSensors[widget + 1u];
1628:Generated_Source\PSoC5/CapSense_CSHL.c **** 
1629:Generated_Source\PSoC5/CapSense_CSHL.c ****             /* Find Maximum within Y centroid */
1630:Generated_Source\PSoC5/CapSense_CSHL.c ****             #if (CapSense_IS_DIPLEX_SLIDER)
1631:Generated_Source\PSoC5/CapSense_CSHL.c ****                 maxY = CapSense_FindMaximum(offset, count, CapSense_fingerThreshold[widget + 1u], 0
1632:Generated_Source\PSoC5/CapSense_CSHL.c ****             #else
1633:Generated_Source\PSoC5/CapSense_CSHL.c ****                 maxY = CapSense_FindMaximum(offset, count, CapSense_fingerThreshold[widget + 1u]);
1634:Generated_Source\PSoC5/CapSense_CSHL.c ****             #endif /* (CapSense_IS_DIPLEX_SLIDER) */
1635:Generated_Source\PSoC5/CapSense_CSHL.c **** 
1636:Generated_Source\PSoC5/CapSense_CSHL.c ****             if (maxY != 0xFFu)
1637:Generated_Source\PSoC5/CapSense_CSHL.c ****             {
1638:Generated_Source\PSoC5/CapSense_CSHL.c ****                 /* X and Y maximums are found = true touch */
1639:Generated_Source\PSoC5/CapSense_CSHL.c ****                 touch = 1u;
1640:Generated_Source\PSoC5/CapSense_CSHL.c ****                 
1641:Generated_Source\PSoC5/CapSense_CSHL.c ****                 /* Calculate Y centroid */
1642:Generated_Source\PSoC5/CapSense_CSHL.c ****                 posY = CapSense_CalcCentroid(maxY, offset, count, 
1643:Generated_Source\PSoC5/CapSense_CSHL.c ****                             CapSense_centroidMult[widget + 1u], CapSense_noiseThreshold[widget + 1u
1644:Generated_Source\PSoC5/CapSense_CSHL.c ****                 
1645:Generated_Source\PSoC5/CapSense_CSHL.c ****                 /* Calculate X centroid */
1646:Generated_Source\PSoC5/CapSense_CSHL.c ****                 offset = CapSense_rawDataIndex[widget];
1647:Generated_Source\PSoC5/CapSense_CSHL.c ****                 count = CapSense_numberOfSensors[widget];
1648:Generated_Source\PSoC5/CapSense_CSHL.c ****                 
1649:Generated_Source\PSoC5/CapSense_CSHL.c ****                 posX = CapSense_CalcCentroid(maxX, offset, count, 
1650:Generated_Source\PSoC5/CapSense_CSHL.c ****                             CapSense_centroidMult[widget],CapSense_noiseThreshold[widget]);
1651:Generated_Source\PSoC5/CapSense_CSHL.c ****     
1652:Generated_Source\PSoC5/CapSense_CSHL.c ****                 #if (0u != CapSense_TOUCH_PADS_POS_FILTERS_MASK)
1653:Generated_Source\PSoC5/CapSense_CSHL.c ****                     /* Check if this TP has enabled filters */
1654:Generated_Source\PSoC5/CapSense_CSHL.c ****                     if (0u != (posFiltersMask & CapSense_ANY_POS_FILTER))
1655:Generated_Source\PSoC5/CapSense_CSHL.c ****                     {
1656:Generated_Source\PSoC5/CapSense_CSHL.c ****                         /* Caluclate position to store filters data */
1657:Generated_Source\PSoC5/CapSense_CSHL.c ****                         posXIndex  = firstTimeIndex + 1u;
1658:Generated_Source\PSoC5/CapSense_CSHL.c ****                         posYIndex  = CapSense_posFiltersData[widget + 1u];
1659:Generated_Source\PSoC5/CapSense_CSHL.c ****                         
1660:Generated_Source\PSoC5/CapSense_CSHL.c ****                         if (0u == CapSense_posFiltersData[firstTimeIndex])
1661:Generated_Source\PSoC5/CapSense_CSHL.c ****                         {
1662:Generated_Source\PSoC5/CapSense_CSHL.c ****                             /* Init filters */
1663:Generated_Source\PSoC5/CapSense_CSHL.c ****                             CapSense_posFiltersData[posXIndex] = posX;
1664:Generated_Source\PSoC5/CapSense_CSHL.c ****                             CapSense_posFiltersData[posYIndex] = posY;
1665:Generated_Source\PSoC5/CapSense_CSHL.c **** 
1666:Generated_Source\PSoC5/CapSense_CSHL.c ****                             #if((0u != (CapSense_MEDIAN_FILTER & \
1667:Generated_Source\PSoC5/CapSense_CSHL.c ****                                         CapSense_TOUCH_PADS_POS_FILTERS_MASK))|| \
1668:Generated_Source\PSoC5/CapSense_CSHL.c ****                                 (0u != (CapSense_AVERAGING_FILTER & \
1669:Generated_Source\PSoC5/CapSense_CSHL.c ****                                         CapSense_TOUCH_PADS_POS_FILTERS_MASK)))
1670:Generated_Source\PSoC5/CapSense_CSHL.c **** 
1671:Generated_Source\PSoC5/CapSense_CSHL.c ****                                 if ( (0u != (posFiltersMask & CapSense_MEDIAN_FILTER)) || 
ARM GAS  C:\Users\Tri94\AppData\Local\Temp\ccpNRt3N.s 			page 39


1672:Generated_Source\PSoC5/CapSense_CSHL.c ****                                      (0u != (posFiltersMask & CapSense_AVERAGING_FILTER)) )
1673:Generated_Source\PSoC5/CapSense_CSHL.c ****                                 {
1674:Generated_Source\PSoC5/CapSense_CSHL.c ****                                     CapSense_posFiltersData[posXIndex + 1u] = posX;
1675:Generated_Source\PSoC5/CapSense_CSHL.c ****                                     CapSense_posFiltersData[posYIndex + 1u] = posY;
1676:Generated_Source\PSoC5/CapSense_CSHL.c ****                                 }
1677:Generated_Source\PSoC5/CapSense_CSHL.c ****                             #endif /* ((0u != (CapSense_MEDIAN_FILTER & \
1678:Generated_Source\PSoC5/CapSense_CSHL.c ****                                    *           CapSense_TOUCH_PADS_POS_FILTERS_MASK)) || \
1679:Generated_Source\PSoC5/CapSense_CSHL.c ****                                    *    (0u != (CapSense_AVERAGING_FILTER & \
1680:Generated_Source\PSoC5/CapSense_CSHL.c ****                                    *            CapSense_TOUCH_PADS_POS_FILTERS_MASK)))
1681:Generated_Source\PSoC5/CapSense_CSHL.c ****                                    */
1682:Generated_Source\PSoC5/CapSense_CSHL.c ****                             
1683:Generated_Source\PSoC5/CapSense_CSHL.c ****                             CapSense_posFiltersData[firstTimeIndex] = 1u;
1684:Generated_Source\PSoC5/CapSense_CSHL.c ****                         }
1685:Generated_Source\PSoC5/CapSense_CSHL.c ****                         else
1686:Generated_Source\PSoC5/CapSense_CSHL.c ****                         {
1687:Generated_Source\PSoC5/CapSense_CSHL.c ****                             /* Do filtering */
1688:Generated_Source\PSoC5/CapSense_CSHL.c ****                             #if (0u != (CapSense_MEDIAN_FILTER & CapSense_TOUCH_PADS_POS_FILTERS_MA
1689:Generated_Source\PSoC5/CapSense_CSHL.c ****                                 if (0u != (posFiltersMask & CapSense_MEDIAN_FILTER))
1690:Generated_Source\PSoC5/CapSense_CSHL.c ****                                 {
1691:Generated_Source\PSoC5/CapSense_CSHL.c ****                                     tempPos = posX;
1692:Generated_Source\PSoC5/CapSense_CSHL.c ****                                     posX = (uint8) CapSense_MedianFilter(posX,
1693:Generated_Source\PSoC5/CapSense_CSHL.c ****                                                                       CapSense_posFiltersData[posXI
1694:Generated_Source\PSoC5/CapSense_CSHL.c ****                                                                       CapSense_posFiltersData[posXI
1695:Generated_Source\PSoC5/CapSense_CSHL.c ****                                     CapSense_posFiltersData[posXIndex + 1u] = 
1696:Generated_Source\PSoC5/CapSense_CSHL.c ****                                                                              CapSense_posFiltersDat
1697:Generated_Source\PSoC5/CapSense_CSHL.c ****                                     CapSense_posFiltersData[posXIndex] = tempPos;
1698:Generated_Source\PSoC5/CapSense_CSHL.c ****                                     
1699:Generated_Source\PSoC5/CapSense_CSHL.c ****                                     tempPos = posY;
1700:Generated_Source\PSoC5/CapSense_CSHL.c ****                                     posY = (uint8) CapSense_MedianFilter(posY,
1701:Generated_Source\PSoC5/CapSense_CSHL.c ****                                                                        CapSense_posFiltersData[posY
1702:Generated_Source\PSoC5/CapSense_CSHL.c ****                                                                        CapSense_posFiltersData[posY
1703:Generated_Source\PSoC5/CapSense_CSHL.c ****                                     CapSense_posFiltersData[posYIndex + 1u] = 
1704:Generated_Source\PSoC5/CapSense_CSHL.c ****                                                                              CapSense_posFiltersDat
1705:Generated_Source\PSoC5/CapSense_CSHL.c ****                                     CapSense_posFiltersData[posYIndex] = tempPos;
1706:Generated_Source\PSoC5/CapSense_CSHL.c ****                                 }
1707:Generated_Source\PSoC5/CapSense_CSHL.c ****                                 
1708:Generated_Source\PSoC5/CapSense_CSHL.c ****                             #endif /* (0u != (CapSense_MEDIAN_FILTER & \
1709:Generated_Source\PSoC5/CapSense_CSHL.c ****                                    *          CapSense_TOUCH_PADS_POS_FILTERS_MASK))
1710:Generated_Source\PSoC5/CapSense_CSHL.c ****                                    */
1711:Generated_Source\PSoC5/CapSense_CSHL.c **** 
1712:Generated_Source\PSoC5/CapSense_CSHL.c ****                             #if(0u !=(CapSense_AVERAGING_FILTER & CapSense_TOUCH_PADS_POS_FILTERS_M
1713:Generated_Source\PSoC5/CapSense_CSHL.c ****                                 if (0u != (posFiltersMask & CapSense_AVERAGING_FILTER))
1714:Generated_Source\PSoC5/CapSense_CSHL.c ****                                 {
1715:Generated_Source\PSoC5/CapSense_CSHL.c ****                                     tempPos = posX;
1716:Generated_Source\PSoC5/CapSense_CSHL.c ****                                     posX = (uint8) CapSense_AveragingFilter(posX,
1717:Generated_Source\PSoC5/CapSense_CSHL.c ****                                                                        CapSense_posFiltersData[posX
1718:Generated_Source\PSoC5/CapSense_CSHL.c ****                                                                        CapSense_posFiltersData[posX
1719:Generated_Source\PSoC5/CapSense_CSHL.c ****                                     CapSense_posFiltersData[posXIndex + 1u] = 
1720:Generated_Source\PSoC5/CapSense_CSHL.c ****                                                                              CapSense_posFiltersDat
1721:Generated_Source\PSoC5/CapSense_CSHL.c ****                                     CapSense_posFiltersData[posXIndex] = tempPos;
1722:Generated_Source\PSoC5/CapSense_CSHL.c ****                                     
1723:Generated_Source\PSoC5/CapSense_CSHL.c ****                                     tempPos = posY;
1724:Generated_Source\PSoC5/CapSense_CSHL.c ****                                     posY = (uint8) CapSense_AveragingFilter(posY, 
1725:Generated_Source\PSoC5/CapSense_CSHL.c ****                                                                       CapSense_posFiltersData[posYI
1726:Generated_Source\PSoC5/CapSense_CSHL.c ****                                                                       CapSense_posFiltersData[posYI
1727:Generated_Source\PSoC5/CapSense_CSHL.c ****                                     CapSense_posFiltersData[posYIndex + 1u] = 
1728:Generated_Source\PSoC5/CapSense_CSHL.c ****                                                                             CapSense_posFiltersData
ARM GAS  C:\Users\Tri94\AppData\Local\Temp\ccpNRt3N.s 			page 40


1729:Generated_Source\PSoC5/CapSense_CSHL.c ****                                     CapSense_posFiltersData[posYIndex] = tempPos;
1730:Generated_Source\PSoC5/CapSense_CSHL.c ****                                 }
1731:Generated_Source\PSoC5/CapSense_CSHL.c **** 
1732:Generated_Source\PSoC5/CapSense_CSHL.c ****                             #endif /* (0u != (CapSense_AVERAGING_FILTER & \
1733:Generated_Source\PSoC5/CapSense_CSHL.c ****                                    *           CapSense_TOUCH_PADS_POS_FILTERS_MASK))
1734:Generated_Source\PSoC5/CapSense_CSHL.c ****                                    */
1735:Generated_Source\PSoC5/CapSense_CSHL.c **** 
1736:Generated_Source\PSoC5/CapSense_CSHL.c ****                             #if (0u != (CapSense_IIR2_FILTER & CapSense_TOUCH_PADS_POS_FILTERS_MASK
1737:Generated_Source\PSoC5/CapSense_CSHL.c ****                                 if (0u != (posFiltersMask & CapSense_IIR2_FILTER))
1738:Generated_Source\PSoC5/CapSense_CSHL.c ****                                 {
1739:Generated_Source\PSoC5/CapSense_CSHL.c ****                                     posX = (uint8) CapSense_IIR2Filter(posX, 
1740:Generated_Source\PSoC5/CapSense_CSHL.c ****                                                                            CapSense_posFiltersData[
1741:Generated_Source\PSoC5/CapSense_CSHL.c ****                                     CapSense_posFiltersData[posXIndex] = posX;
1742:Generated_Source\PSoC5/CapSense_CSHL.c ****                                     
1743:Generated_Source\PSoC5/CapSense_CSHL.c ****                                     posY = (uint8) CapSense_IIR2Filter(posY, 
1744:Generated_Source\PSoC5/CapSense_CSHL.c ****                                                                             CapSense_posFiltersData
1745:Generated_Source\PSoC5/CapSense_CSHL.c ****                                     CapSense_posFiltersData[posYIndex] = posY;
1746:Generated_Source\PSoC5/CapSense_CSHL.c ****                                 }
1747:Generated_Source\PSoC5/CapSense_CSHL.c ****                                 
1748:Generated_Source\PSoC5/CapSense_CSHL.c ****                             #endif /* (0u != (CapSense_IIR2_FILTER & \
1749:Generated_Source\PSoC5/CapSense_CSHL.c ****                                    *          CapSense_TOUCH_PADS_POS_FILTERS_MASK))
1750:Generated_Source\PSoC5/CapSense_CSHL.c ****                                    */
1751:Generated_Source\PSoC5/CapSense_CSHL.c **** 
1752:Generated_Source\PSoC5/CapSense_CSHL.c ****                             #if (0u != (CapSense_IIR4_FILTER & CapSense_TOUCH_PADS_POS_FILTERS_MASK
1753:Generated_Source\PSoC5/CapSense_CSHL.c ****                                 if (0u != (posFiltersMask & CapSense_IIR4_FILTER))
1754:Generated_Source\PSoC5/CapSense_CSHL.c ****                                 {
1755:Generated_Source\PSoC5/CapSense_CSHL.c ****                                     posX = (uint8) CapSense_IIR4Filter((uint16)posX,
1756:Generated_Source\PSoC5/CapSense_CSHL.c ****                                                                     (uint16)CapSense_posFiltersData
1757:Generated_Source\PSoC5/CapSense_CSHL.c ****                                     CapSense_posFiltersData[posXIndex] = posX;
1758:Generated_Source\PSoC5/CapSense_CSHL.c **** 
1759:Generated_Source\PSoC5/CapSense_CSHL.c ****                                     posY = (uint8) CapSense_IIR4Filter((uint16)posY,
1760:Generated_Source\PSoC5/CapSense_CSHL.c ****                                                                     (uint16)CapSense_posFiltersData
1761:Generated_Source\PSoC5/CapSense_CSHL.c ****                                     CapSense_posFiltersData[posYIndex] = posY;
1762:Generated_Source\PSoC5/CapSense_CSHL.c ****                                 }
1763:Generated_Source\PSoC5/CapSense_CSHL.c ****                                 
1764:Generated_Source\PSoC5/CapSense_CSHL.c ****                             #endif /* (0u != (CapSense_IIR4_FILTER & \
1765:Generated_Source\PSoC5/CapSense_CSHL.c ****                                    *           CapSense_TOUCH_PADS_POS_FILTERS_MASK))
1766:Generated_Source\PSoC5/CapSense_CSHL.c ****                                    */
1767:Generated_Source\PSoC5/CapSense_CSHL.c **** 
1768:Generated_Source\PSoC5/CapSense_CSHL.c ****                             #if (0u != (CapSense_JITTER_FILTER & CapSense_TOUCH_PADS_POS_FILTERS_MA
1769:Generated_Source\PSoC5/CapSense_CSHL.c ****                                 if (0u != (posFiltersMask & CapSense_JITTER_FILTER))
1770:Generated_Source\PSoC5/CapSense_CSHL.c ****                                     {
1771:Generated_Source\PSoC5/CapSense_CSHL.c ****                                         posX = (uint8) CapSense_JitterFilter(posX, 
1772:Generated_Source\PSoC5/CapSense_CSHL.c ****                                                                             CapSense_posFiltersData
1773:Generated_Source\PSoC5/CapSense_CSHL.c ****                                         CapSense_posFiltersData[posXIndex] = posX;
1774:Generated_Source\PSoC5/CapSense_CSHL.c ****                                         
1775:Generated_Source\PSoC5/CapSense_CSHL.c ****                                         posY = (uint8) CapSense_JitterFilter(posY, 
1776:Generated_Source\PSoC5/CapSense_CSHL.c ****                                                                             CapSense_posFiltersData
1777:Generated_Source\PSoC5/CapSense_CSHL.c ****                                         CapSense_posFiltersData[posYIndex] = posY;
1778:Generated_Source\PSoC5/CapSense_CSHL.c ****                                     }
1779:Generated_Source\PSoC5/CapSense_CSHL.c ****                             #endif /* (0u != (CapSense_JITTER_FILTER & \
1780:Generated_Source\PSoC5/CapSense_CSHL.c ****                                    *           CapSense_TOUCH_PADS_POS_FILTERS_MASK))
1781:Generated_Source\PSoC5/CapSense_CSHL.c ****                                    */
1782:Generated_Source\PSoC5/CapSense_CSHL.c ****                         }
1783:Generated_Source\PSoC5/CapSense_CSHL.c ****                     }
1784:Generated_Source\PSoC5/CapSense_CSHL.c ****                 #endif /* (0u != CapSense_TOUCH_PADS_POS_FILTERS_MASK) */
1785:Generated_Source\PSoC5/CapSense_CSHL.c **** 
ARM GAS  C:\Users\Tri94\AppData\Local\Temp\ccpNRt3N.s 			page 41


1786:Generated_Source\PSoC5/CapSense_CSHL.c ****                 /* Save positions */
1787:Generated_Source\PSoC5/CapSense_CSHL.c ****                 pos[0u] = posX;
1788:Generated_Source\PSoC5/CapSense_CSHL.c ****                 pos[1u] = posY;
1789:Generated_Source\PSoC5/CapSense_CSHL.c ****             }
1790:Generated_Source\PSoC5/CapSense_CSHL.c ****         }
1791:Generated_Source\PSoC5/CapSense_CSHL.c **** 
1792:Generated_Source\PSoC5/CapSense_CSHL.c ****         #if (0u != CapSense_TOUCH_PADS_POS_FILTERS_MASK)
1793:Generated_Source\PSoC5/CapSense_CSHL.c ****             if(touch == 0u)
1794:Generated_Source\PSoC5/CapSense_CSHL.c ****             {
1795:Generated_Source\PSoC5/CapSense_CSHL.c ****                 /* Reset the filters */
1796:Generated_Source\PSoC5/CapSense_CSHL.c ****                 if ((posFiltersMask & CapSense_ANY_POS_FILTER) != 0u)
1797:Generated_Source\PSoC5/CapSense_CSHL.c ****                 {
1798:Generated_Source\PSoC5/CapSense_CSHL.c ****                     CapSense_posFiltersData[firstTimeIndex] = 0u;
1799:Generated_Source\PSoC5/CapSense_CSHL.c ****                 }
1800:Generated_Source\PSoC5/CapSense_CSHL.c ****             }
1801:Generated_Source\PSoC5/CapSense_CSHL.c ****         #endif /* (0u != CapSense_TOUCH_PADS_POS_FILTERS_MASK) */
1802:Generated_Source\PSoC5/CapSense_CSHL.c ****         
1803:Generated_Source\PSoC5/CapSense_CSHL.c ****         return (touch);
1804:Generated_Source\PSoC5/CapSense_CSHL.c ****     }
1805:Generated_Source\PSoC5/CapSense_CSHL.c **** #endif /* (CapSense_TOTAL_TOUCH_PADS_COUNT > 0u) */
1806:Generated_Source\PSoC5/CapSense_CSHL.c **** 
1807:Generated_Source\PSoC5/CapSense_CSHL.c **** 
1808:Generated_Source\PSoC5/CapSense_CSHL.c **** #if ( (CapSense_RAW_FILTER_MASK & CapSense_MEDIAN_FILTER) | \
1809:Generated_Source\PSoC5/CapSense_CSHL.c ****       (CapSense_POS_FILTERS_MASK & CapSense_MEDIAN_FILTER) )
1810:Generated_Source\PSoC5/CapSense_CSHL.c ****     /*******************************************************************************
1811:Generated_Source\PSoC5/CapSense_CSHL.c ****     * Function Name: CapSense_MedianFilter
1812:Generated_Source\PSoC5/CapSense_CSHL.c ****     ********************************************************************************
1813:Generated_Source\PSoC5/CapSense_CSHL.c ****     *
1814:Generated_Source\PSoC5/CapSense_CSHL.c ****     * Summary:
1815:Generated_Source\PSoC5/CapSense_CSHL.c ****     *  Median filter function. 
1816:Generated_Source\PSoC5/CapSense_CSHL.c ****     *  The median filter looks at the three most recent samples and reports the 
1817:Generated_Source\PSoC5/CapSense_CSHL.c ****     *  median value.
1818:Generated_Source\PSoC5/CapSense_CSHL.c ****     *
1819:Generated_Source\PSoC5/CapSense_CSHL.c ****     * Parameters:
1820:Generated_Source\PSoC5/CapSense_CSHL.c ****     *  x1:  Current value.
1821:Generated_Source\PSoC5/CapSense_CSHL.c ****     *  x2:  Previous value.
1822:Generated_Source\PSoC5/CapSense_CSHL.c ****     *  x3:  Before previous value.
1823:Generated_Source\PSoC5/CapSense_CSHL.c ****     *
1824:Generated_Source\PSoC5/CapSense_CSHL.c ****     * Return:
1825:Generated_Source\PSoC5/CapSense_CSHL.c ****     *  Returns filtered value.
1826:Generated_Source\PSoC5/CapSense_CSHL.c ****     *
1827:Generated_Source\PSoC5/CapSense_CSHL.c ****     *******************************************************************************/
1828:Generated_Source\PSoC5/CapSense_CSHL.c ****     uint16 CapSense_MedianFilter(uint16 x1, uint16 x2, uint16 x3)
1829:Generated_Source\PSoC5/CapSense_CSHL.c ****                                          
1830:Generated_Source\PSoC5/CapSense_CSHL.c ****     {
1831:Generated_Source\PSoC5/CapSense_CSHL.c ****         uint16 tmp;
1832:Generated_Source\PSoC5/CapSense_CSHL.c ****         
1833:Generated_Source\PSoC5/CapSense_CSHL.c ****         if (x1 > x2)
1834:Generated_Source\PSoC5/CapSense_CSHL.c ****         {
1835:Generated_Source\PSoC5/CapSense_CSHL.c ****             tmp = x2;
1836:Generated_Source\PSoC5/CapSense_CSHL.c ****             x2 = x1;
1837:Generated_Source\PSoC5/CapSense_CSHL.c ****             x1 = tmp;
1838:Generated_Source\PSoC5/CapSense_CSHL.c ****         }
1839:Generated_Source\PSoC5/CapSense_CSHL.c ****         
1840:Generated_Source\PSoC5/CapSense_CSHL.c ****         if (x2 > x3)
1841:Generated_Source\PSoC5/CapSense_CSHL.c ****         {
1842:Generated_Source\PSoC5/CapSense_CSHL.c ****             x2 = x3;
ARM GAS  C:\Users\Tri94\AppData\Local\Temp\ccpNRt3N.s 			page 42


1843:Generated_Source\PSoC5/CapSense_CSHL.c ****         }
1844:Generated_Source\PSoC5/CapSense_CSHL.c ****         
1845:Generated_Source\PSoC5/CapSense_CSHL.c ****         return ((x1 > x2) ? x1 : x2);
1846:Generated_Source\PSoC5/CapSense_CSHL.c ****     }
1847:Generated_Source\PSoC5/CapSense_CSHL.c **** #endif /* ( (CapSense_RAW_FILTER_MASK & CapSense_MEDIAN_FILTER) | \
1848:Generated_Source\PSoC5/CapSense_CSHL.c ****        *    (CapSense_POS_FILTERS_MASK & CapSense_MEDIAN_FILTER) )
1849:Generated_Source\PSoC5/CapSense_CSHL.c ****        */
1850:Generated_Source\PSoC5/CapSense_CSHL.c **** 
1851:Generated_Source\PSoC5/CapSense_CSHL.c **** 
1852:Generated_Source\PSoC5/CapSense_CSHL.c **** #if ( (CapSense_RAW_FILTER_MASK & CapSense_AVERAGING_FILTER) | \
1853:Generated_Source\PSoC5/CapSense_CSHL.c ****       (CapSense_POS_FILTERS_MASK & CapSense_AVERAGING_FILTER) )
1854:Generated_Source\PSoC5/CapSense_CSHL.c ****     /*******************************************************************************
1855:Generated_Source\PSoC5/CapSense_CSHL.c ****     * Function Name: CapSense_AveragingFilter
1856:Generated_Source\PSoC5/CapSense_CSHL.c ****     ********************************************************************************
1857:Generated_Source\PSoC5/CapSense_CSHL.c ****     *
1858:Generated_Source\PSoC5/CapSense_CSHL.c ****     * Summary:
1859:Generated_Source\PSoC5/CapSense_CSHL.c ****     *  Averaging filter function.
1860:Generated_Source\PSoC5/CapSense_CSHL.c ****     *  The averaging filter looks at the three most recent samples of position and
1861:Generated_Source\PSoC5/CapSense_CSHL.c ****     *  reports the averaging value.
1862:Generated_Source\PSoC5/CapSense_CSHL.c ****     *
1863:Generated_Source\PSoC5/CapSense_CSHL.c ****     * Parameters:
1864:Generated_Source\PSoC5/CapSense_CSHL.c ****     *  x1:  Current value.
1865:Generated_Source\PSoC5/CapSense_CSHL.c ****     *  x2:  Previous value.
1866:Generated_Source\PSoC5/CapSense_CSHL.c ****     *  x3:  Before previous value.
1867:Generated_Source\PSoC5/CapSense_CSHL.c ****     *
1868:Generated_Source\PSoC5/CapSense_CSHL.c ****     * Return:
1869:Generated_Source\PSoC5/CapSense_CSHL.c ****     *  Returns filtered value.
1870:Generated_Source\PSoC5/CapSense_CSHL.c ****     *
1871:Generated_Source\PSoC5/CapSense_CSHL.c ****     *******************************************************************************/
1872:Generated_Source\PSoC5/CapSense_CSHL.c ****     uint16 CapSense_AveragingFilter(uint16 x1, uint16 x2, uint16 x3)
1873:Generated_Source\PSoC5/CapSense_CSHL.c ****                                             
1874:Generated_Source\PSoC5/CapSense_CSHL.c ****     {
1875:Generated_Source\PSoC5/CapSense_CSHL.c ****         uint32 tmp = ((uint32)x1 + (uint32)x2 + (uint32)x3) / 3u;
1876:Generated_Source\PSoC5/CapSense_CSHL.c ****         
1877:Generated_Source\PSoC5/CapSense_CSHL.c ****         return ((uint16) tmp);
1878:Generated_Source\PSoC5/CapSense_CSHL.c ****     }
1879:Generated_Source\PSoC5/CapSense_CSHL.c **** #endif /* ( (CapSense_RAW_FILTER_MASK & CapSense_AVERAGING_FILTER) | \
1880:Generated_Source\PSoC5/CapSense_CSHL.c ****        *    (CapSense_POS_FILTERS_MASK & CapSense_AVERAGING_FILTER) )
1881:Generated_Source\PSoC5/CapSense_CSHL.c ****        */
1882:Generated_Source\PSoC5/CapSense_CSHL.c **** 
1883:Generated_Source\PSoC5/CapSense_CSHL.c **** 
1884:Generated_Source\PSoC5/CapSense_CSHL.c **** #if ( (CapSense_RAW_FILTER_MASK & CapSense_IIR2_FILTER) | \
1885:Generated_Source\PSoC5/CapSense_CSHL.c ****       (CapSense_POS_FILTERS_MASK & CapSense_IIR2_FILTER) )
1886:Generated_Source\PSoC5/CapSense_CSHL.c ****     /*******************************************************************************
1887:Generated_Source\PSoC5/CapSense_CSHL.c ****     * Function Name: CapSense_IIR2Filter
1888:Generated_Source\PSoC5/CapSense_CSHL.c ****     ********************************************************************************
1889:Generated_Source\PSoC5/CapSense_CSHL.c ****     *
1890:Generated_Source\PSoC5/CapSense_CSHL.c ****     * Summary:
1891:Generated_Source\PSoC5/CapSense_CSHL.c ****     *  IIR1/2 filter function. IIR1/2 = 1/2current + 1/2previous.
1892:Generated_Source\PSoC5/CapSense_CSHL.c ****     *
1893:Generated_Source\PSoC5/CapSense_CSHL.c ****     * Parameters:
1894:Generated_Source\PSoC5/CapSense_CSHL.c ****     *  x1:  Current value.
1895:Generated_Source\PSoC5/CapSense_CSHL.c ****     *  x2:  Previous value.
1896:Generated_Source\PSoC5/CapSense_CSHL.c ****     *
1897:Generated_Source\PSoC5/CapSense_CSHL.c ****     * Return:
1898:Generated_Source\PSoC5/CapSense_CSHL.c ****     *  Returns filtered value.
1899:Generated_Source\PSoC5/CapSense_CSHL.c ****     *
ARM GAS  C:\Users\Tri94\AppData\Local\Temp\ccpNRt3N.s 			page 43


1900:Generated_Source\PSoC5/CapSense_CSHL.c ****     *******************************************************************************/
1901:Generated_Source\PSoC5/CapSense_CSHL.c ****     uint16 CapSense_IIR2Filter(uint16 x1, uint16 x2)
1902:Generated_Source\PSoC5/CapSense_CSHL.c ****                                        
1903:Generated_Source\PSoC5/CapSense_CSHL.c ****     {
1904:Generated_Source\PSoC5/CapSense_CSHL.c ****         uint32 tmp;
1905:Generated_Source\PSoC5/CapSense_CSHL.c ****         
1906:Generated_Source\PSoC5/CapSense_CSHL.c ****         /* IIR = 1/2 Current Value+ 1/2 Previous Value */
1907:Generated_Source\PSoC5/CapSense_CSHL.c ****         tmp = (uint32)x1 + (uint32)x2;
1908:Generated_Source\PSoC5/CapSense_CSHL.c ****         tmp >>= 1u;
1909:Generated_Source\PSoC5/CapSense_CSHL.c ****     
1910:Generated_Source\PSoC5/CapSense_CSHL.c ****         return ((uint16) tmp);
1911:Generated_Source\PSoC5/CapSense_CSHL.c ****     }
1912:Generated_Source\PSoC5/CapSense_CSHL.c **** #endif /* ( (CapSense_RAW_FILTER_MASK & CapSense_IIR2_FILTER) | \
1913:Generated_Source\PSoC5/CapSense_CSHL.c ****        *    (CapSense_POS_FILTERS_MASK & CapSense_IIR2_FILTER) )
1914:Generated_Source\PSoC5/CapSense_CSHL.c ****        */
1915:Generated_Source\PSoC5/CapSense_CSHL.c **** 
1916:Generated_Source\PSoC5/CapSense_CSHL.c **** 
1917:Generated_Source\PSoC5/CapSense_CSHL.c **** #if ( (CapSense_RAW_FILTER_MASK & CapSense_IIR4_FILTER) | \
1918:Generated_Source\PSoC5/CapSense_CSHL.c ****       (CapSense_POS_FILTERS_MASK & CapSense_IIR4_FILTER) )
1919:Generated_Source\PSoC5/CapSense_CSHL.c ****     /*******************************************************************************
1920:Generated_Source\PSoC5/CapSense_CSHL.c ****     * Function Name: CapSense_IIR4Filter
1921:Generated_Source\PSoC5/CapSense_CSHL.c ****     ********************************************************************************
1922:Generated_Source\PSoC5/CapSense_CSHL.c ****     *
1923:Generated_Source\PSoC5/CapSense_CSHL.c ****     * Summary:
1924:Generated_Source\PSoC5/CapSense_CSHL.c ****     *  IIR1/4 filter function. IIR1/4 = 1/4current + 3/4previous.
1925:Generated_Source\PSoC5/CapSense_CSHL.c ****     *
1926:Generated_Source\PSoC5/CapSense_CSHL.c ****     * Parameters:
1927:Generated_Source\PSoC5/CapSense_CSHL.c ****     *  x1:  Current value.
1928:Generated_Source\PSoC5/CapSense_CSHL.c ****     *  x2:  Previous value.
1929:Generated_Source\PSoC5/CapSense_CSHL.c ****     *
1930:Generated_Source\PSoC5/CapSense_CSHL.c ****     * Return:
1931:Generated_Source\PSoC5/CapSense_CSHL.c ****     *  Returns filtered value.
1932:Generated_Source\PSoC5/CapSense_CSHL.c ****     *
1933:Generated_Source\PSoC5/CapSense_CSHL.c ****     *******************************************************************************/
1934:Generated_Source\PSoC5/CapSense_CSHL.c ****     uint16 CapSense_IIR4Filter(uint16 x1, uint16 x2)
1935:Generated_Source\PSoC5/CapSense_CSHL.c ****                                        
1936:Generated_Source\PSoC5/CapSense_CSHL.c ****     {
 490              		.loc 1 1936 0
 491              		.cfi_startproc
 492              		@ args = 0, pretend = 0, frame = 0
 493              		@ frame_needed = 0, uses_anonymous_args = 0
 494              		@ link register save eliminated.
 495              	.LVL49:
1937:Generated_Source\PSoC5/CapSense_CSHL.c ****         uint32 tmp;
1938:Generated_Source\PSoC5/CapSense_CSHL.c ****         
1939:Generated_Source\PSoC5/CapSense_CSHL.c ****         /* IIR = 1/4 Current Value + 3/4 Previous Value */
1940:Generated_Source\PSoC5/CapSense_CSHL.c ****         tmp = (uint32)x1 + (uint32)x2;
 496              		.loc 1 1940 0
 497 0000 0844     		add	r0, r0, r1
 498              	.LVL50:
1941:Generated_Source\PSoC5/CapSense_CSHL.c ****         tmp += ((uint32)x2 << 1u);
 499              		.loc 1 1941 0
 500 0002 00EB4100 		add	r0, r0, r1, lsl #1
 501              	.LVL51:
1942:Generated_Source\PSoC5/CapSense_CSHL.c ****         tmp >>= 2u;
1943:Generated_Source\PSoC5/CapSense_CSHL.c ****         
1944:Generated_Source\PSoC5/CapSense_CSHL.c ****         return ((uint16) tmp);
ARM GAS  C:\Users\Tri94\AppData\Local\Temp\ccpNRt3N.s 			page 44


1945:Generated_Source\PSoC5/CapSense_CSHL.c ****     }
 502              		.loc 1 1945 0
 503 0006 C0F38F00 		ubfx	r0, r0, #2, #16
 504              	.LVL52:
 505 000a 7047     		bx	lr
 506              		.cfi_endproc
 507              	.LFE11:
 508              		.size	CapSense_IIR4Filter, .-CapSense_IIR4Filter
 509              		.section	.text.CapSense_UpdateSensorBaseline,"ax",%progbits
 510              		.align	2
 511              		.global	CapSense_UpdateSensorBaseline
 512              		.thumb
 513              		.thumb_func
 514              		.type	CapSense_UpdateSensorBaseline, %function
 515              	CapSense_UpdateSensorBaseline:
 516              	.LFB4:
 348:Generated_Source\PSoC5/CapSense_CSHL.c ****     uint32 calc;
 517              		.loc 1 348 0
 518              		.cfi_startproc
 519              		@ args = 0, pretend = 0, frame = 0
 520              		@ frame_needed = 0, uses_anonymous_args = 0
 521              	.LVL53:
 522 0000 2DE9F041 		push	{r4, r5, r6, r7, r8, lr}
 523              		.cfi_def_cfa_offset 24
 524              		.cfi_offset 4, -24
 525              		.cfi_offset 5, -20
 526              		.cfi_offset 6, -16
 527              		.cfi_offset 7, -12
 528              		.cfi_offset 8, -8
 529              		.cfi_offset 14, -4
 530 0004 0446     		mov	r4, r0
 352:Generated_Source\PSoC5/CapSense_CSHL.c ****     uint8 noiseThreshold = CapSense_noiseThreshold[widget];
 531              		.loc 1 352 0
 532 0006 314B     		ldr	r3, .L57
 533 0008 1B5C     		ldrb	r3, [r3, r0]	@ zero_extendqisi2
 534              	.LVL54:
 353:Generated_Source\PSoC5/CapSense_CSHL.c ****     
 535              		.loc 1 353 0
 536 000a 314A     		ldr	r2, .L57+4
 537 000c 1344     		add	r3, r3, r2
 538              	.LVL55:
 539 000e 1E7B     		ldrb	r6, [r3, #12]	@ zero_extendqisi2
 540              	.LVL56:
 382:Generated_Source\PSoC5/CapSense_CSHL.c ****         CapSense_rawFilterData1[sensor] = filteredRawData;
 541              		.loc 1 382 0
 542 0010 304D     		ldr	r5, .L57+8
 543 0012 35F81010 		ldrh	r1, [r5, r0, lsl #1]
 544 0016 304B     		ldr	r3, .L57+12
 545              	.LVL57:
 546 0018 33F81000 		ldrh	r0, [r3, r0, lsl #1]
 547              	.LVL58:
 548 001c FFF7FEFF 		bl	CapSense_IIR4Filter
 549              	.LVL59:
 550 0020 0746     		mov	r7, r0
 551              	.LVL60:
 383:Generated_Source\PSoC5/CapSense_CSHL.c ****             
 552              		.loc 1 383 0
ARM GAS  C:\Users\Tri94\AppData\Local\Temp\ccpNRt3N.s 			page 45


 553 0022 25F81400 		strh	r0, [r5, r4, lsl #1]	@ movhi
 402:Generated_Source\PSoC5/CapSense_CSHL.c ****     #endif /* (CapSense_TUNING_METHOD == CapSense_AUTO_TUNING) */
 554              		.loc 1 402 0
 555 0026 2046     		mov	r0, r4
 556              	.LVL61:
 557 0028 FFF7FEFF 		bl	CapSense_CalculateThresholds
 558              	.LVL62:
 408:Generated_Source\PSoC5/CapSense_CSHL.c ****     {
 559              		.loc 1 408 0
 560 002c 2B4B     		ldr	r3, .L57+16
 561 002e 33F81420 		ldrh	r2, [r3, r4, lsl #1]
 562 0032 9742     		cmp	r7, r2
 563 0034 04D3     		bcc	.L47
 410:Generated_Source\PSoC5/CapSense_CSHL.c ****         widget = 1u;    /* Positive difference - Calculate the Signal */
 564              		.loc 1 410 0
 565 0036 BD1A     		subs	r5, r7, r2
 566 0038 ADB2     		uxth	r5, r5
 567              	.LVL63:
 411:Generated_Source\PSoC5/CapSense_CSHL.c ****     }
 568              		.loc 1 411 0
 569 003a 4FF00108 		mov	r8, #1
 570 003e 03E0     		b	.L48
 571              	.LVL64:
 572              	.L47:
 415:Generated_Source\PSoC5/CapSense_CSHL.c ****         widget = 0u;    /* Negative difference - Do NOT calculate the Signal */
 573              		.loc 1 415 0
 574 0040 D51B     		subs	r5, r2, r7
 575 0042 ADB2     		uxth	r5, r5
 576              	.LVL65:
 416:Generated_Source\PSoC5/CapSense_CSHL.c ****     }
 577              		.loc 1 416 0
 578 0044 4FF00008 		mov	r8, #0
 579              	.LVL66:
 580              	.L48:
 419:Generated_Source\PSoC5/CapSense_CSHL.c ****     {
 581              		.loc 1 419 0
 582 0048 B8F1000F 		cmp	r8, #0
 583 004c 10D1     		bne	.L49
 419:Generated_Source\PSoC5/CapSense_CSHL.c ****     {
 584              		.loc 1 419 0 is_stmt 0 discriminator 1
 585 004e 142D     		cmp	r5, #20
 586 0050 0ED9     		bls	.L49
 421:Generated_Source\PSoC5/CapSense_CSHL.c ****         {
 587              		.loc 1 421 0 is_stmt 1
 588 0052 234B     		ldr	r3, .L57+20
 589 0054 1B5D     		ldrb	r3, [r3, r4]	@ zero_extendqisi2
 590 0056 042B     		cmp	r3, #4
 591 0058 06D9     		bls	.L50
 423:Generated_Source\PSoC5/CapSense_CSHL.c ****             CapSense_lowBaselineResetCnt[sensor] = 0u;
 592              		.loc 1 423 0
 593 005a 2046     		mov	r0, r4
 594 005c FFF7FEFF 		bl	CapSense_BaseInit
 595              	.LVL67:
 424:Generated_Source\PSoC5/CapSense_CSHL.c ****         }
 596              		.loc 1 424 0
 597 0060 0022     		movs	r2, #0
 598 0062 1F4B     		ldr	r3, .L57+20
ARM GAS  C:\Users\Tri94\AppData\Local\Temp\ccpNRt3N.s 			page 46


 599 0064 1A55     		strb	r2, [r3, r4]
 600 0066 1AE0     		b	.L51
 601              	.L50:
 428:Generated_Source\PSoC5/CapSense_CSHL.c ****         }
 602              		.loc 1 428 0
 603 0068 0133     		adds	r3, r3, #1
 604 006a 1D4A     		ldr	r2, .L57+20
 605 006c 1355     		strb	r3, [r2, r4]
 606 006e 16E0     		b	.L51
 607              	.L49:
 435:Generated_Source\PSoC5/CapSense_CSHL.c ****                  ((tempRaw < (uint16) CapSense_NEGATIVE_NOISE_THRESHOLD)
 608              		.loc 1 435 0
 609 0070 B3B2     		uxth	r3, r6
 610 0072 9D42     		cmp	r5, r3
 611 0074 04D9     		bls	.L52
 435:Generated_Source\PSoC5/CapSense_CSHL.c ****                  ((tempRaw < (uint16) CapSense_NEGATIVE_NOISE_THRESHOLD)
 612              		.loc 1 435 0 is_stmt 0 discriminator 1
 613 0076 132D     		cmp	r5, #19
 614 0078 11D8     		bhi	.L51
 437:Generated_Source\PSoC5/CapSense_CSHL.c ****             {
 615              		.loc 1 437 0 is_stmt 1
 616 007a B8F1000F 		cmp	r8, #0
 617 007e 0ED1     		bne	.L51
 618              	.L52:
 619              	.LVL68:
 442:Generated_Source\PSoC5/CapSense_CSHL.c **** 
 620              		.loc 1 442 0
 621 0080 1849     		ldr	r1, .L57+24
 622 0082 0B5D     		ldrb	r3, [r1, r4]	@ zero_extendqisi2
 623 0084 43EA0223 		orr	r3, r3, r2, lsl #8
 624              	.LVL69:
 445:Generated_Source\PSoC5/CapSense_CSHL.c **** 
 625              		.loc 1 445 0
 626 0088 1F44     		add	r7, r7, r3
 627              	.LVL70:
 448:Generated_Source\PSoC5/CapSense_CSHL.c **** 
 628              		.loc 1 448 0
 629 008a BF1A     		subs	r7, r7, r2
 630              	.LVL71:
 451:Generated_Source\PSoC5/CapSense_CSHL.c ****                 CapSense_sensorBaselineLow[sensor] = ((uint8) calc);
 631              		.loc 1 451 0
 632 008c C7F30F22 		ubfx	r2, r7, #8, #16
 633 0090 124B     		ldr	r3, .L57+16
 634 0092 23F81420 		strh	r2, [r3, r4, lsl #1]	@ movhi
 452:Generated_Source\PSoC5/CapSense_CSHL.c **** 
 635              		.loc 1 452 0
 636 0096 0F55     		strb	r7, [r1, r4]
 454:Generated_Source\PSoC5/CapSense_CSHL.c ****         #if (CapSense_AUTO_RESET == CapSense_AUTO_RESET_DISABLE)
 637              		.loc 1 454 0
 638 0098 0022     		movs	r2, #0
 639 009a 114B     		ldr	r3, .L57+20
 640 009c 1A55     		strb	r2, [r3, r4]
 641              	.LVL72:
 642              	.L51:
 461:Generated_Source\PSoC5/CapSense_CSHL.c ****     {
 643              		.loc 1 461 0
 644 009e B6B2     		uxth	r6, r6
ARM GAS  C:\Users\Tri94\AppData\Local\Temp\ccpNRt3N.s 			page 47


 645              	.LVL73:
 646 00a0 B542     		cmp	r5, r6
 647 00a2 0DD9     		bls	.L53
 461:Generated_Source\PSoC5/CapSense_CSHL.c ****     {
 648              		.loc 1 461 0 is_stmt 0 discriminator 1
 649 00a4 B8F1000F 		cmp	r8, #0
 650 00a8 0AD0     		beq	.L53
 465:Generated_Source\PSoC5/CapSense_CSHL.c ****             {
 651              		.loc 1 465 0 is_stmt 1
 652 00aa FF2D     		cmp	r5, #255
 653 00ac 04D9     		bls	.L54
 467:Generated_Source\PSoC5/CapSense_CSHL.c ****             }    
 654              		.loc 1 467 0
 655 00ae FF22     		movs	r2, #255
 656 00b0 0D4B     		ldr	r3, .L57+28
 657 00b2 1A55     		strb	r2, [r3, r4]
 658 00b4 BDE8F081 		pop	{r4, r5, r6, r7, r8, pc}
 659              	.LVL74:
 660              	.L54:
 471:Generated_Source\PSoC5/CapSense_CSHL.c ****             }
 661              		.loc 1 471 0
 662 00b8 0B4B     		ldr	r3, .L57+28
 663 00ba 1D55     		strb	r5, [r3, r4]
 664 00bc BDE8F081 		pop	{r4, r5, r6, r7, r8, pc}
 665              	.LVL75:
 666              	.L53:
 480:Generated_Source\PSoC5/CapSense_CSHL.c ****     }
 667              		.loc 1 480 0
 668 00c0 0022     		movs	r2, #0
 669 00c2 094B     		ldr	r3, .L57+28
 670 00c4 1A55     		strb	r2, [r3, r4]
 671 00c6 BDE8F081 		pop	{r4, r5, r6, r7, r8, pc}
 672              	.LVL76:
 673              	.L58:
 674 00ca 00BF     		.align	2
 675              	.L57:
 676 00cc 00000000 		.word	CapSense_widgetNumber
 677 00d0 00000000 		.word	.LANCHOR0
 678 00d4 00000000 		.word	CapSense_rawFilterData1
 679 00d8 00000000 		.word	CapSense_sensorRaw
 680 00dc 00000000 		.word	CapSense_sensorBaseline
 681 00e0 00000000 		.word	CapSense_lowBaselineResetCnt
 682 00e4 00000000 		.word	CapSense_sensorBaselineLow
 683 00e8 00000000 		.word	CapSense_sensorSignal
 684              		.cfi_endproc
 685              	.LFE4:
 686              		.size	CapSense_UpdateSensorBaseline, .-CapSense_UpdateSensorBaseline
 687              		.section	.text.CapSense_UpdateEnabledBaselines,"ax",%progbits
 688              		.align	2
 689              		.global	CapSense_UpdateEnabledBaselines
 690              		.thumb
 691              		.thumb_func
 692              		.type	CapSense_UpdateEnabledBaselines, %function
 693              	CapSense_UpdateEnabledBaselines:
 694              	.LFB5:
 521:Generated_Source\PSoC5/CapSense_CSHL.c ****     uint8 i;
 695              		.loc 1 521 0
ARM GAS  C:\Users\Tri94\AppData\Local\Temp\ccpNRt3N.s 			page 48


 696              		.cfi_startproc
 697              		@ args = 0, pretend = 0, frame = 0
 698              		@ frame_needed = 0, uses_anonymous_args = 0
 699 0000 10B5     		push	{r4, lr}
 700              		.cfi_def_cfa_offset 8
 701              		.cfi_offset 4, -8
 702              		.cfi_offset 14, -4
 703              	.LVL77:
 526:Generated_Source\PSoC5/CapSense_CSHL.c ****     {
 704              		.loc 1 526 0
 705 0002 0024     		movs	r4, #0
 706 0004 0DE0     		b	.L60
 707              	.LVL78:
 708              	.L62:
 528:Generated_Source\PSoC5/CapSense_CSHL.c ****         enMask = (uint8)(0x01u << (i & 0x07u));
 709              		.loc 1 528 0
 710 0006 E208     		lsrs	r2, r4, #3
 529:Generated_Source\PSoC5/CapSense_CSHL.c ****         if((CapSense_sensorEnableMask[pos] & enMask) != 0u)
 711              		.loc 1 529 0
 712 0008 04F00701 		and	r1, r4, #7
 713 000c 0123     		movs	r3, #1
 714 000e 8B40     		lsls	r3, r3, r1
 715              	.LVL79:
 530:Generated_Source\PSoC5/CapSense_CSHL.c ****         {
 716              		.loc 1 530 0
 717 0010 0549     		ldr	r1, .L64
 718 0012 8A5C     		ldrb	r2, [r1, r2]	@ zero_extendqisi2
 719 0014 1342     		tst	r3, r2
 720 0016 02D0     		beq	.L61
 532:Generated_Source\PSoC5/CapSense_CSHL.c ****         }
 721              		.loc 1 532 0
 722 0018 2046     		mov	r0, r4
 723 001a FFF7FEFF 		bl	CapSense_UpdateSensorBaseline
 724              	.LVL80:
 725              	.L61:
 526:Generated_Source\PSoC5/CapSense_CSHL.c ****     {
 726              		.loc 1 526 0 discriminator 2
 727 001e 0134     		adds	r4, r4, #1
 728              	.LVL81:
 729 0020 E4B2     		uxtb	r4, r4
 730              	.LVL82:
 731              	.L60:
 526:Generated_Source\PSoC5/CapSense_CSHL.c ****     {
 732              		.loc 1 526 0 is_stmt 0 discriminator 1
 733 0022 002C     		cmp	r4, #0
 734 0024 EFD0     		beq	.L62
 535:Generated_Source\PSoC5/CapSense_CSHL.c **** 
 735              		.loc 1 535 0 is_stmt 1
 736 0026 10BD     		pop	{r4, pc}
 737              	.LVL83:
 738              	.L65:
 739              		.align	2
 740              	.L64:
 741 0028 00000000 		.word	CapSense_sensorEnableMask
 742              		.cfi_endproc
 743              	.LFE5:
 744              		.size	CapSense_UpdateEnabledBaselines, .-CapSense_UpdateEnabledBaselines
ARM GAS  C:\Users\Tri94\AppData\Local\Temp\ccpNRt3N.s 			page 49


 745              		.global	CapSense_numberOfSensors
 746              		.global	CapSense_rawDataIndex
 747              		.global	CapSense_debounceCounter
 748              		.global	CapSense_debounce
 749              		.global	CapSense_hysteresis
 750              		.global	CapSense_noiseThreshold
 751              		.global	CapSense_fingerThreshold
 752              		.comm	CapSense_lowBaselineResetCnt,1,4
 753              		.comm	CapSense_sensorOnMask,1,4
 754              		.comm	CapSense_sensorSignal,1,4
 755              		.comm	CapSense_sensorBaselineLow,1,4
 756              		.comm	CapSense_sensorBaseline,2,4
 757              		.comm	CapSense_rawFilterData1,2,4
 758              		.section	.rodata
 759              		.align	2
 760              		.type	CapSense_numberOfSensors, %object
 761              		.size	CapSense_numberOfSensors, 1
 762              	CapSense_numberOfSensors:
 763 0000 01       		.byte	1
 764 0001 000000   		.space	3
 765              		.type	CapSense_rawDataIndex, %object
 766              		.size	CapSense_rawDataIndex, 1
 767              	CapSense_rawDataIndex:
 768 0004 00       		.space	1
 769              		.data
 770              		.align	2
 771              		.set	.LANCHOR0,. + 0
 772              		.type	CapSense_debounce, %object
 773              		.size	CapSense_debounce, 1
 774              	CapSense_debounce:
 775 0000 01       		.byte	1
 776 0001 000000   		.space	3
 777              		.type	CapSense_fingerThreshold, %object
 778              		.size	CapSense_fingerThreshold, 1
 779              	CapSense_fingerThreshold:
 780 0004 64       		.byte	100
 781 0005 000000   		.space	3
 782              		.type	CapSense_hysteresis, %object
 783              		.size	CapSense_hysteresis, 1
 784              	CapSense_hysteresis:
 785 0008 0A       		.byte	10
 786 0009 000000   		.space	3
 787              		.type	CapSense_noiseThreshold, %object
 788              		.size	CapSense_noiseThreshold, 1
 789              	CapSense_noiseThreshold:
 790 000c 14       		.byte	20
 791              		.bss
 792              		.align	2
 793              		.set	.LANCHOR1,. + 0
 794              		.type	CapSense_debounceCounter, %object
 795              		.size	CapSense_debounceCounter, 2
 796              	CapSense_debounceCounter:
 797 0000 0000     		.space	2
 798              		.text
 799              	.Letext0:
 800              		.file 2 "Generated_Source\\PSoC5\\cytypes.h"
 801              		.file 3 "Generated_Source\\PSoC5\\CapSense.h"
ARM GAS  C:\Users\Tri94\AppData\Local\Temp\ccpNRt3N.s 			page 50


 802              		.file 4 "Generated_Source\\PSoC5\\CapSense_CSHL.h"