ARM GAS  C:\Users\Tri94\AppData\Local\Temp\cc2hlLap.s 			page 1


   1              		.syntax unified
   2              		.cpu cortex-m3
   3              		.fpu softvfp
   4              		.eabi_attribute 20, 1
   5              		.eabi_attribute 21, 1
   6              		.eabi_attribute 23, 3
   7              		.eabi_attribute 24, 1
   8              		.eabi_attribute 25, 1
   9              		.eabi_attribute 26, 1
  10              		.eabi_attribute 30, 1
  11              		.eabi_attribute 34, 1
  12              		.eabi_attribute 18, 4
  13              		.thumb
  14              		.syntax unified
  15              		.file	"main.c"
  16              		.text
  17              	.Ltext0:
  18              		.cfi_sections	.debug_frame
  19              		.section	.text.myISR_UART,"ax",%progbits
  20              		.align	2
  21              		.global	myISR_UART
  22              		.thumb
  23              		.thumb_func
  24              		.type	myISR_UART, %function
  25              	myISR_UART:
  26              	.LFB71:
  27              		.file 1 "main.c"
   1:main.c        **** /* ========================================
   2:main.c        ****  *
   3:main.c        ****  * Copyright YOUR COMPANY, THE YEAR
   4:main.c        ****  * All Rights Reserved
   5:main.c        ****  * UNPUBLISHED, LICENSED SOFTWARE.
   6:main.c        ****  *
   7:main.c        ****  * CONFIDENTIAL AND PROPRIETARY INFORMATION
   8:main.c        ****  * WHICH IS THE PROPERTY OF your company.
   9:main.c        ****  *
  10:main.c        ****  * ========================================
  11:main.c        **** */
  12:main.c        **** #include "project.h"
  13:main.c        **** #include <stdio.h>
  14:main.c        **** #include <stdlib.h>
  15:main.c        **** #include <stdint.h>
  16:main.c        **** #include <stdbool.h>
  17:main.c        **** 
  18:main.c        **** // ROTS Header Files
  19:main.c        **** #include "FreeRTOS_PSoC.h"
  20:main.c        **** #include "FreeRTOS.h"
  21:main.c        **** #include "task.h"
  22:main.c        **** #include "queue.h"
  23:main.c        **** #include "semphr.h"
  24:main.c        **** #include "timers.h"
  25:main.c        **** #include "event_groups.h"
  26:main.c        **** #include "message_buffer.h"
  27:main.c        **** 
  28:main.c        **** // Your task function
  29:main.c        **** void vUARTTask1(void *pvParaments);
  30:main.c        **** void vUARTTask2(void *pvParaments);
ARM GAS  C:\Users\Tri94\AppData\Local\Temp\cc2hlLap.s 			page 2


  31:main.c        **** void vUltraSonicTask(void *pvParaments);
  32:main.c        **** void vReadUltraSonicTask(void *pvParaments);
  33:main.c        **** void vMusicTask(void *pvParaments);
  34:main.c        **** 
  35:main.c        **** void beep(int note, int duration);
  36:main.c        **** void firstSection();
  37:main.c        **** void secondSection();
  38:main.c        **** void myPSoCSetup();
  39:main.c        **** 
  40:main.c        **** MessageBufferHandle_t xMessageBuffer = NULL;
  41:main.c        **** #define               MESSAGE_BUFFER_SIZE 100
  42:main.c        **** 
  43:main.c        **** CY_ISR_PROTO(myISR_UART);
  44:main.c        **** 
  45:main.c        **** #define CMP0    19099
  46:main.c        **** #define CMP180  17599
  47:main.c        **** 
  48:main.c        **** // Global variables
  49:main.c        **** int  centimeter;
  50:main.c        **** 
  51:main.c        **** int main(void)
  52:main.c        **** {
  53:main.c        ****     BaseType_t err;
  54:main.c        ****     
  55:main.c        ****     CyGlobalIntEnable; /* Enable global interrupts. */
  56:main.c        **** 
  57:main.c        ****     /* Place your initialization/startup code here (e.g. MyInst_Start()) */
  58:main.c        ****     FreeRTOS_Init();
  59:main.c        ****     myPSoCSetup();
  60:main.c        ****     
  61:main.c        ****     // Create Mutex
  62:main.c        ****    xMessageBuffer = xMessageBufferCreate(MESSAGE_BUFFER_SIZE);
  63:main.c        **** 
  64:main.c        ****     if (xMessageBuffer == NULL){
  65:main.c        ****         while(1);   // Stop system here
  66:main.c        ****     }
  67:main.c        ****     
  68:main.c        ****     // Create Task
  69:main.c        ****     err = xTaskCreate(vUARTTask1,                   // Taskfunction_t pvTaskCode,
  70:main.c        ****                         "Task 1",                   // const char * const pcName,
  71:main.c        ****                         configMINIMAL_STACK_SIZE,   // unsigned short usStackDepth,
  72:main.c        ****                         NULL,                       // void *pvParameters,
  73:main.c        ****                         configMAX_PRIORITIES-1,     // UBaseType_t uxPriority,
  74:main.c        ****                         NULL);                      // TaskHandle_t *pxCreatedTask );
  75:main.c        ****     
  76:main.c        ****     if (err != pdPASS){
  77:main.c        ****         // Cannot create task!
  78:main.c        ****         while(1);
  79:main.c        ****     }
  80:main.c        ****     err = xTaskCreate(vUARTTask2,                   // Taskfunction_t pvTaskCode,
  81:main.c        ****                         "Task 1",                   // const char * const pcName,
  82:main.c        ****                         configMINIMAL_STACK_SIZE,   // unsigned short usStackDepth,
  83:main.c        ****                         NULL,                       // void *pvParameters,
  84:main.c        ****                         configMAX_PRIORITIES-1,     // UBaseType_t uxPriority,
  85:main.c        ****                         NULL);                      // TaskHandle_t *pxCreatedTask );
  86:main.c        ****     
  87:main.c        ****     if (err != pdPASS){
ARM GAS  C:\Users\Tri94\AppData\Local\Temp\cc2hlLap.s 			page 3


  88:main.c        ****         // Cannot create task!
  89:main.c        ****         while(1);
  90:main.c        ****     }
  91:main.c        ****     // Create a task to read sensor data from the ultra sonic sensor
  92:main.c        ****     err = xTaskCreate(vReadUltraSonicTask,          // Taskfunction_t pvTaskCode,
  93:main.c        ****                         "Read Sensor",              // const char * const pcName,
  94:main.c        ****                         configMINIMAL_STACK_SIZE,   // unsigned short usStackDepth,
  95:main.c        ****                         NULL,                       // void *pvParameters,
  96:main.c        ****                         configMAX_PRIORITIES-1,     // UBaseType_t uxPriority,
  97:main.c        ****                         NULL);                      // TaskHandle_t *pxCreatedTask );
  98:main.c        ****     
  99:main.c        ****     if (err != pdPASS){
 100:main.c        ****         // Cannot create task!
 101:main.c        ****         while(1);
 102:main.c        ****     }
 103:main.c        ****     
 104:main.c        ****     err = xTaskCreate(vMusicTask,          // Taskfunction_t pvTaskCode,
 105:main.c        ****                         "Read Sensor",              // const char * const pcName,
 106:main.c        ****                         configMINIMAL_STACK_SIZE,   // unsigned short usStackDepth,
 107:main.c        ****                         NULL,                       // void *pvParameters,
 108:main.c        ****                         configMAX_PRIORITIES-1,     // UBaseType_t uxPriority,
 109:main.c        ****                         NULL);                      // TaskHandle_t *pxCreatedTask );
 110:main.c        ****     
 111:main.c        ****     if (err != pdPASS){
 112:main.c        ****         // Cannot create task!
 113:main.c        ****         while(1);
 114:main.c        ****     }
 115:main.c        ****     
 116:main.c        ****     // Start the scheduler, so the tasks start executing
 117:main.c        ****     vTaskStartScheduler();
 118:main.c        ****     
 119:main.c        ****     for(;;)
 120:main.c        ****     {
 121:main.c        ****         /* Place your application code here. */
 122:main.c        ****     }
 123:main.c        **** }
 124:main.c        **** 
 125:main.c        **** void myPSoCSetup(){
 126:main.c        ****     
 127:main.c        ****     
 128:main.c        ****     // Place your component's start code here
 129:main.c        ****     ISR_UART_StartEx(myISR_UART);
 130:main.c        ****     UART_Start();
 131:main.c        ****     
 132:main.c        ****     PWM_Servo_Start();
 133:main.c        ****     PWM_Servo_WriteCompare(CMP0);
 134:main.c        ****     
 135:main.c        ****     PWM_Music_Start();
 136:main.c        **** 
 137:main.c        ****     
 138:main.c        **** }
 139:main.c        **** 
 140:main.c        **** typedef enum STATES_CMD{
 141:main.c        ****     S_IDLE,
 142:main.c        ****     S_GOT_DATE
 143:main.c        **** }STATES_CMD;
 144:main.c        **** //char    buf[20];
ARM GAS  C:\Users\Tri94\AppData\Local\Temp\cc2hlLap.s 			page 4


 145:main.c        **** 
 146:main.c        **** CY_ISR(myISR_UART){/*
  28              		.loc 1 146 0
  29              		.cfi_startproc
  30              		@ args = 0, pretend = 0, frame = 0
  31              		@ frame_needed = 0, uses_anonymous_args = 0
  32              		@ link register save eliminated.
  33 0000 7047     		bx	lr
  34              		.cfi_endproc
  35              	.LFE71:
  36              		.size	myISR_UART, .-myISR_UART
  37 0002 00BF     		.section	.text.vMusicTask,"ax",%progbits
  38              		.align	2
  39              		.global	vMusicTask
  40              		.thumb
  41              		.thumb_func
  42              		.type	vMusicTask, %function
  43              	vMusicTask:
  44              	.LFB78:
 147:main.c        ****     static char         buf[20];
 148:main.c        ****     static int          idx = 0;
 149:main.c        ****     static STATES_CMD   state = S_IDLE;
 150:main.c        ****     char                ch;
 151:main.c        ****     BaseType_t          xHigherPriorityTaskWoken = pdFALSE; // Initialised to pdFALSE 
 152:main.c        ****     
 153:main.c        ****     
 154:main.c        ****     while (UART_GetRxBufferSize  > 0){
 155:main.c        ****         ch = UART_GetChar();
 156:main.c        ****         UART_WriteTxData(ch);
 157:main.c        ****         switch (state){
 158:main.c        ****             case S_IDLE:
 159:main.c        ****                 if (ch == '+')
 160:main.c        ****                     UART_WriteTxData('1');
 161:main.c        ****                     state = S_GOT_DATE;
 162:main.c        ****                 
 163:main.c        ****                 break;
 164:main.c        ****             case S_GOT_DATE:
 165:main.c        ****                 //UART_WriteTxData('2');
 166:main.c        ****                 //if (ch == '\r')
 167:main.c        ****                 //    ch = '\0';
 168:main.c        ****                 if (ch == '\n'){
 169:main.c        ****                     state = S_IDLE;
 170:main.c        ****                     xMessageBufferSendFromISR(xMessageBuffer, buf, idx, xHigherPriorityTaskWoken);
 171:main.c        ****                     idx = 0;
 172:main.c        ****                 }
 173:main.c        ****                 buf[idx++] = ch;
 174:main.c        ****                 break;
 175:main.c        ****         }
 176:main.c        ****     }
 177:main.c        ****     for(int i = 0; i < strlen(buf);i++){
 178:main.c        ****         UART_WriteTxData(buf[i]);
 179:main.c        ****     }
 180:main.c        ****     UART_ReadRxStatus(); // Clear IRQ signal*/
 181:main.c        **** }
 182:main.c        **** 
 183:main.c        **** void vUARTTask1(void *pvParaments){
 184:main.c        ****     
ARM GAS  C:\Users\Tri94\AppData\Local\Temp\cc2hlLap.s 			page 5


 185:main.c        ****     char    buf[20];
 186:main.c        ****     size_t  rxSize;
 187:main.c        ****     char    test[] = "Hello world";
 188:main.c        ****     for(int i = 0; i < strlen(test);i++){
 189:main.c        ****         UART_WriteTxData(test[i]);
 190:main.c        ****     }
 191:main.c        ****     while(1){
 192:main.c        ****         rxSize = xMessageBufferReceive(xMessageBuffer,buf,sizeof(buf),100);
 193:main.c        ****         if (rxSize > 0){
 194:main.c        ****             if (strcmp(buf, "SERVOOPEN")){
 195:main.c        ****                 PWM_Servo_WriteCompare(CMP180);
 196:main.c        ****             }else if (strcmp(buf, "SERVOCLOSE")){
 197:main.c        ****                 PWM_Servo_WriteCompare(CMP0);
 198:main.c        ****             }else if (strcmp(buf, "LEDON")){
 199:main.c        ****                 LED_Write(1);
 200:main.c        ****             }else if (strcmp(buf, "LEDOFF")){
 201:main.c        ****                 LED_Write(0);
 202:main.c        ****             }
 203:main.c        ****         }
 204:main.c        ****         vTaskDelay(pdMS_TO_TICKS(50)); // Delay for 50 ms
 205:main.c        ****     }
 206:main.c        **** }
 207:main.c        **** void vUARTTask2(void *pvParaments){
 208:main.c        ****     
 209:main.c        ****     char    ch;
 210:main.c        **** 
 211:main.c        ****     while(1){
 212:main.c        ****         ch = UART_GetChar();
 213:main.c        ****         switch(ch){
 214:main.c        ****             case 'A':
 215:main.c        ****                 PWM_Servo_WriteCompare(CMP180);
 216:main.c        ****                 break;
 217:main.c        ****             case 'B':
 218:main.c        ****                 PWM_Servo_WriteCompare(CMP0);
 219:main.c        ****                 break;
 220:main.c        ****             case 'C':
 221:main.c        ****                 LED_Write(1);
 222:main.c        ****                 break;
 223:main.c        ****             case 'D':
 224:main.c        ****                 LED_Write(0);
 225:main.c        ****                 break;    
 226:main.c        ****         }
 227:main.c        **** 
 228:main.c        ****         vTaskDelay(pdMS_TO_TICKS(50)); // Delay for 50 ms
 229:main.c        ****     }
 230:main.c        **** }
 231:main.c        **** void vReadUltraSonicTask(void *pvParaments){
 232:main.c        ****     
 233:main.c        ****     uint16 counts = 0;
 234:main.c        ****     float  meter  = 0;
 235:main.c        **** 
 236:main.c        ****     char str[40];
 237:main.c        ****     
 238:main.c        ****     while(1){
 239:main.c        ****         Trigger_Write(1);
 240:main.c        ****         CyDelayUs(10);
 241:main.c        ****         Trigger_Write(0);
ARM GAS  C:\Users\Tri94\AppData\Local\Temp\cc2hlLap.s 			page 6


 242:main.c        ****                  
 243:main.c        ****         while(Echo_Read() != 1); //wait until return pulse starts
 244:main.c        ****         Timer_Start();
 245:main.c        ****         while(Echo_Read() != 0); //wait unit return pulse stops 
 246:main.c        ****     
 247:main.c        ****         counts = 0xFFFF-Timer_ReadCounter();        
 248:main.c        ****         centimeter = counts * 0.01717; //Convert pulse width to centimeters.         
 249:main.c        ****            
 250:main.c        ****         vTaskDelay(pdMS_TO_TICKS(200)); // Delay for 200 ms
 251:main.c        ****         Timer_Stop();
 252:main.c        ****     }
 253:main.c        **** }
 254:main.c        **** 
 255:main.c        **** const int c = 261;
 256:main.c        **** const int d = 294;
 257:main.c        **** const int e = 329;
 258:main.c        **** const int f = 349;
 259:main.c        **** const int g = 391;
 260:main.c        **** const int gS = 415;
 261:main.c        **** const int a = 440;
 262:main.c        **** const int aS = 455;
 263:main.c        **** const int b = 466;
 264:main.c        **** const int cH = 523;
 265:main.c        **** const int cSH = 554;
 266:main.c        **** const int dH = 587;
 267:main.c        **** const int dSH = 622;
 268:main.c        **** const int eH = 659;
 269:main.c        **** const int fH = 698;
 270:main.c        **** const int fSH = 740;
 271:main.c        **** const int gH = 784;
 272:main.c        **** const int gSH = 830;
 273:main.c        **** const int aH = 880;
 274:main.c        **** 
 275:main.c        **** void beep(int note, int duration)
 276:main.c        **** {
 277:main.c        ****   //Play tone on buzzerPin
 278:main.c        ****   //tone(buzzerPin, note, duration);
 279:main.c        ****   PWM_Music_WriteCompare(note);
 280:main.c        ****   CyDelay(duration);
 281:main.c        ****   
 282:main.c        **** }
 283:main.c        ****  
 284:main.c        **** void firstSection()
 285:main.c        **** {
 286:main.c        ****   beep(a, 500);
 287:main.c        ****   beep(a, 500);    
 288:main.c        ****   beep(a, 500);
 289:main.c        ****   beep(f, 350);
 290:main.c        ****   beep(cH, 150);  
 291:main.c        ****   beep(a, 500);
 292:main.c        ****   beep(f, 350);
 293:main.c        ****   beep(cH, 150);
 294:main.c        ****   beep(a, 650);
 295:main.c        ****  
 296:main.c        ****   CyDelay(500);
 297:main.c        ****  
 298:main.c        ****   beep(eH, 500);
ARM GAS  C:\Users\Tri94\AppData\Local\Temp\cc2hlLap.s 			page 7


 299:main.c        ****   beep(eH, 500);
 300:main.c        ****   beep(eH, 500);  
 301:main.c        ****   beep(fH, 350);
 302:main.c        ****   beep(cH, 150);
 303:main.c        ****   beep(gS, 500);
 304:main.c        ****   beep(f, 350);
 305:main.c        ****   beep(cH, 150);
 306:main.c        ****   beep(a, 650);
 307:main.c        ****  
 308:main.c        ****   CyDelay(500);
 309:main.c        **** }
 310:main.c        ****  
 311:main.c        **** void secondSection()
 312:main.c        **** {
 313:main.c        ****   beep(aH, 500);
 314:main.c        ****   beep(a, 300);
 315:main.c        ****   beep(a, 150);
 316:main.c        ****   beep(aH, 500);
 317:main.c        ****   beep(gSH, 325);
 318:main.c        ****   beep(gH, 175);
 319:main.c        ****   beep(fSH, 125);
 320:main.c        ****   beep(fH, 125);    
 321:main.c        ****   beep(fSH, 250);
 322:main.c        ****  
 323:main.c        ****   CyDelay(325);
 324:main.c        ****  
 325:main.c        ****   beep(aS, 250);
 326:main.c        ****   beep(dSH, 500);
 327:main.c        ****   beep(dH, 325);  
 328:main.c        ****   beep(cSH, 175);  
 329:main.c        ****   beep(cH, 125);  
 330:main.c        ****   beep(b, 125);  
 331:main.c        ****   beep(cH, 250);  
 332:main.c        ****  
 333:main.c        ****   CyDelay(350);
 334:main.c        **** }
 335:main.c        **** void vMusicTask(void *pvParaments){
  45              		.loc 1 335 0
  46              		.cfi_startproc
  47              		@ Volatile: function does not return.
  48              		@ args = 0, pretend = 0, frame = 0
  49              		@ frame_needed = 0, uses_anonymous_args = 0
  50              		@ link register save eliminated.
  51              	.LVL0:
  52              	.L3:
  53 0000 FEE7     		b	.L3
  54              		.cfi_endproc
  55              	.LFE78:
  56              		.size	vMusicTask, .-vMusicTask
  57 0002 00BF     		.section	.text.vUARTTask1,"ax",%progbits
  58              		.align	2
  59              		.global	vUARTTask1
  60              		.thumb
  61              		.thumb_func
  62              		.type	vUARTTask1, %function
  63              	vUARTTask1:
  64              	.LFB72:
ARM GAS  C:\Users\Tri94\AppData\Local\Temp\cc2hlLap.s 			page 8


 183:main.c        ****     
  65              		.loc 1 183 0
  66              		.cfi_startproc
  67              		@ args = 0, pretend = 0, frame = 32
  68              		@ frame_needed = 0, uses_anonymous_args = 0
  69              	.LVL1:
 183:main.c        ****     
  70              		.loc 1 183 0
  71 0000 10B5     		push	{r4, lr}
  72              		.cfi_def_cfa_offset 8
  73              		.cfi_offset 4, -8
  74              		.cfi_offset 14, -4
  75 0002 88B0     		sub	sp, sp, #32
  76              		.cfi_def_cfa_offset 40
 187:main.c        ****     for(int i = 0; i < strlen(test);i++){
  77              		.loc 1 187 0
  78 0004 214A     		ldr	r2, .L13
  79 0006 07CA     		ldmia	r2, {r0, r1, r2}
  80              	.LVL2:
  81 0008 8DE80700 		stmia	sp, {r0, r1, r2}
  82              	.LVL3:
  83              	.LBB2:
 188:main.c        ****         UART_WriteTxData(test[i]);
  84              		.loc 1 188 0
  85 000c 0024     		movs	r4, #0
  86 000e 06E0     		b	.L5
  87              	.LVL4:
  88              	.L6:
 189:main.c        ****     }
  89              		.loc 1 189 0 discriminator 3
  90 0010 08AB     		add	r3, sp, #32
  91 0012 2344     		add	r3, r3, r4
  92 0014 13F8200C 		ldrb	r0, [r3, #-32]	@ zero_extendqisi2
  93 0018 FFF7FEFF 		bl	UART_WriteTxData
  94              	.LVL5:
 188:main.c        ****         UART_WriteTxData(test[i]);
  95              		.loc 1 188 0 discriminator 3
  96 001c 0134     		adds	r4, r4, #1
  97              	.LVL6:
  98              	.L5:
 188:main.c        ****         UART_WriteTxData(test[i]);
  99              		.loc 1 188 0 is_stmt 0 discriminator 1
 100 001e 6846     		mov	r0, sp
 101 0020 FFF7FEFF 		bl	strlen
 102              	.LVL7:
 103 0024 A042     		cmp	r0, r4
 104 0026 F3D8     		bhi	.L6
 105              	.L11:
 106              	.LBE2:
 192:main.c        ****         if (rxSize > 0){
 107              		.loc 1 192 0 is_stmt 1
 108 0028 6423     		movs	r3, #100
 109 002a 1422     		movs	r2, #20
 110 002c 03A9     		add	r1, sp, #12
 111 002e 1848     		ldr	r0, .L13+4
 112 0030 0068     		ldr	r0, [r0]
 113 0032 FFF7FEFF 		bl	xStreamBufferReceive
ARM GAS  C:\Users\Tri94\AppData\Local\Temp\cc2hlLap.s 			page 9


 114              	.LVL8:
 193:main.c        ****             if (strcmp(buf, "SERVOOPEN")){
 115              		.loc 1 193 0
 116 0036 20B3     		cbz	r0, .L7
 194:main.c        ****                 PWM_Servo_WriteCompare(CMP180);
 117              		.loc 1 194 0
 118 0038 1649     		ldr	r1, .L13+8
 119 003a 03A8     		add	r0, sp, #12
 120              	.LVL9:
 121 003c FFF7FEFF 		bl	strcmp
 122              	.LVL10:
 123 0040 20B1     		cbz	r0, .L8
 195:main.c        ****             }else if (strcmp(buf, "SERVOCLOSE")){
 124              		.loc 1 195 0
 125 0042 44F2BF40 		movw	r0, #17599
 126 0046 FFF7FEFF 		bl	PWM_Servo_WriteCompare
 127              	.LVL11:
 128 004a 1AE0     		b	.L7
 129              	.L8:
 196:main.c        ****                 PWM_Servo_WriteCompare(CMP0);
 130              		.loc 1 196 0
 131 004c 1249     		ldr	r1, .L13+12
 132 004e 03A8     		add	r0, sp, #12
 133 0050 FFF7FEFF 		bl	strcmp
 134              	.LVL12:
 135 0054 20B1     		cbz	r0, .L9
 197:main.c        ****             }else if (strcmp(buf, "LEDON")){
 136              		.loc 1 197 0
 137 0056 44F69B20 		movw	r0, #19099
 138 005a FFF7FEFF 		bl	PWM_Servo_WriteCompare
 139              	.LVL13:
 140 005e 10E0     		b	.L7
 141              	.L9:
 198:main.c        ****                 LED_Write(1);
 142              		.loc 1 198 0
 143 0060 0E49     		ldr	r1, .L13+16
 144 0062 03A8     		add	r0, sp, #12
 145 0064 FFF7FEFF 		bl	strcmp
 146              	.LVL14:
 147 0068 18B1     		cbz	r0, .L10
 199:main.c        ****             }else if (strcmp(buf, "LEDOFF")){
 148              		.loc 1 199 0
 149 006a 0120     		movs	r0, #1
 150 006c FFF7FEFF 		bl	LED_Write
 151              	.LVL15:
 152 0070 07E0     		b	.L7
 153              	.L10:
 200:main.c        ****                 LED_Write(0);
 154              		.loc 1 200 0
 155 0072 0B49     		ldr	r1, .L13+20
 156 0074 03A8     		add	r0, sp, #12
 157 0076 FFF7FEFF 		bl	strcmp
 158              	.LVL16:
 159 007a 10B1     		cbz	r0, .L7
 201:main.c        ****             }
 160              		.loc 1 201 0
 161 007c 0020     		movs	r0, #0
ARM GAS  C:\Users\Tri94\AppData\Local\Temp\cc2hlLap.s 			page 10


 162 007e FFF7FEFF 		bl	LED_Write
 163              	.LVL17:
 164              	.L7:
 204:main.c        ****     }
 165              		.loc 1 204 0
 166 0082 3220     		movs	r0, #50
 167 0084 FFF7FEFF 		bl	vTaskDelay
 168              	.LVL18:
 205:main.c        **** }
 169              		.loc 1 205 0
 170 0088 CEE7     		b	.L11
 171              	.L14:
 172 008a 00BF     		.align	2
 173              	.L13:
 174 008c 28000000 		.word	.LC0
 175 0090 00000000 		.word	.LANCHOR0
 176 0094 00000000 		.word	.LC1
 177 0098 0C000000 		.word	.LC2
 178 009c 18000000 		.word	.LC3
 179 00a0 20000000 		.word	.LC4
 180              		.cfi_endproc
 181              	.LFE72:
 182              		.size	vUARTTask1, .-vUARTTask1
 183              		.section	.text.vUARTTask2,"ax",%progbits
 184              		.align	2
 185              		.global	vUARTTask2
 186              		.thumb
 187              		.thumb_func
 188              		.type	vUARTTask2, %function
 189              	vUARTTask2:
 190              	.LFB73:
 207:main.c        ****     
 191              		.loc 1 207 0
 192              		.cfi_startproc
 193              		@ args = 0, pretend = 0, frame = 0
 194              		@ frame_needed = 0, uses_anonymous_args = 0
 195              	.LVL19:
 196 0000 08B5     		push	{r3, lr}
 197              		.cfi_def_cfa_offset 8
 198              		.cfi_offset 3, -8
 199              		.cfi_offset 14, -4
 200              	.LVL20:
 201              	.L22:
 212:main.c        ****         switch(ch){
 202              		.loc 1 212 0
 203 0002 FFF7FEFF 		bl	UART_GetChar
 204              	.LVL21:
 213:main.c        ****             case 'A':
 205              		.loc 1 213 0
 206 0006 4138     		subs	r0, r0, #65
 207              	.LVL22:
 208 0008 0328     		cmp	r0, #3
 209 000a 14D8     		bhi	.L16
 210 000c DFE800F0 		tbb	[pc, r0]
 211              	.L18:
 212 0010 02       		.byte	(.L17-.L18)/2
 213 0011 07       		.byte	(.L19-.L18)/2
ARM GAS  C:\Users\Tri94\AppData\Local\Temp\cc2hlLap.s 			page 11


 214 0012 0C       		.byte	(.L20-.L18)/2
 215 0013 10       		.byte	(.L21-.L18)/2
 216              		.p2align 1
 217              	.L17:
 215:main.c        ****                 break;
 218              		.loc 1 215 0
 219 0014 44F2BF40 		movw	r0, #17599
 220 0018 FFF7FEFF 		bl	PWM_Servo_WriteCompare
 221              	.LVL23:
 216:main.c        ****             case 'B':
 222              		.loc 1 216 0
 223 001c 0BE0     		b	.L16
 224              	.L19:
 218:main.c        ****                 break;
 225              		.loc 1 218 0
 226 001e 44F69B20 		movw	r0, #19099
 227 0022 FFF7FEFF 		bl	PWM_Servo_WriteCompare
 228              	.LVL24:
 219:main.c        ****             case 'C':
 229              		.loc 1 219 0
 230 0026 06E0     		b	.L16
 231              	.L20:
 221:main.c        ****                 break;
 232              		.loc 1 221 0
 233 0028 0120     		movs	r0, #1
 234 002a FFF7FEFF 		bl	LED_Write
 235              	.LVL25:
 222:main.c        ****             case 'D':
 236              		.loc 1 222 0
 237 002e 02E0     		b	.L16
 238              	.L21:
 224:main.c        ****                 break;    
 239              		.loc 1 224 0
 240 0030 0020     		movs	r0, #0
 241 0032 FFF7FEFF 		bl	LED_Write
 242              	.LVL26:
 243              	.L16:
 228:main.c        ****     }
 244              		.loc 1 228 0
 245 0036 3220     		movs	r0, #50
 246 0038 FFF7FEFF 		bl	vTaskDelay
 247              	.LVL27:
 229:main.c        **** }
 248              		.loc 1 229 0
 249 003c E1E7     		b	.L22
 250              		.cfi_endproc
 251              	.LFE73:
 252              		.size	vUARTTask2, .-vUARTTask2
 253              		.global	__aeabi_i2d
 254              		.global	__aeabi_dmul
 255              		.global	__aeabi_d2iz
 256 003e 00BF     		.section	.text.vReadUltraSonicTask,"ax",%progbits
 257              		.align	2
 258              		.global	vReadUltraSonicTask
 259              		.thumb
 260              		.thumb_func
 261              		.type	vReadUltraSonicTask, %function
ARM GAS  C:\Users\Tri94\AppData\Local\Temp\cc2hlLap.s 			page 12


 262              	vReadUltraSonicTask:
 263              	.LFB74:
 231:main.c        ****     
 264              		.loc 1 231 0
 265              		.cfi_startproc
 266              		@ args = 0, pretend = 0, frame = 0
 267              		@ frame_needed = 0, uses_anonymous_args = 0
 268              	.LVL28:
 269 0000 08B5     		push	{r3, lr}
 270              		.cfi_def_cfa_offset 8
 271              		.cfi_offset 3, -8
 272              		.cfi_offset 14, -4
 273              	.LVL29:
 274              	.L27:
 239:main.c        ****         CyDelayUs(10);
 275              		.loc 1 239 0
 276 0002 0120     		movs	r0, #1
 277 0004 FFF7FEFF 		bl	Trigger_Write
 278              	.LVL30:
 240:main.c        ****         Trigger_Write(0);
 279              		.loc 1 240 0
 280 0008 0A20     		movs	r0, #10
 281 000a FFF7FEFF 		bl	CyDelayUs
 282              	.LVL31:
 241:main.c        ****                  
 283              		.loc 1 241 0
 284 000e 0020     		movs	r0, #0
 285 0010 FFF7FEFF 		bl	Trigger_Write
 286              	.LVL32:
 287              	.L25:
 243:main.c        ****         Timer_Start();
 288              		.loc 1 243 0 discriminator 1
 289 0014 FFF7FEFF 		bl	Echo_Read
 290              	.LVL33:
 291 0018 0128     		cmp	r0, #1
 292 001a FBD1     		bne	.L25
 244:main.c        ****         while(Echo_Read() != 0); //wait unit return pulse stops 
 293              		.loc 1 244 0
 294 001c FFF7FEFF 		bl	Timer_Start
 295              	.LVL34:
 296              	.L26:
 245:main.c        ****     
 297              		.loc 1 245 0 discriminator 1
 298 0020 FFF7FEFF 		bl	Echo_Read
 299              	.LVL35:
 300 0024 0028     		cmp	r0, #0
 301 0026 FBD1     		bne	.L26
 247:main.c        ****         centimeter = counts * 0.01717; //Convert pulse width to centimeters.         
 302              		.loc 1 247 0
 303 0028 FFF7FEFF 		bl	Timer_ReadCounter
 304              	.LVL36:
 305 002c C043     		mvns	r0, r0
 306              	.LVL37:
 248:main.c        ****            
 307              		.loc 1 248 0
 308 002e 80B2     		uxth	r0, r0
 309 0030 FFF7FEFF 		bl	__aeabi_i2d
ARM GAS  C:\Users\Tri94\AppData\Local\Temp\cc2hlLap.s 			page 13


 310              	.LVL38:
 311 0034 08A3     		adr	r3, .L29
 312 0036 D3E90023 		ldrd	r2, [r3]
 313 003a FFF7FEFF 		bl	__aeabi_dmul
 314              	.LVL39:
 315 003e FFF7FEFF 		bl	__aeabi_d2iz
 316              	.LVL40:
 317 0042 074B     		ldr	r3, .L29+8
 318 0044 1860     		str	r0, [r3]
 250:main.c        ****         Timer_Stop();
 319              		.loc 1 250 0
 320 0046 C820     		movs	r0, #200
 321 0048 FFF7FEFF 		bl	vTaskDelay
 322              	.LVL41:
 251:main.c        ****     }
 323              		.loc 1 251 0
 324 004c FFF7FEFF 		bl	Timer_Stop
 325              	.LVL42:
 252:main.c        **** }
 326              		.loc 1 252 0
 327 0050 D7E7     		b	.L27
 328              	.L30:
 329 0052 00BFAFF3 		.align	3
 329      0080
 330              	.L29:
 331 0058 DBA7E331 		.word	837003227
 332 005c 0395913F 		.word	1066505475
 333 0060 00000000 		.word	centimeter
 334              		.cfi_endproc
 335              	.LFE74:
 336              		.size	vReadUltraSonicTask, .-vReadUltraSonicTask
 337              		.section	.text.myPSoCSetup,"ax",%progbits
 338              		.align	2
 339              		.global	myPSoCSetup
 340              		.thumb
 341              		.thumb_func
 342              		.type	myPSoCSetup, %function
 343              	myPSoCSetup:
 344              	.LFB70:
 125:main.c        ****     
 345              		.loc 1 125 0
 346              		.cfi_startproc
 347              		@ args = 0, pretend = 0, frame = 0
 348              		@ frame_needed = 0, uses_anonymous_args = 0
 349 0000 08B5     		push	{r3, lr}
 350              		.cfi_def_cfa_offset 8
 351              		.cfi_offset 3, -8
 352              		.cfi_offset 14, -4
 129:main.c        ****     UART_Start();
 353              		.loc 1 129 0
 354 0002 0748     		ldr	r0, .L33
 355 0004 FFF7FEFF 		bl	ISR_UART_StartEx
 356              	.LVL43:
 130:main.c        ****     
 357              		.loc 1 130 0
 358 0008 FFF7FEFF 		bl	UART_Start
 359              	.LVL44:
ARM GAS  C:\Users\Tri94\AppData\Local\Temp\cc2hlLap.s 			page 14


 132:main.c        ****     PWM_Servo_WriteCompare(CMP0);
 360              		.loc 1 132 0
 361 000c FFF7FEFF 		bl	PWM_Servo_Start
 362              	.LVL45:
 133:main.c        ****     
 363              		.loc 1 133 0
 364 0010 44F69B20 		movw	r0, #19099
 365 0014 FFF7FEFF 		bl	PWM_Servo_WriteCompare
 366              	.LVL46:
 135:main.c        **** 
 367              		.loc 1 135 0
 368 0018 FFF7FEFF 		bl	PWM_Music_Start
 369              	.LVL47:
 370 001c 08BD     		pop	{r3, pc}
 371              	.L34:
 372 001e 00BF     		.align	2
 373              	.L33:
 374 0020 00000000 		.word	myISR_UART
 375              		.cfi_endproc
 376              	.LFE70:
 377              		.size	myPSoCSetup, .-myPSoCSetup
 378              		.section	.text.main,"ax",%progbits
 379              		.align	2
 380              		.global	main
 381              		.thumb
 382              		.thumb_func
 383              		.type	main, %function
 384              	main:
 385              	.LFB69:
  52:main.c        ****     BaseType_t err;
 386              		.loc 1 52 0
 387              		.cfi_startproc
 388              		@ args = 0, pretend = 0, frame = 0
 389              		@ frame_needed = 0, uses_anonymous_args = 0
 390 0000 00B5     		push	{lr}
 391              		.cfi_def_cfa_offset 4
 392              		.cfi_offset 14, -4
 393 0002 83B0     		sub	sp, sp, #12
 394              		.cfi_def_cfa_offset 16
  55:main.c        **** 
 395              		.loc 1 55 0
 396              		.syntax unified
 397              	@ 55 "main.c" 1
 398 0004 62B6     		CPSIE   i
 399              	@ 0 "" 2
  58:main.c        ****     myPSoCSetup();
 400              		.loc 1 58 0
 401              		.thumb
 402              		.syntax unified
 403 0006 FFF7FEFF 		bl	FreeRTOS_Init
 404              	.LVL48:
  59:main.c        ****     
 405              		.loc 1 59 0
 406 000a FFF7FEFF 		bl	myPSoCSetup
 407              	.LVL49:
  62:main.c        **** 
 408              		.loc 1 62 0
ARM GAS  C:\Users\Tri94\AppData\Local\Temp\cc2hlLap.s 			page 15


 409 000e 0122     		movs	r2, #1
 410 0010 0021     		movs	r1, #0
 411 0012 6420     		movs	r0, #100
 412 0014 FFF7FEFF 		bl	xStreamBufferGenericCreate
 413              	.LVL50:
 414 0018 1B4B     		ldr	r3, .L48
 415 001a 1860     		str	r0, [r3]
  64:main.c        ****         while(1);   // Stop system here
 416              		.loc 1 64 0
 417 001c 00B9     		cbnz	r0, .L36
 418              	.L37:
 419 001e FEE7     		b	.L37
 420              	.L36:
  69:main.c        ****                         "Task 1",                   // const char * const pcName,
 421              		.loc 1 69 0
 422 0020 0023     		movs	r3, #0
 423 0022 0193     		str	r3, [sp, #4]
 424 0024 0422     		movs	r2, #4
 425 0026 0092     		str	r2, [sp]
 426 0028 C822     		movs	r2, #200
 427 002a 1849     		ldr	r1, .L48+4
 428 002c 1848     		ldr	r0, .L48+8
 429 002e FFF7FEFF 		bl	xTaskCreate
 430              	.LVL51:
  76:main.c        ****         // Cannot create task!
 431              		.loc 1 76 0
 432 0032 0128     		cmp	r0, #1
 433 0034 00D0     		beq	.L38
 434              	.L39:
 435 0036 FEE7     		b	.L39
 436              	.L38:
  80:main.c        ****                         "Task 1",                   // const char * const pcName,
 437              		.loc 1 80 0
 438 0038 0023     		movs	r3, #0
 439 003a 0193     		str	r3, [sp, #4]
 440 003c 0422     		movs	r2, #4
 441 003e 0092     		str	r2, [sp]
 442 0040 C822     		movs	r2, #200
 443 0042 1249     		ldr	r1, .L48+4
 444 0044 1348     		ldr	r0, .L48+12
 445              	.LVL52:
 446 0046 FFF7FEFF 		bl	xTaskCreate
 447              	.LVL53:
  87:main.c        ****         // Cannot create task!
 448              		.loc 1 87 0
 449 004a 0128     		cmp	r0, #1
 450 004c 00D0     		beq	.L40
 451              	.L41:
 452 004e FEE7     		b	.L41
 453              	.L40:
  92:main.c        ****                         "Read Sensor",              // const char * const pcName,
 454              		.loc 1 92 0
 455 0050 0023     		movs	r3, #0
 456 0052 0193     		str	r3, [sp, #4]
 457 0054 0422     		movs	r2, #4
 458 0056 0092     		str	r2, [sp]
 459 0058 C822     		movs	r2, #200
ARM GAS  C:\Users\Tri94\AppData\Local\Temp\cc2hlLap.s 			page 16


 460 005a 0F49     		ldr	r1, .L48+16
 461 005c 0F48     		ldr	r0, .L48+20
 462              	.LVL54:
 463 005e FFF7FEFF 		bl	xTaskCreate
 464              	.LVL55:
  99:main.c        ****         // Cannot create task!
 465              		.loc 1 99 0
 466 0062 0128     		cmp	r0, #1
 467 0064 00D0     		beq	.L42
 468              	.L43:
 469 0066 FEE7     		b	.L43
 470              	.L42:
 104:main.c        ****                         "Read Sensor",              // const char * const pcName,
 471              		.loc 1 104 0
 472 0068 0023     		movs	r3, #0
 473 006a 0193     		str	r3, [sp, #4]
 474 006c 0422     		movs	r2, #4
 475 006e 0092     		str	r2, [sp]
 476 0070 C822     		movs	r2, #200
 477 0072 0949     		ldr	r1, .L48+16
 478 0074 0A48     		ldr	r0, .L48+24
 479              	.LVL56:
 480 0076 FFF7FEFF 		bl	xTaskCreate
 481              	.LVL57:
 111:main.c        ****         // Cannot create task!
 482              		.loc 1 111 0
 483 007a 0128     		cmp	r0, #1
 484 007c 00D0     		beq	.L44
 485              	.L45:
 486 007e FEE7     		b	.L45
 487              	.L44:
 117:main.c        ****     
 488              		.loc 1 117 0
 489 0080 FFF7FEFF 		bl	vTaskStartScheduler
 490              	.LVL58:
 491              	.L46:
 492 0084 FEE7     		b	.L46
 493              	.L49:
 494 0086 00BF     		.align	2
 495              	.L48:
 496 0088 00000000 		.word	.LANCHOR0
 497 008c 34000000 		.word	.LC5
 498 0090 00000000 		.word	vUARTTask1
 499 0094 00000000 		.word	vUARTTask2
 500 0098 3C000000 		.word	.LC6
 501 009c 00000000 		.word	vReadUltraSonicTask
 502 00a0 00000000 		.word	vMusicTask
 503              		.cfi_endproc
 504              	.LFE69:
 505              		.size	main, .-main
 506              		.section	.text.beep,"ax",%progbits
 507              		.align	2
 508              		.global	beep
 509              		.thumb
 510              		.thumb_func
 511              		.type	beep, %function
 512              	beep:
ARM GAS  C:\Users\Tri94\AppData\Local\Temp\cc2hlLap.s 			page 17


 513              	.LFB75:
 276:main.c        ****   //Play tone on buzzerPin
 514              		.loc 1 276 0
 515              		.cfi_startproc
 516              		@ args = 0, pretend = 0, frame = 0
 517              		@ frame_needed = 0, uses_anonymous_args = 0
 518              	.LVL59:
 519 0000 10B5     		push	{r4, lr}
 520              		.cfi_def_cfa_offset 8
 521              		.cfi_offset 4, -8
 522              		.cfi_offset 14, -4
 523 0002 0C46     		mov	r4, r1
 279:main.c        ****   CyDelay(duration);
 524              		.loc 1 279 0
 525 0004 80B2     		uxth	r0, r0
 526              	.LVL60:
 527 0006 FFF7FEFF 		bl	PWM_Music_WriteCompare
 528              	.LVL61:
 280:main.c        ****   
 529              		.loc 1 280 0
 530 000a 2046     		mov	r0, r4
 531 000c FFF7FEFF 		bl	CyDelay
 532              	.LVL62:
 533 0010 10BD     		pop	{r4, pc}
 534              		.cfi_endproc
 535              	.LFE75:
 536              		.size	beep, .-beep
 537 0012 00BF     		.section	.text.firstSection,"ax",%progbits
 538              		.align	2
 539              		.global	firstSection
 540              		.thumb
 541              		.thumb_func
 542              		.type	firstSection, %function
 543              	firstSection:
 544              	.LFB76:
 285:main.c        ****   beep(a, 500);
 545              		.loc 1 285 0
 546              		.cfi_startproc
 547              		@ args = 0, pretend = 0, frame = 0
 548              		@ frame_needed = 0, uses_anonymous_args = 0
 549 0000 08B5     		push	{r3, lr}
 550              		.cfi_def_cfa_offset 8
 551              		.cfi_offset 3, -8
 552              		.cfi_offset 14, -4
 286:main.c        ****   beep(a, 500);    
 553              		.loc 1 286 0
 554 0002 4FF4FA71 		mov	r1, #500
 555 0006 4FF4DC70 		mov	r0, #440
 556 000a FFF7FEFF 		bl	beep
 557              	.LVL63:
 287:main.c        ****   beep(a, 500);
 558              		.loc 1 287 0
 559 000e 4FF4FA71 		mov	r1, #500
 560 0012 4FF4DC70 		mov	r0, #440
 561 0016 FFF7FEFF 		bl	beep
 562              	.LVL64:
 288:main.c        ****   beep(f, 350);
ARM GAS  C:\Users\Tri94\AppData\Local\Temp\cc2hlLap.s 			page 18


 563              		.loc 1 288 0
 564 001a 4FF4FA71 		mov	r1, #500
 565 001e 4FF4DC70 		mov	r0, #440
 566 0022 FFF7FEFF 		bl	beep
 567              	.LVL65:
 289:main.c        ****   beep(cH, 150);  
 568              		.loc 1 289 0
 569 0026 4FF4AF71 		mov	r1, #350
 570 002a 40F25D10 		movw	r0, #349
 571 002e FFF7FEFF 		bl	beep
 572              	.LVL66:
 290:main.c        ****   beep(a, 500);
 573              		.loc 1 290 0
 574 0032 9621     		movs	r1, #150
 575 0034 40F20B20 		movw	r0, #523
 576 0038 FFF7FEFF 		bl	beep
 577              	.LVL67:
 291:main.c        ****   beep(f, 350);
 578              		.loc 1 291 0
 579 003c 4FF4FA71 		mov	r1, #500
 580 0040 4FF4DC70 		mov	r0, #440
 581 0044 FFF7FEFF 		bl	beep
 582              	.LVL68:
 292:main.c        ****   beep(cH, 150);
 583              		.loc 1 292 0
 584 0048 4FF4AF71 		mov	r1, #350
 585 004c 40F25D10 		movw	r0, #349
 586 0050 FFF7FEFF 		bl	beep
 587              	.LVL69:
 293:main.c        ****   beep(a, 650);
 588              		.loc 1 293 0
 589 0054 9621     		movs	r1, #150
 590 0056 40F20B20 		movw	r0, #523
 591 005a FFF7FEFF 		bl	beep
 592              	.LVL70:
 294:main.c        ****  
 593              		.loc 1 294 0
 594 005e 40F28A21 		movw	r1, #650
 595 0062 4FF4DC70 		mov	r0, #440
 596 0066 FFF7FEFF 		bl	beep
 597              	.LVL71:
 296:main.c        ****  
 598              		.loc 1 296 0
 599 006a 4FF4FA70 		mov	r0, #500
 600 006e FFF7FEFF 		bl	CyDelay
 601              	.LVL72:
 298:main.c        ****   beep(eH, 500);
 602              		.loc 1 298 0
 603 0072 4FF4FA71 		mov	r1, #500
 604 0076 40F29320 		movw	r0, #659
 605 007a FFF7FEFF 		bl	beep
 606              	.LVL73:
 299:main.c        ****   beep(eH, 500);  
 607              		.loc 1 299 0
 608 007e 4FF4FA71 		mov	r1, #500
 609 0082 40F29320 		movw	r0, #659
 610 0086 FFF7FEFF 		bl	beep
ARM GAS  C:\Users\Tri94\AppData\Local\Temp\cc2hlLap.s 			page 19


 611              	.LVL74:
 300:main.c        ****   beep(fH, 350);
 612              		.loc 1 300 0
 613 008a 4FF4FA71 		mov	r1, #500
 614 008e 40F29320 		movw	r0, #659
 615 0092 FFF7FEFF 		bl	beep
 616              	.LVL75:
 301:main.c        ****   beep(cH, 150);
 617              		.loc 1 301 0
 618 0096 4FF4AF71 		mov	r1, #350
 619 009a 40F2BA20 		movw	r0, #698
 620 009e FFF7FEFF 		bl	beep
 621              	.LVL76:
 302:main.c        ****   beep(gS, 500);
 622              		.loc 1 302 0
 623 00a2 9621     		movs	r1, #150
 624 00a4 40F20B20 		movw	r0, #523
 625 00a8 FFF7FEFF 		bl	beep
 626              	.LVL77:
 303:main.c        ****   beep(f, 350);
 627              		.loc 1 303 0
 628 00ac 4FF4FA71 		mov	r1, #500
 629 00b0 40F29F10 		movw	r0, #415
 630 00b4 FFF7FEFF 		bl	beep
 631              	.LVL78:
 304:main.c        ****   beep(cH, 150);
 632              		.loc 1 304 0
 633 00b8 4FF4AF71 		mov	r1, #350
 634 00bc 40F25D10 		movw	r0, #349
 635 00c0 FFF7FEFF 		bl	beep
 636              	.LVL79:
 305:main.c        ****   beep(a, 650);
 637              		.loc 1 305 0
 638 00c4 9621     		movs	r1, #150
 639 00c6 40F20B20 		movw	r0, #523
 640 00ca FFF7FEFF 		bl	beep
 641              	.LVL80:
 306:main.c        ****  
 642              		.loc 1 306 0
 643 00ce 40F28A21 		movw	r1, #650
 644 00d2 4FF4DC70 		mov	r0, #440
 645 00d6 FFF7FEFF 		bl	beep
 646              	.LVL81:
 308:main.c        **** }
 647              		.loc 1 308 0
 648 00da 4FF4FA70 		mov	r0, #500
 649 00de FFF7FEFF 		bl	CyDelay
 650              	.LVL82:
 651 00e2 08BD     		pop	{r3, pc}
 652              		.cfi_endproc
 653              	.LFE76:
 654              		.size	firstSection, .-firstSection
 655              		.section	.text.secondSection,"ax",%progbits
 656              		.align	2
 657              		.global	secondSection
 658              		.thumb
 659              		.thumb_func
ARM GAS  C:\Users\Tri94\AppData\Local\Temp\cc2hlLap.s 			page 20


 660              		.type	secondSection, %function
 661              	secondSection:
 662              	.LFB77:
 312:main.c        ****   beep(aH, 500);
 663              		.loc 1 312 0
 664              		.cfi_startproc
 665              		@ args = 0, pretend = 0, frame = 0
 666              		@ frame_needed = 0, uses_anonymous_args = 0
 667 0000 08B5     		push	{r3, lr}
 668              		.cfi_def_cfa_offset 8
 669              		.cfi_offset 3, -8
 670              		.cfi_offset 14, -4
 313:main.c        ****   beep(a, 300);
 671              		.loc 1 313 0
 672 0002 4FF4FA71 		mov	r1, #500
 673 0006 4FF45C70 		mov	r0, #880
 674 000a FFF7FEFF 		bl	beep
 675              	.LVL83:
 314:main.c        ****   beep(a, 150);
 676              		.loc 1 314 0
 677 000e 4FF49671 		mov	r1, #300
 678 0012 4FF4DC70 		mov	r0, #440
 679 0016 FFF7FEFF 		bl	beep
 680              	.LVL84:
 315:main.c        ****   beep(aH, 500);
 681              		.loc 1 315 0
 682 001a 9621     		movs	r1, #150
 683 001c 4FF4DC70 		mov	r0, #440
 684 0020 FFF7FEFF 		bl	beep
 685              	.LVL85:
 316:main.c        ****   beep(gSH, 325);
 686              		.loc 1 316 0
 687 0024 4FF4FA71 		mov	r1, #500
 688 0028 4FF45C70 		mov	r0, #880
 689 002c FFF7FEFF 		bl	beep
 690              	.LVL86:
 317:main.c        ****   beep(gH, 175);
 691              		.loc 1 317 0
 692 0030 40F24511 		movw	r1, #325
 693 0034 40F23E30 		movw	r0, #830
 694 0038 FFF7FEFF 		bl	beep
 695              	.LVL87:
 318:main.c        ****   beep(fSH, 125);
 696              		.loc 1 318 0
 697 003c AF21     		movs	r1, #175
 698 003e 4FF44470 		mov	r0, #784
 699 0042 FFF7FEFF 		bl	beep
 700              	.LVL88:
 319:main.c        ****   beep(fH, 125);    
 701              		.loc 1 319 0
 702 0046 7D21     		movs	r1, #125
 703 0048 4FF43970 		mov	r0, #740
 704 004c FFF7FEFF 		bl	beep
 705              	.LVL89:
 320:main.c        ****   beep(fSH, 250);
 706              		.loc 1 320 0
 707 0050 7D21     		movs	r1, #125
ARM GAS  C:\Users\Tri94\AppData\Local\Temp\cc2hlLap.s 			page 21


 708 0052 40F2BA20 		movw	r0, #698
 709 0056 FFF7FEFF 		bl	beep
 710              	.LVL90:
 321:main.c        ****  
 711              		.loc 1 321 0
 712 005a FA21     		movs	r1, #250
 713 005c 4FF43970 		mov	r0, #740
 714 0060 FFF7FEFF 		bl	beep
 715              	.LVL91:
 323:main.c        ****  
 716              		.loc 1 323 0
 717 0064 40F24510 		movw	r0, #325
 718 0068 FFF7FEFF 		bl	CyDelay
 719              	.LVL92:
 325:main.c        ****   beep(dSH, 500);
 720              		.loc 1 325 0
 721 006c FA21     		movs	r1, #250
 722 006e 40F2C710 		movw	r0, #455
 723 0072 FFF7FEFF 		bl	beep
 724              	.LVL93:
 326:main.c        ****   beep(dH, 325);  
 725              		.loc 1 326 0
 726 0076 4FF4FA71 		mov	r1, #500
 727 007a 40F26E20 		movw	r0, #622
 728 007e FFF7FEFF 		bl	beep
 729              	.LVL94:
 327:main.c        ****   beep(cSH, 175);  
 730              		.loc 1 327 0
 731 0082 40F24511 		movw	r1, #325
 732 0086 40F24B20 		movw	r0, #587
 733 008a FFF7FEFF 		bl	beep
 734              	.LVL95:
 328:main.c        ****   beep(cH, 125);  
 735              		.loc 1 328 0
 736 008e AF21     		movs	r1, #175
 737 0090 40F22A20 		movw	r0, #554
 738 0094 FFF7FEFF 		bl	beep
 739              	.LVL96:
 329:main.c        ****   beep(b, 125);  
 740              		.loc 1 329 0
 741 0098 7D21     		movs	r1, #125
 742 009a 40F20B20 		movw	r0, #523
 743 009e FFF7FEFF 		bl	beep
 744              	.LVL97:
 330:main.c        ****   beep(cH, 250);  
 745              		.loc 1 330 0
 746 00a2 7D21     		movs	r1, #125
 747 00a4 4FF4E970 		mov	r0, #466
 748 00a8 FFF7FEFF 		bl	beep
 749              	.LVL98:
 331:main.c        ****  
 750              		.loc 1 331 0
 751 00ac FA21     		movs	r1, #250
 752 00ae 40F20B20 		movw	r0, #523
 753 00b2 FFF7FEFF 		bl	beep
 754              	.LVL99:
 333:main.c        **** }
ARM GAS  C:\Users\Tri94\AppData\Local\Temp\cc2hlLap.s 			page 22


 755              		.loc 1 333 0
 756 00b6 4FF4AF70 		mov	r0, #350
 757 00ba FFF7FEFF 		bl	CyDelay
 758              	.LVL100:
 759 00be 08BD     		pop	{r3, pc}
 760              		.cfi_endproc
 761              	.LFE77:
 762              		.size	secondSection, .-secondSection
 763              		.global	aH
 764              		.global	gSH
 765              		.global	gH
 766              		.global	fSH
 767              		.global	fH
 768              		.global	eH
 769              		.global	dSH
 770              		.global	dH
 771              		.global	cSH
 772              		.global	cH
 773              		.global	b
 774              		.global	aS
 775              		.global	a
 776              		.global	gS
 777              		.global	g
 778              		.global	f
 779              		.global	e
 780              		.global	d
 781              		.global	c
 782              		.comm	centimeter,4,4
 783              		.global	xMessageBuffer
 784              		.section	.rodata
 785              		.align	2
 786              		.type	aH, %object
 787              		.size	aH, 4
 788              	aH:
 789 0000 70030000 		.word	880
 790              		.type	gSH, %object
 791              		.size	gSH, 4
 792              	gSH:
 793 0004 3E030000 		.word	830
 794              		.type	gH, %object
 795              		.size	gH, 4
 796              	gH:
 797 0008 10030000 		.word	784
 798              		.type	fSH, %object
 799              		.size	fSH, 4
 800              	fSH:
 801 000c E4020000 		.word	740
 802              		.type	fH, %object
 803              		.size	fH, 4
 804              	fH:
 805 0010 BA020000 		.word	698
 806              		.type	eH, %object
 807              		.size	eH, 4
 808              	eH:
 809 0014 93020000 		.word	659
 810              		.type	dSH, %object
 811              		.size	dSH, 4
ARM GAS  C:\Users\Tri94\AppData\Local\Temp\cc2hlLap.s 			page 23


 812              	dSH:
 813 0018 6E020000 		.word	622
 814              		.type	dH, %object
 815              		.size	dH, 4
 816              	dH:
 817 001c 4B020000 		.word	587
 818              		.type	cSH, %object
 819              		.size	cSH, 4
 820              	cSH:
 821 0020 2A020000 		.word	554
 822              		.type	cH, %object
 823              		.size	cH, 4
 824              	cH:
 825 0024 0B020000 		.word	523
 826              		.type	b, %object
 827              		.size	b, 4
 828              	b:
 829 0028 D2010000 		.word	466
 830              		.type	aS, %object
 831              		.size	aS, 4
 832              	aS:
 833 002c C7010000 		.word	455
 834              		.type	a, %object
 835              		.size	a, 4
 836              	a:
 837 0030 B8010000 		.word	440
 838              		.type	gS, %object
 839              		.size	gS, 4
 840              	gS:
 841 0034 9F010000 		.word	415
 842              		.type	g, %object
 843              		.size	g, 4
 844              	g:
 845 0038 87010000 		.word	391
 846              		.type	f, %object
 847              		.size	f, 4
 848              	f:
 849 003c 5D010000 		.word	349
 850              		.type	e, %object
 851              		.size	e, 4
 852              	e:
 853 0040 49010000 		.word	329
 854              		.type	d, %object
 855              		.size	d, 4
 856              	d:
 857 0044 26010000 		.word	294
 858              		.type	c, %object
 859              		.size	c, 4
 860              	c:
 861 0048 05010000 		.word	261
 862              		.section	.rodata.str1.4,"aMS",%progbits,1
 863              		.align	2
 864              	.LC1:
 865 0000 53455256 		.ascii	"SERVOOPEN\000"
 865      4F4F5045 
 865      4E00
 866 000a 0000     		.space	2
ARM GAS  C:\Users\Tri94\AppData\Local\Temp\cc2hlLap.s 			page 24


 867              	.LC2:
 868 000c 53455256 		.ascii	"SERVOCLOSE\000"
 868      4F434C4F 
 868      534500
 869 0017 00       		.space	1
 870              	.LC3:
 871 0018 4C45444F 		.ascii	"LEDON\000"
 871      4E00
 872 001e 0000     		.space	2
 873              	.LC4:
 874 0020 4C45444F 		.ascii	"LEDOFF\000"
 874      464600
 875 0027 00       		.space	1
 876              	.LC0:
 877 0028 48656C6C 		.ascii	"Hello world\000"
 877      6F20776F 
 877      726C6400 
 878              	.LC5:
 879 0034 5461736B 		.ascii	"Task 1\000"
 879      203100
 880 003b 00       		.space	1
 881              	.LC6:
 882 003c 52656164 		.ascii	"Read Sensor\000"
 882      2053656E 
 882      736F7200 
 883              		.bss
 884              		.align	2
 885              		.set	.LANCHOR0,. + 0
 886              		.type	xMessageBuffer, %object
 887              		.size	xMessageBuffer, 4
 888              	xMessageBuffer:
 889 0000 00000000 		.space	4
 890              		.text
 891              	.Letext0:
 892              		.file 2 "c:\\program files (x86)\\cypress\\psoc creator\\4.2\\psoc creator\\import\\gnu\\arm\\5.4.
 893              		.file 3 "c:\\program files (x86)\\cypress\\psoc creator\\4.2\\psoc creator\\import\\gnu\\arm\\5.4.
 894              		.file 4 "Generated_Source\\PSoC5/cytypes.h"
 895              		.file 5 "c:\\program files (x86)\\cypress\\psoc creator\\4.2\\psoc creator\\import\\gnu\\arm\\5.4.
 896              		.file 6 "..\\FreeRTOS\\portable\\GCC\\ARM_CM3/portmacro.h"
 897              		.file 7 "..\\FreeRTOS\\include/stream_buffer.h"
 898              		.file 8 "..\\FreeRTOS\\include/message_buffer.h"
 899              		.file 9 "Generated_Source\\PSoC5/core_cm3.h"
 900              		.file 10 "Generated_Source\\PSoC5/UART.h"
 901              		.file 11 "c:\\program files (x86)\\cypress\\psoc creator\\4.2\\psoc creator\\import\\gnu\\arm\\5.4
 902              		.file 12 "Generated_Source\\PSoC5/PWM_Servo.h"
 903              		.file 13 "Generated_Source\\PSoC5/LED.h"
 904              		.file 14 "..\\FreeRTOS\\include/task.h"
 905              		.file 15 "Generated_Source\\PSoC5/Trigger.h"
 906              		.file 16 "Generated_Source\\PSoC5/CyLib.h"
 907              		.file 17 "Generated_Source\\PSoC5/Echo.h"
 908              		.file 18 "Generated_Source\\PSoC5/Timer.h"
 909              		.file 19 "Generated_Source\\PSoC5/ISR_UART.h"
 910              		.file 20 "Generated_Source\\PSoC5/PWM_Music.h"
 911              		.file 21 "..\\FreeRTOS/FreeRTOS_PSoC.h"