ARM GAS  C:\Users\Tri94\AppData\Local\Temp\ccHPJWaH.s 			page 1


   1              		.syntax unified
   2              		.cpu cortex-m3
   3              		.fpu softvfp
   4              		.eabi_attribute 20, 1
   5              		.eabi_attribute 21, 1
   6              		.eabi_attribute 23, 3
   7              		.eabi_attribute 24, 1
   8              		.eabi_attribute 25, 1
   9              		.eabi_attribute 26, 1
  10              		.eabi_attribute 30, 1
  11              		.eabi_attribute 34, 1
  12              		.eabi_attribute 18, 4
  13              		.thumb
  14              		.syntax unified
  15              		.file	"main.c"
  16              		.text
  17              	.Ltext0:
  18              		.cfi_sections	.debug_frame
  19              		.section	.text.myISR_UART,"ax",%progbits
  20              		.align	2
  21              		.global	myISR_UART
  22              		.thumb
  23              		.thumb_func
  24              		.type	myISR_UART, %function
  25              	myISR_UART:
  26              	.LFB71:
  27              		.file 1 "main.c"
   1:main.c        **** /* ========================================
   2:main.c        ****  *
   3:main.c        ****  * Copyright YOUR COMPANY, THE YEAR
   4:main.c        ****  * All Rights Reserved
   5:main.c        ****  * UNPUBLISHED, LICENSED SOFTWARE.
   6:main.c        ****  *
   7:main.c        ****  * CONFIDENTIAL AND PROPRIETARY INFORMATION
   8:main.c        ****  * WHICH IS THE PROPERTY OF your company.
   9:main.c        ****  *
  10:main.c        ****  * ========================================
  11:main.c        **** */
  12:main.c        **** #include "project.h"
  13:main.c        **** #include <stdio.h>
  14:main.c        **** #include <stdlib.h>
  15:main.c        **** #include <stdint.h>
  16:main.c        **** #include <stdbool.h>
  17:main.c        **** 
  18:main.c        **** // ROTS Header Files
  19:main.c        **** #include "FreeRTOS_PSoC.h"
  20:main.c        **** #include "FreeRTOS.h"
  21:main.c        **** #include "task.h"
  22:main.c        **** #include "queue.h"
  23:main.c        **** #include "semphr.h"
  24:main.c        **** #include "timers.h"
  25:main.c        **** #include "event_groups.h"
  26:main.c        **** #include "message_buffer.h"
  27:main.c        **** 
  28:main.c        **** // Your task function
  29:main.c        **** void vUARTTask1(void *pvParaments);
  30:main.c        **** void vReadUltraSonicTask(void *pvParaments);
ARM GAS  C:\Users\Tri94\AppData\Local\Temp\ccHPJWaH.s 			page 2


  31:main.c        **** 
  32:main.c        **** void beep(int note, int duration);
  33:main.c        **** void firstSection();
  34:main.c        **** void secondSection();
  35:main.c        **** void myPSoCSetup();
  36:main.c        **** 
  37:main.c        **** MessageBufferHandle_t xMessageBuffer = NULL;
  38:main.c        **** #define               MESSAGE_BUFFER_SIZE 100
  39:main.c        **** 
  40:main.c        **** CY_ISR_PROTO(myISR_UART);
  41:main.c        **** 
  42:main.c        **** #define CMP0    19099
  43:main.c        **** #define CMP180  17599
  44:main.c        **** 
  45:main.c        **** 
  46:main.c        **** 
  47:main.c        **** int main(void)
  48:main.c        **** {
  49:main.c        ****     BaseType_t err;
  50:main.c        ****     
  51:main.c        ****     CyGlobalIntEnable; /* Enable global interrupts. */
  52:main.c        **** 
  53:main.c        ****     /* Place your initialization/startup code here (e.g. MyInst_Start()) */
  54:main.c        ****     FreeRTOS_Init();
  55:main.c        ****     myPSoCSetup();
  56:main.c        ****     
  57:main.c        ****     // Create Mutex
  58:main.c        ****    xMessageBuffer = xMessageBufferCreate(MESSAGE_BUFFER_SIZE);
  59:main.c        **** 
  60:main.c        ****     if (xMessageBuffer == NULL){
  61:main.c        ****         while(1);   // Stop system here
  62:main.c        ****     }
  63:main.c        ****     
  64:main.c        ****     // Create Task
  65:main.c        ****     err = xTaskCreate(vUARTTask1,                   // Taskfunction_t pvTaskCode,
  66:main.c        ****                         "Task 1",                   // const char * const pcName,
  67:main.c        ****                         configMINIMAL_STACK_SIZE,   // unsigned short usStackDepth,
  68:main.c        ****                         NULL,                       // void *pvParameters,
  69:main.c        ****                         configMAX_PRIORITIES-1,     // UBaseType_t uxPriority,
  70:main.c        ****                         NULL);                      // TaskHandle_t *pxCreatedTask );
  71:main.c        ****     
  72:main.c        ****     if (err != pdPASS){
  73:main.c        ****         // Cannot create task!
  74:main.c        ****         while(1);
  75:main.c        ****     }
  76:main.c        ****     
  77:main.c        ****     // Create a task to read sensor data from the ultra sonic sensor
  78:main.c        ****     err = xTaskCreate(vReadUltraSonicTask,          // Taskfunction_t pvTaskCode,
  79:main.c        ****                         "Read Sensor",              // const char * const pcName,
  80:main.c        ****                         configMINIMAL_STACK_SIZE,   // unsigned short usStackDepth,
  81:main.c        ****                         NULL,                       // void *pvParameters,
  82:main.c        ****                         configMAX_PRIORITIES-1,     // UBaseType_t uxPriority,
  83:main.c        ****                         NULL);                      // TaskHandle_t *pxCreatedTask );
  84:main.c        ****     
  85:main.c        ****     if (err != pdPASS){
  86:main.c        ****         // Cannot create task!
  87:main.c        ****         while(1);
ARM GAS  C:\Users\Tri94\AppData\Local\Temp\ccHPJWaH.s 			page 3


  88:main.c        ****     }
  89:main.c        ****    
  90:main.c        ****     // Start the scheduler, so the tasks start executing
  91:main.c        ****     vTaskStartScheduler();
  92:main.c        ****     
  93:main.c        ****     for(;;)
  94:main.c        ****     {
  95:main.c        ****         /* Place your application code here. */
  96:main.c        ****     }
  97:main.c        **** }
  98:main.c        **** 
  99:main.c        **** void myPSoCSetup(){
 100:main.c        ****     
 101:main.c        ****     
 102:main.c        ****     // Place your component's start code here
 103:main.c        ****     ISR_UART_StartEx(myISR_UART);
 104:main.c        ****     UART_Start();
 105:main.c        ****     PWM_Servo_Start();
 106:main.c        ****     PWM_Music_Start();
 107:main.c        ****     UART_USB_Start();
 108:main.c        ****     UART_USB_PutString("Start\r\n");
 109:main.c        **** }
 110:main.c        **** 
 111:main.c        **** typedef enum STATES_CMD{
 112:main.c        ****     S_IDLE,
 113:main.c        ****     S_GOT_DATE
 114:main.c        **** }STATES_CMD;
 115:main.c        **** 
 116:main.c        **** CY_ISR(myISR_UART){
  28              		.loc 1 116 0
  29              		.cfi_startproc
  30              		@ args = 0, pretend = 0, frame = 24
  31              		@ frame_needed = 0, uses_anonymous_args = 0
  32 0000 70B5     		push	{r4, r5, r6, lr}
  33              		.cfi_def_cfa_offset 16
  34              		.cfi_offset 4, -16
  35              		.cfi_offset 5, -12
  36              		.cfi_offset 6, -8
  37              		.cfi_offset 14, -4
  38 0002 86B0     		sub	sp, sp, #24
  39              		.cfi_def_cfa_offset 40
  40              	.LVL0:
 117:main.c        ****     static char         buf[20];
 118:main.c        ****     static int          idx = 0;
 119:main.c        ****     static STATES_CMD   state = S_IDLE;
 120:main.c        ****     char                ch;
 121:main.c        ****     char                str[20];
 122:main.c        ****     BaseType_t          xHigherPriorityTaskWoken = pdFALSE; /* Initialised to pdFALSE */
 123:main.c        ****     
 124:main.c        ****     
 125:main.c        ****     while (UART_GetRxBufferSize()  > 0){
  41              		.loc 1 125 0
  42 0004 2CE0     		b	.L2
  43              	.L8:
 126:main.c        ****         ch = UART_GetChar();
  44              		.loc 1 126 0
  45 0006 FFF7FEFF 		bl	UART_GetChar
ARM GAS  C:\Users\Tri94\AppData\Local\Temp\ccHPJWaH.s 			page 4


  46              	.LVL1:
 127:main.c        ****         
 128:main.c        ****         switch (state){
  47              		.loc 1 128 0
  48 000a 194B     		ldr	r3, .L11
  49 000c 1B78     		ldrb	r3, [r3]	@ zero_extendqisi2
  50 000e 13B1     		cbz	r3, .L4
  51 0010 012B     		cmp	r3, #1
  52 0012 06D0     		beq	.L5
  53 0014 24E0     		b	.L2
  54              	.L4:
 129:main.c        ****             case S_IDLE:
 130:main.c        ****                 if (ch == '+'){
  55              		.loc 1 130 0
  56 0016 2B28     		cmp	r0, #43
  57 0018 22D1     		bne	.L2
 131:main.c        ****                     state = S_GOT_DATE;
  58              		.loc 1 131 0
  59 001a 0122     		movs	r2, #1
  60 001c 144B     		ldr	r3, .L11
  61 001e 1A70     		strb	r2, [r3]
  62 0020 1EE0     		b	.L2
  63              	.L5:
 132:main.c        ****                 }
 133:main.c        ****                 break;
 134:main.c        ****             case S_GOT_DATE:
 135:main.c        ****                 if (ch == '\r'){
  64              		.loc 1 135 0
  65 0022 0D28     		cmp	r0, #13
  66 0024 00D1     		bne	.L6
 136:main.c        ****                     ch = '\0';                
  67              		.loc 1 136 0
  68 0026 0020     		movs	r0, #0
  69              	.LVL2:
  70              	.L6:
 137:main.c        ****                 }
 138:main.c        ****                 if (ch == '\n'){
  71              		.loc 1 138 0
  72 0028 0A28     		cmp	r0, #10
  73 002a 13D1     		bne	.L7
 139:main.c        ****                     state = S_IDLE;
  74              		.loc 1 139 0
  75 002c 104C     		ldr	r4, .L11
  76 002e 0025     		movs	r5, #0
  77 0030 2570     		strb	r5, [r4]
 140:main.c        ****                     xMessageBufferSendFromISR(xMessageBuffer, buf, idx, xHigherPriorityTaskWoken);
  78              		.loc 1 140 0
  79 0032 04F10806 		add	r6, r4, #8
  80 0036 2B46     		mov	r3, r5
  81 0038 6268     		ldr	r2, [r4, #4]
  82 003a 3146     		mov	r1, r6
  83 003c E069     		ldr	r0, [r4, #28]
  84              	.LVL3:
  85 003e FFF7FEFF 		bl	xStreamBufferSendFromISR
  86              	.LVL4:
 141:main.c        ****                     idx = 0;
  87              		.loc 1 141 0
ARM GAS  C:\Users\Tri94\AppData\Local\Temp\ccHPJWaH.s 			page 5


  88 0042 6560     		str	r5, [r4, #4]
 142:main.c        ****                     sprintf(str,"%s",buf);
  89              		.loc 1 142 0
  90 0044 3146     		mov	r1, r6
  91 0046 01A8     		add	r0, sp, #4
  92 0048 FFF7FEFF 		bl	strcpy
  93              	.LVL5:
 143:main.c        ****                     UART_PutString(str); 
  94              		.loc 1 143 0
  95 004c 01A8     		add	r0, sp, #4
  96 004e FFF7FEFF 		bl	UART_PutString
  97              	.LVL6:
 144:main.c        ****                     break;
  98              		.loc 1 144 0
  99 0052 05E0     		b	.L2
 100              	.LVL7:
 101              	.L7:
 145:main.c        ****                 }
 146:main.c        ****                 buf[idx++] = ch;
 102              		.loc 1 146 0
 103 0054 064A     		ldr	r2, .L11
 104 0056 5368     		ldr	r3, [r2, #4]
 105 0058 591C     		adds	r1, r3, #1
 106 005a 5160     		str	r1, [r2, #4]
 107 005c 1344     		add	r3, r3, r2
 108 005e 1872     		strb	r0, [r3, #8]
 109              	.LVL8:
 110              	.L2:
 125:main.c        ****         ch = UART_GetChar();
 111              		.loc 1 125 0
 112 0060 FFF7FEFF 		bl	UART_GetRxBufferSize
 113              	.LVL9:
 114 0064 0028     		cmp	r0, #0
 115 0066 CED1     		bne	.L8
 147:main.c        ****                 break;
 148:main.c        ****         }
 149:main.c        ****     }
 150:main.c        ****     UART_ReadRxStatus(); // Clear IRQ signal
 116              		.loc 1 150 0
 117 0068 FFF7FEFF 		bl	UART_ReadRxStatus
 118              	.LVL10:
 151:main.c        ****     
 152:main.c        **** }
 119              		.loc 1 152 0
 120 006c 06B0     		add	sp, sp, #24
 121              		.cfi_def_cfa_offset 16
 122              		@ sp needed
 123 006e 70BD     		pop	{r4, r5, r6, pc}
 124              	.L12:
 125              		.align	2
 126              	.L11:
 127 0070 00000000 		.word	.LANCHOR0
 128              		.cfi_endproc
 129              	.LFE71:
 130              		.size	myISR_UART, .-myISR_UART
 131              		.global	__aeabi_i2d
 132              		.global	__aeabi_dmul
ARM GAS  C:\Users\Tri94\AppData\Local\Temp\ccHPJWaH.s 			page 6


 133              		.global	__aeabi_d2iz
 134              		.section	.text.vReadUltraSonicTask,"ax",%progbits
 135              		.align	2
 136              		.global	vReadUltraSonicTask
 137              		.thumb
 138              		.thumb_func
 139              		.type	vReadUltraSonicTask, %function
 140              	vReadUltraSonicTask:
 141              	.LFB73:
 153:main.c        **** 
 154:main.c        **** void vUARTTask1(void *pvParaments){
 155:main.c        ****     
 156:main.c        ****     char    buf[20];
 157:main.c        ****     size_t  rxSize;
 158:main.c        ****     char    *delim = ":";
 159:main.c        ****     char    *pch;
 160:main.c        ****     
 161:main.c        ****     while(1){
 162:main.c        ****         if (xMessageBufferIsEmpty( xMessageBuffer ) == pdFALSE){ // Check if there is something in 
 163:main.c        ****             rxSize = xMessageBufferReceive(xMessageBuffer,buf,sizeof(buf),100);
 164:main.c        ****             pch = strtok(buf, delim);
 165:main.c        ****             if (strcmp(pch, "SystemON") == 0){
 166:main.c        ****                 PWM_Servo_WriteCompare(CMP180);
 167:main.c        ****                 LED_Write(1);
 168:main.c        ****                 firstSection();
 169:main.c        ****             }else if (strcmp(pch, "SystemOFF") == 0){
 170:main.c        ****                 PWM_Servo_WriteCompare(CMP0);
 171:main.c        ****                 LED_Write(0);
 172:main.c        ****                 firstSection();
 173:main.c        ****             }
 174:main.c        ****         }
 175:main.c        ****         vTaskDelay(pdMS_TO_TICKS(100)); // Delay for 100 ms
 176:main.c        ****     }
 177:main.c        **** }
 178:main.c        **** 
 179:main.c        **** void vReadUltraSonicTask(void *pvParaments){
 142              		.loc 1 179 0
 143              		.cfi_startproc
 144              		@ args = 0, pretend = 0, frame = 24
 145              		@ frame_needed = 0, uses_anonymous_args = 0
 146              	.LVL11:
 147 0000 10B5     		push	{r4, lr}
 148              		.cfi_def_cfa_offset 8
 149              		.cfi_offset 4, -8
 150              		.cfi_offset 14, -4
 151 0002 86B0     		sub	sp, sp, #24
 152              		.cfi_def_cfa_offset 32
 153              	.LVL12:
 154              	.L16:
 180:main.c        ****     
 181:main.c        ****     uint16 counts = 0;
 182:main.c        ****     float  meter  = 0;
 183:main.c        ****     int centimeter;
 184:main.c        ****     char str[20];
 185:main.c        ****     
 186:main.c        ****     while(1){
 187:main.c        ****         LED_Write(1);
ARM GAS  C:\Users\Tri94\AppData\Local\Temp\ccHPJWaH.s 			page 7


 155              		.loc 1 187 0
 156 0004 0120     		movs	r0, #1
 157 0006 FFF7FEFF 		bl	LED_Write
 158              	.LVL13:
 188:main.c        ****         Trigger_Write(1);
 159              		.loc 1 188 0
 160 000a 0120     		movs	r0, #1
 161 000c FFF7FEFF 		bl	Trigger_Write
 162              	.LVL14:
 189:main.c        ****         vTaskDelay(pdMS_TO_TICKS(10)); // Delay for 200 ms
 163              		.loc 1 189 0
 164 0010 0A20     		movs	r0, #10
 165 0012 FFF7FEFF 		bl	vTaskDelay
 166              	.LVL15:
 190:main.c        ****         //CyDelayUs(10);
 191:main.c        ****         Trigger_Write(0);
 167              		.loc 1 191 0
 168 0016 0020     		movs	r0, #0
 169 0018 FFF7FEFF 		bl	Trigger_Write
 170              	.LVL16:
 171              	.L14:
 192:main.c        ****               
 193:main.c        ****         while(Echo_Read() != 1); //wait until return pulse starts
 172              		.loc 1 193 0 discriminator 1
 173 001c FFF7FEFF 		bl	Echo_Read
 174              	.LVL17:
 175 0020 0128     		cmp	r0, #1
 176 0022 FBD1     		bne	.L14
 194:main.c        ****         Timer_Start();
 177              		.loc 1 194 0
 178 0024 FFF7FEFF 		bl	Timer_Start
 179              	.LVL18:
 180              	.L15:
 195:main.c        ****         while(Echo_Read() != 0); //wait unit return pulse stops 
 181              		.loc 1 195 0 discriminator 1
 182 0028 FFF7FEFF 		bl	Echo_Read
 183              	.LVL19:
 184 002c 0028     		cmp	r0, #0
 185 002e FBD1     		bne	.L15
 196:main.c        ****         
 197:main.c        ****         counts = 0xFFFF-Timer_ReadCounter();        
 186              		.loc 1 197 0
 187 0030 FFF7FEFF 		bl	Timer_ReadCounter
 188              	.LVL20:
 189 0034 C043     		mvns	r0, r0
 190              	.LVL21:
 198:main.c        ****         centimeter = counts * 0.01717; //Convert pulse width to centimeters.         
 191              		.loc 1 198 0
 192 0036 80B2     		uxth	r0, r0
 193 0038 FFF7FEFF 		bl	__aeabi_i2d
 194              	.LVL22:
 195 003c 10A3     		adr	r3, .L18
 196 003e D3E90023 		ldrd	r2, [r3]
 197 0042 FFF7FEFF 		bl	__aeabi_dmul
 198              	.LVL23:
 199 0046 FFF7FEFF 		bl	__aeabi_d2iz
 200              	.LVL24:
ARM GAS  C:\Users\Tri94\AppData\Local\Temp\ccHPJWaH.s 			page 8


 201 004a 0446     		mov	r4, r0
 202              	.LVL25:
 199:main.c        ****            
 200:main.c        ****         vTaskDelay(pdMS_TO_TICKS(200)); // Delay for 200 ms
 203              		.loc 1 200 0
 204 004c C820     		movs	r0, #200
 205              	.LVL26:
 206 004e FFF7FEFF 		bl	vTaskDelay
 207              	.LVL27:
 201:main.c        ****         Timer_Stop();
 208              		.loc 1 201 0
 209 0052 FFF7FEFF 		bl	Timer_Stop
 210              	.LVL28:
 202:main.c        ****         LED_Write(0);
 211              		.loc 1 202 0
 212 0056 0020     		movs	r0, #0
 213 0058 FFF7FEFF 		bl	LED_Write
 214              	.LVL29:
 203:main.c        ****         
 204:main.c        ****         sprintf(str,"+%d:\r\n",centimeter);
 215              		.loc 1 204 0
 216 005c 2246     		mov	r2, r4
 217 005e 0A49     		ldr	r1, .L18+8
 218 0060 01A8     		add	r0, sp, #4
 219 0062 FFF7FEFF 		bl	sprintf
 220              	.LVL30:
 205:main.c        ****         UART_PutString(str);
 221              		.loc 1 205 0
 222 0066 01A8     		add	r0, sp, #4
 223 0068 FFF7FEFF 		bl	UART_PutString
 224              	.LVL31:
 206:main.c        ****         
 207:main.c        ****         UART_USB_PutString("Sending ");
 225              		.loc 1 207 0
 226 006c 0748     		ldr	r0, .L18+12
 227 006e FFF7FEFF 		bl	UART_USB_PutString
 228              	.LVL32:
 208:main.c        ****         UART_USB_PutString(str);
 229              		.loc 1 208 0
 230 0072 01A8     		add	r0, sp, #4
 231 0074 FFF7FEFF 		bl	UART_USB_PutString
 232              	.LVL33:
 209:main.c        ****         
 210:main.c        ****     }
 233              		.loc 1 210 0
 234 0078 C4E7     		b	.L16
 235              	.L19:
 236 007a 00BFAFF3 		.align	3
 236      0080
 237              	.L18:
 238 0080 DBA7E331 		.word	837003227
 239 0084 0395913F 		.word	1066505475
 240 0088 00000000 		.word	.LC0
 241 008c 08000000 		.word	.LC1
 242              		.cfi_endproc
 243              	.LFE73:
 244              		.size	vReadUltraSonicTask, .-vReadUltraSonicTask
ARM GAS  C:\Users\Tri94\AppData\Local\Temp\ccHPJWaH.s 			page 9


 245              		.section	.text.myPSoCSetup,"ax",%progbits
 246              		.align	2
 247              		.global	myPSoCSetup
 248              		.thumb
 249              		.thumb_func
 250              		.type	myPSoCSetup, %function
 251              	myPSoCSetup:
 252              	.LFB70:
  99:main.c        ****     
 253              		.loc 1 99 0
 254              		.cfi_startproc
 255              		@ args = 0, pretend = 0, frame = 0
 256              		@ frame_needed = 0, uses_anonymous_args = 0
 257 0000 08B5     		push	{r3, lr}
 258              		.cfi_def_cfa_offset 8
 259              		.cfi_offset 3, -8
 260              		.cfi_offset 14, -4
 103:main.c        ****     UART_Start();
 261              		.loc 1 103 0
 262 0002 0748     		ldr	r0, .L22
 263 0004 FFF7FEFF 		bl	ISR_UART_StartEx
 264              	.LVL34:
 104:main.c        ****     PWM_Servo_Start();
 265              		.loc 1 104 0
 266 0008 FFF7FEFF 		bl	UART_Start
 267              	.LVL35:
 105:main.c        ****     PWM_Music_Start();
 268              		.loc 1 105 0
 269 000c FFF7FEFF 		bl	PWM_Servo_Start
 270              	.LVL36:
 106:main.c        ****     UART_USB_Start();
 271              		.loc 1 106 0
 272 0010 FFF7FEFF 		bl	PWM_Music_Start
 273              	.LVL37:
 107:main.c        ****     UART_USB_PutString("Start\r\n");
 274              		.loc 1 107 0
 275 0014 FFF7FEFF 		bl	UART_USB_Start
 276              	.LVL38:
 108:main.c        **** }
 277              		.loc 1 108 0
 278 0018 0248     		ldr	r0, .L22+4
 279 001a FFF7FEFF 		bl	UART_USB_PutString
 280              	.LVL39:
 281 001e 08BD     		pop	{r3, pc}
 282              	.L23:
 283              		.align	2
 284              	.L22:
 285 0020 00000000 		.word	myISR_UART
 286 0024 14000000 		.word	.LC2
 287              		.cfi_endproc
 288              	.LFE70:
 289              		.size	myPSoCSetup, .-myPSoCSetup
 290              		.section	.text.main,"ax",%progbits
 291              		.align	2
 292              		.global	main
 293              		.thumb
 294              		.thumb_func
ARM GAS  C:\Users\Tri94\AppData\Local\Temp\ccHPJWaH.s 			page 10


 295              		.type	main, %function
 296              	main:
 297              	.LFB69:
  48:main.c        ****     BaseType_t err;
 298              		.loc 1 48 0
 299              		.cfi_startproc
 300              		@ args = 0, pretend = 0, frame = 0
 301              		@ frame_needed = 0, uses_anonymous_args = 0
 302 0000 00B5     		push	{lr}
 303              		.cfi_def_cfa_offset 4
 304              		.cfi_offset 14, -4
 305 0002 83B0     		sub	sp, sp, #12
 306              		.cfi_def_cfa_offset 16
  51:main.c        **** 
 307              		.loc 1 51 0
 308              		.syntax unified
 309              	@ 51 "main.c" 1
 310 0004 62B6     		CPSIE   i
 311              	@ 0 "" 2
  54:main.c        ****     myPSoCSetup();
 312              		.loc 1 54 0
 313              		.thumb
 314              		.syntax unified
 315 0006 FFF7FEFF 		bl	FreeRTOS_Init
 316              	.LVL40:
  55:main.c        ****     
 317              		.loc 1 55 0
 318 000a FFF7FEFF 		bl	myPSoCSetup
 319              	.LVL41:
  58:main.c        **** 
 320              		.loc 1 58 0
 321 000e 0122     		movs	r2, #1
 322 0010 0021     		movs	r1, #0
 323 0012 6420     		movs	r0, #100
 324 0014 FFF7FEFF 		bl	xStreamBufferGenericCreate
 325              	.LVL42:
 326 0018 0F4B     		ldr	r3, .L33
 327 001a D861     		str	r0, [r3, #28]
  60:main.c        ****         while(1);   // Stop system here
 328              		.loc 1 60 0
 329 001c 00B9     		cbnz	r0, .L25
 330              	.L26:
 331 001e FEE7     		b	.L26
 332              	.L25:
  65:main.c        ****                         "Task 1",                   // const char * const pcName,
 333              		.loc 1 65 0
 334 0020 0023     		movs	r3, #0
 335 0022 0193     		str	r3, [sp, #4]
 336 0024 0422     		movs	r2, #4
 337 0026 0092     		str	r2, [sp]
 338 0028 C822     		movs	r2, #200
 339 002a 0C49     		ldr	r1, .L33+4
 340 002c 0C48     		ldr	r0, .L33+8
 341 002e FFF7FEFF 		bl	xTaskCreate
 342              	.LVL43:
  72:main.c        ****         // Cannot create task!
 343              		.loc 1 72 0
ARM GAS  C:\Users\Tri94\AppData\Local\Temp\ccHPJWaH.s 			page 11


 344 0032 0128     		cmp	r0, #1
 345 0034 00D0     		beq	.L27
 346              	.L28:
 347 0036 FEE7     		b	.L28
 348              	.L27:
  78:main.c        ****                         "Read Sensor",              // const char * const pcName,
 349              		.loc 1 78 0
 350 0038 0023     		movs	r3, #0
 351 003a 0193     		str	r3, [sp, #4]
 352 003c 0422     		movs	r2, #4
 353 003e 0092     		str	r2, [sp]
 354 0040 C822     		movs	r2, #200
 355 0042 0849     		ldr	r1, .L33+12
 356 0044 0848     		ldr	r0, .L33+16
 357              	.LVL44:
 358 0046 FFF7FEFF 		bl	xTaskCreate
 359              	.LVL45:
  85:main.c        ****         // Cannot create task!
 360              		.loc 1 85 0
 361 004a 0128     		cmp	r0, #1
 362 004c 00D0     		beq	.L29
 363              	.L30:
 364 004e FEE7     		b	.L30
 365              	.L29:
  91:main.c        ****     
 366              		.loc 1 91 0
 367 0050 FFF7FEFF 		bl	vTaskStartScheduler
 368              	.LVL46:
 369              	.L31:
 370 0054 FEE7     		b	.L31
 371              	.L34:
 372 0056 00BF     		.align	2
 373              	.L33:
 374 0058 00000000 		.word	.LANCHOR0
 375 005c 1C000000 		.word	.LC3
 376 0060 00000000 		.word	vUARTTask1
 377 0064 24000000 		.word	.LC4
 378 0068 00000000 		.word	vReadUltraSonicTask
 379              		.cfi_endproc
 380              	.LFE69:
 381              		.size	main, .-main
 382              		.section	.text.beep,"ax",%progbits
 383              		.align	2
 384              		.global	beep
 385              		.thumb
 386              		.thumb_func
 387              		.type	beep, %function
 388              	beep:
 389              	.LFB74:
 211:main.c        **** }
 212:main.c        **** 
 213:main.c        **** const int c = 261;
 214:main.c        **** const int d = 294;
 215:main.c        **** const int e = 329;
 216:main.c        **** const int f = 349;
 217:main.c        **** const int g = 391;
 218:main.c        **** const int gS = 415;
ARM GAS  C:\Users\Tri94\AppData\Local\Temp\ccHPJWaH.s 			page 12


 219:main.c        **** const int a = 440;
 220:main.c        **** const int aS = 455;
 221:main.c        **** const int b = 466;
 222:main.c        **** const int cH = 523;
 223:main.c        **** const int cSH = 554;
 224:main.c        **** const int dH = 587;
 225:main.c        **** const int dSH = 622;
 226:main.c        **** const int eH = 659;
 227:main.c        **** const int fH = 698;
 228:main.c        **** const int fSH = 740;
 229:main.c        **** const int gH = 784;
 230:main.c        **** const int gSH = 830;
 231:main.c        **** const int aH = 880;
 232:main.c        **** 
 233:main.c        **** void beep(int note, int duration)
 234:main.c        **** {
 390              		.loc 1 234 0
 391              		.cfi_startproc
 392              		@ args = 0, pretend = 0, frame = 0
 393              		@ frame_needed = 0, uses_anonymous_args = 0
 394              	.LVL47:
 395 0000 10B5     		push	{r4, lr}
 396              		.cfi_def_cfa_offset 8
 397              		.cfi_offset 4, -8
 398              		.cfi_offset 14, -4
 399 0002 0C46     		mov	r4, r1
 235:main.c        ****   //Play tone on buzzerPin
 236:main.c        ****   //tone(buzzerPin, note, duration);
 237:main.c        ****   PWM_Music_WriteCompare(note);
 400              		.loc 1 237 0
 401 0004 80B2     		uxth	r0, r0
 402              	.LVL48:
 403 0006 FFF7FEFF 		bl	PWM_Music_WriteCompare
 404              	.LVL49:
 238:main.c        ****   //CyDelay(duration);
 239:main.c        ****   vTaskDelay(pdMS_TO_TICKS(duration));
 405              		.loc 1 239 0
 406 000a 4FF47A70 		mov	r0, #1000
 407 000e 00FB04F1 		mul	r1, r0, r4
 408 0012 0348     		ldr	r0, .L37
 409 0014 A0FB0130 		umull	r3, r0, r0, r1
 410 0018 8009     		lsrs	r0, r0, #6
 411 001a FFF7FEFF 		bl	vTaskDelay
 412              	.LVL50:
 413 001e 10BD     		pop	{r4, pc}
 414              	.LVL51:
 415              	.L38:
 416              		.align	2
 417              	.L37:
 418 0020 D34D6210 		.word	274877907
 419              		.cfi_endproc
 420              	.LFE74:
 421              		.size	beep, .-beep
 422              		.section	.text.firstSection,"ax",%progbits
 423              		.align	2
 424              		.global	firstSection
 425              		.thumb
ARM GAS  C:\Users\Tri94\AppData\Local\Temp\ccHPJWaH.s 			page 13


 426              		.thumb_func
 427              		.type	firstSection, %function
 428              	firstSection:
 429              	.LFB75:
 240:main.c        **** }
 241:main.c        ****  
 242:main.c        **** void firstSection()
 243:main.c        **** {
 430              		.loc 1 243 0
 431              		.cfi_startproc
 432              		@ args = 0, pretend = 0, frame = 0
 433              		@ frame_needed = 0, uses_anonymous_args = 0
 434 0000 08B5     		push	{r3, lr}
 435              		.cfi_def_cfa_offset 8
 436              		.cfi_offset 3, -8
 437              		.cfi_offset 14, -4
 244:main.c        ****   beep(a, 500);
 438              		.loc 1 244 0
 439 0002 4FF4FA71 		mov	r1, #500
 440 0006 4FF4DC70 		mov	r0, #440
 441 000a FFF7FEFF 		bl	beep
 442              	.LVL52:
 245:main.c        ****   beep(a, 500);    
 443              		.loc 1 245 0
 444 000e 4FF4FA71 		mov	r1, #500
 445 0012 4FF4DC70 		mov	r0, #440
 446 0016 FFF7FEFF 		bl	beep
 447              	.LVL53:
 246:main.c        ****   beep(a, 500);
 448              		.loc 1 246 0
 449 001a 4FF4FA71 		mov	r1, #500
 450 001e 4FF4DC70 		mov	r0, #440
 451 0022 FFF7FEFF 		bl	beep
 452              	.LVL54:
 247:main.c        ****   beep(f, 350);
 453              		.loc 1 247 0
 454 0026 4FF4AF71 		mov	r1, #350
 455 002a 40F25D10 		movw	r0, #349
 456 002e FFF7FEFF 		bl	beep
 457              	.LVL55:
 248:main.c        ****   beep(cH, 150);  
 458              		.loc 1 248 0
 459 0032 9621     		movs	r1, #150
 460 0034 40F20B20 		movw	r0, #523
 461 0038 FFF7FEFF 		bl	beep
 462              	.LVL56:
 249:main.c        ****   beep(a, 500);
 463              		.loc 1 249 0
 464 003c 4FF4FA71 		mov	r1, #500
 465 0040 4FF4DC70 		mov	r0, #440
 466 0044 FFF7FEFF 		bl	beep
 467              	.LVL57:
 250:main.c        ****   beep(f, 350);
 468              		.loc 1 250 0
 469 0048 4FF4AF71 		mov	r1, #350
 470 004c 40F25D10 		movw	r0, #349
 471 0050 FFF7FEFF 		bl	beep
ARM GAS  C:\Users\Tri94\AppData\Local\Temp\ccHPJWaH.s 			page 14


 472              	.LVL58:
 251:main.c        ****   beep(cH, 150);
 473              		.loc 1 251 0
 474 0054 9621     		movs	r1, #150
 475 0056 40F20B20 		movw	r0, #523
 476 005a FFF7FEFF 		bl	beep
 477              	.LVL59:
 252:main.c        ****   beep(a, 650);
 478              		.loc 1 252 0
 479 005e 40F28A21 		movw	r1, #650
 480 0062 4FF4DC70 		mov	r0, #440
 481 0066 FFF7FEFF 		bl	beep
 482              	.LVL60:
 253:main.c        ****  
 254:main.c        ****   CyDelay(500);
 483              		.loc 1 254 0
 484 006a 4FF4FA70 		mov	r0, #500
 485 006e FFF7FEFF 		bl	CyDelay
 486              	.LVL61:
 255:main.c        ****  
 256:main.c        ****   beep(eH, 500);
 487              		.loc 1 256 0
 488 0072 4FF4FA71 		mov	r1, #500
 489 0076 40F29320 		movw	r0, #659
 490 007a FFF7FEFF 		bl	beep
 491              	.LVL62:
 257:main.c        ****   beep(eH, 500);
 492              		.loc 1 257 0
 493 007e 4FF4FA71 		mov	r1, #500
 494 0082 40F29320 		movw	r0, #659
 495 0086 FFF7FEFF 		bl	beep
 496              	.LVL63:
 258:main.c        ****   beep(eH, 500);  
 497              		.loc 1 258 0
 498 008a 4FF4FA71 		mov	r1, #500
 499 008e 40F29320 		movw	r0, #659
 500 0092 FFF7FEFF 		bl	beep
 501              	.LVL64:
 259:main.c        ****   beep(fH, 350);
 502              		.loc 1 259 0
 503 0096 4FF4AF71 		mov	r1, #350
 504 009a 40F2BA20 		movw	r0, #698
 505 009e FFF7FEFF 		bl	beep
 506              	.LVL65:
 260:main.c        ****   beep(cH, 150);
 507              		.loc 1 260 0
 508 00a2 9621     		movs	r1, #150
 509 00a4 40F20B20 		movw	r0, #523
 510 00a8 FFF7FEFF 		bl	beep
 511              	.LVL66:
 261:main.c        ****   beep(gS, 500);
 512              		.loc 1 261 0
 513 00ac 4FF4FA71 		mov	r1, #500
 514 00b0 40F29F10 		movw	r0, #415
 515 00b4 FFF7FEFF 		bl	beep
 516              	.LVL67:
 262:main.c        ****   beep(f, 350);
ARM GAS  C:\Users\Tri94\AppData\Local\Temp\ccHPJWaH.s 			page 15


 517              		.loc 1 262 0
 518 00b8 4FF4AF71 		mov	r1, #350
 519 00bc 40F25D10 		movw	r0, #349
 520 00c0 FFF7FEFF 		bl	beep
 521              	.LVL68:
 263:main.c        ****   beep(cH, 150);
 522              		.loc 1 263 0
 523 00c4 9621     		movs	r1, #150
 524 00c6 40F20B20 		movw	r0, #523
 525 00ca FFF7FEFF 		bl	beep
 526              	.LVL69:
 264:main.c        ****   beep(a, 650);
 527              		.loc 1 264 0
 528 00ce 40F28A21 		movw	r1, #650
 529 00d2 4FF4DC70 		mov	r0, #440
 530 00d6 FFF7FEFF 		bl	beep
 531              	.LVL70:
 265:main.c        ****  
 266:main.c        ****   CyDelay(500);
 532              		.loc 1 266 0
 533 00da 4FF4FA70 		mov	r0, #500
 534 00de FFF7FEFF 		bl	CyDelay
 535              	.LVL71:
 536 00e2 08BD     		pop	{r3, pc}
 537              		.cfi_endproc
 538              	.LFE75:
 539              		.size	firstSection, .-firstSection
 540              		.section	.text.vUARTTask1,"ax",%progbits
 541              		.align	2
 542              		.global	vUARTTask1
 543              		.thumb
 544              		.thumb_func
 545              		.type	vUARTTask1, %function
 546              	vUARTTask1:
 547              	.LFB72:
 154:main.c        ****     
 548              		.loc 1 154 0
 549              		.cfi_startproc
 550              		@ args = 0, pretend = 0, frame = 24
 551              		@ frame_needed = 0, uses_anonymous_args = 0
 552              	.LVL72:
 553 0000 10B5     		push	{r4, lr}
 554              		.cfi_def_cfa_offset 8
 555              		.cfi_offset 4, -8
 556              		.cfi_offset 14, -4
 557 0002 86B0     		sub	sp, sp, #24
 558              		.cfi_def_cfa_offset 32
 559              	.LVL73:
 560              	.L44:
 162:main.c        ****             rxSize = xMessageBufferReceive(xMessageBuffer,buf,sizeof(buf),100);
 561              		.loc 1 162 0
 562 0004 184B     		ldr	r3, .L46
 563 0006 D869     		ldr	r0, [r3, #28]
 564 0008 FFF7FEFF 		bl	xStreamBufferIsEmpty
 565              	.LVL74:
 566 000c 38BB     		cbnz	r0, .L42
 163:main.c        ****             pch = strtok(buf, delim);
ARM GAS  C:\Users\Tri94\AppData\Local\Temp\ccHPJWaH.s 			page 16


 567              		.loc 1 163 0
 568 000e 6423     		movs	r3, #100
 569 0010 1422     		movs	r2, #20
 570 0012 01A9     		add	r1, sp, #4
 571 0014 1448     		ldr	r0, .L46
 572 0016 C069     		ldr	r0, [r0, #28]
 573 0018 FFF7FEFF 		bl	xStreamBufferReceive
 574              	.LVL75:
 164:main.c        ****             if (strcmp(pch, "SystemON") == 0){
 575              		.loc 1 164 0
 576 001c 1349     		ldr	r1, .L46+4
 577 001e 01A8     		add	r0, sp, #4
 578 0020 FFF7FEFF 		bl	strtok
 579              	.LVL76:
 580 0024 0446     		mov	r4, r0
 581              	.LVL77:
 165:main.c        ****                 PWM_Servo_WriteCompare(CMP180);
 582              		.loc 1 165 0
 583 0026 1249     		ldr	r1, .L46+8
 584 0028 FFF7FEFF 		bl	strcmp
 585              	.LVL78:
 586 002c 48B9     		cbnz	r0, .L43
 166:main.c        ****                 LED_Write(1);
 587              		.loc 1 166 0
 588 002e 44F2BF40 		movw	r0, #17599
 589 0032 FFF7FEFF 		bl	PWM_Servo_WriteCompare
 590              	.LVL79:
 167:main.c        ****                 firstSection();
 591              		.loc 1 167 0
 592 0036 0120     		movs	r0, #1
 593 0038 FFF7FEFF 		bl	LED_Write
 594              	.LVL80:
 168:main.c        ****             }else if (strcmp(pch, "SystemOFF") == 0){
 595              		.loc 1 168 0
 596 003c FFF7FEFF 		bl	firstSection
 597              	.LVL81:
 598 0040 0DE0     		b	.L42
 599              	.L43:
 169:main.c        ****                 PWM_Servo_WriteCompare(CMP0);
 600              		.loc 1 169 0
 601 0042 0C49     		ldr	r1, .L46+12
 602 0044 2046     		mov	r0, r4
 603 0046 FFF7FEFF 		bl	strcmp
 604              	.LVL82:
 605 004a 40B9     		cbnz	r0, .L42
 170:main.c        ****                 LED_Write(0);
 606              		.loc 1 170 0
 607 004c 44F69B20 		movw	r0, #19099
 608 0050 FFF7FEFF 		bl	PWM_Servo_WriteCompare
 609              	.LVL83:
 171:main.c        ****                 firstSection();
 610              		.loc 1 171 0
 611 0054 0020     		movs	r0, #0
 612 0056 FFF7FEFF 		bl	LED_Write
 613              	.LVL84:
 172:main.c        ****             }
 614              		.loc 1 172 0
ARM GAS  C:\Users\Tri94\AppData\Local\Temp\ccHPJWaH.s 			page 17


 615 005a FFF7FEFF 		bl	firstSection
 616              	.LVL85:
 617              	.L42:
 175:main.c        ****     }
 618              		.loc 1 175 0
 619 005e 6420     		movs	r0, #100
 620 0060 FFF7FEFF 		bl	vTaskDelay
 621              	.LVL86:
 176:main.c        **** }
 622              		.loc 1 176 0
 623 0064 CEE7     		b	.L44
 624              	.L47:
 625 0066 00BF     		.align	2
 626              	.L46:
 627 0068 00000000 		.word	.LANCHOR0
 628 006c 30000000 		.word	.LC5
 629 0070 34000000 		.word	.LC6
 630 0074 40000000 		.word	.LC7
 631              		.cfi_endproc
 632              	.LFE72:
 633              		.size	vUARTTask1, .-vUARTTask1
 634              		.section	.text.secondSection,"ax",%progbits
 635              		.align	2
 636              		.global	secondSection
 637              		.thumb
 638              		.thumb_func
 639              		.type	secondSection, %function
 640              	secondSection:
 641              	.LFB76:
 267:main.c        **** }
 268:main.c        ****  
 269:main.c        **** void secondSection()
 270:main.c        **** {
 642              		.loc 1 270 0
 643              		.cfi_startproc
 644              		@ args = 0, pretend = 0, frame = 0
 645              		@ frame_needed = 0, uses_anonymous_args = 0
 646 0000 08B5     		push	{r3, lr}
 647              		.cfi_def_cfa_offset 8
 648              		.cfi_offset 3, -8
 649              		.cfi_offset 14, -4
 271:main.c        ****   beep(aH, 500);
 650              		.loc 1 271 0
 651 0002 4FF4FA71 		mov	r1, #500
 652 0006 4FF45C70 		mov	r0, #880
 653 000a FFF7FEFF 		bl	beep
 654              	.LVL87:
 272:main.c        ****   beep(a, 300);
 655              		.loc 1 272 0
 656 000e 4FF49671 		mov	r1, #300
 657 0012 4FF4DC70 		mov	r0, #440
 658 0016 FFF7FEFF 		bl	beep
 659              	.LVL88:
 273:main.c        ****   beep(a, 150);
 660              		.loc 1 273 0
 661 001a 9621     		movs	r1, #150
 662 001c 4FF4DC70 		mov	r0, #440
ARM GAS  C:\Users\Tri94\AppData\Local\Temp\ccHPJWaH.s 			page 18


 663 0020 FFF7FEFF 		bl	beep
 664              	.LVL89:
 274:main.c        ****   beep(aH, 500);
 665              		.loc 1 274 0
 666 0024 4FF4FA71 		mov	r1, #500
 667 0028 4FF45C70 		mov	r0, #880
 668 002c FFF7FEFF 		bl	beep
 669              	.LVL90:
 275:main.c        ****   beep(gSH, 325);
 670              		.loc 1 275 0
 671 0030 40F24511 		movw	r1, #325
 672 0034 40F23E30 		movw	r0, #830
 673 0038 FFF7FEFF 		bl	beep
 674              	.LVL91:
 276:main.c        ****   beep(gH, 175);
 675              		.loc 1 276 0
 676 003c AF21     		movs	r1, #175
 677 003e 4FF44470 		mov	r0, #784
 678 0042 FFF7FEFF 		bl	beep
 679              	.LVL92:
 277:main.c        ****   beep(fSH, 125);
 680              		.loc 1 277 0
 681 0046 7D21     		movs	r1, #125
 682 0048 4FF43970 		mov	r0, #740
 683 004c FFF7FEFF 		bl	beep
 684              	.LVL93:
 278:main.c        ****   beep(fH, 125);    
 685              		.loc 1 278 0
 686 0050 7D21     		movs	r1, #125
 687 0052 40F2BA20 		movw	r0, #698
 688 0056 FFF7FEFF 		bl	beep
 689              	.LVL94:
 279:main.c        ****   beep(fSH, 250);
 690              		.loc 1 279 0
 691 005a FA21     		movs	r1, #250
 692 005c 4FF43970 		mov	r0, #740
 693 0060 FFF7FEFF 		bl	beep
 694              	.LVL95:
 280:main.c        ****  
 281:main.c        ****   CyDelay(325);
 695              		.loc 1 281 0
 696 0064 40F24510 		movw	r0, #325
 697 0068 FFF7FEFF 		bl	CyDelay
 698              	.LVL96:
 282:main.c        ****  
 283:main.c        ****   beep(aS, 250);
 699              		.loc 1 283 0
 700 006c FA21     		movs	r1, #250
 701 006e 40F2C710 		movw	r0, #455
 702 0072 FFF7FEFF 		bl	beep
 703              	.LVL97:
 284:main.c        ****   beep(dSH, 500);
 704              		.loc 1 284 0
 705 0076 4FF4FA71 		mov	r1, #500
 706 007a 40F26E20 		movw	r0, #622
 707 007e FFF7FEFF 		bl	beep
 708              	.LVL98:
ARM GAS  C:\Users\Tri94\AppData\Local\Temp\ccHPJWaH.s 			page 19


 285:main.c        ****   beep(dH, 325);  
 709              		.loc 1 285 0
 710 0082 40F24511 		movw	r1, #325
 711 0086 40F24B20 		movw	r0, #587
 712 008a FFF7FEFF 		bl	beep
 713              	.LVL99:
 286:main.c        ****   beep(cSH, 175);  
 714              		.loc 1 286 0
 715 008e AF21     		movs	r1, #175
 716 0090 40F22A20 		movw	r0, #554
 717 0094 FFF7FEFF 		bl	beep
 718              	.LVL100:
 287:main.c        ****   beep(cH, 125);  
 719              		.loc 1 287 0
 720 0098 7D21     		movs	r1, #125
 721 009a 40F20B20 		movw	r0, #523
 722 009e FFF7FEFF 		bl	beep
 723              	.LVL101:
 288:main.c        ****   beep(b, 125);  
 724              		.loc 1 288 0
 725 00a2 7D21     		movs	r1, #125
 726 00a4 4FF4E970 		mov	r0, #466
 727 00a8 FFF7FEFF 		bl	beep
 728              	.LVL102:
 289:main.c        ****   beep(cH, 250);  
 729              		.loc 1 289 0
 730 00ac FA21     		movs	r1, #250
 731 00ae 40F20B20 		movw	r0, #523
 732 00b2 FFF7FEFF 		bl	beep
 733              	.LVL103:
 290:main.c        ****  
 291:main.c        ****   CyDelay(350);
 734              		.loc 1 291 0
 735 00b6 4FF4AF70 		mov	r0, #350
 736 00ba FFF7FEFF 		bl	CyDelay
 737              	.LVL104:
 738 00be 08BD     		pop	{r3, pc}
 739              		.cfi_endproc
 740              	.LFE76:
 741              		.size	secondSection, .-secondSection
 742              		.section	.text.vMusicTask,"ax",%progbits
 743              		.align	2
 744              		.global	vMusicTask
 745              		.thumb
 746              		.thumb_func
 747              		.type	vMusicTask, %function
 748              	vMusicTask:
 749              	.LFB77:
 292:main.c        **** }
 293:main.c        **** void vMusicTask(void *pvParaments){
 750              		.loc 1 293 0
 751              		.cfi_startproc
 752              		@ Volatile: function does not return.
 753              		@ args = 0, pretend = 0, frame = 0
 754              		@ frame_needed = 0, uses_anonymous_args = 0
 755              		@ link register save eliminated.
 756              	.LVL105:
ARM GAS  C:\Users\Tri94\AppData\Local\Temp\ccHPJWaH.s 			page 20


 757              	.L51:
 758 0000 FEE7     		b	.L51
 759              		.cfi_endproc
 760              	.LFE77:
 761              		.size	vMusicTask, .-vMusicTask
 762              		.global	aH
 763              		.global	gSH
 764              		.global	gH
 765              		.global	fSH
 766              		.global	fH
 767              		.global	eH
 768              		.global	dSH
 769              		.global	dH
 770              		.global	cSH
 771              		.global	cH
 772              		.global	b
 773              		.global	aS
 774              		.global	a
 775              		.global	gS
 776              		.global	g
 777              		.global	f
 778              		.global	e
 779              		.global	d
 780              		.global	c
 781              		.global	xMessageBuffer
 782 0002 00BF     		.section	.rodata
 783              		.align	2
 784              		.type	aH, %object
 785              		.size	aH, 4
 786              	aH:
 787 0000 70030000 		.word	880
 788              		.type	gSH, %object
 789              		.size	gSH, 4
 790              	gSH:
 791 0004 3E030000 		.word	830
 792              		.type	gH, %object
 793              		.size	gH, 4
 794              	gH:
 795 0008 10030000 		.word	784
 796              		.type	fSH, %object
 797              		.size	fSH, 4
 798              	fSH:
 799 000c E4020000 		.word	740
 800              		.type	fH, %object
 801              		.size	fH, 4
 802              	fH:
 803 0010 BA020000 		.word	698
 804              		.type	eH, %object
 805              		.size	eH, 4
 806              	eH:
 807 0014 93020000 		.word	659
 808              		.type	dSH, %object
 809              		.size	dSH, 4
 810              	dSH:
 811 0018 6E020000 		.word	622
 812              		.type	dH, %object
 813              		.size	dH, 4
ARM GAS  C:\Users\Tri94\AppData\Local\Temp\ccHPJWaH.s 			page 21


 814              	dH:
 815 001c 4B020000 		.word	587
 816              		.type	cSH, %object
 817              		.size	cSH, 4
 818              	cSH:
 819 0020 2A020000 		.word	554
 820              		.type	cH, %object
 821              		.size	cH, 4
 822              	cH:
 823 0024 0B020000 		.word	523
 824              		.type	b, %object
 825              		.size	b, 4
 826              	b:
 827 0028 D2010000 		.word	466
 828              		.type	aS, %object
 829              		.size	aS, 4
 830              	aS:
 831 002c C7010000 		.word	455
 832              		.type	a, %object
 833              		.size	a, 4
 834              	a:
 835 0030 B8010000 		.word	440
 836              		.type	gS, %object
 837              		.size	gS, 4
 838              	gS:
 839 0034 9F010000 		.word	415
 840              		.type	g, %object
 841              		.size	g, 4
 842              	g:
 843 0038 87010000 		.word	391
 844              		.type	f, %object
 845              		.size	f, 4
 846              	f:
 847 003c 5D010000 		.word	349
 848              		.type	e, %object
 849              		.size	e, 4
 850              	e:
 851 0040 49010000 		.word	329
 852              		.type	d, %object
 853              		.size	d, 4
 854              	d:
 855 0044 26010000 		.word	294
 856              		.type	c, %object
 857              		.size	c, 4
 858              	c:
 859 0048 05010000 		.word	261
 860              		.section	.rodata.str1.4,"aMS",%progbits,1
 861              		.align	2
 862              	.LC0:
 863 0000 2B25643A 		.ascii	"+%d:\015\012\000"
 863      0D0A00
 864 0007 00       		.space	1
 865              	.LC1:
 866 0008 53656E64 		.ascii	"Sending \000"
 866      696E6720 
 866      00
 867 0011 000000   		.space	3
ARM GAS  C:\Users\Tri94\AppData\Local\Temp\ccHPJWaH.s 			page 22


 868              	.LC2:
 869 0014 53746172 		.ascii	"Start\015\012\000"
 869      740D0A00 
 870              	.LC3:
 871 001c 5461736B 		.ascii	"Task 1\000"
 871      203100
 872 0023 00       		.space	1
 873              	.LC4:
 874 0024 52656164 		.ascii	"Read Sensor\000"
 874      2053656E 
 874      736F7200 
 875              	.LC5:
 876 0030 3A00     		.ascii	":\000"
 877 0032 0000     		.space	2
 878              	.LC6:
 879 0034 53797374 		.ascii	"SystemON\000"
 879      656D4F4E 
 879      00
 880 003d 000000   		.space	3
 881              	.LC7:
 882 0040 53797374 		.ascii	"SystemOFF\000"
 882      656D4F46 
 882      4600
 883              		.bss
 884              		.align	2
 885              		.set	.LANCHOR0,. + 0
 886              		.type	state.7782, %object
 887              		.size	state.7782, 1
 888              	state.7782:
 889 0000 00       		.space	1
 890 0001 000000   		.space	3
 891              		.type	idx.7781, %object
 892              		.size	idx.7781, 4
 893              	idx.7781:
 894 0004 00000000 		.space	4
 895              		.type	buf.7780, %object
 896              		.size	buf.7780, 20
 897              	buf.7780:
 898 0008 00000000 		.space	20
 898      00000000 
 898      00000000 
 898      00000000 
 898      00000000 
 899              		.type	xMessageBuffer, %object
 900              		.size	xMessageBuffer, 4
 901              	xMessageBuffer:
 902 001c 00000000 		.space	4
 903              		.text
 904              	.Letext0:
 905              		.file 2 "c:\\program files (x86)\\cypress\\psoc creator\\4.2\\psoc creator\\import\\gnu\\arm\\5.4.
 906              		.file 3 "c:\\program files (x86)\\cypress\\psoc creator\\4.2\\psoc creator\\import\\gnu\\arm\\5.4.
 907              		.file 4 "Generated_Source\\PSoC5/cytypes.h"
 908              		.file 5 "c:\\program files (x86)\\cypress\\psoc creator\\4.2\\psoc creator\\import\\gnu\\arm\\5.4.
 909              		.file 6 "..\\FreeRTOS\\portable\\GCC\\ARM_CM3/portmacro.h"
 910              		.file 7 "..\\FreeRTOS\\include/stream_buffer.h"
 911              		.file 8 "..\\FreeRTOS\\include/message_buffer.h"
 912              		.file 9 "Generated_Source\\PSoC5/core_cm3.h"
ARM GAS  C:\Users\Tri94\AppData\Local\Temp\ccHPJWaH.s 			page 23


 913              		.file 10 "Generated_Source\\PSoC5/UART.h"
 914              		.file 11 "Generated_Source\\PSoC5/LED.h"
 915              		.file 12 "Generated_Source\\PSoC5/Trigger.h"
 916              		.file 13 "..\\FreeRTOS\\include/task.h"
 917              		.file 14 "Generated_Source\\PSoC5/Echo.h"
 918              		.file 15 "Generated_Source\\PSoC5/Timer.h"
 919              		.file 16 "c:\\program files (x86)\\cypress\\psoc creator\\4.2\\psoc creator\\import\\gnu\\arm\\5.4
 920              		.file 17 "Generated_Source\\PSoC5/UART_USB.h"
 921              		.file 18 "Generated_Source\\PSoC5/ISR_UART.h"
 922              		.file 19 "Generated_Source\\PSoC5/PWM_Servo.h"
 923              		.file 20 "Generated_Source\\PSoC5/PWM_Music.h"
 924              		.file 21 "..\\FreeRTOS/FreeRTOS_PSoC.h"
 925              		.file 22 "Generated_Source\\PSoC5/CyLib.h"
 926              		.file 23 "c:\\program files (x86)\\cypress\\psoc creator\\4.2\\psoc creator\\import\\gnu\\arm\\5.4
 927              		.file 24 "<built-in>"