ARM GAS  C:\Users\Tri94\AppData\Local\Temp\ccoQKe9q.s 			page 1


   1              		.syntax unified
   2              		.cpu cortex-m3
   3              		.fpu softvfp
   4              		.eabi_attribute 20, 1
   5              		.eabi_attribute 21, 1
   6              		.eabi_attribute 23, 3
   7              		.eabi_attribute 24, 1
   8              		.eabi_attribute 25, 1
   9              		.eabi_attribute 26, 1
  10              		.eabi_attribute 30, 1
  11              		.eabi_attribute 34, 1
  12              		.eabi_attribute 18, 4
  13              		.thumb
  14              		.syntax unified
  15              		.file	"main.c"
  16              		.text
  17              	.Ltext0:
  18              		.cfi_sections	.debug_frame
  19              		.section	.text.myPSoCSetup,"ax",%progbits
  20              		.align	2
  21              		.global	myPSoCSetup
  22              		.thumb
  23              		.thumb_func
  24              		.type	myPSoCSetup, %function
  25              	myPSoCSetup:
  26              	.LFB70:
  27              		.file 1 "main.c"
   1:main.c        **** /* ========================================
   2:main.c        ****  *
   3:main.c        ****  * Copyright YOUR COMPANY, THE YEAR
   4:main.c        ****  * All Rights Reserved
   5:main.c        ****  * UNPUBLISHED, LICENSED SOFTWARE.
   6:main.c        ****  *
   7:main.c        ****  * CONFIDENTIAL AND PROPRIETARY INFORMATION
   8:main.c        ****  * WHICH IS THE PROPERTY OF your company.
   9:main.c        ****  *
  10:main.c        ****  * ========================================
  11:main.c        **** */
  12:main.c        **** #include "project.h"
  13:main.c        **** #include <stdio.h>
  14:main.c        **** #include <stdlib.h>
  15:main.c        **** #include <stdint.h>
  16:main.c        **** #include <stdbool.h>
  17:main.c        **** 
  18:main.c        **** // ROTS Header Files
  19:main.c        **** #include "FreeRTOS_PSoC.h"
  20:main.c        **** #include "FreeRTOS.h"
  21:main.c        **** #include "task.h"
  22:main.c        **** #include "queue.h"
  23:main.c        **** #include "semphr.h"
  24:main.c        **** #include "timers.h"
  25:main.c        **** #include "event_groups.h"
  26:main.c        **** #include "message_buffer.h"
  27:main.c        **** 
  28:main.c        **** // Your task function
  29:main.c        **** void vReadUltraSonicTask(void *pvParaments);
  30:main.c        **** void vMusicTask(void *pvParaments);
ARM GAS  C:\Users\Tri94\AppData\Local\Temp\ccoQKe9q.s 			page 2


  31:main.c        **** void vTestTask(void *pvParaments);
  32:main.c        **** 
  33:main.c        **** void beep(int note, int duration);
  34:main.c        **** void firstSection();
  35:main.c        **** void secondSection();
  36:main.c        **** void myPSoCSetup();
  37:main.c        **** 
  38:main.c        **** 
  39:main.c        **** #define CMP0    19099
  40:main.c        **** #define CMP180  17599
  41:main.c        **** 
  42:main.c        **** 
  43:main.c        **** 
  44:main.c        **** int main(void)
  45:main.c        **** {
  46:main.c        ****     BaseType_t err;
  47:main.c        ****     
  48:main.c        ****     CyGlobalIntEnable; /* Enable global interrupts. */
  49:main.c        **** 
  50:main.c        ****     /* Place your initialization/startup code here (e.g. MyInst_Start()) */
  51:main.c        ****     FreeRTOS_Init();
  52:main.c        ****     myPSoCSetup();
  53:main.c        **** 
  54:main.c        ****     // Create a task to read sensor data from the ultra sonic sensor
  55:main.c        ****     err = xTaskCreate(vReadUltraSonicTask,          // Taskfunction_t pvTaskCode,
  56:main.c        ****                         "Read Sensor",              // const char * const pcName,
  57:main.c        ****                         configMINIMAL_STACK_SIZE,   // unsigned short usStackDepth,
  58:main.c        ****                         NULL,                       // void *pvParameters,
  59:main.c        ****                         configMAX_PRIORITIES-1,     // UBaseType_t uxPriority,
  60:main.c        ****                         NULL);                      // TaskHandle_t *pxCreatedTask );
  61:main.c        ****     
  62:main.c        ****     if (err != pdPASS){
  63:main.c        ****         // Cannot create task!
  64:main.c        ****         while(1);
  65:main.c        ****     }
  66:main.c        ****     /*
  67:main.c        ****     err = xTaskCreate(vMusicTask,                   // Taskfunction_t pvTaskCode,
  68:main.c        ****                         "Read Sensor",              // const char * const pcName,
  69:main.c        ****                         configMINIMAL_STACK_SIZE,   // unsigned short usStackDepth,
  70:main.c        ****                         NULL,                       // void *pvParameters,
  71:main.c        ****                         configMAX_PRIORITIES-1,     // UBaseType_t uxPriority,
  72:main.c        ****                         NULL);                      // TaskHandle_t *pxCreatedTask );
  73:main.c        ****     
  74:main.c        ****     if (err != pdPASS){
  75:main.c        ****         // Cannot create task!
  76:main.c        ****         while(1);
  77:main.c        ****     }*/
  78:main.c        ****    
  79:main.c        ****     // Start the scheduler, so the tasks start executing
  80:main.c        ****     vTaskStartScheduler();
  81:main.c        ****     
  82:main.c        ****     for(;;)
  83:main.c        ****     {
  84:main.c        ****         /* Place your application code here. */
  85:main.c        ****     }
  86:main.c        **** }
  87:main.c        **** 
ARM GAS  C:\Users\Tri94\AppData\Local\Temp\ccoQKe9q.s 			page 3


  88:main.c        **** void myPSoCSetup(){
  28              		.loc 1 88 0
  29              		.cfi_startproc
  30              		@ args = 0, pretend = 0, frame = 0
  31              		@ frame_needed = 0, uses_anonymous_args = 0
  32 0000 08B5     		push	{r3, lr}
  33              		.cfi_def_cfa_offset 8
  34              		.cfi_offset 3, -8
  35              		.cfi_offset 14, -4
  89:main.c        ****     
  90:main.c        ****     
  91:main.c        ****     // Place your component's start code here
  92:main.c        ****     
  93:main.c        ****     PWM_Servo_Start();
  36              		.loc 1 93 0
  37 0002 FFF7FEFF 		bl	PWM_Servo_Start
  38              	.LVL0:
  94:main.c        ****     PWM_Servo_WriteCompare(CMP0);
  39              		.loc 1 94 0
  40 0006 44F69B20 		movw	r0, #19099
  41 000a FFF7FEFF 		bl	PWM_Servo_WriteCompare
  42              	.LVL1:
  95:main.c        ****     CyDelay(1000);
  43              		.loc 1 95 0
  44 000e 4FF47A70 		mov	r0, #1000
  45 0012 FFF7FEFF 		bl	CyDelay
  46              	.LVL2:
  96:main.c        ****     PWM_Music_Start();
  47              		.loc 1 96 0
  48 0016 FFF7FEFF 		bl	PWM_Music_Start
  49              	.LVL3:
  97:main.c        ****     
  98:main.c        ****     LCD_Init();
  50              		.loc 1 98 0
  51 001a FFF7FEFF 		bl	LCD_Init
  52              	.LVL4:
  99:main.c        ****     LCD_Start();
  53              		.loc 1 99 0
  54 001e FFF7FEFF 		bl	LCD_Start
  55              	.LVL5:
 100:main.c        ****     LCD_ClearDisplay();
  56              		.loc 1 100 0
  57 0022 0120     		movs	r0, #1
  58 0024 FFF7FEFF 		bl	LCD_WriteControl
  59              	.LVL6:
 101:main.c        ****     LCD_PrintString("Hello");
  60              		.loc 1 101 0
  61 0028 0148     		ldr	r0, .L3
  62 002a FFF7FEFF 		bl	LCD_PrintString
  63              	.LVL7:
  64 002e 08BD     		pop	{r3, pc}
  65              	.L4:
  66              		.align	2
  67              	.L3:
  68 0030 00000000 		.word	.LC0
  69              		.cfi_endproc
  70              	.LFE70:
ARM GAS  C:\Users\Tri94\AppData\Local\Temp\ccoQKe9q.s 			page 4


  71              		.size	myPSoCSetup, .-myPSoCSetup
  72              		.section	.text.main,"ax",%progbits
  73              		.align	2
  74              		.global	main
  75              		.thumb
  76              		.thumb_func
  77              		.type	main, %function
  78              	main:
  79              	.LFB69:
  45:main.c        ****     BaseType_t err;
  80              		.loc 1 45 0
  81              		.cfi_startproc
  82              		@ args = 0, pretend = 0, frame = 0
  83              		@ frame_needed = 0, uses_anonymous_args = 0
  84 0000 00B5     		push	{lr}
  85              		.cfi_def_cfa_offset 4
  86              		.cfi_offset 14, -4
  87 0002 83B0     		sub	sp, sp, #12
  88              		.cfi_def_cfa_offset 16
  48:main.c        **** 
  89              		.loc 1 48 0
  90              		.syntax unified
  91              	@ 48 "main.c" 1
  92 0004 62B6     		CPSIE   i
  93              	@ 0 "" 2
  51:main.c        ****     myPSoCSetup();
  94              		.loc 1 51 0
  95              		.thumb
  96              		.syntax unified
  97 0006 FFF7FEFF 		bl	FreeRTOS_Init
  98              	.LVL8:
  52:main.c        **** 
  99              		.loc 1 52 0
 100 000a FFF7FEFF 		bl	myPSoCSetup
 101              	.LVL9:
  55:main.c        ****                         "Read Sensor",              // const char * const pcName,
 102              		.loc 1 55 0
 103 000e 0023     		movs	r3, #0
 104 0010 0193     		str	r3, [sp, #4]
 105 0012 0422     		movs	r2, #4
 106 0014 0092     		str	r2, [sp]
 107 0016 C822     		movs	r2, #200
 108 0018 0449     		ldr	r1, .L10
 109 001a 0548     		ldr	r0, .L10+4
 110 001c FFF7FEFF 		bl	xTaskCreate
 111              	.LVL10:
  62:main.c        ****         // Cannot create task!
 112              		.loc 1 62 0
 113 0020 0128     		cmp	r0, #1
 114 0022 00D0     		beq	.L6
 115              	.L7:
 116 0024 FEE7     		b	.L7
 117              	.L6:
  80:main.c        ****     
 118              		.loc 1 80 0
 119 0026 FFF7FEFF 		bl	vTaskStartScheduler
 120              	.LVL11:
ARM GAS  C:\Users\Tri94\AppData\Local\Temp\ccoQKe9q.s 			page 5


 121              	.L8:
 122 002a FEE7     		b	.L8
 123              	.L11:
 124              		.align	2
 125              	.L10:
 126 002c 08000000 		.word	.LC1
 127 0030 00000000 		.word	vReadUltraSonicTask
 128              		.cfi_endproc
 129              	.LFE69:
 130              		.size	main, .-main
 131              		.section	.text.beep,"ax",%progbits
 132              		.align	2
 133              		.global	beep
 134              		.thumb
 135              		.thumb_func
 136              		.type	beep, %function
 137              	beep:
 138              	.LFB72:
 102:main.c        **** }
 103:main.c        **** 
 104:main.c        **** 
 105:main.c        **** void vReadUltraSonicTask(void *pvParaments){
 106:main.c        ****     
 107:main.c        ****     uint16 counts = 0;
 108:main.c        ****     float  meter  = 0;
 109:main.c        ****     int centimeter;
 110:main.c        ****     char str[20];
 111:main.c        ****     
 112:main.c        ****     while(1){
 113:main.c        ****         LED_Write(1);
 114:main.c        ****         Trigger_Write(1);
 115:main.c        ****         vTaskDelay(pdMS_TO_TICKS(10)); // Delay for 200 ms
 116:main.c        ****         //CyDelayUs(10);
 117:main.c        ****         Trigger_Write(0);
 118:main.c        ****               
 119:main.c        ****         while(Echo_Read() != 1); //wait until return pulse starts
 120:main.c        ****         Timer_Start();
 121:main.c        ****         while(Echo_Read() != 0); //wait unit return pulse stops 
 122:main.c        ****         
 123:main.c        ****         counts = 0xFFFF-Timer_ReadCounter();        
 124:main.c        ****         centimeter = counts * 0.01717; //Convert pulse width to centimeters.         
 125:main.c        ****            
 126:main.c        ****         vTaskDelay(pdMS_TO_TICKS(200)); // Delay for 200 ms
 127:main.c        ****         Timer_Stop();
 128:main.c        ****         LED_Write(0);
 129:main.c        ****         sprintf(str,"Distance %d",centimeter);
 130:main.c        ****         
 131:main.c        ****         LCD_Position(1,0);
 132:main.c        ****         LCD_PrintString(str);
 133:main.c        ****         
 134:main.c        ****         if (centimeter < 50){
 135:main.c        ****             PWM_Servo_WriteCompare(CMP0);
 136:main.c        ****             firstSection();
 137:main.c        ****         }else {
 138:main.c        ****             PWM_Servo_WriteCompare(CMP180);
 139:main.c        ****             PWM_Music_WriteCompare(0);
 140:main.c        ****         }
ARM GAS  C:\Users\Tri94\AppData\Local\Temp\ccoQKe9q.s 			page 6


 141:main.c        ****         
 142:main.c        **** 
 143:main.c        ****     }
 144:main.c        **** }
 145:main.c        **** 
 146:main.c        **** const int c = 261;
 147:main.c        **** const int d = 294;
 148:main.c        **** const int e = 329;
 149:main.c        **** const int f = 349;
 150:main.c        **** const int g = 391;
 151:main.c        **** const int gS = 415;
 152:main.c        **** const int a = 440;
 153:main.c        **** const int aS = 455;
 154:main.c        **** const int b = 466;
 155:main.c        **** const int cH = 523;
 156:main.c        **** const int cSH = 554;
 157:main.c        **** const int dH = 587;
 158:main.c        **** const int dSH = 622;
 159:main.c        **** const int eH = 659;
 160:main.c        **** const int fH = 698;
 161:main.c        **** const int fSH = 740;
 162:main.c        **** const int gH = 784;
 163:main.c        **** const int gSH = 830;
 164:main.c        **** const int aH = 880;
 165:main.c        **** 
 166:main.c        **** void beep(int note, int duration)
 167:main.c        **** {
 139              		.loc 1 167 0
 140              		.cfi_startproc
 141              		@ args = 0, pretend = 0, frame = 0
 142              		@ frame_needed = 0, uses_anonymous_args = 0
 143              	.LVL12:
 144 0000 10B5     		push	{r4, lr}
 145              		.cfi_def_cfa_offset 8
 146              		.cfi_offset 4, -8
 147              		.cfi_offset 14, -4
 148 0002 0C46     		mov	r4, r1
 168:main.c        ****   //Play tone on buzzerPin
 169:main.c        ****   //tone(buzzerPin, note, duration);
 170:main.c        ****   PWM_Music_WriteCompare(note);
 149              		.loc 1 170 0
 150 0004 80B2     		uxth	r0, r0
 151              	.LVL13:
 152 0006 FFF7FEFF 		bl	PWM_Music_WriteCompare
 153              	.LVL14:
 171:main.c        ****   CyDelay(duration);
 154              		.loc 1 171 0
 155 000a 2046     		mov	r0, r4
 156 000c FFF7FEFF 		bl	CyDelay
 157              	.LVL15:
 158 0010 10BD     		pop	{r4, pc}
 159              		.cfi_endproc
 160              	.LFE72:
 161              		.size	beep, .-beep
 162 0012 00BF     		.section	.text.firstSection,"ax",%progbits
 163              		.align	2
 164              		.global	firstSection
ARM GAS  C:\Users\Tri94\AppData\Local\Temp\ccoQKe9q.s 			page 7


 165              		.thumb
 166              		.thumb_func
 167              		.type	firstSection, %function
 168              	firstSection:
 169              	.LFB73:
 172:main.c        ****   
 173:main.c        **** }
 174:main.c        ****  
 175:main.c        **** void firstSection()
 176:main.c        **** {
 170              		.loc 1 176 0
 171              		.cfi_startproc
 172              		@ args = 0, pretend = 0, frame = 0
 173              		@ frame_needed = 0, uses_anonymous_args = 0
 174 0000 08B5     		push	{r3, lr}
 175              		.cfi_def_cfa_offset 8
 176              		.cfi_offset 3, -8
 177              		.cfi_offset 14, -4
 177:main.c        ****   beep(a, 500);
 178              		.loc 1 177 0
 179 0002 4FF4FA71 		mov	r1, #500
 180 0006 4FF4DC70 		mov	r0, #440
 181 000a FFF7FEFF 		bl	beep
 182              	.LVL16:
 178:main.c        ****   beep(a, 500);    
 183              		.loc 1 178 0
 184 000e 4FF4FA71 		mov	r1, #500
 185 0012 4FF4DC70 		mov	r0, #440
 186 0016 FFF7FEFF 		bl	beep
 187              	.LVL17:
 179:main.c        ****   beep(a, 500);
 188              		.loc 1 179 0
 189 001a 4FF4FA71 		mov	r1, #500
 190 001e 4FF4DC70 		mov	r0, #440
 191 0022 FFF7FEFF 		bl	beep
 192              	.LVL18:
 180:main.c        ****   beep(f, 350);
 193              		.loc 1 180 0
 194 0026 4FF4AF71 		mov	r1, #350
 195 002a 40F25D10 		movw	r0, #349
 196 002e FFF7FEFF 		bl	beep
 197              	.LVL19:
 181:main.c        ****   beep(cH, 150);  
 198              		.loc 1 181 0
 199 0032 9621     		movs	r1, #150
 200 0034 40F20B20 		movw	r0, #523
 201 0038 FFF7FEFF 		bl	beep
 202              	.LVL20:
 182:main.c        ****   beep(a, 500);
 203              		.loc 1 182 0
 204 003c 4FF4FA71 		mov	r1, #500
 205 0040 4FF4DC70 		mov	r0, #440
 206 0044 FFF7FEFF 		bl	beep
 207              	.LVL21:
 183:main.c        ****   beep(f, 350);
 208              		.loc 1 183 0
 209 0048 4FF4AF71 		mov	r1, #350
ARM GAS  C:\Users\Tri94\AppData\Local\Temp\ccoQKe9q.s 			page 8


 210 004c 40F25D10 		movw	r0, #349
 211 0050 FFF7FEFF 		bl	beep
 212              	.LVL22:
 184:main.c        ****   beep(cH, 150);
 213              		.loc 1 184 0
 214 0054 9621     		movs	r1, #150
 215 0056 40F20B20 		movw	r0, #523
 216 005a FFF7FEFF 		bl	beep
 217              	.LVL23:
 185:main.c        ****   beep(a, 650);
 218              		.loc 1 185 0
 219 005e 40F28A21 		movw	r1, #650
 220 0062 4FF4DC70 		mov	r0, #440
 221 0066 FFF7FEFF 		bl	beep
 222              	.LVL24:
 186:main.c        ****  
 187:main.c        ****   CyDelay(500);
 223              		.loc 1 187 0
 224 006a 4FF4FA70 		mov	r0, #500
 225 006e FFF7FEFF 		bl	CyDelay
 226              	.LVL25:
 188:main.c        ****  
 189:main.c        ****   beep(eH, 500);
 227              		.loc 1 189 0
 228 0072 4FF4FA71 		mov	r1, #500
 229 0076 40F29320 		movw	r0, #659
 230 007a FFF7FEFF 		bl	beep
 231              	.LVL26:
 190:main.c        ****   beep(eH, 500);
 232              		.loc 1 190 0
 233 007e 4FF4FA71 		mov	r1, #500
 234 0082 40F29320 		movw	r0, #659
 235 0086 FFF7FEFF 		bl	beep
 236              	.LVL27:
 191:main.c        ****   beep(eH, 500);  
 237              		.loc 1 191 0
 238 008a 4FF4FA71 		mov	r1, #500
 239 008e 40F29320 		movw	r0, #659
 240 0092 FFF7FEFF 		bl	beep
 241              	.LVL28:
 192:main.c        ****   beep(fH, 350);
 242              		.loc 1 192 0
 243 0096 4FF4AF71 		mov	r1, #350
 244 009a 40F2BA20 		movw	r0, #698
 245 009e FFF7FEFF 		bl	beep
 246              	.LVL29:
 193:main.c        ****   beep(cH, 150);
 247              		.loc 1 193 0
 248 00a2 9621     		movs	r1, #150
 249 00a4 40F20B20 		movw	r0, #523
 250 00a8 FFF7FEFF 		bl	beep
 251              	.LVL30:
 194:main.c        ****   beep(gS, 500);
 252              		.loc 1 194 0
 253 00ac 4FF4FA71 		mov	r1, #500
 254 00b0 40F29F10 		movw	r0, #415
 255 00b4 FFF7FEFF 		bl	beep
ARM GAS  C:\Users\Tri94\AppData\Local\Temp\ccoQKe9q.s 			page 9


 256              	.LVL31:
 195:main.c        ****   beep(f, 350);
 257              		.loc 1 195 0
 258 00b8 4FF4AF71 		mov	r1, #350
 259 00bc 40F25D10 		movw	r0, #349
 260 00c0 FFF7FEFF 		bl	beep
 261              	.LVL32:
 196:main.c        ****   beep(cH, 150);
 262              		.loc 1 196 0
 263 00c4 9621     		movs	r1, #150
 264 00c6 40F20B20 		movw	r0, #523
 265 00ca FFF7FEFF 		bl	beep
 266              	.LVL33:
 197:main.c        ****   beep(a, 650);
 267              		.loc 1 197 0
 268 00ce 40F28A21 		movw	r1, #650
 269 00d2 4FF4DC70 		mov	r0, #440
 270 00d6 FFF7FEFF 		bl	beep
 271              	.LVL34:
 198:main.c        ****  
 199:main.c        ****   CyDelay(500);
 272              		.loc 1 199 0
 273 00da 4FF4FA70 		mov	r0, #500
 274 00de FFF7FEFF 		bl	CyDelay
 275              	.LVL35:
 276 00e2 08BD     		pop	{r3, pc}
 277              		.cfi_endproc
 278              	.LFE73:
 279              		.size	firstSection, .-firstSection
 280              		.global	__aeabi_i2d
 281              		.global	__aeabi_dmul
 282              		.global	__aeabi_d2iz
 283              		.section	.text.vReadUltraSonicTask,"ax",%progbits
 284              		.align	2
 285              		.global	vReadUltraSonicTask
 286              		.thumb
 287              		.thumb_func
 288              		.type	vReadUltraSonicTask, %function
 289              	vReadUltraSonicTask:
 290              	.LFB71:
 105:main.c        ****     
 291              		.loc 1 105 0
 292              		.cfi_startproc
 293              		@ args = 0, pretend = 0, frame = 24
 294              		@ frame_needed = 0, uses_anonymous_args = 0
 295              	.LVL36:
 296 0000 10B5     		push	{r4, lr}
 297              		.cfi_def_cfa_offset 8
 298              		.cfi_offset 4, -8
 299              		.cfi_offset 14, -4
 300 0002 86B0     		sub	sp, sp, #24
 301              		.cfi_def_cfa_offset 32
 302              	.LVL37:
 303              	.L17:
 113:main.c        ****         Trigger_Write(1);
 304              		.loc 1 113 0
 305 0004 0120     		movs	r0, #1
ARM GAS  C:\Users\Tri94\AppData\Local\Temp\ccoQKe9q.s 			page 10


 306 0006 FFF7FEFF 		bl	LED_Write
 307              	.LVL38:
 114:main.c        ****         vTaskDelay(pdMS_TO_TICKS(10)); // Delay for 200 ms
 308              		.loc 1 114 0
 309 000a 0120     		movs	r0, #1
 310 000c FFF7FEFF 		bl	Trigger_Write
 311              	.LVL39:
 115:main.c        ****         //CyDelayUs(10);
 312              		.loc 1 115 0
 313 0010 0A20     		movs	r0, #10
 314 0012 FFF7FEFF 		bl	vTaskDelay
 315              	.LVL40:
 117:main.c        ****               
 316              		.loc 1 117 0
 317 0016 0020     		movs	r0, #0
 318 0018 FFF7FEFF 		bl	Trigger_Write
 319              	.LVL41:
 320              	.L18:
 119:main.c        ****         Timer_Start();
 321              		.loc 1 119 0 discriminator 1
 322 001c FFF7FEFF 		bl	Echo_Read
 323              	.LVL42:
 324 0020 0128     		cmp	r0, #1
 325 0022 FBD1     		bne	.L18
 120:main.c        ****         while(Echo_Read() != 0); //wait unit return pulse stops 
 326              		.loc 1 120 0
 327 0024 FFF7FEFF 		bl	Timer_Start
 328              	.LVL43:
 329              	.L19:
 121:main.c        ****         
 330              		.loc 1 121 0 discriminator 1
 331 0028 FFF7FEFF 		bl	Echo_Read
 332              	.LVL44:
 333 002c 0028     		cmp	r0, #0
 334 002e FBD1     		bne	.L19
 123:main.c        ****         centimeter = counts * 0.01717; //Convert pulse width to centimeters.         
 335              		.loc 1 123 0
 336 0030 FFF7FEFF 		bl	Timer_ReadCounter
 337              	.LVL45:
 338 0034 C043     		mvns	r0, r0
 339              	.LVL46:
 124:main.c        ****            
 340              		.loc 1 124 0
 341 0036 80B2     		uxth	r0, r0
 342 0038 FFF7FEFF 		bl	__aeabi_i2d
 343              	.LVL47:
 344 003c 16A3     		adr	r3, .L23
 345 003e D3E90023 		ldrd	r2, [r3]
 346 0042 FFF7FEFF 		bl	__aeabi_dmul
 347              	.LVL48:
 348 0046 FFF7FEFF 		bl	__aeabi_d2iz
 349              	.LVL49:
 350 004a 0446     		mov	r4, r0
 351              	.LVL50:
 126:main.c        ****         Timer_Stop();
 352              		.loc 1 126 0
 353 004c C820     		movs	r0, #200
ARM GAS  C:\Users\Tri94\AppData\Local\Temp\ccoQKe9q.s 			page 11


 354              	.LVL51:
 355 004e FFF7FEFF 		bl	vTaskDelay
 356              	.LVL52:
 127:main.c        ****         LED_Write(0);
 357              		.loc 1 127 0
 358 0052 FFF7FEFF 		bl	Timer_Stop
 359              	.LVL53:
 128:main.c        ****         sprintf(str,"Distance %d",centimeter);
 360              		.loc 1 128 0
 361 0056 0020     		movs	r0, #0
 362 0058 FFF7FEFF 		bl	LED_Write
 363              	.LVL54:
 129:main.c        ****         
 364              		.loc 1 129 0
 365 005c 2246     		mov	r2, r4
 366 005e 1049     		ldr	r1, .L23+8
 367 0060 01A8     		add	r0, sp, #4
 368 0062 FFF7FEFF 		bl	sprintf
 369              	.LVL55:
 131:main.c        ****         LCD_PrintString(str);
 370              		.loc 1 131 0
 371 0066 0021     		movs	r1, #0
 372 0068 0120     		movs	r0, #1
 373 006a FFF7FEFF 		bl	LCD_Position
 374              	.LVL56:
 132:main.c        ****         
 375              		.loc 1 132 0
 376 006e 01A8     		add	r0, sp, #4
 377 0070 FFF7FEFF 		bl	LCD_PrintString
 378              	.LVL57:
 134:main.c        ****             PWM_Servo_WriteCompare(CMP0);
 379              		.loc 1 134 0
 380 0074 312C     		cmp	r4, #49
 381 0076 06DC     		bgt	.L20
 135:main.c        ****             firstSection();
 382              		.loc 1 135 0
 383 0078 44F69B20 		movw	r0, #19099
 384 007c FFF7FEFF 		bl	PWM_Servo_WriteCompare
 385              	.LVL58:
 136:main.c        ****         }else {
 386              		.loc 1 136 0
 387 0080 FFF7FEFF 		bl	firstSection
 388              	.LVL59:
 389 0084 BEE7     		b	.L17
 390              	.L20:
 138:main.c        ****             PWM_Music_WriteCompare(0);
 391              		.loc 1 138 0
 392 0086 44F2BF40 		movw	r0, #17599
 393 008a FFF7FEFF 		bl	PWM_Servo_WriteCompare
 394              	.LVL60:
 139:main.c        ****         }
 395              		.loc 1 139 0
 396 008e 0020     		movs	r0, #0
 397 0090 FFF7FEFF 		bl	PWM_Music_WriteCompare
 398              	.LVL61:
 399 0094 B6E7     		b	.L17
 400              	.L24:
ARM GAS  C:\Users\Tri94\AppData\Local\Temp\ccoQKe9q.s 			page 12


 401 0096 00BF     		.align	3
 402              	.L23:
 403 0098 DBA7E331 		.word	837003227
 404 009c 0395913F 		.word	1066505475
 405 00a0 14000000 		.word	.LC2
 406              		.cfi_endproc
 407              	.LFE71:
 408              		.size	vReadUltraSonicTask, .-vReadUltraSonicTask
 409              		.section	.text.secondSection,"ax",%progbits
 410              		.align	2
 411              		.global	secondSection
 412              		.thumb
 413              		.thumb_func
 414              		.type	secondSection, %function
 415              	secondSection:
 416              	.LFB74:
 200:main.c        **** }
 201:main.c        ****  
 202:main.c        **** void secondSection()
 203:main.c        **** {
 417              		.loc 1 203 0
 418              		.cfi_startproc
 419              		@ args = 0, pretend = 0, frame = 0
 420              		@ frame_needed = 0, uses_anonymous_args = 0
 421 0000 08B5     		push	{r3, lr}
 422              		.cfi_def_cfa_offset 8
 423              		.cfi_offset 3, -8
 424              		.cfi_offset 14, -4
 204:main.c        ****   beep(aH, 500);
 425              		.loc 1 204 0
 426 0002 4FF4FA71 		mov	r1, #500
 427 0006 4FF45C70 		mov	r0, #880
 428 000a FFF7FEFF 		bl	beep
 429              	.LVL62:
 205:main.c        ****   beep(a, 300);
 430              		.loc 1 205 0
 431 000e 4FF49671 		mov	r1, #300
 432 0012 4FF4DC70 		mov	r0, #440
 433 0016 FFF7FEFF 		bl	beep
 434              	.LVL63:
 206:main.c        ****   beep(a, 150);
 435              		.loc 1 206 0
 436 001a 9621     		movs	r1, #150
 437 001c 4FF4DC70 		mov	r0, #440
 438 0020 FFF7FEFF 		bl	beep
 439              	.LVL64:
 207:main.c        ****   beep(aH, 500);
 440              		.loc 1 207 0
 441 0024 4FF4FA71 		mov	r1, #500
 442 0028 4FF45C70 		mov	r0, #880
 443 002c FFF7FEFF 		bl	beep
 444              	.LVL65:
 208:main.c        ****   beep(gSH, 325);
 445              		.loc 1 208 0
 446 0030 40F24511 		movw	r1, #325
 447 0034 40F23E30 		movw	r0, #830
 448 0038 FFF7FEFF 		bl	beep
ARM GAS  C:\Users\Tri94\AppData\Local\Temp\ccoQKe9q.s 			page 13


 449              	.LVL66:
 209:main.c        ****   beep(gH, 175);
 450              		.loc 1 209 0
 451 003c AF21     		movs	r1, #175
 452 003e 4FF44470 		mov	r0, #784
 453 0042 FFF7FEFF 		bl	beep
 454              	.LVL67:
 210:main.c        ****   beep(fSH, 125);
 455              		.loc 1 210 0
 456 0046 7D21     		movs	r1, #125
 457 0048 4FF43970 		mov	r0, #740
 458 004c FFF7FEFF 		bl	beep
 459              	.LVL68:
 211:main.c        ****   beep(fH, 125);    
 460              		.loc 1 211 0
 461 0050 7D21     		movs	r1, #125
 462 0052 40F2BA20 		movw	r0, #698
 463 0056 FFF7FEFF 		bl	beep
 464              	.LVL69:
 212:main.c        ****   beep(fSH, 250);
 465              		.loc 1 212 0
 466 005a FA21     		movs	r1, #250
 467 005c 4FF43970 		mov	r0, #740
 468 0060 FFF7FEFF 		bl	beep
 469              	.LVL70:
 213:main.c        ****  
 214:main.c        ****   CyDelay(325);
 470              		.loc 1 214 0
 471 0064 40F24510 		movw	r0, #325
 472 0068 FFF7FEFF 		bl	CyDelay
 473              	.LVL71:
 215:main.c        ****  
 216:main.c        ****   beep(aS, 250);
 474              		.loc 1 216 0
 475 006c FA21     		movs	r1, #250
 476 006e 40F2C710 		movw	r0, #455
 477 0072 FFF7FEFF 		bl	beep
 478              	.LVL72:
 217:main.c        ****   beep(dSH, 500);
 479              		.loc 1 217 0
 480 0076 4FF4FA71 		mov	r1, #500
 481 007a 40F26E20 		movw	r0, #622
 482 007e FFF7FEFF 		bl	beep
 483              	.LVL73:
 218:main.c        ****   beep(dH, 325);  
 484              		.loc 1 218 0
 485 0082 40F24511 		movw	r1, #325
 486 0086 40F24B20 		movw	r0, #587
 487 008a FFF7FEFF 		bl	beep
 488              	.LVL74:
 219:main.c        ****   beep(cSH, 175);  
 489              		.loc 1 219 0
 490 008e AF21     		movs	r1, #175
 491 0090 40F22A20 		movw	r0, #554
 492 0094 FFF7FEFF 		bl	beep
 493              	.LVL75:
 220:main.c        ****   beep(cH, 125);  
ARM GAS  C:\Users\Tri94\AppData\Local\Temp\ccoQKe9q.s 			page 14


 494              		.loc 1 220 0
 495 0098 7D21     		movs	r1, #125
 496 009a 40F20B20 		movw	r0, #523
 497 009e FFF7FEFF 		bl	beep
 498              	.LVL76:
 221:main.c        ****   beep(b, 125);  
 499              		.loc 1 221 0
 500 00a2 7D21     		movs	r1, #125
 501 00a4 4FF4E970 		mov	r0, #466
 502 00a8 FFF7FEFF 		bl	beep
 503              	.LVL77:
 222:main.c        ****   beep(cH, 250);  
 504              		.loc 1 222 0
 505 00ac FA21     		movs	r1, #250
 506 00ae 40F20B20 		movw	r0, #523
 507 00b2 FFF7FEFF 		bl	beep
 508              	.LVL78:
 223:main.c        ****  
 224:main.c        ****   CyDelay(350);
 509              		.loc 1 224 0
 510 00b6 4FF4AF70 		mov	r0, #350
 511 00ba FFF7FEFF 		bl	CyDelay
 512              	.LVL79:
 513 00be 08BD     		pop	{r3, pc}
 514              		.cfi_endproc
 515              	.LFE74:
 516              		.size	secondSection, .-secondSection
 517              		.section	.text.vMusicTask,"ax",%progbits
 518              		.align	2
 519              		.global	vMusicTask
 520              		.thumb
 521              		.thumb_func
 522              		.type	vMusicTask, %function
 523              	vMusicTask:
 524              	.LFB75:
 225:main.c        **** }
 226:main.c        **** void vMusicTask(void *pvParaments){
 525              		.loc 1 226 0
 526              		.cfi_startproc
 527              		@ Volatile: function does not return.
 528              		@ args = 0, pretend = 0, frame = 0
 529              		@ frame_needed = 0, uses_anonymous_args = 0
 530              		@ link register save eliminated.
 531              	.LVL80:
 532              	.L28:
 533 0000 FEE7     		b	.L28
 534              		.cfi_endproc
 535              	.LFE75:
 536              		.size	vMusicTask, .-vMusicTask
 537              		.global	aH
 538              		.global	gSH
 539              		.global	gH
 540              		.global	fSH
 541              		.global	fH
 542              		.global	eH
 543              		.global	dSH
 544              		.global	dH
ARM GAS  C:\Users\Tri94\AppData\Local\Temp\ccoQKe9q.s 			page 15


 545              		.global	cSH
 546              		.global	cH
 547              		.global	b
 548              		.global	aS
 549              		.global	a
 550              		.global	gS
 551              		.global	g
 552              		.global	f
 553              		.global	e
 554              		.global	d
 555              		.global	c
 556 0002 00BF     		.section	.rodata
 557              		.align	2
 558              		.type	aH, %object
 559              		.size	aH, 4
 560              	aH:
 561 0000 70030000 		.word	880
 562              		.type	gSH, %object
 563              		.size	gSH, 4
 564              	gSH:
 565 0004 3E030000 		.word	830
 566              		.type	gH, %object
 567              		.size	gH, 4
 568              	gH:
 569 0008 10030000 		.word	784
 570              		.type	fSH, %object
 571              		.size	fSH, 4
 572              	fSH:
 573 000c E4020000 		.word	740
 574              		.type	fH, %object
 575              		.size	fH, 4
 576              	fH:
 577 0010 BA020000 		.word	698
 578              		.type	eH, %object
 579              		.size	eH, 4
 580              	eH:
 581 0014 93020000 		.word	659
 582              		.type	dSH, %object
 583              		.size	dSH, 4
 584              	dSH:
 585 0018 6E020000 		.word	622
 586              		.type	dH, %object
 587              		.size	dH, 4
 588              	dH:
 589 001c 4B020000 		.word	587
 590              		.type	cSH, %object
 591              		.size	cSH, 4
 592              	cSH:
 593 0020 2A020000 		.word	554
 594              		.type	cH, %object
 595              		.size	cH, 4
 596              	cH:
 597 0024 0B020000 		.word	523
 598              		.type	b, %object
 599              		.size	b, 4
 600              	b:
 601 0028 D2010000 		.word	466
ARM GAS  C:\Users\Tri94\AppData\Local\Temp\ccoQKe9q.s 			page 16


 602              		.type	aS, %object
 603              		.size	aS, 4
 604              	aS:
 605 002c C7010000 		.word	455
 606              		.type	a, %object
 607              		.size	a, 4
 608              	a:
 609 0030 B8010000 		.word	440
 610              		.type	gS, %object
 611              		.size	gS, 4
 612              	gS:
 613 0034 9F010000 		.word	415
 614              		.type	g, %object
 615              		.size	g, 4
 616              	g:
 617 0038 87010000 		.word	391
 618              		.type	f, %object
 619              		.size	f, 4
 620              	f:
 621 003c 5D010000 		.word	349
 622              		.type	e, %object
 623              		.size	e, 4
 624              	e:
 625 0040 49010000 		.word	329
 626              		.type	d, %object
 627              		.size	d, 4
 628              	d:
 629 0044 26010000 		.word	294
 630              		.type	c, %object
 631              		.size	c, 4
 632              	c:
 633 0048 05010000 		.word	261
 634              		.section	.rodata.str1.4,"aMS",%progbits,1
 635              		.align	2
 636              	.LC0:
 637 0000 48656C6C 		.ascii	"Hello\000"
 637      6F00
 638 0006 0000     		.space	2
 639              	.LC1:
 640 0008 52656164 		.ascii	"Read Sensor\000"
 640      2053656E 
 640      736F7200 
 641              	.LC2:
 642 0014 44697374 		.ascii	"Distance %d\000"
 642      616E6365 
 642      20256400 
 643              		.text
 644              	.Letext0:
 645              		.file 2 "c:\\program files (x86)\\cypress\\psoc creator\\4.2\\psoc creator\\import\\gnu\\arm\\5.4.
 646              		.file 3 "c:\\program files (x86)\\cypress\\psoc creator\\4.2\\psoc creator\\import\\gnu\\arm\\5.4.
 647              		.file 4 "Generated_Source\\PSoC5/cytypes.h"
 648              		.file 5 "..\\FreeRTOS\\portable\\GCC\\ARM_CM3/portmacro.h"
 649              		.file 6 "Generated_Source\\PSoC5/PWM_Servo.h"
 650              		.file 7 "Generated_Source\\PSoC5/CyLib.h"
 651              		.file 8 "Generated_Source\\PSoC5/PWM_Music.h"
 652              		.file 9 "Generated_Source\\PSoC5/LCD.h"
 653              		.file 10 "..\\FreeRTOS/FreeRTOS_PSoC.h"
ARM GAS  C:\Users\Tri94\AppData\Local\Temp\ccoQKe9q.s 			page 17


 654              		.file 11 "..\\FreeRTOS\\include/task.h"
 655              		.file 12 "Generated_Source\\PSoC5/LED.h"
 656              		.file 13 "Generated_Source\\PSoC5/Trigger.h"
 657              		.file 14 "Generated_Source\\PSoC5/Echo.h"
 658              		.file 15 "Generated_Source\\PSoC5/Timer.h"
 659              		.file 16 "c:\\program files (x86)\\cypress\\psoc creator\\4.2\\psoc creator\\import\\gnu\\arm\\5.4
 660              		.file 17 "Generated_Source\\PSoC5/core_cm3.h"