ARM GAS  C:\Users\Tri94\AppData\Local\Temp\cck7NsHc.s 			page 1


   1              		.syntax unified
   2              		.cpu cortex-m3
   3              		.fpu softvfp
   4              		.eabi_attribute 20, 1
   5              		.eabi_attribute 21, 1
   6              		.eabi_attribute 23, 3
   7              		.eabi_attribute 24, 1
   8              		.eabi_attribute 25, 1
   9              		.eabi_attribute 26, 1
  10              		.eabi_attribute 30, 1
  11              		.eabi_attribute 34, 1
  12              		.eabi_attribute 18, 4
  13              		.thumb
  14              		.syntax unified
  15              		.file	"main.c"
  16              		.text
  17              	.Ltext0:
  18              		.cfi_sections	.debug_frame
  19              		.section	.text.myISR_UART,"ax",%progbits
  20              		.align	2
  21              		.global	myISR_UART
  22              		.thumb
  23              		.thumb_func
  24              		.type	myISR_UART, %function
  25              	myISR_UART:
  26              	.LFB71:
  27              		.file 1 "main.c"
   1:main.c        **** /* ========================================
   2:main.c        ****  *
   3:main.c        ****  * Copyright YOUR COMPANY, THE YEAR
   4:main.c        ****  * All Rights Reserved
   5:main.c        ****  * UNPUBLISHED, LICENSED SOFTWARE.
   6:main.c        ****  *
   7:main.c        ****  * CONFIDENTIAL AND PROPRIETARY INFORMATION
   8:main.c        ****  * WHICH IS THE PROPERTY OF your company.
   9:main.c        ****  *
  10:main.c        ****  * ========================================
  11:main.c        **** */
  12:main.c        **** #include "project.h"
  13:main.c        **** #include <stdio.h>
  14:main.c        **** #include <stdlib.h>
  15:main.c        **** #include <stdint.h>
  16:main.c        **** #include <stdbool.h>
  17:main.c        **** 
  18:main.c        **** // ROTS Header Files
  19:main.c        **** #include "FreeRTOS_PSoC.h"
  20:main.c        **** #include "FreeRTOS.h"
  21:main.c        **** #include "task.h"
  22:main.c        **** #include "queue.h"
  23:main.c        **** #include "semphr.h"
  24:main.c        **** #include "timers.h"
  25:main.c        **** #include "event_groups.h"
  26:main.c        **** #include "message_buffer.h"
  27:main.c        **** 
  28:main.c        **** // Your task function
  29:main.c        **** void vUARTTask1(void *pvParaments);
  30:main.c        **** void vAppTask2(void *pvParaments);
ARM GAS  C:\Users\Tri94\AppData\Local\Temp\cck7NsHc.s 			page 2


  31:main.c        **** 
  32:main.c        **** void myPSoCSetup();
  33:main.c        **** 
  34:main.c        **** MessageBufferHandle_t xMessageBuffer = NULL;
  35:main.c        **** #define               MESSAGE_BUFFER_SIZE 100
  36:main.c        **** 
  37:main.c        **** CY_ISR_PROTO(myISR_UART);
  38:main.c        **** 
  39:main.c        **** int main(void)
  40:main.c        **** {
  41:main.c        ****     BaseType_t err;
  42:main.c        ****     
  43:main.c        ****     CyGlobalIntEnable; /* Enable global interrupts. */
  44:main.c        **** 
  45:main.c        ****     /* Place your initialization/startup code here (e.g. MyInst_Start()) */
  46:main.c        ****     FreeRTOS_Init();
  47:main.c        ****     myPSoCSetup();
  48:main.c        ****     
  49:main.c        ****     // Create Mutex
  50:main.c        ****    xMessageBuffer = xMessageBufferCreate(MESSAGE_BUFFER_SIZE);
  51:main.c        **** 
  52:main.c        ****     if (xMessageBuffer == NULL){
  53:main.c        ****         while(1);   // Stop system here
  54:main.c        ****     }
  55:main.c        ****     
  56:main.c        ****     // Create Task
  57:main.c        ****     err = xTaskCreate(vUARTTask1,                    // Taskfunction_t pvTaskCode,
  58:main.c        ****                         "Task 1",                   // const char * const pcName,
  59:main.c        ****                         configMINIMAL_STACK_SIZE,   // unsigned short usStackDepth,
  60:main.c        ****                         NULL,                       // void *pvParameters,
  61:main.c        ****                         configMAX_PRIORITIES-1,     // UBaseType_t uxPriority,
  62:main.c        ****                         NULL);                      // TaskHandle_t *pxCreatedTask );
  63:main.c        ****     
  64:main.c        ****     if (err != pdPASS){
  65:main.c        ****         // Cannot create task!
  66:main.c        ****         while(1);
  67:main.c        ****     }
  68:main.c        **** 
  69:main.c        ****     
  70:main.c        ****     // Start the scheduler, so the tasks start executing
  71:main.c        ****     vTaskStartScheduler();
  72:main.c        ****     
  73:main.c        ****     for(;;)
  74:main.c        ****     {
  75:main.c        ****         /* Place your application code here. */
  76:main.c        ****     }
  77:main.c        **** }
  78:main.c        **** 
  79:main.c        **** void myPSoCSetup(){
  80:main.c        ****     
  81:main.c        ****     
  82:main.c        ****     // Place your component's start code here
  83:main.c        ****     ISR_UART_StartEx(myISR_UART);
  84:main.c        ****     UART_Start();
  85:main.c        **** 
  86:main.c        ****     
  87:main.c        ****     
ARM GAS  C:\Users\Tri94\AppData\Local\Temp\cck7NsHc.s 			page 3


  88:main.c        **** }
  89:main.c        **** 
  90:main.c        **** typedef enum STATES_CMD{
  91:main.c        ****     S_IDLE,
  92:main.c        ****     S_GOT_DATE
  93:main.c        **** }STATES_CMD;
  94:main.c        **** 
  95:main.c        **** CY_ISR(myISR_UART){
  28              		.loc 1 95 0
  29              		.cfi_startproc
  30              		@ args = 0, pretend = 0, frame = 24
  31              		@ frame_needed = 0, uses_anonymous_args = 0
  32 0000 70B5     		push	{r4, r5, r6, lr}
  33              		.cfi_def_cfa_offset 16
  34              		.cfi_offset 4, -16
  35              		.cfi_offset 5, -12
  36              		.cfi_offset 6, -8
  37              		.cfi_offset 14, -4
  38 0002 86B0     		sub	sp, sp, #24
  39              		.cfi_def_cfa_offset 40
  40              	.LVL0:
  96:main.c        ****     static char         buf[20];
  97:main.c        ****     static int          idx = 0;
  98:main.c        ****     static STATES_CMD   state = S_IDLE;
  99:main.c        ****     char                ch;
 100:main.c        ****     char                str[20];
 101:main.c        ****     BaseType_t          xHigherPriorityTaskWoken = pdFALSE; /* Initialised to pdFALSE */
 102:main.c        ****     
 103:main.c        ****     
 104:main.c        ****     while (UART_GetRxBufferSize()  > 0){
  41              		.loc 1 104 0
  42 0004 2CE0     		b	.L2
  43              	.L8:
 105:main.c        ****         ch = UART_GetChar();
  44              		.loc 1 105 0
  45 0006 FFF7FEFF 		bl	UART_GetChar
  46              	.LVL1:
 106:main.c        ****         
 107:main.c        ****         switch (state){
  47              		.loc 1 107 0
  48 000a 194B     		ldr	r3, .L11
  49 000c 1B78     		ldrb	r3, [r3]	@ zero_extendqisi2
  50 000e 13B1     		cbz	r3, .L4
  51 0010 012B     		cmp	r3, #1
  52 0012 06D0     		beq	.L5
  53 0014 24E0     		b	.L2
  54              	.L4:
 108:main.c        ****             case S_IDLE:
 109:main.c        ****                 //UART_WriteTxData('1');
 110:main.c        ****                 if (ch == '+'){
  55              		.loc 1 110 0
  56 0016 2B28     		cmp	r0, #43
  57 0018 22D1     		bne	.L2
 111:main.c        ****                     state = S_GOT_DATE;
  58              		.loc 1 111 0
  59 001a 0122     		movs	r2, #1
  60 001c 144B     		ldr	r3, .L11
ARM GAS  C:\Users\Tri94\AppData\Local\Temp\cck7NsHc.s 			page 4


  61 001e 1A70     		strb	r2, [r3]
  62 0020 1EE0     		b	.L2
  63              	.L5:
 112:main.c        ****                 }
 113:main.c        ****                 break;
 114:main.c        ****             case S_GOT_DATE:
 115:main.c        ****                 //UART_WriteTxData('2'); 
 116:main.c        ****                 if (ch == '\r'){
  64              		.loc 1 116 0
  65 0022 0D28     		cmp	r0, #13
  66 0024 00D1     		bne	.L6
 117:main.c        ****                     ch = '\0';
  67              		.loc 1 117 0
  68 0026 0020     		movs	r0, #0
  69              	.LVL2:
  70              	.L6:
 118:main.c        ****                     //UART_WriteTxData('3'); 
 119:main.c        ****                 
 120:main.c        ****                 }
 121:main.c        ****                 if (ch == '\n'){
  71              		.loc 1 121 0
  72 0028 0A28     		cmp	r0, #10
  73 002a 13D1     		bne	.L7
 122:main.c        ****                     //UART_WriteTxData('4'); 
 123:main.c        ****                     state = S_IDLE;
  74              		.loc 1 123 0
  75 002c 104C     		ldr	r4, .L11
  76 002e 0025     		movs	r5, #0
  77 0030 2570     		strb	r5, [r4]
 124:main.c        ****                     xMessageBufferSendFromISR(xMessageBuffer, buf, idx, xHigherPriorityTaskWoken);
  78              		.loc 1 124 0
  79 0032 04F10806 		add	r6, r4, #8
  80 0036 2B46     		mov	r3, r5
  81 0038 6268     		ldr	r2, [r4, #4]
  82 003a 3146     		mov	r1, r6
  83 003c E069     		ldr	r0, [r4, #28]
  84              	.LVL3:
  85 003e FFF7FEFF 		bl	xStreamBufferSendFromISR
  86              	.LVL4:
 125:main.c        ****                     idx = 0;
  87              		.loc 1 125 0
  88 0042 6560     		str	r5, [r4, #4]
 126:main.c        ****                     sprintf(str,"%s",buf);
  89              		.loc 1 126 0
  90 0044 3146     		mov	r1, r6
  91 0046 01A8     		add	r0, sp, #4
  92 0048 FFF7FEFF 		bl	strcpy
  93              	.LVL5:
 127:main.c        ****                     UART_PutString(str); 
  94              		.loc 1 127 0
  95 004c 01A8     		add	r0, sp, #4
  96 004e FFF7FEFF 		bl	UART_PutString
  97              	.LVL6:
 128:main.c        ****                     break;
  98              		.loc 1 128 0
  99 0052 05E0     		b	.L2
 100              	.LVL7:
ARM GAS  C:\Users\Tri94\AppData\Local\Temp\cck7NsHc.s 			page 5


 101              	.L7:
 129:main.c        ****                 }
 130:main.c        ****                 buf[idx++] = ch;
 102              		.loc 1 130 0
 103 0054 064A     		ldr	r2, .L11
 104 0056 5368     		ldr	r3, [r2, #4]
 105 0058 591C     		adds	r1, r3, #1
 106 005a 5160     		str	r1, [r2, #4]
 107 005c 1344     		add	r3, r3, r2
 108 005e 1872     		strb	r0, [r3, #8]
 109              	.LVL8:
 110              	.L2:
 104:main.c        ****         ch = UART_GetChar();
 111              		.loc 1 104 0
 112 0060 FFF7FEFF 		bl	UART_GetRxBufferSize
 113              	.LVL9:
 114 0064 0028     		cmp	r0, #0
 115 0066 CED1     		bne	.L8
 131:main.c        ****                 break;
 132:main.c        ****         }
 133:main.c        ****     }
 134:main.c        ****     UART_ReadRxStatus(); // Clear IRQ signal
 116              		.loc 1 134 0
 117 0068 FFF7FEFF 		bl	UART_ReadRxStatus
 118              	.LVL10:
 135:main.c        ****     
 136:main.c        **** }
 119              		.loc 1 136 0
 120 006c 06B0     		add	sp, sp, #24
 121              		.cfi_def_cfa_offset 16
 122              		@ sp needed
 123 006e 70BD     		pop	{r4, r5, r6, pc}
 124              	.L12:
 125              		.align	2
 126              	.L11:
 127 0070 00000000 		.word	.LANCHOR0
 128              		.cfi_endproc
 129              	.LFE71:
 130              		.size	myISR_UART, .-myISR_UART
 131              		.section	.text.vUARTTask1,"ax",%progbits
 132              		.align	2
 133              		.global	vUARTTask1
 134              		.thumb
 135              		.thumb_func
 136              		.type	vUARTTask1, %function
 137              	vUARTTask1:
 138              	.LFB72:
 137:main.c        **** 
 138:main.c        **** 
 139:main.c        **** char* xMessage[] = {
 140:main.c        ****         "Welcome",
 141:main.c        ****         "To EE",
 142:main.c        ****         "4450",
 143:main.c        ****         "Message Buf"
 144:main.c        **** };
 145:main.c        **** void vUARTTask1(void *pvParaments){
 139              		.loc 1 145 0
ARM GAS  C:\Users\Tri94\AppData\Local\Temp\cck7NsHc.s 			page 6


 140              		.cfi_startproc
 141              		@ args = 0, pretend = 0, frame = 24
 142              		@ frame_needed = 0, uses_anonymous_args = 0
 143              	.LVL11:
 144 0000 10B5     		push	{r4, lr}
 145              		.cfi_def_cfa_offset 8
 146              		.cfi_offset 4, -8
 147              		.cfi_offset 14, -4
 148 0002 86B0     		sub	sp, sp, #24
 149              		.cfi_def_cfa_offset 32
 150              	.LVL12:
 146:main.c        ****     
 147:main.c        ****     char    buf[20];
 148:main.c        ****     size_t  rxSize;
 149:main.c        ****     char    *delim = ":";
 150:main.c        ****     char    *delim2 = "*";
 151:main.c        ****     char    *pch;
 152:main.c        ****     uint32  cmp;     
 153:main.c        ****     UART_PutString("Task"); 
 151              		.loc 1 153 0
 152 0004 1F48     		ldr	r0, .L20
 153              	.LVL13:
 154 0006 FFF7FEFF 		bl	UART_PutString
 155              	.LVL14:
 156              	.L18:
 154:main.c        ****     while(1){
 155:main.c        ****         if (xMessageBufferIsEmpty( xMessageBuffer ) == pdFALSE){
 157              		.loc 1 155 0
 158 000a 1F4B     		ldr	r3, .L20+4
 159 000c D869     		ldr	r0, [r3, #28]
 160 000e FFF7FEFF 		bl	xStreamBufferIsEmpty
 161              	.LVL15:
 162 0012 88BB     		cbnz	r0, .L14
 156:main.c        ****             rxSize = xMessageBufferReceive(xMessageBuffer,buf,sizeof(buf),100);
 163              		.loc 1 156 0
 164 0014 6423     		movs	r3, #100
 165 0016 1422     		movs	r2, #20
 166 0018 01A9     		add	r1, sp, #4
 167 001a 1B48     		ldr	r0, .L20+4
 168 001c C069     		ldr	r0, [r0, #28]
 169 001e FFF7FEFF 		bl	xStreamBufferReceive
 170              	.LVL16:
 157:main.c        ****             pch = strtok(buf, delim);
 171              		.loc 1 157 0
 172 0022 1A49     		ldr	r1, .L20+8
 173 0024 01A8     		add	r0, sp, #4
 174 0026 FFF7FEFF 		bl	strtok
 175              	.LVL17:
 176 002a 0446     		mov	r4, r0
 177              	.LVL18:
 158:main.c        ****             UART_PutString("Inside "); 
 178              		.loc 1 158 0
 179 002c 1848     		ldr	r0, .L20+12
 180              	.LVL19:
 181 002e FFF7FEFF 		bl	UART_PutString
 182              	.LVL20:
 159:main.c        ****             UART_PutString(pch); 
ARM GAS  C:\Users\Tri94\AppData\Local\Temp\cck7NsHc.s 			page 7


 183              		.loc 1 159 0
 184 0032 2046     		mov	r0, r4
 185 0034 FFF7FEFF 		bl	UART_PutString
 186              	.LVL21:
 160:main.c        ****             if (strcmp(pch, "LEDON") == 0){
 187              		.loc 1 160 0
 188 0038 1649     		ldr	r1, .L20+16
 189 003a 2046     		mov	r0, r4
 190 003c FFF7FEFF 		bl	strcmp
 191              	.LVL22:
 192 0040 18B9     		cbnz	r0, .L15
 161:main.c        ****                 LED_Write(1);
 193              		.loc 1 161 0
 194 0042 0120     		movs	r0, #1
 195 0044 FFF7FEFF 		bl	LED_Write
 196              	.LVL23:
 197 0048 16E0     		b	.L14
 198              	.L15:
 162:main.c        ****             }
 163:main.c        ****             else if (strcmp(pch, "LEDOFF") == 0){
 199              		.loc 1 163 0
 200 004a 1349     		ldr	r1, .L20+20
 201 004c 2046     		mov	r0, r4
 202 004e FFF7FEFF 		bl	strcmp
 203              	.LVL24:
 204 0052 10B9     		cbnz	r0, .L16
 164:main.c        ****                 LED_Write(0);
 205              		.loc 1 164 0
 206 0054 FFF7FEFF 		bl	LED_Write
 207              	.LVL25:
 208 0058 0EE0     		b	.L14
 209              	.L16:
 165:main.c        ****             }
 166:main.c        ****             else{
 167:main.c        ****                 pch = strtok(buf, delim2);
 210              		.loc 1 167 0
 211 005a 1049     		ldr	r1, .L20+24
 212 005c 01A8     		add	r0, sp, #4
 213 005e FFF7FEFF 		bl	strtok
 214              	.LVL26:
 168:main.c        ****                 cmp = atoi(pch);
 215              		.loc 1 168 0
 216 0062 FFF7FEFF 		bl	atoi
 217              	.LVL27:
 169:main.c        ****                 if ( cmp < 50){
 218              		.loc 1 169 0
 219 0066 3128     		cmp	r0, #49
 220 0068 03D8     		bhi	.L17
 170:main.c        ****                     LED_Write(1);
 221              		.loc 1 170 0
 222 006a 0120     		movs	r0, #1
 223              	.LVL28:
 224 006c FFF7FEFF 		bl	LED_Write
 225              	.LVL29:
 226 0070 02E0     		b	.L14
 227              	.LVL30:
 228              	.L17:
ARM GAS  C:\Users\Tri94\AppData\Local\Temp\cck7NsHc.s 			page 8


 171:main.c        ****                 }else{
 172:main.c        ****                     LED_Write(0);
 229              		.loc 1 172 0
 230 0072 0020     		movs	r0, #0
 231              	.LVL31:
 232 0074 FFF7FEFF 		bl	LED_Write
 233              	.LVL32:
 234              	.L14:
 173:main.c        ****                 }
 174:main.c        ****             }
 175:main.c        ****             /*
 176:main.c        ****             pch = strtok(buf, delim);
 177:main.c        ****             if (pch != NULL) {
 178:main.c        ****                 if (strcmp(pch, "PWM") == 0){
 179:main.c        ****                     pch = strtok(buf, delim);
 180:main.c        ****                     cmp = atoi(pch);    // atoi: string to integer
 181:main.c        ****                     if (cmp <= 100)
 182:main.c        ****                         PWM_WriteCompare(cmp);
 183:main.c        ****                 }
 184:main.c        ****             }*/
 185:main.c        **** 
 186:main.c        ****         }
 187:main.c        ****         vTaskDelay(pdMS_TO_TICKS(500)); // Delay for 50 ms
 235              		.loc 1 187 0
 236 0078 4FF4FA70 		mov	r0, #500
 237 007c FFF7FEFF 		bl	vTaskDelay
 238              	.LVL33:
 188:main.c        ****     }
 239              		.loc 1 188 0
 240 0080 C3E7     		b	.L18
 241              	.L21:
 242 0082 00BF     		.align	2
 243              	.L20:
 244 0084 00000000 		.word	.LC0
 245 0088 00000000 		.word	.LANCHOR0
 246 008c 08000000 		.word	.LC1
 247 0090 0C000000 		.word	.LC2
 248 0094 14000000 		.word	.LC3
 249 0098 1C000000 		.word	.LC4
 250 009c 24000000 		.word	.LC5
 251              		.cfi_endproc
 252              	.LFE72:
 253              		.size	vUARTTask1, .-vUARTTask1
 254              		.section	.text.myPSoCSetup,"ax",%progbits
 255              		.align	2
 256              		.global	myPSoCSetup
 257              		.thumb
 258              		.thumb_func
 259              		.type	myPSoCSetup, %function
 260              	myPSoCSetup:
 261              	.LFB70:
  79:main.c        ****     
 262              		.loc 1 79 0
 263              		.cfi_startproc
 264              		@ args = 0, pretend = 0, frame = 0
 265              		@ frame_needed = 0, uses_anonymous_args = 0
 266 0000 08B5     		push	{r3, lr}
ARM GAS  C:\Users\Tri94\AppData\Local\Temp\cck7NsHc.s 			page 9


 267              		.cfi_def_cfa_offset 8
 268              		.cfi_offset 3, -8
 269              		.cfi_offset 14, -4
  83:main.c        ****     UART_Start();
 270              		.loc 1 83 0
 271 0002 0348     		ldr	r0, .L24
 272 0004 FFF7FEFF 		bl	ISR_UART_StartEx
 273              	.LVL34:
  84:main.c        **** 
 274              		.loc 1 84 0
 275 0008 FFF7FEFF 		bl	UART_Start
 276              	.LVL35:
 277 000c 08BD     		pop	{r3, pc}
 278              	.L25:
 279 000e 00BF     		.align	2
 280              	.L24:
 281 0010 00000000 		.word	myISR_UART
 282              		.cfi_endproc
 283              	.LFE70:
 284              		.size	myPSoCSetup, .-myPSoCSetup
 285              		.section	.text.main,"ax",%progbits
 286              		.align	2
 287              		.global	main
 288              		.thumb
 289              		.thumb_func
 290              		.type	main, %function
 291              	main:
 292              	.LFB69:
  40:main.c        ****     BaseType_t err;
 293              		.loc 1 40 0
 294              		.cfi_startproc
 295              		@ args = 0, pretend = 0, frame = 0
 296              		@ frame_needed = 0, uses_anonymous_args = 0
 297 0000 00B5     		push	{lr}
 298              		.cfi_def_cfa_offset 4
 299              		.cfi_offset 14, -4
 300 0002 83B0     		sub	sp, sp, #12
 301              		.cfi_def_cfa_offset 16
  43:main.c        **** 
 302              		.loc 1 43 0
 303              		.syntax unified
 304              	@ 43 "main.c" 1
 305 0004 62B6     		CPSIE   i
 306              	@ 0 "" 2
  46:main.c        ****     myPSoCSetup();
 307              		.loc 1 46 0
 308              		.thumb
 309              		.syntax unified
 310 0006 FFF7FEFF 		bl	FreeRTOS_Init
 311              	.LVL36:
  47:main.c        ****     
 312              		.loc 1 47 0
 313 000a FFF7FEFF 		bl	myPSoCSetup
 314              	.LVL37:
  50:main.c        **** 
 315              		.loc 1 50 0
 316 000e 0122     		movs	r2, #1
ARM GAS  C:\Users\Tri94\AppData\Local\Temp\cck7NsHc.s 			page 10


 317 0010 0021     		movs	r1, #0
 318 0012 6420     		movs	r0, #100
 319 0014 FFF7FEFF 		bl	xStreamBufferGenericCreate
 320              	.LVL38:
 321 0018 094B     		ldr	r3, .L33
 322 001a D861     		str	r0, [r3, #28]
  52:main.c        ****         while(1);   // Stop system here
 323              		.loc 1 52 0
 324 001c 00B9     		cbnz	r0, .L27
 325              	.L28:
 326 001e FEE7     		b	.L28
 327              	.L27:
  57:main.c        ****                         "Task 1",                   // const char * const pcName,
 328              		.loc 1 57 0
 329 0020 0023     		movs	r3, #0
 330 0022 0193     		str	r3, [sp, #4]
 331 0024 0422     		movs	r2, #4
 332 0026 0092     		str	r2, [sp]
 333 0028 C822     		movs	r2, #200
 334 002a 0649     		ldr	r1, .L33+4
 335 002c 0648     		ldr	r0, .L33+8
 336 002e FFF7FEFF 		bl	xTaskCreate
 337              	.LVL39:
  64:main.c        ****         // Cannot create task!
 338              		.loc 1 64 0
 339 0032 0128     		cmp	r0, #1
 340 0034 00D0     		beq	.L29
 341              	.L30:
 342 0036 FEE7     		b	.L30
 343              	.L29:
  71:main.c        ****     
 344              		.loc 1 71 0
 345 0038 FFF7FEFF 		bl	vTaskStartScheduler
 346              	.LVL40:
 347              	.L31:
 348 003c FEE7     		b	.L31
 349              	.L34:
 350 003e 00BF     		.align	2
 351              	.L33:
 352 0040 00000000 		.word	.LANCHOR0
 353 0044 28000000 		.word	.LC6
 354 0048 00000000 		.word	vUARTTask1
 355              		.cfi_endproc
 356              	.LFE69:
 357              		.size	main, .-main
 358              		.global	xMessage
 359              		.global	xMessageBuffer
 360              		.data
 361              		.align	2
 362              		.type	xMessage, %object
 363              		.size	xMessage, 16
 364              	xMessage:
 365 0000 30000000 		.word	.LC7
 366 0004 38000000 		.word	.LC8
 367 0008 40000000 		.word	.LC9
 368 000c 48000000 		.word	.LC10
 369              		.section	.rodata.str1.4,"aMS",%progbits,1
ARM GAS  C:\Users\Tri94\AppData\Local\Temp\cck7NsHc.s 			page 11


 370              		.align	2
 371              	.LC0:
 372 0000 5461736B 		.ascii	"Task\000"
 372      00
 373 0005 000000   		.space	3
 374              	.LC1:
 375 0008 3A00     		.ascii	":\000"
 376 000a 0000     		.space	2
 377              	.LC2:
 378 000c 496E7369 		.ascii	"Inside \000"
 378      64652000 
 379              	.LC3:
 380 0014 4C45444F 		.ascii	"LEDON\000"
 380      4E00
 381 001a 0000     		.space	2
 382              	.LC4:
 383 001c 4C45444F 		.ascii	"LEDOFF\000"
 383      464600
 384 0023 00       		.space	1
 385              	.LC5:
 386 0024 2A00     		.ascii	"*\000"
 387 0026 0000     		.space	2
 388              	.LC6:
 389 0028 5461736B 		.ascii	"Task 1\000"
 389      203100
 390 002f 00       		.space	1
 391              	.LC7:
 392 0030 57656C63 		.ascii	"Welcome\000"
 392      6F6D6500 
 393              	.LC8:
 394 0038 546F2045 		.ascii	"To EE\000"
 394      4500
 395 003e 0000     		.space	2
 396              	.LC9:
 397 0040 34343530 		.ascii	"4450\000"
 397      00
 398 0045 000000   		.space	3
 399              	.LC10:
 400 0048 4D657373 		.ascii	"Message Buf\000"
 400      61676520 
 400      42756600 
 401              		.bss
 402              		.align	2
 403              		.set	.LANCHOR0,. + 0
 404              		.type	state.7537, %object
 405              		.size	state.7537, 1
 406              	state.7537:
 407 0000 00       		.space	1
 408 0001 000000   		.space	3
 409              		.type	idx.7536, %object
 410              		.size	idx.7536, 4
 411              	idx.7536:
 412 0004 00000000 		.space	4
 413              		.type	buf.7535, %object
 414              		.size	buf.7535, 20
 415              	buf.7535:
 416 0008 00000000 		.space	20
ARM GAS  C:\Users\Tri94\AppData\Local\Temp\cck7NsHc.s 			page 12


 416      00000000 
 416      00000000 
 416      00000000 
 416      00000000 
 417              		.type	xMessageBuffer, %object
 418              		.size	xMessageBuffer, 4
 419              	xMessageBuffer:
 420 001c 00000000 		.space	4
 421              		.text
 422              	.Letext0:
 423              		.file 2 "c:\\program files (x86)\\cypress\\psoc creator\\4.2\\psoc creator\\import\\gnu\\arm\\5.4.
 424              		.file 3 "c:\\program files (x86)\\cypress\\psoc creator\\4.2\\psoc creator\\import\\gnu\\arm\\5.4.
 425              		.file 4 "Generated_Source\\PSoC5/cytypes.h"
 426              		.file 5 "c:\\program files (x86)\\cypress\\psoc creator\\4.2\\psoc creator\\import\\gnu\\arm\\5.4.
 427              		.file 6 "..\\FreeRTOS\\portable\\GCC\\ARM_CM3/portmacro.h"
 428              		.file 7 "..\\FreeRTOS\\include/stream_buffer.h"
 429              		.file 8 "..\\FreeRTOS\\include/message_buffer.h"
 430              		.file 9 "Generated_Source\\PSoC5/core_cm3.h"
 431              		.file 10 "Generated_Source\\PSoC5/UART.h"
 432              		.file 11 "c:\\program files (x86)\\cypress\\psoc creator\\4.2\\psoc creator\\import\\gnu\\arm\\5.4
 433              		.file 12 "Generated_Source\\PSoC5/LED.h"
 434              		.file 13 "c:\\program files (x86)\\cypress\\psoc creator\\4.2\\psoc creator\\import\\gnu\\arm\\5.4
 435              		.file 14 "..\\FreeRTOS\\include/task.h"
 436              		.file 15 "Generated_Source\\PSoC5/ISR_UART.h"
 437              		.file 16 "..\\FreeRTOS/FreeRTOS_PSoC.h"
 438              		.file 17 "<built-in>"