ARM GAS  C:\Users\Tri94\AppData\Local\Temp\ccbCjF5n.s 			page 1


   1              		.syntax unified
   2              		.cpu cortex-m3
   3              		.fpu softvfp
   4              		.eabi_attribute 20, 1
   5              		.eabi_attribute 21, 1
   6              		.eabi_attribute 23, 3
   7              		.eabi_attribute 24, 1
   8              		.eabi_attribute 25, 1
   9              		.eabi_attribute 26, 1
  10              		.eabi_attribute 30, 1
  11              		.eabi_attribute 34, 1
  12              		.eabi_attribute 18, 4
  13              		.thumb
  14              		.syntax unified
  15              		.file	"main.c"
  16              		.text
  17              	.Ltext0:
  18              		.cfi_sections	.debug_frame
  19              		.section	.text.main,"ax",%progbits
  20              		.align	2
  21              		.global	main
  22              		.thumb
  23              		.thumb_func
  24              		.type	main, %function
  25              	main:
  26              	.LFB64:
  27              		.file 1 "main.c"
   1:main.c        **** /* ========================================
   2:main.c        ****  *
   3:main.c        ****  * Copyright YOUR COMPANY, THE YEAR
   4:main.c        ****  * All Rights Reserved
   5:main.c        ****  * UNPUBLISHED, LICENSED SOFTWARE.
   6:main.c        ****  *
   7:main.c        ****  * CONFIDENTIAL AND PROPRIETARY INFORMATION
   8:main.c        ****  * WHICH IS THE PROPERTY OF your company.
   9:main.c        ****  *
  10:main.c        ****  * ========================================
  11:main.c        **** */
  12:main.c        **** #include "project.h"
  13:main.c        **** #include <stdio.h>
  14:main.c        **** #include <stdlib.h>
  15:main.c        **** #include <stdint.h>
  16:main.c        **** #include <stdbool.h>
  17:main.c        **** 
  18:main.c        **** typedef enum STATES{
  19:main.c        ****     S_IDLE,
  20:main.c        ****     S_25,
  21:main.c        ****     S_50,
  22:main.c        ****     S_100
  23:main.c        **** } STATES;
  24:main.c        **** 
  25:main.c        **** int main(void)
  26:main.c        **** {
  28              		.loc 1 26 0
  29              		.cfi_startproc
  30              		@ args = 0, pretend = 0, frame = 0
  31              		@ frame_needed = 0, uses_anonymous_args = 0
ARM GAS  C:\Users\Tri94\AppData\Local\Temp\ccbCjF5n.s 			page 2


  32 0000 70B5     		push	{r4, r5, r6, lr}
  33              		.cfi_def_cfa_offset 16
  34              		.cfi_offset 4, -16
  35              		.cfi_offset 5, -12
  36              		.cfi_offset 6, -8
  37              		.cfi_offset 14, -4
  38              	.LVL0:
  27:main.c        ****     STATES state = S_IDLE;
  28:main.c        ****     bool preSW = 1; // Negative logic input
  29:main.c        ****     bool curSW;
  30:main.c        ****     bool bSWEdge = false;
  31:main.c        ****     
  32:main.c        ****     CyGlobalIntEnable; /* Enable global interrupts. */
  39              		.loc 1 32 0
  40              		.syntax unified
  41              	@ 32 "main.c" 1
  42 0002 62B6     		CPSIE   i
  43              	@ 0 "" 2
  33:main.c        **** 
  34:main.c        ****     /* Place your initialization/startup code here (e.g. MyInst_Start()) */
  35:main.c        ****     PWM_Start();
  44              		.loc 1 35 0
  45              		.thumb
  46              		.syntax unified
  47 0004 FFF7FEFF 		bl	PWM_Start
  48              	.LVL1:
  28:main.c        ****     bool curSW;
  49              		.loc 1 28 0
  50 0008 0125     		movs	r5, #1
  27:main.c        ****     STATES state = S_IDLE;
  51              		.loc 1 27 0
  52 000a 0024     		movs	r4, #0
  53              	.LVL2:
  54              	.L9:
  36:main.c        ****     
  37:main.c        ****     for(;;)
  38:main.c        ****     {
  39:main.c        ****         /* Place your application code here. */
  40:main.c        ****     
  41:main.c        ****         // 1. Read current SW state to curSW
  42:main.c        ****         curSW = nSW_Read();
  55              		.loc 1 42 0
  56 000c FFF7FEFF 		bl	nSW_Read
  57              	.LVL3:
  58 0010 061C     		adds	r6, r0, #0
  59 0012 18BF     		it	ne
  60 0014 0126     		movne	r6, #1
  61              	.LVL4:
  43:main.c        ****         
  44:main.c        ****         // 2. Check the falling edge
  45:main.c        ****         if ((preSW == 1) && (curSW == 0)){
  62              		.loc 1 45 0
  63 0016 15B1     		cbz	r5, .L10
  64              		.loc 1 45 0 is_stmt 0 discriminator 1
  65 0018 18B1     		cbz	r0, .L11
  46:main.c        ****             bSWEdge = true;
  47:main.c        ****         } else 
ARM GAS  C:\Users\Tri94\AppData\Local\Temp\ccbCjF5n.s 			page 3


  48:main.c        ****             bSWEdge = false;
  66              		.loc 1 48 0 is_stmt 1
  67 001a 0025     		movs	r5, #0
  68              	.LVL5:
  69 001c 02E0     		b	.L2
  70              	.LVL6:
  71              	.L10:
  72 001e 0025     		movs	r5, #0
  73              	.LVL7:
  74 0020 00E0     		b	.L2
  75              	.LVL8:
  76              	.L11:
  46:main.c        ****             bSWEdge = true;
  77              		.loc 1 46 0
  78 0022 0125     		movs	r5, #1
  79              	.LVL9:
  80              	.L2:
  49:main.c        ****         // 3. Update current SW state to prevous state
  50:main.c        ****         preSW = curSW;
  51:main.c        ****         
  52:main.c        ****         switch(state){
  81              		.loc 1 52 0
  82 0024 032C     		cmp	r4, #3
  83 0026 1ED8     		bhi	.L3
  84 0028 DFE804F0 		tbb	[pc, r4]
  85              	.L5:
  86 002c 02       		.byte	(.L4-.L5)/2
  87 002d 07       		.byte	(.L6-.L5)/2
  88 002e 0C       		.byte	(.L7-.L5)/2
  89 002f 11       		.byte	(.L8-.L5)/2
  90              		.p2align 1
  91              	.L4:
  53:main.c        ****             case S_IDLE:
  54:main.c        ****                 PWM_WriteCompare(0);    // Set output
  92              		.loc 1 54 0
  93 0030 0020     		movs	r0, #0
  94 0032 FFF7FEFF 		bl	PWM_WriteCompare
  95              	.LVL10:
  55:main.c        ****                 if (bSWEdge){
  96              		.loc 1 55 0
  97 0036 7DB9     		cbnz	r5, .L12
  98 0038 15E0     		b	.L3
  99              	.L6:
  56:main.c        ****                     state = S_25;
  57:main.c        ****                 }
  58:main.c        ****                 break;
  59:main.c        ****             case S_25:
  60:main.c        ****                 PWM_WriteCompare(25);    // Set output
 100              		.loc 1 60 0
 101 003a 1920     		movs	r0, #25
 102 003c FFF7FEFF 		bl	PWM_WriteCompare
 103              	.LVL11:
  61:main.c        ****                 if (bSWEdge){
 104              		.loc 1 61 0
 105 0040 65B9     		cbnz	r5, .L13
 106 0042 10E0     		b	.L3
 107              	.L7:
ARM GAS  C:\Users\Tri94\AppData\Local\Temp\ccbCjF5n.s 			page 4


  62:main.c        ****                     state = S_50;
  63:main.c        ****                 }
  64:main.c        ****                 break;
  65:main.c        ****             case S_50:
  66:main.c        ****                 PWM_WriteCompare(50);    // Set output
 108              		.loc 1 66 0
 109 0044 3220     		movs	r0, #50
 110 0046 FFF7FEFF 		bl	PWM_WriteCompare
 111              	.LVL12:
  67:main.c        ****                 if (bSWEdge){
 112              		.loc 1 67 0
 113 004a 4DB9     		cbnz	r5, .L14
 114 004c 0BE0     		b	.L3
 115              	.L8:
  68:main.c        ****                     state = S_100;
  69:main.c        ****                 }
  70:main.c        ****                 break;
  71:main.c        ****             case S_100:
  72:main.c        ****                 PWM_WriteCompare(100);    // Set output
 116              		.loc 1 72 0
 117 004e 6420     		movs	r0, #100
 118 0050 FFF7FEFF 		bl	PWM_WriteCompare
 119              	.LVL13:
  73:main.c        ****                 if (bSWEdge){
 120              		.loc 1 73 0
 121 0054 35B9     		cbnz	r5, .L15
 122 0056 06E0     		b	.L3
 123              	.L12:
  56:main.c        ****                 }
 124              		.loc 1 56 0
 125 0058 0124     		movs	r4, #1
 126              	.LVL14:
 127 005a 04E0     		b	.L3
 128              	.LVL15:
 129              	.L13:
  62:main.c        ****                 }
 130              		.loc 1 62 0
 131 005c 0224     		movs	r4, #2
 132              	.LVL16:
 133 005e 02E0     		b	.L3
 134              	.LVL17:
 135              	.L14:
  68:main.c        ****                 }
 136              		.loc 1 68 0
 137 0060 0324     		movs	r4, #3
 138              	.LVL18:
 139 0062 00E0     		b	.L3
 140              	.LVL19:
 141              	.L15:
  74:main.c        ****                     state = S_IDLE;
 142              		.loc 1 74 0
 143 0064 0024     		movs	r4, #0
 144              	.LVL20:
 145              	.L3:
  75:main.c        ****                 }
  76:main.c        ****                 break;
  77:main.c        ****         }
ARM GAS  C:\Users\Tri94\AppData\Local\Temp\ccbCjF5n.s 			page 5


  78:main.c        ****         CyDelay(50);
 146              		.loc 1 78 0
 147 0066 3220     		movs	r0, #50
 148 0068 FFF7FEFF 		bl	CyDelay
 149              	.LVL21:
  50:main.c        ****         
 150              		.loc 1 50 0
 151 006c 3546     		mov	r5, r6
 152              	.LVL22:
  79:main.c        ****     }
 153              		.loc 1 79 0
 154 006e CDE7     		b	.L9
 155              		.cfi_endproc
 156              	.LFE64:
 157              		.size	main, .-main
 158              		.text
 159              	.Letext0:
 160              		.file 2 "c:\\program files (x86)\\cypress\\psoc creator\\4.2\\psoc creator\\import\\gnu\\arm\\5.4.
 161              		.file 3 "c:\\program files (x86)\\cypress\\psoc creator\\4.2\\psoc creator\\import\\gnu\\arm\\5.4.
 162              		.file 4 "Generated_Source\\PSoC5/PWM.h"
 163              		.file 5 "Generated_Source\\PSoC5/nSW.h"
 164              		.file 6 "Generated_Source\\PSoC5/CyLib.h"
 165              		.file 7 "Generated_Source\\PSoC5/core_cm3.h"