ARM GAS  C:\Users\Tri94\AppData\Local\Temp\ccqNnId0.s 			page 1


   1              		.syntax unified
   2              		.cpu cortex-m3
   3              		.fpu softvfp
   4              		.eabi_attribute 20, 1
   5              		.eabi_attribute 21, 1
   6              		.eabi_attribute 23, 3
   7              		.eabi_attribute 24, 1
   8              		.eabi_attribute 25, 1
   9              		.eabi_attribute 26, 1
  10              		.eabi_attribute 30, 1
  11              		.eabi_attribute 34, 1
  12              		.eabi_attribute 18, 4
  13              		.thumb
  14              		.syntax unified
  15              		.file	"main.c"
  16              		.text
  17              	.Ltext0:
  18              		.cfi_sections	.debug_frame
  19              		.global	__aeabi_i2d
  20              		.global	__aeabi_dmul
  21              		.global	__aeabi_d2f
  22              		.global	__aeabi_fcmplt
  23              		.global	__aeabi_fmul
  24              		.global	__aeabi_f2iz
  25              		.section	.text.vUltraSonicTask,"ax",%progbits
  26              		.align	2
  27              		.global	vUltraSonicTask
  28              		.thumb
  29              		.thumb_func
  30              		.type	vUltraSonicTask, %function
  31              	vUltraSonicTask:
  32              	.LFB71:
  33              		.file 1 "main.c"
   1:main.c        **** /* ========================================
   2:main.c        ****  *
   3:main.c        ****  * Copyright YOUR COMPANY, THE YEAR
   4:main.c        ****  * All Rights Reserved
   5:main.c        ****  * UNPUBLISHED, LICENSED SOFTWARE.
   6:main.c        ****  *
   7:main.c        ****  * CONFIDENTIAL AND PROPRIETARY INFORMATION
   8:main.c        ****  * WHICH IS THE PROPERTY OF your company.
   9:main.c        ****  *
  10:main.c        ****  * ========================================
  11:main.c        **** */
  12:main.c        **** #include "project.h"
  13:main.c        **** #include <stdio.h>
  14:main.c        **** #include <stdlib.h>
  15:main.c        **** #include <stdint.h>
  16:main.c        **** #include <stdbool.h>
  17:main.c        **** 
  18:main.c        **** // ROTS Header Files
  19:main.c        **** #include "FreeRTOS_PSoC.h"
  20:main.c        **** #include "FreeRTOS.h"
  21:main.c        **** #include "task.h"
  22:main.c        **** #include "queue.h"
  23:main.c        **** #include "semphr.h"
  24:main.c        **** #include "timers.h"
ARM GAS  C:\Users\Tri94\AppData\Local\Temp\ccqNnId0.s 			page 2


  25:main.c        **** #include "event_groups.h"
  26:main.c        **** #include "message_buffer.h"
  27:main.c        **** 
  28:main.c        **** // Your task function
  29:main.c        **** //void vUARTTask1(void *pvParaments);
  30:main.c        **** //void vAppTask2(void *pvParaments);
  31:main.c        **** void vUltraSonicTask(void *pvParaments);
  32:main.c        **** 
  33:main.c        **** void myPSoCSetup();
  34:main.c        **** 
  35:main.c        **** //MessageBufferHandle_t xMessageBuffer = NULL;
  36:main.c        **** //#define               MESSAGE_BUFFER_SIZE 100
  37:main.c        **** 
  38:main.c        **** //CY_ISR_PROTO(myISR_UART);
  39:main.c        **** 
  40:main.c        **** #define CMP0    19599
  41:main.c        **** #define CMP180  17599
  42:main.c        **** 
  43:main.c        **** 
  44:main.c        **** int main(void)
  45:main.c        **** {
  46:main.c        ****     BaseType_t err;
  47:main.c        ****     
  48:main.c        ****     CyGlobalIntEnable; /* Enable global interrupts. */
  49:main.c        **** 
  50:main.c        ****     /* Place your initialization/startup code here (e.g. MyInst_Start()) */
  51:main.c        ****     FreeRTOS_Init();
  52:main.c        ****     myPSoCSetup();
  53:main.c        ****     /*
  54:main.c        ****     // Create Mutex
  55:main.c        ****    xMessageBuffer = xMessageBufferCreate(MESSAGE_BUFFER_SIZE);
  56:main.c        **** 
  57:main.c        ****     if (xMessageBuffer == NULL){
  58:main.c        ****         LCD_PrintString("Message Buffer Error!");
  59:main.c        ****         while(1);   // Stop system here
  60:main.c        ****     }
  61:main.c        ****     
  62:main.c        ****     // Create Task
  63:main.c        ****     err = xTaskCreate(vUARTTask1,                   // Taskfunction_t pvTaskCode,
  64:main.c        ****                         "Task 1",                   // const char * const pcName,
  65:main.c        ****                         configMINIMAL_STACK_SIZE,   // unsigned short usStackDepth,
  66:main.c        ****                         NULL,                       // void *pvParameters,
  67:main.c        ****                         configMAX_PRIORITIES-1,     // UBaseType_t uxPriority,
  68:main.c        ****                         NULL);                      // TaskHandle_t *pxCreatedTask );
  69:main.c        ****     
  70:main.c        ****     if (err != pdPASS){
  71:main.c        ****         // Cannot create task!
  72:main.c        ****         while(1);
  73:main.c        ****     }
  74:main.c        ****     
  75:main.c        ****     err = xTaskCreate(vAppTask2,                    // Taskfunction_t pvTaskCode,
  76:main.c        ****                         "Task 2",                   // const char * const pcName,
  77:main.c        ****                         configMINIMAL_STACK_SIZE,   // unsigned short usStackDepth,
  78:main.c        ****                         NULL,                       // void *pvParameters,
  79:main.c        ****                         configMAX_PRIORITIES-1,     // UBaseType_t uxPriority,
  80:main.c        ****                         NULL);                      // TaskHandle_t *pxCreatedTask );
  81:main.c        ****     
ARM GAS  C:\Users\Tri94\AppData\Local\Temp\ccqNnId0.s 			page 3


  82:main.c        ****     if (err != pdPASS){
  83:main.c        ****         // Cannot create task!
  84:main.c        ****         while(1);
  85:main.c        ****     }
  86:main.c        ****     */
  87:main.c        ****     err = xTaskCreate(vUltraSonicTask,              // Taskfunction_t pvTaskCode,
  88:main.c        ****                         "Task 3",                   // const char * const pcName,
  89:main.c        ****                         configMINIMAL_STACK_SIZE,   // unsigned short usStackDepth,
  90:main.c        ****                         NULL,                       // void *pvParameters,
  91:main.c        ****                         configMAX_PRIORITIES-1,     // UBaseType_t uxPriority,
  92:main.c        ****                         NULL);                      // TaskHandle_t *pxCreatedTask );
  93:main.c        ****     
  94:main.c        ****     if (err != pdPASS){
  95:main.c        ****         // Cannot create task!
  96:main.c        ****         while(1);
  97:main.c        ****     }
  98:main.c        ****     
  99:main.c        ****     // Start the scheduler, so the tasks start executing
 100:main.c        ****     vTaskStartScheduler();
 101:main.c        ****     
 102:main.c        ****     for(;;)
 103:main.c        ****     {
 104:main.c        ****         /* Place your application code here. */
 105:main.c        ****     }
 106:main.c        **** }
 107:main.c        **** 
 108:main.c        **** void myPSoCSetup(){
 109:main.c        ****     
 110:main.c        ****     
 111:main.c        ****     // Place your component's start code here
 112:main.c        ****     //ISR_UART_StartEx(myISR_UART);
 113:main.c        ****     //UART_Start();
 114:main.c        ****     //PWM_Start();
 115:main.c        ****     PWM_Servo_Start();
 116:main.c        ****     PWM_Servo_WriteCompare(CMP0);
 117:main.c        ****     
 118:main.c        ****     LCD_Init();
 119:main.c        ****     LCD_Start();
 120:main.c        ****     LCD_ClearDisplay();
 121:main.c        ****     
 122:main.c        **** }
 123:main.c        **** /*
 124:main.c        **** typedef enum STATES_CMD{
 125:main.c        ****     S_IDLE,
 126:main.c        ****     S_GOT_DATE
 127:main.c        **** }STATES_CMD;
 128:main.c        **** 
 129:main.c        **** CY_ISR(myISR_UART){
 130:main.c        ****     static char         buf[20];
 131:main.c        ****     static int          idx = 0;
 132:main.c        ****     static STATES_CMD   state = S_IDLE;
 133:main.c        ****     char                ch;
 134:main.c        ****     BaseType_t          xHigherPriorityTaskWoken = pdFALSE; // Initialised to pdFALSE 
 135:main.c        ****     
 136:main.c        ****     
 137:main.c        ****     while (UART_GetRxBufferSize  > 0){
 138:main.c        ****         ch = UART_GetChar();
ARM GAS  C:\Users\Tri94\AppData\Local\Temp\ccqNnId0.s 			page 4


 139:main.c        ****         
 140:main.c        ****         switch (state){
 141:main.c        ****             case S_IDLE:
 142:main.c        ****                 if (ch == '+')
 143:main.c        ****                     state = S_GOT_DATE;
 144:main.c        ****                 
 145:main.c        ****                 break;
 146:main.c        ****             case S_GOT_DATE:
 147:main.c        ****                 if (ch == '\r')
 148:main.c        ****                     ch = '\0';
 149:main.c        ****                 if (ch == '\n'){
 150:main.c        ****                     state = S_IDLE;
 151:main.c        ****                     xMessageBufferSendFromISR(xMessageBuffer, buf, idx, xHigherPriorityTaskWoken);
 152:main.c        ****                     idx = 0;
 153:main.c        ****                 }
 154:main.c        ****                 buf[idx++] = ch;
 155:main.c        ****                 break;
 156:main.c        ****         }
 157:main.c        ****     }
 158:main.c        ****     UART_ReadRxStatus(); // Clear IRQ signal
 159:main.c        **** }
 160:main.c        **** 
 161:main.c        **** 
 162:main.c        **** char* xMessage[] = {
 163:main.c        ****         "Welcome",
 164:main.c        ****         "To EE",
 165:main.c        ****         "4450",
 166:main.c        ****         "Message Buf"
 167:main.c        **** };
 168:main.c        **** void vUARTTask1(void *pvParaments){
 169:main.c        ****     
 170:main.c        ****     char    buf[20];
 171:main.c        ****     size_t  rxSize;
 172:main.c        ****     char    *delim = ":";
 173:main.c        ****     char    *pch;
 174:main.c        ****     uint32  cmp;     
 175:main.c        ****     
 176:main.c        ****     while(1){
 177:main.c        ****         rxSize = xMessageBufferReceive(xMessageBuffer,buf,sizeof(buf),100);
 178:main.c        ****         if (rxSize > 0){
 179:main.c        ****             if (strcmp(buf, "LEDON")){
 180:main.c        ****                 LED_Write(1);
 181:main.c        ****             }
 182:main.c        ****             if (strcmp(buf, "LEDOFF")){
 183:main.c        ****                 LED_Write(0);
 184:main.c        ****             }
 185:main.c        ****             pch = strtok(buf, delim);
 186:main.c        ****             if (pch != NULL) {
 187:main.c        ****                 if (strcmp(pch, "PWM") == 0){
 188:main.c        ****                     pch = strtok(buf, delim);
 189:main.c        ****                     cmp = atoi(pch);    // atoi: string to integer
 190:main.c        ****                     if (cmp <= 100)
 191:main.c        ****                         PWM_WriteCompare(cmp);
 192:main.c        ****                 }
 193:main.c        ****             }
 194:main.c        ****         }
 195:main.c        ****         vTaskDelay(pdMS_TO_TICKS(50)); // Delay for 50 ms
ARM GAS  C:\Users\Tri94\AppData\Local\Temp\ccqNnId0.s 			page 5


 196:main.c        ****     }
 197:main.c        **** }
 198:main.c        **** void vAppTask2(void *pvParaments){
 199:main.c        ****     
 200:main.c        ****     char        rxBuff[100];
 201:main.c        ****     size_t      xBytesReceived;
 202:main.c        ****     int arraySize = sizeof(rxBuff) / sizeof(rxBuff[0]);
 203:main.c        ****     
 204:main.c        ****     while(1){
 205:main.c        ****         xBytesReceived = xMessageBufferReceive(xMessageBuffer, rxBuff,
 206:main.c        ****                                         arraySize,pdMS_TO_TICKS(10));
 207:main.c        ****         
 208:main.c        ****         if (xBytesReceived > 0){
 209:main.c        ****             rxBuff[xBytesReceived] = '\0';
 210:main.c        ****             LCD_Position(1,0);
 211:main.c        ****             LCD_PrintString(rxBuff);
 212:main.c        ****         }
 213:main.c        ****         
 214:main.c        ****         vTaskDelay(pdMS_TO_TICKS(50)); // Delay for 850 ms
 215:main.c        ****     }
 216:main.c        **** }
 217:main.c        **** */
 218:main.c        **** void vUltraSonicTask(void *pvParaments){
  34              		.loc 1 218 0
  35              		.cfi_startproc
  36              		@ args = 0, pretend = 0, frame = 40
  37              		@ frame_needed = 0, uses_anonymous_args = 0
  38              	.LVL0:
  39 0000 10B5     		push	{r4, lr}
  40              		.cfi_def_cfa_offset 8
  41              		.cfi_offset 4, -8
  42              		.cfi_offset 14, -4
  43 0002 8AB0     		sub	sp, sp, #40
  44              		.cfi_def_cfa_offset 48
  45              	.LVL1:
  46              	.L7:
 219:main.c        ****     
 220:main.c        ****     uint16 counts = 0;
 221:main.c        ****     float  meter  = 0;
 222:main.c        ****     int  centimeter;
 223:main.c        ****     char str[40];
 224:main.c        ****     
 225:main.c        ****     while(1){
 226:main.c        ****         //Timer_1_Init();  //Initiate timer
 227:main.c        ****         Trigger_Write(1);
  47              		.loc 1 227 0
  48 0004 0120     		movs	r0, #1
  49 0006 FFF7FEFF 		bl	Trigger_Write
  50              	.LVL2:
 228:main.c        ****         CyDelayUs(10);
  51              		.loc 1 228 0
  52 000a 0A20     		movs	r0, #10
  53 000c FFF7FEFF 		bl	CyDelayUs
  54              	.LVL3:
 229:main.c        ****         Trigger_Write(0);
  55              		.loc 1 229 0
  56 0010 0020     		movs	r0, #0
ARM GAS  C:\Users\Tri94\AppData\Local\Temp\ccqNnId0.s 			page 6


  57 0012 FFF7FEFF 		bl	Trigger_Write
  58              	.LVL4:
  59              	.L2:
 230:main.c        ****                  
 231:main.c        ****         while(Echo_Read() != 1); //wait until return pulse starts
  60              		.loc 1 231 0 discriminator 1
  61 0016 FFF7FEFF 		bl	Echo_Read
  62              	.LVL5:
  63 001a 0128     		cmp	r0, #1
  64 001c FBD1     		bne	.L2
 232:main.c        ****         Timer_Start();
  65              		.loc 1 232 0
  66 001e FFF7FEFF 		bl	Timer_Start
  67              	.LVL6:
  68              	.L3:
 233:main.c        ****         while(Echo_Read() != 0); //wait unit return pulse stops 
  69              		.loc 1 233 0 discriminator 1
  70 0022 FFF7FEFF 		bl	Echo_Read
  71              	.LVL7:
  72 0026 0028     		cmp	r0, #0
  73 0028 FBD1     		bne	.L3
 234:main.c        ****     
 235:main.c        ****         counts = 0xFFFF-Timer_ReadCounter();        
  74              		.loc 1 235 0
  75 002a FFF7FEFF 		bl	Timer_ReadCounter
  76              	.LVL8:
  77 002e C043     		mvns	r0, r0
  78              	.LVL9:
 236:main.c        ****         meter = counts * 0.0001717; //Convert pulse width to meters.     
  79              		.loc 1 236 0
  80 0030 80B2     		uxth	r0, r0
  81 0032 FFF7FEFF 		bl	__aeabi_i2d
  82              	.LVL10:
  83 0036 1AA3     		adr	r3, .L11
  84 0038 D3E90023 		ldrd	r2, [r3]
  85 003c FFF7FEFF 		bl	__aeabi_dmul
  86              	.LVL11:
  87 0040 FFF7FEFF 		bl	__aeabi_d2f
  88              	.LVL12:
  89 0044 0446     		mov	r4, r0
  90              	.LVL13:
 237:main.c        ****         //meter = counts * 0.000001717; //Convert pulse width to centimeters.     
 238:main.c        ****         
 239:main.c        ****         if (meter < 0.5 ){              
  91              		.loc 1 239 0
  92 0046 4FF07C51 		mov	r1, #1056964608
  93 004a FFF7FEFF 		bl	__aeabi_fcmplt
  94              	.LVL14:
  95 004e 38B1     		cbz	r0, .L9
 240:main.c        ****             LED_Write(1);
  96              		.loc 1 240 0
  97 0050 0120     		movs	r0, #1
  98 0052 FFF7FEFF 		bl	LED_Write
  99              	.LVL15:
 241:main.c        ****             PWM_Servo_WriteCompare(CMP0);
 100              		.loc 1 241 0
 101 0056 44F68F40 		movw	r0, #19599
ARM GAS  C:\Users\Tri94\AppData\Local\Temp\ccqNnId0.s 			page 7


 102 005a FFF7FEFF 		bl	PWM_Servo_WriteCompare
 103              	.LVL16:
 104 005e 06E0     		b	.L6
 105              	.L9:
 242:main.c        ****         }          
 243:main.c        ****         else{        
 244:main.c        ****             LED_Write(0);
 106              		.loc 1 244 0
 107 0060 0020     		movs	r0, #0
 108 0062 FFF7FEFF 		bl	LED_Write
 109              	.LVL17:
 245:main.c        ****             PWM_Servo_WriteCompare(CMP180);
 110              		.loc 1 245 0
 111 0066 44F2BF40 		movw	r0, #17599
 112 006a FFF7FEFF 		bl	PWM_Servo_WriteCompare
 113              	.LVL18:
 114              	.L6:
 246:main.c        ****         }     
 247:main.c        ****         vTaskDelay(pdMS_TO_TICKS(200)); // Delay for 200 ms
 115              		.loc 1 247 0
 116 006e C820     		movs	r0, #200
 117 0070 FFF7FEFF 		bl	vTaskDelay
 118              	.LVL19:
 248:main.c        ****         Timer_Stop();
 119              		.loc 1 248 0
 120 0074 FFF7FEFF 		bl	Timer_Stop
 121              	.LVL20:
 249:main.c        ****         centimeter = meter*100;
 122              		.loc 1 249 0
 123 0078 0B49     		ldr	r1, .L11+8
 124 007a 2046     		mov	r0, r4
 125 007c FFF7FEFF 		bl	__aeabi_fmul
 126              	.LVL21:
 127 0080 FFF7FEFF 		bl	__aeabi_f2iz
 128              	.LVL22:
 250:main.c        ****         
 251:main.c        ****         sprintf(str, "%d cm",centimeter);
 129              		.loc 1 251 0
 130 0084 0246     		mov	r2, r0
 131 0086 0949     		ldr	r1, .L11+12
 132 0088 6846     		mov	r0, sp
 133              	.LVL23:
 134 008a FFF7FEFF 		bl	sprintf
 135              	.LVL24:
 252:main.c        ****         //LCD_Position(0,0);
 253:main.c        ****         LCD_ClearDisplay();
 136              		.loc 1 253 0
 137 008e 0120     		movs	r0, #1
 138 0090 FFF7FEFF 		bl	LCD_WriteControl
 139              	.LVL25:
 254:main.c        ****         LCD_PrintString(str);
 140              		.loc 1 254 0
 141 0094 6846     		mov	r0, sp
 142 0096 FFF7FEFF 		bl	LCD_PrintString
 143              	.LVL26:
 255:main.c        ****         
 256:main.c        ****     }
ARM GAS  C:\Users\Tri94\AppData\Local\Temp\ccqNnId0.s 			page 8


 144              		.loc 1 256 0
 145 009a B3E7     		b	.L7
 146              	.L12:
 147 009c AFF30080 		.align	3
 148              	.L11:
 149 00a0 7470FAC4 		.word	-990220172
 150 00a4 4B81263F 		.word	1059488075
 151 00a8 0000C842 		.word	1120403456
 152 00ac 00000000 		.word	.LC0
 153              		.cfi_endproc
 154              	.LFE71:
 155              		.size	vUltraSonicTask, .-vUltraSonicTask
 156              		.section	.text.myPSoCSetup,"ax",%progbits
 157              		.align	2
 158              		.global	myPSoCSetup
 159              		.thumb
 160              		.thumb_func
 161              		.type	myPSoCSetup, %function
 162              	myPSoCSetup:
 163              	.LFB70:
 108:main.c        ****     
 164              		.loc 1 108 0
 165              		.cfi_startproc
 166              		@ args = 0, pretend = 0, frame = 0
 167              		@ frame_needed = 0, uses_anonymous_args = 0
 168 0000 08B5     		push	{r3, lr}
 169              		.cfi_def_cfa_offset 8
 170              		.cfi_offset 3, -8
 171              		.cfi_offset 14, -4
 115:main.c        ****     PWM_Servo_WriteCompare(CMP0);
 172              		.loc 1 115 0
 173 0002 FFF7FEFF 		bl	PWM_Servo_Start
 174              	.LVL27:
 116:main.c        ****     
 175              		.loc 1 116 0
 176 0006 44F68F40 		movw	r0, #19599
 177 000a FFF7FEFF 		bl	PWM_Servo_WriteCompare
 178              	.LVL28:
 118:main.c        ****     LCD_Start();
 179              		.loc 1 118 0
 180 000e FFF7FEFF 		bl	LCD_Init
 181              	.LVL29:
 119:main.c        ****     LCD_ClearDisplay();
 182              		.loc 1 119 0
 183 0012 FFF7FEFF 		bl	LCD_Start
 184              	.LVL30:
 120:main.c        ****     
 185              		.loc 1 120 0
 186 0016 0120     		movs	r0, #1
 187 0018 FFF7FEFF 		bl	LCD_WriteControl
 188              	.LVL31:
 189 001c 08BD     		pop	{r3, pc}
 190              		.cfi_endproc
 191              	.LFE70:
 192              		.size	myPSoCSetup, .-myPSoCSetup
 193 001e 00BF     		.section	.text.main,"ax",%progbits
 194              		.align	2
ARM GAS  C:\Users\Tri94\AppData\Local\Temp\ccqNnId0.s 			page 9


 195              		.global	main
 196              		.thumb
 197              		.thumb_func
 198              		.type	main, %function
 199              	main:
 200              	.LFB69:
  45:main.c        ****     BaseType_t err;
 201              		.loc 1 45 0
 202              		.cfi_startproc
 203              		@ args = 0, pretend = 0, frame = 0
 204              		@ frame_needed = 0, uses_anonymous_args = 0
 205 0000 00B5     		push	{lr}
 206              		.cfi_def_cfa_offset 4
 207              		.cfi_offset 14, -4
 208 0002 83B0     		sub	sp, sp, #12
 209              		.cfi_def_cfa_offset 16
  48:main.c        **** 
 210              		.loc 1 48 0
 211              		.syntax unified
 212              	@ 48 "main.c" 1
 213 0004 62B6     		CPSIE   i
 214              	@ 0 "" 2
  51:main.c        ****     myPSoCSetup();
 215              		.loc 1 51 0
 216              		.thumb
 217              		.syntax unified
 218 0006 FFF7FEFF 		bl	FreeRTOS_Init
 219              	.LVL32:
  52:main.c        ****     /*
 220              		.loc 1 52 0
 221 000a FFF7FEFF 		bl	myPSoCSetup
 222              	.LVL33:
  87:main.c        ****                         "Task 3",                   // const char * const pcName,
 223              		.loc 1 87 0
 224 000e 0023     		movs	r3, #0
 225 0010 0193     		str	r3, [sp, #4]
 226 0012 0422     		movs	r2, #4
 227 0014 0092     		str	r2, [sp]
 228 0016 C822     		movs	r2, #200
 229 0018 0449     		ldr	r1, .L20
 230 001a 0548     		ldr	r0, .L20+4
 231 001c FFF7FEFF 		bl	xTaskCreate
 232              	.LVL34:
  94:main.c        ****         // Cannot create task!
 233              		.loc 1 94 0
 234 0020 0128     		cmp	r0, #1
 235 0022 00D0     		beq	.L16
 236              	.L17:
 237 0024 FEE7     		b	.L17
 238              	.L16:
 100:main.c        ****     
 239              		.loc 1 100 0
 240 0026 FFF7FEFF 		bl	vTaskStartScheduler
 241              	.LVL35:
 242              	.L18:
 243 002a FEE7     		b	.L18
 244              	.L21:
ARM GAS  C:\Users\Tri94\AppData\Local\Temp\ccqNnId0.s 			page 10


 245              		.align	2
 246              	.L20:
 247 002c 08000000 		.word	.LC1
 248 0030 00000000 		.word	vUltraSonicTask
 249              		.cfi_endproc
 250              	.LFE69:
 251              		.size	main, .-main
 252              		.section	.rodata.str1.4,"aMS",%progbits,1
 253              		.align	2
 254              	.LC0:
 255 0000 25642063 		.ascii	"%d cm\000"
 255      6D00
 256 0006 0000     		.space	2
 257              	.LC1:
 258 0008 5461736B 		.ascii	"Task 3\000"
 258      203300
 259              		.text
 260              	.Letext0:
 261              		.file 2 "c:\\program files (x86)\\cypress\\psoc creator\\4.2\\psoc creator\\import\\gnu\\arm\\5.4.
 262              		.file 3 "c:\\program files (x86)\\cypress\\psoc creator\\4.2\\psoc creator\\import\\gnu\\arm\\5.4.
 263              		.file 4 "Generated_Source\\PSoC5/cytypes.h"
 264              		.file 5 "..\\FreeRTOS\\portable\\GCC\\ARM_CM3/portmacro.h"
 265              		.file 6 "Generated_Source\\PSoC5/Trigger.h"
 266              		.file 7 "Generated_Source\\PSoC5/CyLib.h"
 267              		.file 8 "Generated_Source\\PSoC5/Echo.h"
 268              		.file 9 "Generated_Source\\PSoC5/Timer.h"
 269              		.file 10 "Generated_Source\\PSoC5/LED.h"
 270              		.file 11 "Generated_Source\\PSoC5/PWM_Servo.h"
 271              		.file 12 "..\\FreeRTOS\\include/task.h"
 272              		.file 13 "c:\\program files (x86)\\cypress\\psoc creator\\4.2\\psoc creator\\import\\gnu\\arm\\5.4
 273              		.file 14 "Generated_Source\\PSoC5/LCD.h"
 274              		.file 15 "..\\FreeRTOS/FreeRTOS_PSoC.h"
 275              		.file 16 "Generated_Source\\PSoC5/core_cm3.h"