ARM GAS  C:\Users\Tri94\AppData\Local\Temp\ccmJkEO7.s 			page 1


   1              		.syntax unified
   2              		.cpu cortex-m3
   3              		.fpu softvfp
   4              		.eabi_attribute 20, 1
   5              		.eabi_attribute 21, 1
   6              		.eabi_attribute 23, 3
   7              		.eabi_attribute 24, 1
   8              		.eabi_attribute 25, 1
   9              		.eabi_attribute 26, 1
  10              		.eabi_attribute 30, 1
  11              		.eabi_attribute 34, 1
  12              		.eabi_attribute 18, 4
  13              		.thumb
  14              		.syntax unified
  15              		.file	"main.c"
  16              		.text
  17              	.Ltext0:
  18              		.cfi_sections	.debug_frame
  19              		.section	.text.main,"ax",%progbits
  20              		.align	2
  21              		.global	main
  22              		.thumb
  23              		.thumb_func
  24              		.type	main, %function
  25              	main:
  26              	.LFB64:
  27              		.file 1 "main.c"
   1:main.c        **** /* ========================================
   2:main.c        ****  *
   3:main.c        ****  * Copyright YOUR COMPANY, THE YEAR
   4:main.c        ****  * All Rights Reserved
   5:main.c        ****  * UNPUBLISHED, LICENSED SOFTWARE.
   6:main.c        ****  *
   7:main.c        ****  * CONFIDENTIAL AND PROPRIETARY INFORMATION
   8:main.c        ****  * WHICH IS THE PROPERTY OF your company.
   9:main.c        ****  *
  10:main.c        ****  * ========================================
  11:main.c        **** */
  12:main.c        **** #include "project.h"
  13:main.c        **** #include <stdio.h>
  14:main.c        **** #include <stdlib.h>
  15:main.c        **** #include <stdint.h>
  16:main.c        **** #include <stdbool.h>
  17:main.c        **** 
  18:main.c        **** #define NOFINGER 0xFFFFu
  19:main.c        **** 
  20:main.c        **** int main(void)
  21:main.c        **** {
  28              		.loc 1 21 0
  29              		.cfi_startproc
  30              		@ args = 0, pretend = 0, frame = 0
  31              		@ frame_needed = 0, uses_anonymous_args = 0
  32 0000 38B5     		push	{r3, r4, r5, lr}
  33              		.cfi_def_cfa_offset 16
  34              		.cfi_offset 3, -16
  35              		.cfi_offset 4, -12
  36              		.cfi_offset 5, -8
ARM GAS  C:\Users\Tri94\AppData\Local\Temp\ccmJkEO7.s 			page 2


  37              		.cfi_offset 14, -4
  38              	.LVL0:
  22:main.c        ****     
  23:main.c        ****     uint16_t    sliderPostion   = NOFINGER;
  24:main.c        ****     uint16_t    lastPostion     = NOFINGER;
  25:main.c        ****     
  26:main.c        ****     CyGlobalIntEnable; /* Enable global interrupts. */
  39              		.loc 1 26 0
  40              		.syntax unified
  41              	@ 26 "main.c" 1
  42 0002 62B6     		CPSIE   i
  43              	@ 0 "" 2
  27:main.c        **** 
  28:main.c        ****     /* Place your initialization/startup code here (e.g. MyInst_Start()) */
  29:main.c        ****     PWM_Start();
  44              		.loc 1 29 0
  45              		.thumb
  46              		.syntax unified
  47 0004 FFF7FEFF 		bl	PWM_Start
  48              	.LVL1:
  30:main.c        ****     CapSense_Start();
  49              		.loc 1 30 0
  50 0008 FFF7FEFF 		bl	CapSense_Start
  51              	.LVL2:
  31:main.c        ****     CapSense_InitializeAllBaselines();
  52              		.loc 1 31 0
  53 000c FFF7FEFF 		bl	CapSense_InitializeAllBaselines
  54              	.LVL3:
  24:main.c        ****     
  55              		.loc 1 24 0
  56 0010 4FF6FF75 		movw	r5, #65535
  57              	.LVL4:
  58              	.L2:
  32:main.c        ****     
  33:main.c        ****     for(;;)
  34:main.c        ****     {
  35:main.c        ****         /* Place your application code here. */
  36:main.c        ****         CapSense_UpdateEnabledBaselines();
  59              		.loc 1 36 0
  60 0014 FFF7FEFF 		bl	CapSense_UpdateEnabledBaselines
  61              	.LVL5:
  37:main.c        ****         CapSense_ScanEnabledWidgets();
  62              		.loc 1 37 0
  63 0018 FFF7FEFF 		bl	CapSense_ScanEnabledWidgets
  64              	.LVL6:
  65              	.L3:
  38:main.c        ****         
  39:main.c        ****         while(CapSense_IsBusy());
  66              		.loc 1 39 0 discriminator 1
  67 001c FFF7FEFF 		bl	CapSense_IsBusy
  68              	.LVL7:
  69 0020 0028     		cmp	r0, #0
  70 0022 FBD1     		bne	.L3
  40:main.c        ****         
  41:main.c        ****         sliderPostion = CapSense_GetCentroidPos(0);
  71              		.loc 1 41 0
  72 0024 FFF7FEFF 		bl	CapSense_GetCentroidPos
ARM GAS  C:\Users\Tri94\AppData\Local\Temp\ccmJkEO7.s 			page 3


  73              	.LVL8:
  74 0028 0446     		mov	r4, r0
  75              	.LVL9:
  42:main.c        ****         
  43:main.c        ****         if (sliderPostion != NOFINGER){
  76              		.loc 1 43 0
  77 002a 4FF6FF73 		movw	r3, #65535
  78 002e 9842     		cmp	r0, r3
  79 0030 F0D0     		beq	.L2
  44:main.c        ****             if (sliderPostion != lastPostion){
  80              		.loc 1 44 0
  81 0032 8542     		cmp	r5, r0
  82 0034 EED0     		beq	.L2
  83              	.LVL10:
  45:main.c        ****                 lastPostion = sliderPostion;
  46:main.c        ****                 PWM_WriteCompare(sliderPostion);
  84              		.loc 1 46 0
  85 0036 C0B2     		uxtb	r0, r0
  86              	.LVL11:
  87 0038 FFF7FEFF 		bl	PWM_WriteCompare
  88              	.LVL12:
  45:main.c        ****                 lastPostion = sliderPostion;
  89              		.loc 1 45 0
  90 003c 2546     		mov	r5, r4
  91 003e E9E7     		b	.L2
  92              		.cfi_endproc
  93              	.LFE64:
  94              		.size	main, .-main
  95              		.text
  96              	.Letext0:
  97              		.file 2 "c:\\program files (x86)\\cypress\\psoc creator\\4.2\\psoc creator\\import\\gnu\\arm\\5.4.
  98              		.file 3 "c:\\program files (x86)\\cypress\\psoc creator\\4.2\\psoc creator\\import\\gnu\\arm\\5.4.
  99              		.file 4 "Generated_Source\\PSoC5/PWM.h"
 100              		.file 5 "Generated_Source\\PSoC5/CapSense.h"
 101              		.file 6 "Generated_Source\\PSoC5/CapSense_CSHL.h"
 102              		.file 7 "Generated_Source\\PSoC5/core_cm3.h"