ARM GAS  C:\Users\Tri94\AppData\Local\Temp\cc2wIjei.s 			page 1


   1              		.syntax unified
   2              		.cpu cortex-m3
   3              		.fpu softvfp
   4              		.eabi_attribute 20, 1
   5              		.eabi_attribute 21, 1
   6              		.eabi_attribute 23, 3
   7              		.eabi_attribute 24, 1
   8              		.eabi_attribute 25, 1
   9              		.eabi_attribute 26, 1
  10              		.eabi_attribute 30, 1
  11              		.eabi_attribute 34, 1
  12              		.eabi_attribute 18, 4
  13              		.thumb
  14              		.syntax unified
  15              		.file	"main.c"
  16              		.text
  17              	.Ltext0:
  18              		.cfi_sections	.debug_frame
  19              		.section	.text.myISR_GPIO,"ax",%progbits
  20              		.align	2
  21              		.global	myISR_GPIO
  22              		.thumb
  23              		.thumb_func
  24              		.type	myISR_GPIO, %function
  25              	myISR_GPIO:
  26              	.LFB64:
  27              		.file 1 "main.c"
   1:main.c        **** /* ========================================
   2:main.c        ****  *
   3:main.c        ****  * Copyright YOUR COMPANY, THE YEAR
   4:main.c        ****  * All Rights Reserved
   5:main.c        ****  * UNPUBLISHED, LICENSED SOFTWARE.
   6:main.c        ****  *
   7:main.c        ****  * CONFIDENTIAL AND PROPRIETARY INFORMATION
   8:main.c        ****  * WHICH IS THE PROPERTY OF your company.
   9:main.c        ****  *
  10:main.c        ****  * ========================================
  11:main.c        **** */
  12:main.c        **** #include "project.h"
  13:main.c        **** #include <stdio.h>
  14:main.c        **** #include <stdlib.h>
  15:main.c        **** #include <stdint.h>
  16:main.c        **** #include <stdbool.h>
  17:main.c        **** 
  18:main.c        **** CY_ISR(myISR_GPIO){
  28              		.loc 1 18 0
  29              		.cfi_startproc
  30              		@ args = 0, pretend = 0, frame = 0
  31              		@ frame_needed = 0, uses_anonymous_args = 0
  32 0000 08B5     		push	{r3, lr}
  33              		.cfi_def_cfa_offset 8
  34              		.cfi_offset 3, -8
  35              		.cfi_offset 14, -4
  19:main.c        ****     LED_Write(!LED_Read());
  36              		.loc 1 19 0
  37 0002 FFF7FEFF 		bl	LED_Read
  38              	.LVL0:
ARM GAS  C:\Users\Tri94\AppData\Local\Temp\cc2wIjei.s 			page 2


  39 0006 B0FA80F0 		clz	r0, r0
  40 000a 4009     		lsrs	r0, r0, #5
  41 000c FFF7FEFF 		bl	LED_Write
  42              	.LVL1:
  43 0010 08BD     		pop	{r3, pc}
  44              		.cfi_endproc
  45              	.LFE64:
  46              		.size	myISR_GPIO, .-myISR_GPIO
  47 0012 00BF     		.section	.text.main,"ax",%progbits
  48              		.align	2
  49              		.global	main
  50              		.thumb
  51              		.thumb_func
  52              		.type	main, %function
  53              	main:
  54              	.LFB65:
  20:main.c        **** }
  21:main.c        **** 
  22:main.c        **** int main(void)
  23:main.c        **** {
  55              		.loc 1 23 0
  56              		.cfi_startproc
  57              		@ Volatile: function does not return.
  58              		@ args = 0, pretend = 0, frame = 0
  59              		@ frame_needed = 0, uses_anonymous_args = 0
  60 0000 08B5     		push	{r3, lr}
  61              		.cfi_def_cfa_offset 8
  62              		.cfi_offset 3, -8
  63              		.cfi_offset 14, -4
  24:main.c        ****     CyGlobalIntEnable; /* Enable global interrupts. */
  64              		.loc 1 24 0
  65              		.syntax unified
  66              	@ 24 "main.c" 1
  67 0002 62B6     		CPSIE   i
  68              	@ 0 "" 2
  25:main.c        **** 
  26:main.c        ****     /* Place your initialization/startup code here (e.g. MyInst_Start()) */
  27:main.c        ****     ISR_GPIO_StartEx(myISR_GPIO);
  69              		.loc 1 27 0
  70              		.thumb
  71              		.syntax unified
  72 0004 0148     		ldr	r0, .L6
  73 0006 FFF7FEFF 		bl	ISR_GPIO_StartEx
  74              	.LVL2:
  75              	.L4:
  76 000a FEE7     		b	.L4
  77              	.L7:
  78              		.align	2
  79              	.L6:
  80 000c 00000000 		.word	myISR_GPIO
  81              		.cfi_endproc
  82              	.LFE65:
  83              		.size	main, .-main
  84              		.text
  85              	.Letext0:
  86              		.file 2 "c:\\program files (x86)\\cypress\\psoc creator\\4.2\\psoc creator\\import\\gnu\\arm\\5.4.
  87              		.file 3 "c:\\program files (x86)\\cypress\\psoc creator\\4.2\\psoc creator\\import\\gnu\\arm\\5.4.
ARM GAS  C:\Users\Tri94\AppData\Local\Temp\cc2wIjei.s 			page 3


  88              		.file 4 "Generated_Source\\PSoC5/LED.h"
  89              		.file 5 "Generated_Source\\PSoC5/ISR_GPIO.h"
  90              		.file 6 "Generated_Source\\PSoC5/core_cm3.h"