ARM GAS  C:\Users\Tri94\AppData\Local\Temp\cc3LbiXl.s 			page 1


   1              		.syntax unified
   2              		.cpu cortex-m3
   3              		.fpu softvfp
   4              		.eabi_attribute 20, 1
   5              		.eabi_attribute 21, 1
   6              		.eabi_attribute 23, 3
   7              		.eabi_attribute 24, 1
   8              		.eabi_attribute 25, 1
   9              		.eabi_attribute 26, 1
  10              		.eabi_attribute 30, 1
  11              		.eabi_attribute 34, 1
  12              		.eabi_attribute 18, 4
  13              		.thumb
  14              		.syntax unified
  15              		.file	"LED.c"
  16              		.text
  17              	.Ltext0:
  18              		.cfi_sections	.debug_frame
  19              		.section	.text.LED_DmaInit,"ax",%progbits
  20              		.align	2
  21              		.thumb
  22              		.thumb_func
  23              		.type	LED_DmaInit, %function
  24              	LED_DmaInit:
  25              	.LFB0:
  26              		.file 1 "Generated_Source\\PSoC5\\LED.c"
   1:Generated_Source\PSoC5/LED.c **** /*******************************************************************************
   2:Generated_Source\PSoC5/LED.c **** * File Name: LED.c
   3:Generated_Source\PSoC5/LED.c **** * Version 1.10
   4:Generated_Source\PSoC5/LED.c **** *
   5:Generated_Source\PSoC5/LED.c **** * Description:
   6:Generated_Source\PSoC5/LED.c **** *  This file contains the setup, control and status commands for the 
   7:Generated_Source\PSoC5/LED.c **** *  LED Driver component.
   8:Generated_Source\PSoC5/LED.c **** *
   9:Generated_Source\PSoC5/LED.c **** * Note:
  10:Generated_Source\PSoC5/LED.c **** *  None
  11:Generated_Source\PSoC5/LED.c **** *
  12:Generated_Source\PSoC5/LED.c **** ********************************************************************************
  13:Generated_Source\PSoC5/LED.c **** * Copyright 2013-2015, Cypress Semiconductor Corporation.  All rights reserved.
  14:Generated_Source\PSoC5/LED.c **** * You may use this file only in accordance with the license, terms, conditions,
  15:Generated_Source\PSoC5/LED.c **** * disclaimers, and limitations in the end user license agreement accompanying
  16:Generated_Source\PSoC5/LED.c **** * the software package with which this file was provided.
  17:Generated_Source\PSoC5/LED.c **** ********************************************************************************/
  18:Generated_Source\PSoC5/LED.c **** 
  19:Generated_Source\PSoC5/LED.c **** #include "LED.h"
  20:Generated_Source\PSoC5/LED.c **** #include <LED_DMA_Com_dma.h>
  21:Generated_Source\PSoC5/LED.c **** #include <LED_DMA_Seg_dma.h>
  22:Generated_Source\PSoC5/LED.c **** #if (LED_BRIGHTNESS_EN == LED_ENABLED)
  23:Generated_Source\PSoC5/LED.c ****     #include <LED_DMA_BC_dma.h>
  24:Generated_Source\PSoC5/LED.c **** #endif /* (LED_BRIGHTNESS_EN == LED_ENABLED) */
  25:Generated_Source\PSoC5/LED.c **** 
  26:Generated_Source\PSoC5/LED.c **** /* Function prototypes */
  27:Generated_Source\PSoC5/LED.c **** static void LED_DmaInit(void) ;
  28:Generated_Source\PSoC5/LED.c **** static void LED_DmaEnable(void) ;
  29:Generated_Source\PSoC5/LED.c **** static void LED_DmaDisable(void) ;
  30:Generated_Source\PSoC5/LED.c **** 
  31:Generated_Source\PSoC5/LED.c **** /* Used to hold the common line output sequence */
ARM GAS  C:\Users\Tri94\AppData\Local\Temp\cc3LbiXl.s 			page 2


  32:Generated_Source\PSoC5/LED.c **** #if(LED_COM_DRIVE == LED_HIGH)
  33:Generated_Source\PSoC5/LED.c ****     static uint8 LED_comBuffer[16] = {0x00u, 0x01u, 0x00u, 0x02u, 0x00u, 0x04u, 0x00u, 0x08u,
  34:Generated_Source\PSoC5/LED.c ****                                                     0x00u, 0x10u, 0x00u, 0x20u, 0x00u, 0x40u, 0x00u
  35:Generated_Source\PSoC5/LED.c **** #else
  36:Generated_Source\PSoC5/LED.c ****     static uint8 LED_comBuffer[16] = {0xFFu, 0xFEu, 0xFFu, 0xFDu, 0xFFu, 0xFBu, 0xFFu, 0xF7u,
  37:Generated_Source\PSoC5/LED.c ****                                                     0xFFu, 0xEFu, 0xFFu, 0xDFu, 0xFFu, 0xBFu, 0xFFu
  38:Generated_Source\PSoC5/LED.c **** #endif /* (LED_COM_DRIVE == LED_HIGH) */
  39:Generated_Source\PSoC5/LED.c **** 
  40:Generated_Source\PSoC5/LED.c **** /* Buffers used to hold the display(segment) values to be transferred to the control registers */
  41:Generated_Source\PSoC5/LED.c **** uint8 LED_segLBuffer[LED_NUM_COM];
  42:Generated_Source\PSoC5/LED.c **** #if (LED_NUM_SEG > 8u) 
  43:Generated_Source\PSoC5/LED.c ****     uint8 LED_segMBuffer[LED_NUM_COM];
  44:Generated_Source\PSoC5/LED.c **** #endif /* (LED_NUM_SEG > 8u) */
  45:Generated_Source\PSoC5/LED.c **** #if (LED_NUM_SEG > 16u) 
  46:Generated_Source\PSoC5/LED.c ****     uint8 LED_segHBuffer[LED_NUM_COM];
  47:Generated_Source\PSoC5/LED.c **** #endif /* (LED_NUM_SEG > 16u) */
  48:Generated_Source\PSoC5/LED.c **** 
  49:Generated_Source\PSoC5/LED.c **** #if (LED_BRIGHTNESS_EN == LED_ENABLED)
  50:Generated_Source\PSoC5/LED.c ****     /* The brightness register used to hold the brightness levels for each common */
  51:Generated_Source\PSoC5/LED.c ****     static uint8 LED_brightnessReg[LED_NUM_COM];
  52:Generated_Source\PSoC5/LED.c **** #endif /* (LED_BRIGHTNESS_EN == LED_ENABLED) */
  53:Generated_Source\PSoC5/LED.c **** 
  54:Generated_Source\PSoC5/LED.c **** /* DMA channel and TD declaractions */
  55:Generated_Source\PSoC5/LED.c **** static uint8 LED_dmaComChannel;
  56:Generated_Source\PSoC5/LED.c **** static uint8 LED_dmaComTd[LED_TWO_NUM_COM];
  57:Generated_Source\PSoC5/LED.c **** 
  58:Generated_Source\PSoC5/LED.c **** static uint8 LED_dmaSegChannel;
  59:Generated_Source\PSoC5/LED.c **** static uint8 LED_dmaSegLTd[LED_NUM_COM];
  60:Generated_Source\PSoC5/LED.c **** 
  61:Generated_Source\PSoC5/LED.c **** #if (LED_BRIGHTNESS_EN == LED_ENABLED)
  62:Generated_Source\PSoC5/LED.c ****     static uint8 LED_dmaBCChannel;
  63:Generated_Source\PSoC5/LED.c ****     static uint8 LED_dmaBCTd;
  64:Generated_Source\PSoC5/LED.c **** #endif /* (LED_BRIGHTNESS_EN == LED_ENABLED) */
  65:Generated_Source\PSoC5/LED.c **** 
  66:Generated_Source\PSoC5/LED.c **** uint8 LED_initVar = 0u;
  67:Generated_Source\PSoC5/LED.c **** uint8 LED_enableVar = 0u;
  68:Generated_Source\PSoC5/LED.c **** 
  69:Generated_Source\PSoC5/LED.c **** 
  70:Generated_Source\PSoC5/LED.c **** /*******************************************************************************
  71:Generated_Source\PSoC5/LED.c **** * Function Name: LED_DmaInit
  72:Generated_Source\PSoC5/LED.c **** ********************************************************************************
  73:Generated_Source\PSoC5/LED.c **** *
  74:Generated_Source\PSoC5/LED.c **** * Summary: 
  75:Generated_Source\PSoC5/LED.c **** *  Initializes the DMAs for transferring from the buffer register arrays to 
  76:Generated_Source\PSoC5/LED.c **** *  the control registers.
  77:Generated_Source\PSoC5/LED.c **** *
  78:Generated_Source\PSoC5/LED.c **** * Parameters:
  79:Generated_Source\PSoC5/LED.c **** *  None
  80:Generated_Source\PSoC5/LED.c **** *
  81:Generated_Source\PSoC5/LED.c **** * Return:
  82:Generated_Source\PSoC5/LED.c **** *  None
  83:Generated_Source\PSoC5/LED.c **** *
  84:Generated_Source\PSoC5/LED.c **** * Side Effects: 
  85:Generated_Source\PSoC5/LED.c **** *  None
  86:Generated_Source\PSoC5/LED.c **** *
  87:Generated_Source\PSoC5/LED.c **** *******************************************************************************/
  88:Generated_Source\PSoC5/LED.c **** static void LED_DmaInit(void) 
ARM GAS  C:\Users\Tri94\AppData\Local\Temp\cc3LbiXl.s 			page 3


  89:Generated_Source\PSoC5/LED.c **** {
  27              		.loc 1 89 0
  28              		.cfi_startproc
  29              		@ args = 0, pretend = 0, frame = 0
  30              		@ frame_needed = 0, uses_anonymous_args = 0
  31 0000 10B5     		push	{r4, lr}
  32              		.cfi_def_cfa_offset 8
  33              		.cfi_offset 4, -8
  34              		.cfi_offset 14, -4
  90:Generated_Source\PSoC5/LED.c ****     uint8  i;
  91:Generated_Source\PSoC5/LED.c ****     
  92:Generated_Source\PSoC5/LED.c ****     /* Segment TDs for Seg_Driver_M and Seg_Driver_H control registers */
  93:Generated_Source\PSoC5/LED.c ****     #if (LED_NUM_SEG > 8u)
  94:Generated_Source\PSoC5/LED.c ****         static uint8 LED_dmaSegMTd[LED_NUM_COM];
  95:Generated_Source\PSoC5/LED.c ****     #endif /* (LED_NUM_SEG > 8u) */
  96:Generated_Source\PSoC5/LED.c ****     #if (LED_NUM_SEG > 16u)
  97:Generated_Source\PSoC5/LED.c ****         static uint8 LED_dmaSegHTd[LED_NUM_COM];
  98:Generated_Source\PSoC5/LED.c ****     #endif /* (LED_NUM_SEG > 16u) */
  99:Generated_Source\PSoC5/LED.c **** 
 100:Generated_Source\PSoC5/LED.c ****     /************************* DMA configuration for the Commons *************************/
 101:Generated_Source\PSoC5/LED.c ****     /* Common DMA channel */
 102:Generated_Source\PSoC5/LED.c ****     LED_dmaComChannel = LED_DMA_Com_DmaInitialize(1u, 1u, 
  35              		.loc 1 102 0
  36 0002 4FF48043 		mov	r3, #16384
  37 0006 41F6FF72 		movw	r2, #8191
  38 000a 0121     		movs	r1, #1
  39 000c 0846     		mov	r0, r1
  40 000e FFF7FEFF 		bl	LED_DMA_Com_DmaInitialize
  41              	.LVL0:
  42 0012 424B     		ldr	r3, .L21
  43 0014 1870     		strb	r0, [r3]
 103:Generated_Source\PSoC5/LED.c ****                                         HI16(LED_SRAM_BASE), HI16(LED_CONTROL_REG_BASE));
 104:Generated_Source\PSoC5/LED.c **** 
 105:Generated_Source\PSoC5/LED.c ****     /* Check if the channel is valid */                                                            
 106:Generated_Source\PSoC5/LED.c ****     if(LED_dmaComChannel != DMA_INVALID_CHANNEL)
  44              		.loc 1 106 0
  45 0016 FF28     		cmp	r0, #255
  46 0018 08D1     		bne	.L18
  47 001a 3FE0     		b	.L3
  48              	.LVL1:
  49              	.L4:
 107:Generated_Source\PSoC5/LED.c ****     {
 108:Generated_Source\PSoC5/LED.c ****         /* Allocate the common TDs */
 109:Generated_Source\PSoC5/LED.c ****         for(i = 0u; i < LED_TWO_NUM_COM; i++)
 110:Generated_Source\PSoC5/LED.c ****         {
 111:Generated_Source\PSoC5/LED.c ****             LED_dmaComTd[i] = CyDmaTdAllocate();
  50              		.loc 1 111 0 discriminator 3
  51 001c FFF7FEFF 		bl	CyDmaTdAllocate
  52              	.LVL2:
  53 0020 3E4B     		ldr	r3, .L21
  54 0022 2344     		add	r3, r3, r4
  55 0024 1871     		strb	r0, [r3, #4]
 109:Generated_Source\PSoC5/LED.c ****         {
  56              		.loc 1 109 0 discriminator 3
  57 0026 0134     		adds	r4, r4, #1
  58              	.LVL3:
  59 0028 E4B2     		uxtb	r4, r4
ARM GAS  C:\Users\Tri94\AppData\Local\Temp\cc3LbiXl.s 			page 4


  60              	.LVL4:
  61 002a 00E0     		b	.L2
  62              	.LVL5:
  63              	.L18:
  64 002c 0024     		movs	r4, #0
  65              	.L2:
  66              	.LVL6:
 109:Generated_Source\PSoC5/LED.c ****         {
  67              		.loc 1 109 0 is_stmt 0 discriminator 1
  68 002e 072C     		cmp	r4, #7
  69 0030 F4D9     		bls	.L4
  70 0032 0024     		movs	r4, #0
  71              	.LVL7:
  72 0034 19E0     		b	.L5
  73              	.LVL8:
  74              	.L8:
 112:Generated_Source\PSoC5/LED.c ****         }
 113:Generated_Source\PSoC5/LED.c ****         
 114:Generated_Source\PSoC5/LED.c ****         /* Set configuration for the Common TDs */
 115:Generated_Source\PSoC5/LED.c ****         for(i = 0u;  i < (LED_TWO_NUM_COM - 1u); i++)
 116:Generated_Source\PSoC5/LED.c ****         {
 117:Generated_Source\PSoC5/LED.c ****             /* Separate configurations for odd and even TDs */
 118:Generated_Source\PSoC5/LED.c ****             if((uint8)(i & 1u) == 0u)
  75              		.loc 1 118 0 is_stmt 1
  76 0036 14F0010F 		tst	r4, #1
  77 003a 0AD1     		bne	.L6
 119:Generated_Source\PSoC5/LED.c ****             {
 120:Generated_Source\PSoC5/LED.c ****                 /* Set configuration for the Common TDs */
 121:Generated_Source\PSoC5/LED.c ****                 (void) CyDmaTdSetConfiguration(LED_dmaComTd[i], 1u, 
  78              		.loc 1 121 0
  79 003c 374A     		ldr	r2, .L21
  80 003e 1019     		adds	r0, r2, r4
 122:Generated_Source\PSoC5/LED.c ****                                                 LED_dmaComTd[i+1u],
  81              		.loc 1 122 0
  82 0040 631C     		adds	r3, r4, #1
 121:Generated_Source\PSoC5/LED.c ****                                                 LED_dmaComTd[i+1u],
  83              		.loc 1 121 0
  84 0042 1A44     		add	r2, r2, r3
  85 0044 0523     		movs	r3, #5
  86 0046 1279     		ldrb	r2, [r2, #4]	@ zero_extendqisi2
  87 0048 0121     		movs	r1, #1
  88 004a 0079     		ldrb	r0, [r0, #4]	@ zero_extendqisi2
  89 004c FFF7FEFF 		bl	CyDmaTdSetConfiguration
  90              	.LVL9:
  91 0050 09E0     		b	.L7
  92              	.L6:
 123:Generated_Source\PSoC5/LED.c ****                                                 TD_INC_SRC_ADR | LED_DMA_Com__TD_TERMOUT_EN);
 124:Generated_Source\PSoC5/LED.c ****             }
 125:Generated_Source\PSoC5/LED.c ****             else
 126:Generated_Source\PSoC5/LED.c ****             {
 127:Generated_Source\PSoC5/LED.c ****                 /* Set configuration for the Common TDs */
 128:Generated_Source\PSoC5/LED.c ****                 (void) CyDmaTdSetConfiguration(LED_dmaComTd[i], 1u,
  93              		.loc 1 128 0
  94 0052 324A     		ldr	r2, .L21
  95 0054 1019     		adds	r0, r2, r4
 129:Generated_Source\PSoC5/LED.c ****                                                 LED_dmaComTd[i+1u], TD_INC_SRC_ADR);
  96              		.loc 1 129 0
ARM GAS  C:\Users\Tri94\AppData\Local\Temp\cc3LbiXl.s 			page 5


  97 0056 631C     		adds	r3, r4, #1
 128:Generated_Source\PSoC5/LED.c ****                                                 LED_dmaComTd[i+1u], TD_INC_SRC_ADR);
  98              		.loc 1 128 0
  99 0058 1A44     		add	r2, r2, r3
 100 005a 0123     		movs	r3, #1
 101 005c 1279     		ldrb	r2, [r2, #4]	@ zero_extendqisi2
 102 005e 1946     		mov	r1, r3
 103 0060 0079     		ldrb	r0, [r0, #4]	@ zero_extendqisi2
 104 0062 FFF7FEFF 		bl	CyDmaTdSetConfiguration
 105              	.LVL10:
 106              	.L7:
 115:Generated_Source\PSoC5/LED.c ****         {
 107              		.loc 1 115 0 discriminator 2
 108 0066 0134     		adds	r4, r4, #1
 109              	.LVL11:
 110 0068 E4B2     		uxtb	r4, r4
 111              	.LVL12:
 112              	.L5:
 115:Generated_Source\PSoC5/LED.c ****         {
 113              		.loc 1 115 0 is_stmt 0 discriminator 1
 114 006a 062C     		cmp	r4, #6
 115 006c E3D9     		bls	.L8
 130:Generated_Source\PSoC5/LED.c ****             }
 131:Generated_Source\PSoC5/LED.c ****         }
 132:Generated_Source\PSoC5/LED.c ****         /* Set the wraparound Common TD configuration */
 133:Generated_Source\PSoC5/LED.c ****         (void) CyDmaTdSetConfiguration(LED_dmaComTd[LED_TWO_NUM_COM - 1u], 
 116              		.loc 1 133 0 is_stmt 1
 117 006e 2B48     		ldr	r0, .L21
 118 0070 0123     		movs	r3, #1
 119 0072 0279     		ldrb	r2, [r0, #4]	@ zero_extendqisi2
 120 0074 1946     		mov	r1, r3
 121 0076 C07A     		ldrb	r0, [r0, #11]	@ zero_extendqisi2
 122 0078 FFF7FEFF 		bl	CyDmaTdSetConfiguration
 123              	.LVL13:
 134:Generated_Source\PSoC5/LED.c ****                                         1u, LED_dmaComTd[0u], TD_INC_SRC_ADR);
 135:Generated_Source\PSoC5/LED.c ****         
 136:Generated_Source\PSoC5/LED.c ****         /* Set the lower addresses of the common TDs */
 137:Generated_Source\PSoC5/LED.c ****         for(i = 0u; i < LED_TWO_NUM_COM; i++)
 124              		.loc 1 137 0
 125 007c 0024     		movs	r4, #0
 126 007e 0BE0     		b	.L9
 127              	.LVL14:
 128              	.L10:
 138:Generated_Source\PSoC5/LED.c ****         {
 139:Generated_Source\PSoC5/LED.c ****             (void) CyDmaTdSetAddress(LED_dmaComTd[i],
 129              		.loc 1 139 0 discriminator 3
 130 0080 264B     		ldr	r3, .L21
 131 0082 2344     		add	r3, r3, r4
 140:Generated_Source\PSoC5/LED.c ****                                         LO16((uint32) &LED_comBuffer[i]),
 132              		.loc 1 140 0 discriminator 3
 133 0084 2649     		ldr	r1, .L21+4
 134 0086 2144     		add	r1, r1, r4
 139:Generated_Source\PSoC5/LED.c ****                                         LO16((uint32) &LED_comBuffer[i]),
 135              		.loc 1 139 0 discriminator 3
 136 0088 46F27742 		movw	r2, #25719
 137 008c 89B2     		uxth	r1, r1
 138 008e 1879     		ldrb	r0, [r3, #4]	@ zero_extendqisi2
ARM GAS  C:\Users\Tri94\AppData\Local\Temp\cc3LbiXl.s 			page 6


 139 0090 FFF7FEFF 		bl	CyDmaTdSetAddress
 140              	.LVL15:
 137:Generated_Source\PSoC5/LED.c ****         {
 141              		.loc 1 137 0 discriminator 3
 142 0094 0134     		adds	r4, r4, #1
 143              	.LVL16:
 144 0096 E4B2     		uxtb	r4, r4
 145              	.LVL17:
 146              	.L9:
 137:Generated_Source\PSoC5/LED.c ****         {
 147              		.loc 1 137 0 is_stmt 0 discriminator 1
 148 0098 072C     		cmp	r4, #7
 149 009a F1D9     		bls	.L10
 150              	.LVL18:
 151              	.L3:
 141:Generated_Source\PSoC5/LED.c ****                                         LO16((uint32) LED_COM_CONTROL_PTR));
 142:Generated_Source\PSoC5/LED.c ****         }    
 143:Generated_Source\PSoC5/LED.c ****     }
 144:Generated_Source\PSoC5/LED.c ****     
 145:Generated_Source\PSoC5/LED.c ****     
 146:Generated_Source\PSoC5/LED.c ****     /*********************** DMA configuration for the Segments ***********************/
 147:Generated_Source\PSoC5/LED.c ****     /* Get the DMA channels for the segments */
 148:Generated_Source\PSoC5/LED.c ****     LED_dmaSegChannel = LED_DMA_Seg_DmaInitialize(1u, 1u, 
 152              		.loc 1 148 0 is_stmt 1
 153 009c 4FF48043 		mov	r3, #16384
 154 00a0 41F6FF72 		movw	r2, #8191
 155 00a4 0121     		movs	r1, #1
 156 00a6 0846     		mov	r0, r1
 157 00a8 FFF7FEFF 		bl	LED_DMA_Seg_DmaInitialize
 158              	.LVL19:
 159 00ac 1B4B     		ldr	r3, .L21
 160 00ae 1873     		strb	r0, [r3, #12]
 149:Generated_Source\PSoC5/LED.c ****                                         HI16(LED_SRAM_BASE), HI16(LED_CONTROL_REG_BASE));
 150:Generated_Source\PSoC5/LED.c ****     
 151:Generated_Source\PSoC5/LED.c ****     /* Check if the segment channel is valid */
 152:Generated_Source\PSoC5/LED.c ****     if(LED_dmaSegChannel != DMA_INVALID_CHANNEL)
 161              		.loc 1 152 0
 162 00b0 FF28     		cmp	r0, #255
 163 00b2 08D1     		bne	.L19
 164 00b4 10BD     		pop	{r4, pc}
 165              	.LVL20:
 166              	.L13:
 153:Generated_Source\PSoC5/LED.c ****     {
 154:Generated_Source\PSoC5/LED.c ****         /* Allocate separate Tds for segments to implement the chain */
 155:Generated_Source\PSoC5/LED.c ****         for(i = 0u; i < LED_NUM_COM; i++)
 156:Generated_Source\PSoC5/LED.c ****         {
 157:Generated_Source\PSoC5/LED.c ****             LED_dmaSegLTd[i] = CyDmaTdAllocate();
 167              		.loc 1 157 0 discriminator 3
 168 00b6 FFF7FEFF 		bl	CyDmaTdAllocate
 169              	.LVL21:
 170 00ba 184B     		ldr	r3, .L21
 171 00bc 2344     		add	r3, r3, r4
 172 00be 1874     		strb	r0, [r3, #16]
 155:Generated_Source\PSoC5/LED.c ****         {
 173              		.loc 1 155 0 discriminator 3
 174 00c0 0134     		adds	r4, r4, #1
 175              	.LVL22:
ARM GAS  C:\Users\Tri94\AppData\Local\Temp\cc3LbiXl.s 			page 7


 176 00c2 E4B2     		uxtb	r4, r4
 177              	.LVL23:
 178 00c4 00E0     		b	.L11
 179              	.LVL24:
 180              	.L19:
 181 00c6 0024     		movs	r4, #0
 182              	.L11:
 183              	.LVL25:
 155:Generated_Source\PSoC5/LED.c ****         {
 184              		.loc 1 155 0 is_stmt 0 discriminator 1
 185 00c8 032C     		cmp	r4, #3
 186 00ca F4D9     		bls	.L13
 187 00cc 0023     		movs	r3, #0
 188 00ce 0AE0     		b	.L14
 189              	.LVL26:
 190              	.L15:
 158:Generated_Source\PSoC5/LED.c ****             #if (LED_NUM_SEG > 8u)
 159:Generated_Source\PSoC5/LED.c ****                 LED_dmaSegMTd[i] = CyDmaTdAllocate();
 160:Generated_Source\PSoC5/LED.c ****             #endif /* (LED_NUM_SEG > 8u) */
 161:Generated_Source\PSoC5/LED.c ****             #if (LED_NUM_SEG > 16u)
 162:Generated_Source\PSoC5/LED.c ****                 LED_dmaSegHTd[i] = CyDmaTdAllocate();
 163:Generated_Source\PSoC5/LED.c ****             #endif /* (LED_NUM_SEG > 16u) */
 164:Generated_Source\PSoC5/LED.c ****         }
 165:Generated_Source\PSoC5/LED.c ****         
 166:Generated_Source\PSoC5/LED.c ****         /* Set the configuration for the Segment TDs */
 167:Generated_Source\PSoC5/LED.c ****         for(i = 0u; i < (LED_NUM_COM - 1u); i++)
 168:Generated_Source\PSoC5/LED.c ****         {
 169:Generated_Source\PSoC5/LED.c ****             #if (LED_NUM_SEG <= 8u)
 170:Generated_Source\PSoC5/LED.c ****                 (void) CyDmaTdSetConfiguration(LED_dmaSegLTd[i], 1u, LED_dmaSegLTd[i+1u],
 191              		.loc 1 170 0 is_stmt 1 discriminator 3
 192 00d0 124A     		ldr	r2, .L21
 193 00d2 D018     		adds	r0, r2, r3
 194 00d4 5C1C     		adds	r4, r3, #1
 195 00d6 2244     		add	r2, r2, r4
 196 00d8 0523     		movs	r3, #5
 197              	.LVL27:
 198 00da 127C     		ldrb	r2, [r2, #16]	@ zero_extendqisi2
 199 00dc 0121     		movs	r1, #1
 200 00de 007C     		ldrb	r0, [r0, #16]	@ zero_extendqisi2
 201 00e0 FFF7FEFF 		bl	CyDmaTdSetConfiguration
 202              	.LVL28:
 167:Generated_Source\PSoC5/LED.c ****         {
 203              		.loc 1 167 0 discriminator 3
 204 00e4 E3B2     		uxtb	r3, r4
 205              	.LVL29:
 206              	.L14:
 167:Generated_Source\PSoC5/LED.c ****         {
 207              		.loc 1 167 0 is_stmt 0 discriminator 1
 208 00e6 022B     		cmp	r3, #2
 209 00e8 F2D9     		bls	.L15
 171:Generated_Source\PSoC5/LED.c ****                                                 TD_INC_SRC_ADR | LED_DMA_Seg__TD_TERMOUT_EN);
 172:Generated_Source\PSoC5/LED.c ****             #else    
 173:Generated_Source\PSoC5/LED.c ****                 (void) CyDmaTdSetConfiguration(LED_dmaSegLTd[i], 1u, LED_dmaSegMTd[i],
 174:Generated_Source\PSoC5/LED.c ****                                                 TD_INC_SRC_ADR | TD_AUTO_EXEC_NEXT);
 175:Generated_Source\PSoC5/LED.c **** 
 176:Generated_Source\PSoC5/LED.c ****                 #if (LED_NUM_SEG <= 16u)
 177:Generated_Source\PSoC5/LED.c ****                     (void) CyDmaTdSetConfiguration(LED_dmaSegMTd[i], 1u, LED_dmaSegLTd[i+1u],
ARM GAS  C:\Users\Tri94\AppData\Local\Temp\cc3LbiXl.s 			page 8


 178:Generated_Source\PSoC5/LED.c ****                                                     TD_INC_SRC_ADR | LED_DMA_Seg__TD_TERMOUT_EN);
 179:Generated_Source\PSoC5/LED.c ****                 #else    
 180:Generated_Source\PSoC5/LED.c ****                     (void) CyDmaTdSetConfiguration(LED_dmaSegMTd[i], 1u, LED_dmaSegHTd[i],
 181:Generated_Source\PSoC5/LED.c ****                                                     TD_INC_SRC_ADR | TD_AUTO_EXEC_NEXT);
 182:Generated_Source\PSoC5/LED.c ****                     (void) CyDmaTdSetConfiguration(LED_dmaSegHTd[i], 1u, LED_dmaSegLTd[i+1u],
 183:Generated_Source\PSoC5/LED.c ****                                                     TD_INC_SRC_ADR | LED_DMA_Seg__TD_TERMOUT_EN);
 184:Generated_Source\PSoC5/LED.c ****                 #endif /* LED_NUM_SEG <= 16u */
 185:Generated_Source\PSoC5/LED.c ****             #endif /* LED_NUM_SEG <= 8u */
 186:Generated_Source\PSoC5/LED.c ****         }
 187:Generated_Source\PSoC5/LED.c ****         
 188:Generated_Source\PSoC5/LED.c ****         /* Set the wraparound Segment TD configurations */
 189:Generated_Source\PSoC5/LED.c ****         #if (LED_NUM_SEG <= 8u)
 190:Generated_Source\PSoC5/LED.c ****             (void) CyDmaTdSetConfiguration(LED_dmaSegLTd[LED_NUM_COM - 1u],
 210              		.loc 1 190 0 is_stmt 1
 211 00ea 0C48     		ldr	r0, .L21
 212 00ec 0523     		movs	r3, #5
 213              	.LVL30:
 214 00ee 027C     		ldrb	r2, [r0, #16]	@ zero_extendqisi2
 215 00f0 0121     		movs	r1, #1
 216 00f2 C07C     		ldrb	r0, [r0, #19]	@ zero_extendqisi2
 217 00f4 FFF7FEFF 		bl	CyDmaTdSetConfiguration
 218              	.LVL31:
 191:Generated_Source\PSoC5/LED.c ****                                             1u, LED_dmaSegLTd[0u], 
 192:Generated_Source\PSoC5/LED.c ****                                             TD_INC_SRC_ADR | LED_DMA_Seg__TD_TERMOUT_EN);
 193:Generated_Source\PSoC5/LED.c ****         #else    
 194:Generated_Source\PSoC5/LED.c ****             (void) CyDmaTdSetConfiguration(LED_dmaSegLTd[LED_NUM_COM - 1u],
 195:Generated_Source\PSoC5/LED.c ****                                             1u, LED_dmaSegMTd[LED_NUM_COM - 1u],
 196:Generated_Source\PSoC5/LED.c ****                                             TD_INC_SRC_ADR | TD_AUTO_EXEC_NEXT);
 197:Generated_Source\PSoC5/LED.c ****             #if (LED_NUM_SEG <= 16u)
 198:Generated_Source\PSoC5/LED.c ****                 (void) CyDmaTdSetConfiguration(LED_dmaSegMTd[LED_NUM_COM - 1u],
 199:Generated_Source\PSoC5/LED.c ****                                                 1u, LED_dmaSegLTd[0u], 
 200:Generated_Source\PSoC5/LED.c ****                                                 TD_INC_SRC_ADR | LED_DMA_Seg__TD_TERMOUT_EN);
 201:Generated_Source\PSoC5/LED.c ****             #else    
 202:Generated_Source\PSoC5/LED.c ****                 (void) CyDmaTdSetConfiguration(LED_dmaSegMTd[LED_NUM_COM - 1u],
 203:Generated_Source\PSoC5/LED.c ****                                                 1u, LED_dmaSegHTd[LED_NUM_COM - 1u], 
 204:Generated_Source\PSoC5/LED.c ****                                                 TD_INC_SRC_ADR | TD_AUTO_EXEC_NEXT);
 205:Generated_Source\PSoC5/LED.c ****                 (void) CyDmaTdSetConfiguration(LED_dmaSegHTd[LED_NUM_COM - 1u],
 206:Generated_Source\PSoC5/LED.c ****                                                 1u, LED_dmaSegLTd[0u], 
 207:Generated_Source\PSoC5/LED.c ****                                                 TD_INC_SRC_ADR | LED_DMA_Seg__TD_TERMOUT_EN);
 208:Generated_Source\PSoC5/LED.c ****             #endif /* (LED_NUM_SEG <= 16u) */
 209:Generated_Source\PSoC5/LED.c ****         #endif /* (LED_NUM_SEG <= 8u) */
 210:Generated_Source\PSoC5/LED.c ****         
 211:Generated_Source\PSoC5/LED.c ****         /* The lower addresses for the segment TDs */
 212:Generated_Source\PSoC5/LED.c ****         for(i = 0u; i < LED_NUM_COM; i++)
 219              		.loc 1 212 0
 220 00f8 0024     		movs	r4, #0
 221 00fa 0BE0     		b	.L16
 222              	.LVL32:
 223              	.L17:
 213:Generated_Source\PSoC5/LED.c ****         {
 214:Generated_Source\PSoC5/LED.c ****             (void) CyDmaTdSetAddress(LED_dmaSegLTd[i],
 224              		.loc 1 214 0 discriminator 3
 225 00fc 074B     		ldr	r3, .L21
 226 00fe 2344     		add	r3, r3, r4
 215:Generated_Source\PSoC5/LED.c ****                                             LO16((uint32) &LED_segLBuffer[i]),
 227              		.loc 1 215 0 discriminator 3
 228 0100 0849     		ldr	r1, .L21+8
ARM GAS  C:\Users\Tri94\AppData\Local\Temp\cc3LbiXl.s 			page 9


 229 0102 2144     		add	r1, r1, r4
 214:Generated_Source\PSoC5/LED.c ****                                             LO16((uint32) &LED_segLBuffer[i]),
 230              		.loc 1 214 0 discriminator 3
 231 0104 46F27642 		movw	r2, #25718
 232 0108 89B2     		uxth	r1, r1
 233 010a 187C     		ldrb	r0, [r3, #16]	@ zero_extendqisi2
 234 010c FFF7FEFF 		bl	CyDmaTdSetAddress
 235              	.LVL33:
 212:Generated_Source\PSoC5/LED.c ****         {
 236              		.loc 1 212 0 discriminator 3
 237 0110 0134     		adds	r4, r4, #1
 238              	.LVL34:
 239 0112 E4B2     		uxtb	r4, r4
 240              	.LVL35:
 241              	.L16:
 212:Generated_Source\PSoC5/LED.c ****         {
 242              		.loc 1 212 0 is_stmt 0 discriminator 1
 243 0114 032C     		cmp	r4, #3
 244 0116 F1D9     		bls	.L17
 245 0118 10BD     		pop	{r4, pc}
 246              	.LVL36:
 247              	.L22:
 248 011a 00BF     		.align	2
 249              	.L21:
 250 011c 00000000 		.word	.LANCHOR0
 251 0120 00000000 		.word	.LANCHOR1
 252 0124 00000000 		.word	LED_segLBuffer
 253              		.cfi_endproc
 254              	.LFE0:
 255              		.size	LED_DmaInit, .-LED_DmaInit
 256              		.section	.text.LED_DmaEnable,"ax",%progbits
 257              		.align	2
 258              		.thumb
 259              		.thumb_func
 260              		.type	LED_DmaEnable, %function
 261              	LED_DmaEnable:
 262              	.LFB1:
 216:Generated_Source\PSoC5/LED.c ****                                             LO16((uint32) LED_SEG_L_CONTROL_PTR));
 217:Generated_Source\PSoC5/LED.c ****             #if (LED_NUM_SEG > 8u)
 218:Generated_Source\PSoC5/LED.c ****                 (void) CyDmaTdSetAddress(LED_dmaSegMTd[i],
 219:Generated_Source\PSoC5/LED.c ****                                             LO16((uint32) &LED_segMBuffer[i]),
 220:Generated_Source\PSoC5/LED.c ****                                             LO16((uint32) LED_SEG_M_CONTROL_PTR));
 221:Generated_Source\PSoC5/LED.c ****             #endif /* (LED_NUM_SEG > 8u) */
 222:Generated_Source\PSoC5/LED.c ****             #if (LED_NUM_SEG > 16u)
 223:Generated_Source\PSoC5/LED.c ****                 (void) CyDmaTdSetAddress(LED_dmaSegHTd[i], 
 224:Generated_Source\PSoC5/LED.c ****                                             LO16((uint32) &LED_segHBuffer[i]),
 225:Generated_Source\PSoC5/LED.c ****                                             LO16((uint32) LED_SEG_H_CONTROL_PTR));
 226:Generated_Source\PSoC5/LED.c ****             #endif /* (LED_NUM_SEG > 16u) */
 227:Generated_Source\PSoC5/LED.c ****         }
 228:Generated_Source\PSoC5/LED.c ****     }
 229:Generated_Source\PSoC5/LED.c ****     
 230:Generated_Source\PSoC5/LED.c ****     
 231:Generated_Source\PSoC5/LED.c ****     /******************** DMA configuration for Brightness control *********************/
 232:Generated_Source\PSoC5/LED.c ****     
 233:Generated_Source\PSoC5/LED.c ****     #if (LED_BRIGHTNESS_EN == LED_ENABLED)
 234:Generated_Source\PSoC5/LED.c ****         /* Get the DMA channels */
 235:Generated_Source\PSoC5/LED.c ****         LED_dmaBCChannel = LED_DMA_BC_DmaInitialize(1u, 1u, 
ARM GAS  C:\Users\Tri94\AppData\Local\Temp\cc3LbiXl.s 			page 10


 236:Generated_Source\PSoC5/LED.c ****                                         HI16(LED_SRAM_BASE), HI16(LED_CONTROL_REG_BASE));
 237:Generated_Source\PSoC5/LED.c ****             
 238:Generated_Source\PSoC5/LED.c ****         /* Check if the channels are valid */
 239:Generated_Source\PSoC5/LED.c ****         if(LED_dmaBCChannel != DMA_INVALID_CHANNEL)
 240:Generated_Source\PSoC5/LED.c ****         {
 241:Generated_Source\PSoC5/LED.c ****             LED_dmaBCTd = CyDmaTdAllocate();
 242:Generated_Source\PSoC5/LED.c ****             
 243:Generated_Source\PSoC5/LED.c ****             /* Set the TD configuration for the brightness DMA */
 244:Generated_Source\PSoC5/LED.c ****             (void) CyDmaTdSetConfiguration(LED_dmaBCTd, LED_NUM_COM,
 245:Generated_Source\PSoC5/LED.c ****                                         LED_dmaBCTd, TD_INC_SRC_ADR);
 246:Generated_Source\PSoC5/LED.c ****             
 247:Generated_Source\PSoC5/LED.c ****             /* Lower address for the brightness Td */
 248:Generated_Source\PSoC5/LED.c ****             (void) CyDmaTdSetAddress(LED_dmaBCTd, LO16((uint32) &LED_brightnessReg[0u]),
 249:Generated_Source\PSoC5/LED.c ****                                                                LO16((uint32)LED_COMPARE_PTR));
 250:Generated_Source\PSoC5/LED.c ****         }
 251:Generated_Source\PSoC5/LED.c ****     #endif /* (LED_BRIGHTNESS_EN == LED_ENABLED) */
 252:Generated_Source\PSoC5/LED.c **** }
 253:Generated_Source\PSoC5/LED.c **** 
 254:Generated_Source\PSoC5/LED.c **** 
 255:Generated_Source\PSoC5/LED.c **** /*******************************************************************************
 256:Generated_Source\PSoC5/LED.c **** * Function Name: LED_DmaEnable
 257:Generated_Source\PSoC5/LED.c **** ********************************************************************************
 258:Generated_Source\PSoC5/LED.c **** *
 259:Generated_Source\PSoC5/LED.c **** * Summary: 
 260:Generated_Source\PSoC5/LED.c **** *  Enables the DMAs for transferring from the buffer register arrays to the
 261:Generated_Source\PSoC5/LED.c **** *  control registers.
 262:Generated_Source\PSoC5/LED.c **** *
 263:Generated_Source\PSoC5/LED.c **** * Parameters:
 264:Generated_Source\PSoC5/LED.c **** *  None
 265:Generated_Source\PSoC5/LED.c **** *
 266:Generated_Source\PSoC5/LED.c **** * Return: 
 267:Generated_Source\PSoC5/LED.c **** *  None
 268:Generated_Source\PSoC5/LED.c **** *
 269:Generated_Source\PSoC5/LED.c **** * Side Effects: 
 270:Generated_Source\PSoC5/LED.c **** *  None
 271:Generated_Source\PSoC5/LED.c **** *
 272:Generated_Source\PSoC5/LED.c **** *******************************************************************************/
 273:Generated_Source\PSoC5/LED.c **** static void LED_DmaEnable(void) 
 274:Generated_Source\PSoC5/LED.c **** {
 263              		.loc 1 274 0 is_stmt 1
 264              		.cfi_startproc
 265              		@ args = 0, pretend = 0, frame = 0
 266              		@ frame_needed = 0, uses_anonymous_args = 0
 267 0000 10B5     		push	{r4, lr}
 268              		.cfi_def_cfa_offset 8
 269              		.cfi_offset 4, -8
 270              		.cfi_offset 14, -4
 275:Generated_Source\PSoC5/LED.c ****     /* Initialize the TDs to the respective channels */
 276:Generated_Source\PSoC5/LED.c ****     (void) CyDmaChSetInitialTd(LED_dmaComChannel, LED_dmaComTd[0u]);
 271              		.loc 1 276 0
 272 0002 094C     		ldr	r4, .L25
 273 0004 2179     		ldrb	r1, [r4, #4]	@ zero_extendqisi2
 274 0006 2078     		ldrb	r0, [r4]	@ zero_extendqisi2
 275 0008 FFF7FEFF 		bl	CyDmaChSetInitialTd
 276              	.LVL37:
 277:Generated_Source\PSoC5/LED.c ****     (void) CyDmaChSetInitialTd(LED_dmaSegChannel, LED_dmaSegLTd[0u]);
 277              		.loc 1 277 0
ARM GAS  C:\Users\Tri94\AppData\Local\Temp\cc3LbiXl.s 			page 11


 278 000c 217C     		ldrb	r1, [r4, #16]	@ zero_extendqisi2
 279 000e 207B     		ldrb	r0, [r4, #12]	@ zero_extendqisi2
 280 0010 FFF7FEFF 		bl	CyDmaChSetInitialTd
 281              	.LVL38:
 278:Generated_Source\PSoC5/LED.c ****     #if (LED_BRIGHTNESS_EN == LED_ENABLED)
 279:Generated_Source\PSoC5/LED.c ****         (void) CyDmaChSetInitialTd(LED_dmaBCChannel, LED_dmaBCTd);
 280:Generated_Source\PSoC5/LED.c ****     #endif /* (LED_BRIGHTNESS_EN == LED_ENABLED) */
 281:Generated_Source\PSoC5/LED.c ****     
 282:Generated_Source\PSoC5/LED.c ****     /* Enable all channels */
 283:Generated_Source\PSoC5/LED.c ****     (void) CyDmaChEnable(LED_dmaComChannel, 1u);
 282              		.loc 1 283 0
 283 0014 0121     		movs	r1, #1
 284 0016 2078     		ldrb	r0, [r4]	@ zero_extendqisi2
 285 0018 FFF7FEFF 		bl	CyDmaChEnable
 286              	.LVL39:
 284:Generated_Source\PSoC5/LED.c ****     (void) CyDmaChEnable(LED_dmaSegChannel, 1u);
 287              		.loc 1 284 0
 288 001c 0121     		movs	r1, #1
 289 001e 207B     		ldrb	r0, [r4, #12]	@ zero_extendqisi2
 290 0020 FFF7FEFF 		bl	CyDmaChEnable
 291              	.LVL40:
 292 0024 10BD     		pop	{r4, pc}
 293              	.L26:
 294 0026 00BF     		.align	2
 295              	.L25:
 296 0028 00000000 		.word	.LANCHOR0
 297              		.cfi_endproc
 298              	.LFE1:
 299              		.size	LED_DmaEnable, .-LED_DmaEnable
 300              		.section	.text.LED_DmaDisable,"ax",%progbits
 301              		.align	2
 302              		.thumb
 303              		.thumb_func
 304              		.type	LED_DmaDisable, %function
 305              	LED_DmaDisable:
 306              	.LFB2:
 285:Generated_Source\PSoC5/LED.c ****     #if (LED_BRIGHTNESS_EN == LED_ENABLED)
 286:Generated_Source\PSoC5/LED.c ****         (void) CyDmaChEnable(LED_dmaBCChannel, 1u);
 287:Generated_Source\PSoC5/LED.c ****     #endif /* (LED_BRIGHTNESS_EN == LED_ENABLED) */
 288:Generated_Source\PSoC5/LED.c **** }
 289:Generated_Source\PSoC5/LED.c **** 
 290:Generated_Source\PSoC5/LED.c **** 
 291:Generated_Source\PSoC5/LED.c **** /*******************************************************************************
 292:Generated_Source\PSoC5/LED.c **** * Function Name: LED_DmaDisable
 293:Generated_Source\PSoC5/LED.c **** ********************************************************************************
 294:Generated_Source\PSoC5/LED.c **** *
 295:Generated_Source\PSoC5/LED.c **** * Summary: 
 296:Generated_Source\PSoC5/LED.c **** *  Disables the DMAs for transferring from register array to the control 
 297:Generated_Source\PSoC5/LED.c **** *  register.
 298:Generated_Source\PSoC5/LED.c **** *
 299:Generated_Source\PSoC5/LED.c **** * Parameters:
 300:Generated_Source\PSoC5/LED.c **** *  None
 301:Generated_Source\PSoC5/LED.c **** *
 302:Generated_Source\PSoC5/LED.c **** * Return: 
 303:Generated_Source\PSoC5/LED.c **** *  None
 304:Generated_Source\PSoC5/LED.c **** *
 305:Generated_Source\PSoC5/LED.c **** * Side Effects: 
ARM GAS  C:\Users\Tri94\AppData\Local\Temp\cc3LbiXl.s 			page 12


 306:Generated_Source\PSoC5/LED.c **** *  None
 307:Generated_Source\PSoC5/LED.c **** *
 308:Generated_Source\PSoC5/LED.c **** *******************************************************************************/
 309:Generated_Source\PSoC5/LED.c **** static void LED_DmaDisable(void) 
 310:Generated_Source\PSoC5/LED.c **** {
 307              		.loc 1 310 0
 308              		.cfi_startproc
 309              		@ args = 0, pretend = 0, frame = 8
 310              		@ frame_needed = 0, uses_anonymous_args = 0
 311 0000 70B5     		push	{r4, r5, r6, lr}
 312              		.cfi_def_cfa_offset 16
 313              		.cfi_offset 4, -16
 314              		.cfi_offset 5, -12
 315              		.cfi_offset 6, -8
 316              		.cfi_offset 14, -4
 317 0002 82B0     		sub	sp, sp, #8
 318              		.cfi_def_cfa_offset 24
 311:Generated_Source\PSoC5/LED.c ****     uint8 i;
 312:Generated_Source\PSoC5/LED.c ****     uint8 channel;
 313:Generated_Source\PSoC5/LED.c ****     uint8 dmaChannelList[LED_CHANNEL_LIMIT];
 314:Generated_Source\PSoC5/LED.c ****     
 315:Generated_Source\PSoC5/LED.c ****     dmaChannelList[0u] = LED_dmaComChannel;
 319              		.loc 1 315 0
 320 0004 154B     		ldr	r3, .L33
 321 0006 1A78     		ldrb	r2, [r3]	@ zero_extendqisi2
 322 0008 8DF80420 		strb	r2, [sp, #4]
 316:Generated_Source\PSoC5/LED.c ****     dmaChannelList[1u] = LED_dmaSegChannel;
 323              		.loc 1 316 0
 324 000c 1B7B     		ldrb	r3, [r3, #12]	@ zero_extendqisi2
 325 000e 8DF80530 		strb	r3, [sp, #5]
 326              	.LVL41:
 317:Generated_Source\PSoC5/LED.c ****     #if (LED_BRIGHTNESS_EN == LED_ENABLED)
 318:Generated_Source\PSoC5/LED.c ****         dmaChannelList[2u] = LED_dmaBCChannel;
 319:Generated_Source\PSoC5/LED.c ****     #endif /* (LED_BRIGHTNESS_EN == LED_ENABLED) */
 320:Generated_Source\PSoC5/LED.c **** 
 321:Generated_Source\PSoC5/LED.c ****     for(i = 0u; i < LED_CHANNEL_LIMIT; i++)
 327              		.loc 1 321 0
 328 0012 0026     		movs	r6, #0
 329 0014 1EE0     		b	.L28
 330              	.LVL42:
 331              	.L31:
 322:Generated_Source\PSoC5/LED.c ****     {
 323:Generated_Source\PSoC5/LED.c ****         channel = dmaChannelList[i];
 332              		.loc 1 323 0
 333 0016 02AB     		add	r3, sp, #8
 334 0018 3344     		add	r3, r3, r6
 335 001a 13F8045C 		ldrb	r5, [r3, #-4]	@ zero_extendqisi2
 336              	.LVL43:
 324:Generated_Source\PSoC5/LED.c ****         (void) CyDmaChDisable(channel);
 337              		.loc 1 324 0
 338 001e 2846     		mov	r0, r5
 339 0020 FFF7FEFF 		bl	CyDmaChDisable
 340              	.LVL44:
 325:Generated_Source\PSoC5/LED.c ****         
 326:Generated_Source\PSoC5/LED.c ****         LED_Com_Driver_Write(LED_CLEAR);
 341              		.loc 1 326 0
 342 0024 0020     		movs	r0, #0
ARM GAS  C:\Users\Tri94\AppData\Local\Temp\cc3LbiXl.s 			page 13


 343 0026 FFF7FEFF 		bl	LED_Com_Driver_Write
 344              	.LVL45:
 345              	.L29:
 327:Generated_Source\PSoC5/LED.c ****         
 328:Generated_Source\PSoC5/LED.c ****         /* Clear any potential DMA requests and re-reset TD pointers */
 329:Generated_Source\PSoC5/LED.c ****         while(0u != (CY_DMA_CH_STRUCT_PTR[channel].basic_status[0u] & CY_DMA_STATUS_TD_ACTIVE))
 346              		.loc 1 329 0 discriminator 1
 347 002a 0D4C     		ldr	r4, .L33+4
 348 002c 04EB0514 		add	r4, r4, r5, lsl #4
 349 0030 237A     		ldrb	r3, [r4, #8]	@ zero_extendqisi2
 350 0032 13F0020F 		tst	r3, #2
 351 0036 F8D1     		bne	.L29
 330:Generated_Source\PSoC5/LED.c ****         {
 331:Generated_Source\PSoC5/LED.c ****             ; /* Wait for to be cleared */
 332:Generated_Source\PSoC5/LED.c ****         }
 333:Generated_Source\PSoC5/LED.c **** 
 334:Generated_Source\PSoC5/LED.c ****         (void) CyDmaChSetRequest(channel, CY_DMA_CPU_TERM_CHAIN);
 352              		.loc 1 334 0
 353 0038 0421     		movs	r1, #4
 354 003a 2846     		mov	r0, r5
 355 003c FFF7FEFF 		bl	CyDmaChSetRequest
 356              	.LVL46:
 335:Generated_Source\PSoC5/LED.c ****         (void) CyDmaChEnable    (channel, 1u);
 357              		.loc 1 335 0
 358 0040 0121     		movs	r1, #1
 359 0042 2846     		mov	r0, r5
 360 0044 FFF7FEFF 		bl	CyDmaChEnable
 361              	.LVL47:
 362              	.L30:
 336:Generated_Source\PSoC5/LED.c **** 
 337:Generated_Source\PSoC5/LED.c ****         while(0u != (CY_DMA_CH_STRUCT_PTR[channel].basic_cfg[0u] & CY_DMA_STATUS_CHAIN_ACTIVE))
 363              		.loc 1 337 0 discriminator 1
 364 0048 2378     		ldrb	r3, [r4]	@ zero_extendqisi2
 365 004a 13F0010F 		tst	r3, #1
 366 004e FBD1     		bne	.L30
 321:Generated_Source\PSoC5/LED.c ****     {
 367              		.loc 1 321 0 discriminator 2
 368 0050 0136     		adds	r6, r6, #1
 369              	.LVL48:
 370 0052 F6B2     		uxtb	r6, r6
 371              	.LVL49:
 372              	.L28:
 321:Generated_Source\PSoC5/LED.c ****     {
 373              		.loc 1 321 0 is_stmt 0 discriminator 1
 374 0054 012E     		cmp	r6, #1
 375 0056 DED9     		bls	.L31
 338:Generated_Source\PSoC5/LED.c ****         {
 339:Generated_Source\PSoC5/LED.c ****             ; /* Wait for to be cleared */
 340:Generated_Source\PSoC5/LED.c ****         }
 341:Generated_Source\PSoC5/LED.c ****     }
 342:Generated_Source\PSoC5/LED.c **** }
 376              		.loc 1 342 0 is_stmt 1
 377 0058 02B0     		add	sp, sp, #8
 378              		.cfi_def_cfa_offset 16
 379              		@ sp needed
 380 005a 70BD     		pop	{r4, r5, r6, pc}
 381              	.LVL50:
ARM GAS  C:\Users\Tri94\AppData\Local\Temp\cc3LbiXl.s 			page 14


 382              	.L34:
 383              		.align	2
 384              	.L33:
 385 005c 00000000 		.word	.LANCHOR0
 386 0060 10700040 		.word	1073770512
 387              		.cfi_endproc
 388              	.LFE2:
 389              		.size	LED_DmaDisable, .-LED_DmaDisable
 390              		.section	.text.LED_Enable,"ax",%progbits
 391              		.align	2
 392              		.global	LED_Enable
 393              		.thumb
 394              		.thumb_func
 395              		.type	LED_Enable, %function
 396              	LED_Enable:
 397              	.LFB4:
 343:Generated_Source\PSoC5/LED.c **** 
 344:Generated_Source\PSoC5/LED.c **** 
 345:Generated_Source\PSoC5/LED.c **** /*******************************************************************************
 346:Generated_Source\PSoC5/LED.c **** * Function Name: LED_Init
 347:Generated_Source\PSoC5/LED.c **** ********************************************************************************
 348:Generated_Source\PSoC5/LED.c **** *
 349:Generated_Source\PSoC5/LED.c **** * Summary: 
 350:Generated_Source\PSoC5/LED.c **** *  Performs initialization required for the component to operate.
 351:Generated_Source\PSoC5/LED.c **** *
 352:Generated_Source\PSoC5/LED.c **** * Parameters:
 353:Generated_Source\PSoC5/LED.c **** *  None
 354:Generated_Source\PSoC5/LED.c **** *
 355:Generated_Source\PSoC5/LED.c **** * Return: 
 356:Generated_Source\PSoC5/LED.c **** *  None
 357:Generated_Source\PSoC5/LED.c **** *
 358:Generated_Source\PSoC5/LED.c **** * Side Effects: 
 359:Generated_Source\PSoC5/LED.c **** *  This action clears the display.
 360:Generated_Source\PSoC5/LED.c **** *
 361:Generated_Source\PSoC5/LED.c **** *******************************************************************************/
 362:Generated_Source\PSoC5/LED.c **** void LED_Init(void) 
 363:Generated_Source\PSoC5/LED.c **** {
 364:Generated_Source\PSoC5/LED.c ****     static uint8 LED_dmaInitDone = 0u;
 365:Generated_Source\PSoC5/LED.c ****     #if (LED_BRIGHTNESS_EN == LED_ENABLED)
 366:Generated_Source\PSoC5/LED.c ****         uint8 i;
 367:Generated_Source\PSoC5/LED.c ****     #endif /* (LED_BRIGHTNESS_EN == LED_ENABLED) */
 368:Generated_Source\PSoC5/LED.c ****     
 369:Generated_Source\PSoC5/LED.c ****     /* Start fresh by clearing the display */
 370:Generated_Source\PSoC5/LED.c ****     LED_ClearDisplayAll();
 371:Generated_Source\PSoC5/LED.c ****     
 372:Generated_Source\PSoC5/LED.c ****     /* Initialize the DMAs */
 373:Generated_Source\PSoC5/LED.c ****     if(0u == LED_dmaInitDone)
 374:Generated_Source\PSoC5/LED.c ****     {
 375:Generated_Source\PSoC5/LED.c ****         LED_DmaInit();
 376:Generated_Source\PSoC5/LED.c ****         LED_dmaInitDone = 1u;
 377:Generated_Source\PSoC5/LED.c ****     }
 378:Generated_Source\PSoC5/LED.c ****     
 379:Generated_Source\PSoC5/LED.c ****     /* Set the brightness to full */
 380:Generated_Source\PSoC5/LED.c ****     #if (LED_BRIGHTNESS_EN == LED_ENABLED)
 381:Generated_Source\PSoC5/LED.c ****         for(i = 0u; i<(LED_NUM_COM); i++)
 382:Generated_Source\PSoC5/LED.c ****         {
 383:Generated_Source\PSoC5/LED.c ****             LED_brightnessReg[i] = LED_INIT_BRIGHT;
ARM GAS  C:\Users\Tri94\AppData\Local\Temp\cc3LbiXl.s 			page 15


 384:Generated_Source\PSoC5/LED.c ****         }
 385:Generated_Source\PSoC5/LED.c ****     #endif /* (LED_BRIGHTNESS_EN == LED_ENABLED) */
 386:Generated_Source\PSoC5/LED.c **** }
 387:Generated_Source\PSoC5/LED.c **** 
 388:Generated_Source\PSoC5/LED.c **** 
 389:Generated_Source\PSoC5/LED.c **** /*******************************************************************************
 390:Generated_Source\PSoC5/LED.c **** * Function Name: LED_Enable
 391:Generated_Source\PSoC5/LED.c **** ********************************************************************************
 392:Generated_Source\PSoC5/LED.c **** *
 393:Generated_Source\PSoC5/LED.c **** * Summary: 
 394:Generated_Source\PSoC5/LED.c **** *  Turns on the display.
 395:Generated_Source\PSoC5/LED.c **** *
 396:Generated_Source\PSoC5/LED.c **** * Parameters:
 397:Generated_Source\PSoC5/LED.c **** *  None
 398:Generated_Source\PSoC5/LED.c **** *
 399:Generated_Source\PSoC5/LED.c **** * Return: 
 400:Generated_Source\PSoC5/LED.c **** *  None
 401:Generated_Source\PSoC5/LED.c **** *
 402:Generated_Source\PSoC5/LED.c **** * Side Effects: 
 403:Generated_Source\PSoC5/LED.c **** *  None
 404:Generated_Source\PSoC5/LED.c **** *
 405:Generated_Source\PSoC5/LED.c **** *******************************************************************************/
 406:Generated_Source\PSoC5/LED.c **** void LED_Enable(void) 
 407:Generated_Source\PSoC5/LED.c **** {
 398              		.loc 1 407 0
 399              		.cfi_startproc
 400              		@ args = 0, pretend = 0, frame = 0
 401              		@ frame_needed = 0, uses_anonymous_args = 0
 402 0000 08B5     		push	{r3, lr}
 403              		.cfi_def_cfa_offset 8
 404              		.cfi_offset 3, -8
 405              		.cfi_offset 14, -4
 408:Generated_Source\PSoC5/LED.c ****     /* Enable the DMAs */
 409:Generated_Source\PSoC5/LED.c ****     LED_DmaEnable();
 406              		.loc 1 409 0
 407 0002 FFF7FEFF 		bl	LED_DmaEnable
 408              	.LVL51:
 410:Generated_Source\PSoC5/LED.c ****  
 411:Generated_Source\PSoC5/LED.c ****     #if (LED_BRIGHTNESS_EN == LED_ENABLED)
 412:Generated_Source\PSoC5/LED.c ****        /* Initialize to zero */
 413:Generated_Source\PSoC5/LED.c ****        LED_COUNTER_REG = 0x00u;
 414:Generated_Source\PSoC5/LED.c ****        LED_COMPARE_REG = 0x00u;
 415:Generated_Source\PSoC5/LED.c ****        
 416:Generated_Source\PSoC5/LED.c ****         /* Enable the PWM for brightness control */
 417:Generated_Source\PSoC5/LED.c ****        LED_CONTROL_REG = LED_CTRL_ENABLE;
 418:Generated_Source\PSoC5/LED.c ****     #endif /* (LED_BRIGHTNESS_EN == LED_ENABLED) */
 419:Generated_Source\PSoC5/LED.c ****     
 420:Generated_Source\PSoC5/LED.c ****     LED_enableVar = LED_CTRL_ENABLE;
 409              		.loc 1 420 0
 410 0006 0122     		movs	r2, #1
 411 0008 014B     		ldr	r3, .L37
 412 000a 1A75     		strb	r2, [r3, #20]
 413 000c 08BD     		pop	{r3, pc}
 414              	.L38:
 415 000e 00BF     		.align	2
 416              	.L37:
 417 0010 00000000 		.word	.LANCHOR0
ARM GAS  C:\Users\Tri94\AppData\Local\Temp\cc3LbiXl.s 			page 16


 418              		.cfi_endproc
 419              	.LFE4:
 420              		.size	LED_Enable, .-LED_Enable
 421              		.section	.text.LED_SetDisplayRAM,"ax",%progbits
 422              		.align	2
 423              		.global	LED_SetDisplayRAM
 424              		.thumb
 425              		.thumb_func
 426              		.type	LED_SetDisplayRAM, %function
 427              	LED_SetDisplayRAM:
 428              	.LFB7:
 421:Generated_Source\PSoC5/LED.c **** }
 422:Generated_Source\PSoC5/LED.c **** 
 423:Generated_Source\PSoC5/LED.c **** 
 424:Generated_Source\PSoC5/LED.c **** /*******************************************************************************
 425:Generated_Source\PSoC5/LED.c **** * Function Name: LED_Start
 426:Generated_Source\PSoC5/LED.c **** ********************************************************************************
 427:Generated_Source\PSoC5/LED.c **** *
 428:Generated_Source\PSoC5/LED.c **** * Summary:
 429:Generated_Source\PSoC5/LED.c **** *  Configures the hardware (DMA and optional PWM) and enables the LED
 430:Generated_Source\PSoC5/LED.c **** *  display. Whatever is currently in the display RAM will be displayed on the 
 431:Generated_Source\PSoC5/LED.c **** *  LED display. The display RAM is an array of 1 to 24 bytes called 
 432:Generated_Source\PSoC5/LED.c **** *  LED_Driver_1_SegmentRam[].
 433:Generated_Source\PSoC5/LED.c **** *
 434:Generated_Source\PSoC5/LED.c **** * Parameters:
 435:Generated_Source\PSoC5/LED.c **** *  None
 436:Generated_Source\PSoC5/LED.c **** *
 437:Generated_Source\PSoC5/LED.c **** * Return:
 438:Generated_Source\PSoC5/LED.c **** *  None
 439:Generated_Source\PSoC5/LED.c **** *
 440:Generated_Source\PSoC5/LED.c **** * Side effects: 
 441:Generated_Source\PSoC5/LED.c **** *  None
 442:Generated_Source\PSoC5/LED.c **** *
 443:Generated_Source\PSoC5/LED.c **** *******************************************************************************/
 444:Generated_Source\PSoC5/LED.c **** void LED_Start(void) 
 445:Generated_Source\PSoC5/LED.c **** {
 446:Generated_Source\PSoC5/LED.c ****     if(0u == LED_initVar)
 447:Generated_Source\PSoC5/LED.c ****     {
 448:Generated_Source\PSoC5/LED.c ****         LED_Init();
 449:Generated_Source\PSoC5/LED.c ****         LED_initVar = 1u;
 450:Generated_Source\PSoC5/LED.c ****     }
 451:Generated_Source\PSoC5/LED.c **** 
 452:Generated_Source\PSoC5/LED.c ****     LED_Enable();
 453:Generated_Source\PSoC5/LED.c **** }
 454:Generated_Source\PSoC5/LED.c **** 
 455:Generated_Source\PSoC5/LED.c **** 
 456:Generated_Source\PSoC5/LED.c **** /*******************************************************************************
 457:Generated_Source\PSoC5/LED.c **** * Function Name: LED_Stop
 458:Generated_Source\PSoC5/LED.c **** ********************************************************************************
 459:Generated_Source\PSoC5/LED.c **** *
 460:Generated_Source\PSoC5/LED.c **** * Summary:
 461:Generated_Source\PSoC5/LED.c **** *  Clears the display SRAM, disables all DMA channels and the stops the PWM
 462:Generated_Source\PSoC5/LED.c **** *  (if enabled in the customizer).
 463:Generated_Source\PSoC5/LED.c **** *
 464:Generated_Source\PSoC5/LED.c **** * Parameters:
 465:Generated_Source\PSoC5/LED.c **** *  None
 466:Generated_Source\PSoC5/LED.c **** *
ARM GAS  C:\Users\Tri94\AppData\Local\Temp\cc3LbiXl.s 			page 17


 467:Generated_Source\PSoC5/LED.c **** * Return:
 468:Generated_Source\PSoC5/LED.c **** *  None
 469:Generated_Source\PSoC5/LED.c **** *
 470:Generated_Source\PSoC5/LED.c **** * Side effects:
 471:Generated_Source\PSoC5/LED.c **** *  None
 472:Generated_Source\PSoC5/LED.c **** *
 473:Generated_Source\PSoC5/LED.c **** *******************************************************************************/
 474:Generated_Source\PSoC5/LED.c **** void LED_Stop(void) 
 475:Generated_Source\PSoC5/LED.c **** {
 476:Generated_Source\PSoC5/LED.c ****     #if (LED_BRIGHTNESS_EN == LED_ENABLED)
 477:Generated_Source\PSoC5/LED.c ****         /* Disable the PWM */
 478:Generated_Source\PSoC5/LED.c ****         LED_CONTROL_REG = LED_CTRL_DISABLE;
 479:Generated_Source\PSoC5/LED.c ****     #endif /* (LED_BRIGHTNESS_EN == LED_ENABLED) */
 480:Generated_Source\PSoC5/LED.c ****     
 481:Generated_Source\PSoC5/LED.c ****     LED_DmaDisable();
 482:Generated_Source\PSoC5/LED.c ****     LED_ClearDisplayAll();
 483:Generated_Source\PSoC5/LED.c ****     
 484:Generated_Source\PSoC5/LED.c ****     LED_enableVar  = LED_CTRL_DISABLE;
 485:Generated_Source\PSoC5/LED.c **** }
 486:Generated_Source\PSoC5/LED.c **** 
 487:Generated_Source\PSoC5/LED.c **** 
 488:Generated_Source\PSoC5/LED.c **** /*******************************************************************************
 489:Generated_Source\PSoC5/LED.c **** * Function Name: LED_SetDisplayRAM
 490:Generated_Source\PSoC5/LED.c **** ********************************************************************************
 491:Generated_Source\PSoC5/LED.c **** *
 492:Generated_Source\PSoC5/LED.c **** * Summary:
 493:Generated_Source\PSoC5/LED.c **** *  Writes 'value' directly into the display RAM. It is not necessary to use 
 494:Generated_Source\PSoC5/LED.c **** *  this API to manipulate the display RAM, you can also access the display 
 495:Generated_Source\PSoC5/LED.c **** *  RAM directly by writing to LED_segLBuffer,
 496:Generated_Source\PSoC5/LED.c **** *  LED_segMBuffer, LED_segHBuffer.
 497:Generated_Source\PSoC5/LED.c **** *
 498:Generated_Source\PSoC5/LED.c **** * Parameters:
 499:Generated_Source\PSoC5/LED.c **** *  uint8 value: Desired value to write into the display RAM. A '1' enables the
 500:Generated_Source\PSoC5/LED.c **** *               segment, a '0' disables the segment.
 501:Generated_Source\PSoC5/LED.c **** *  uint8 position: Position of the display that is modified.
 502:Generated_Source\PSoC5/LED.c **** *
 503:Generated_Source\PSoC5/LED.c **** * Return:
 504:Generated_Source\PSoC5/LED.c **** *  None
 505:Generated_Source\PSoC5/LED.c **** *
 506:Generated_Source\PSoC5/LED.c **** * Side effects:
 507:Generated_Source\PSoC5/LED.c **** *  None
 508:Generated_Source\PSoC5/LED.c **** *
 509:Generated_Source\PSoC5/LED.c **** *******************************************************************************/
 510:Generated_Source\PSoC5/LED.c **** void LED_SetDisplayRAM(uint8 value, uint8 position) 
 511:Generated_Source\PSoC5/LED.c **** {
 429              		.loc 1 511 0
 430              		.cfi_startproc
 431              		@ args = 0, pretend = 0, frame = 0
 432              		@ frame_needed = 0, uses_anonymous_args = 0
 433              		@ link register save eliminated.
 434              	.LVL52:
 512:Generated_Source\PSoC5/LED.c ****     uint8 relPosition;
 513:Generated_Source\PSoC5/LED.c ****     
 514:Generated_Source\PSoC5/LED.c ****     if(position < LED_NUM_COM)
 435              		.loc 1 514 0
 436 0000 0329     		cmp	r1, #3
 437 0002 01D8     		bhi	.L39
ARM GAS  C:\Users\Tri94\AppData\Local\Temp\cc3LbiXl.s 			page 18


 438              	.LVL53:
 515:Generated_Source\PSoC5/LED.c ****     {
 516:Generated_Source\PSoC5/LED.c ****         relPosition = position;
 517:Generated_Source\PSoC5/LED.c ****         #if(LED_SEG_DRIVE == LED_HIGH)
 518:Generated_Source\PSoC5/LED.c ****             LED_segLBuffer[relPosition] = value;
 439              		.loc 1 518 0
 440 0004 014B     		ldr	r3, .L41
 441 0006 5854     		strb	r0, [r3, r1]
 442              	.LVL54:
 443              	.L39:
 444 0008 7047     		bx	lr
 445              	.L42:
 446 000a 00BF     		.align	2
 447              	.L41:
 448 000c 00000000 		.word	LED_segLBuffer
 449              		.cfi_endproc
 450              	.LFE7:
 451              		.size	LED_SetDisplayRAM, .-LED_SetDisplayRAM
 452              		.section	.text.LED_SetRC,"ax",%progbits
 453              		.align	2
 454              		.global	LED_SetRC
 455              		.thumb
 456              		.thumb_func
 457              		.type	LED_SetRC, %function
 458              	LED_SetRC:
 459              	.LFB8:
 519:Generated_Source\PSoC5/LED.c ****         #else
 520:Generated_Source\PSoC5/LED.c ****             LED_segLBuffer[relPosition] = ((uint8) ~value);
 521:Generated_Source\PSoC5/LED.c ****         #endif /* LED_SEG_DRIVE == LED_HIGH */
 522:Generated_Source\PSoC5/LED.c ****     }    
 523:Generated_Source\PSoC5/LED.c ****     else if (position < LED_TWO_NUM_COM)
 524:Generated_Source\PSoC5/LED.c ****     {
 525:Generated_Source\PSoC5/LED.c ****         #if (LED_NUM_SEG > 8u)
 526:Generated_Source\PSoC5/LED.c ****             relPosition = position - LED_NUM_COM;
 527:Generated_Source\PSoC5/LED.c ****             #if(LED_SEG_DRIVE == LED_HIGH)
 528:Generated_Source\PSoC5/LED.c ****                 LED_segMBuffer[relPosition] = value;
 529:Generated_Source\PSoC5/LED.c ****             #else
 530:Generated_Source\PSoC5/LED.c ****                 LED_segMBuffer[relPosition] = ((uint8) ~value);
 531:Generated_Source\PSoC5/LED.c ****             #endif /* LED_SEG_DRIVE == LED_HIGH */
 532:Generated_Source\PSoC5/LED.c ****         #endif /* (LED_NUM_SEG > 8u) */
 533:Generated_Source\PSoC5/LED.c ****     }
 534:Generated_Source\PSoC5/LED.c ****     else
 535:Generated_Source\PSoC5/LED.c ****     {
 536:Generated_Source\PSoC5/LED.c ****         #if (LED_NUM_SEG > 16u)
 537:Generated_Source\PSoC5/LED.c ****             relPosition = position - LED_TWO_NUM_COM;
 538:Generated_Source\PSoC5/LED.c ****             if(relPosition < LED_NUM_COM)
 539:Generated_Source\PSoC5/LED.c ****             {
 540:Generated_Source\PSoC5/LED.c ****                 #if(LED_SEG_DRIVE == LED_HIGH)
 541:Generated_Source\PSoC5/LED.c ****                     LED_segHBuffer[relPosition] = value;
 542:Generated_Source\PSoC5/LED.c ****                 #else
 543:Generated_Source\PSoC5/LED.c ****                     LED_segMBuffer[relPosition] = ((uint8) ~value);
 544:Generated_Source\PSoC5/LED.c ****                 #endif /* LED_SEG_DRIVE == LED_HIGH */
 545:Generated_Source\PSoC5/LED.c ****             }
 546:Generated_Source\PSoC5/LED.c ****         #endif /* (LED_NUM_SEG > 16u) */
 547:Generated_Source\PSoC5/LED.c ****     }
 548:Generated_Source\PSoC5/LED.c **** }
 549:Generated_Source\PSoC5/LED.c **** 
ARM GAS  C:\Users\Tri94\AppData\Local\Temp\cc3LbiXl.s 			page 19


 550:Generated_Source\PSoC5/LED.c **** 
 551:Generated_Source\PSoC5/LED.c **** /*******************************************************************************
 552:Generated_Source\PSoC5/LED.c **** * Function Name: LED_SetRC
 553:Generated_Source\PSoC5/LED.c **** ********************************************************************************
 554:Generated_Source\PSoC5/LED.c **** *
 555:Generated_Source\PSoC5/LED.c **** * Summary:
 556:Generated_Source\PSoC5/LED.c **** *  Sets the bit in the display RAM corresponding to the LED in the designated
 557:Generated_Source\PSoC5/LED.c **** *  row and column. Rows are the segments and columns are the commons.
 558:Generated_Source\PSoC5/LED.c **** *
 559:Generated_Source\PSoC5/LED.c **** * Parameters:
 560:Generated_Source\PSoC5/LED.c **** *  uint8 row: Row value 0 to 23.
 561:Generated_Source\PSoC5/LED.c **** *  uint8 col: Column between 0 and 7.
 562:Generated_Source\PSoC5/LED.c **** *
 563:Generated_Source\PSoC5/LED.c **** * Return:
 564:Generated_Source\PSoC5/LED.c **** *  None
 565:Generated_Source\PSoC5/LED.c **** *
 566:Generated_Source\PSoC5/LED.c **** * Side effects:
 567:Generated_Source\PSoC5/LED.c **** *  None
 568:Generated_Source\PSoC5/LED.c **** *
 569:Generated_Source\PSoC5/LED.c **** *******************************************************************************/
 570:Generated_Source\PSoC5/LED.c **** void LED_SetRC(uint8 row, uint8 column) 
 571:Generated_Source\PSoC5/LED.c **** {
 460              		.loc 1 571 0
 461              		.cfi_startproc
 462              		@ args = 0, pretend = 0, frame = 0
 463              		@ frame_needed = 0, uses_anonymous_args = 0
 464              		@ link register save eliminated.
 465              	.LVL55:
 572:Generated_Source\PSoC5/LED.c ****     uint8 rowSeg;
 573:Generated_Source\PSoC5/LED.c ****     
 574:Generated_Source\PSoC5/LED.c ****     if(column < LED_NUM_COM)
 466              		.loc 1 574 0
 467 0000 0329     		cmp	r1, #3
 468 0002 08D8     		bhi	.L43
 575:Generated_Source\PSoC5/LED.c ****     {
 576:Generated_Source\PSoC5/LED.c ****         if(row < 8u)
 469              		.loc 1 576 0
 470 0004 0728     		cmp	r0, #7
 471 0006 06D8     		bhi	.L43
 472              	.LVL56:
 577:Generated_Source\PSoC5/LED.c ****         {
 578:Generated_Source\PSoC5/LED.c ****             rowSeg = row;
 579:Generated_Source\PSoC5/LED.c ****             #if(LED_SEG_DRIVE == LED_HIGH)
 580:Generated_Source\PSoC5/LED.c ****                 LED_segLBuffer[column] |= ((uint8)((uint8)0x01u << rowSeg));
 473              		.loc 1 580 0
 474 0008 0123     		movs	r3, #1
 475 000a 03FA00F0 		lsl	r0, r3, r0
 476              	.LVL57:
 477 000e 024B     		ldr	r3, .L45
 478 0010 5A5C     		ldrb	r2, [r3, r1]	@ zero_extendqisi2
 479 0012 1043     		orrs	r0, r0, r2
 480 0014 5854     		strb	r0, [r3, r1]
 481              	.LVL58:
 482              	.L43:
 483 0016 7047     		bx	lr
 484              	.L46:
 485              		.align	2
ARM GAS  C:\Users\Tri94\AppData\Local\Temp\cc3LbiXl.s 			page 20


 486              	.L45:
 487 0018 00000000 		.word	LED_segLBuffer
 488              		.cfi_endproc
 489              	.LFE8:
 490              		.size	LED_SetRC, .-LED_SetRC
 491              		.section	.text.LED_ClearRC,"ax",%progbits
 492              		.align	2
 493              		.global	LED_ClearRC
 494              		.thumb
 495              		.thumb_func
 496              		.type	LED_ClearRC, %function
 497              	LED_ClearRC:
 498              	.LFB9:
 581:Generated_Source\PSoC5/LED.c ****             #else
 582:Generated_Source\PSoC5/LED.c ****                 LED_segLBuffer[column] &= ((uint8)~((uint8)((uint8)0x01u << rowSeg)));
 583:Generated_Source\PSoC5/LED.c ****             #endif /* LED_SEG_DRIVE == LED_HIGH */
 584:Generated_Source\PSoC5/LED.c ****         }
 585:Generated_Source\PSoC5/LED.c ****         else if (row < 16u)
 586:Generated_Source\PSoC5/LED.c ****         {
 587:Generated_Source\PSoC5/LED.c ****             #if (LED_NUM_SEG > 8u) 
 588:Generated_Source\PSoC5/LED.c ****                 rowSeg = row - 8u;
 589:Generated_Source\PSoC5/LED.c ****                 #if(LED_SEG_DRIVE == LED_HIGH)
 590:Generated_Source\PSoC5/LED.c ****                     LED_segMBuffer[column] |= ((uint8)((uint8)0x01u << rowSeg));
 591:Generated_Source\PSoC5/LED.c ****                 #else
 592:Generated_Source\PSoC5/LED.c ****                     LED_segMBuffer[column] &= ((uint8)~((uint8)((uint8)0x01u << rowSeg)));
 593:Generated_Source\PSoC5/LED.c ****                 #endif /* LED_SEG_DRIVE == LED_HIGH */
 594:Generated_Source\PSoC5/LED.c ****             #endif /* (LED_NUM_SEG > 8u) */
 595:Generated_Source\PSoC5/LED.c ****         }
 596:Generated_Source\PSoC5/LED.c ****         else
 597:Generated_Source\PSoC5/LED.c ****         {
 598:Generated_Source\PSoC5/LED.c ****             #if (LED_NUM_SEG > 16u)
 599:Generated_Source\PSoC5/LED.c ****                 rowSeg = row - 16u;
 600:Generated_Source\PSoC5/LED.c ****                 #if(LED_SEG_DRIVE == LED_HIGH)
 601:Generated_Source\PSoC5/LED.c ****                     LED_segHBuffer[column] |= ((uint8)((uint8)0x01u << rowSeg));
 602:Generated_Source\PSoC5/LED.c ****                 #else
 603:Generated_Source\PSoC5/LED.c ****                     LED_segHBuffer[column] &= ((uint8)~((uint8)((uint8)0x01u << rowSeg)));
 604:Generated_Source\PSoC5/LED.c ****                 #endif /* LED_SEG_DRIVE == LED_HIGH */
 605:Generated_Source\PSoC5/LED.c ****             #endif /* (LED_NUM_SEG > 16u) */
 606:Generated_Source\PSoC5/LED.c ****         }
 607:Generated_Source\PSoC5/LED.c ****     }
 608:Generated_Source\PSoC5/LED.c **** }
 609:Generated_Source\PSoC5/LED.c **** 
 610:Generated_Source\PSoC5/LED.c **** 
 611:Generated_Source\PSoC5/LED.c **** /*******************************************************************************
 612:Generated_Source\PSoC5/LED.c **** * Function Name: LED_ClearRC
 613:Generated_Source\PSoC5/LED.c **** ********************************************************************************
 614:Generated_Source\PSoC5/LED.c **** *
 615:Generated_Source\PSoC5/LED.c **** * Summary:
 616:Generated_Source\PSoC5/LED.c **** *  Clears the bit in the display RAM corresponding to the LED in the designated
 617:Generated_Source\PSoC5/LED.c **** *  row and column.
 618:Generated_Source\PSoC5/LED.c **** *
 619:Generated_Source\PSoC5/LED.c **** * Parameters:
 620:Generated_Source\PSoC5/LED.c **** *  uint8 row: Row value 0 to 23.
 621:Generated_Source\PSoC5/LED.c **** *  uint8 col: Column between 0 and 7.
 622:Generated_Source\PSoC5/LED.c **** *
 623:Generated_Source\PSoC5/LED.c **** * Return:
 624:Generated_Source\PSoC5/LED.c **** *  None
ARM GAS  C:\Users\Tri94\AppData\Local\Temp\cc3LbiXl.s 			page 21


 625:Generated_Source\PSoC5/LED.c **** *
 626:Generated_Source\PSoC5/LED.c **** * Side effects:
 627:Generated_Source\PSoC5/LED.c **** *  None
 628:Generated_Source\PSoC5/LED.c **** *
 629:Generated_Source\PSoC5/LED.c **** *******************************************************************************/
 630:Generated_Source\PSoC5/LED.c **** void LED_ClearRC(uint8 row, uint8 column) 
 631:Generated_Source\PSoC5/LED.c **** {
 499              		.loc 1 631 0
 500              		.cfi_startproc
 501              		@ args = 0, pretend = 0, frame = 0
 502              		@ frame_needed = 0, uses_anonymous_args = 0
 503              		@ link register save eliminated.
 504              	.LVL59:
 632:Generated_Source\PSoC5/LED.c ****     uint8 rowSeg;
 633:Generated_Source\PSoC5/LED.c ****     uint8 rowSelect;
 634:Generated_Source\PSoC5/LED.c ****     
 635:Generated_Source\PSoC5/LED.c ****     if(column < LED_NUM_COM)
 505              		.loc 1 635 0
 506 0000 0329     		cmp	r1, #3
 507 0002 0AD8     		bhi	.L47
 636:Generated_Source\PSoC5/LED.c ****     {
 637:Generated_Source\PSoC5/LED.c ****         if(row < 8u)
 508              		.loc 1 637 0
 509 0004 0728     		cmp	r0, #7
 510 0006 08D8     		bhi	.L47
 511              	.LVL60:
 638:Generated_Source\PSoC5/LED.c ****         {
 639:Generated_Source\PSoC5/LED.c ****             rowSeg = row;
 640:Generated_Source\PSoC5/LED.c ****             rowSelect = ((uint8)((uint8)0x01u << rowSeg));
 512              		.loc 1 640 0
 513 0008 0123     		movs	r3, #1
 514 000a 03FA00F0 		lsl	r0, r3, r0
 515              	.LVL61:
 516 000e C0B2     		uxtb	r0, r0
 517              	.LVL62:
 641:Generated_Source\PSoC5/LED.c ****             #if(LED_SEG_DRIVE == LED_HIGH)
 642:Generated_Source\PSoC5/LED.c ****                 LED_segLBuffer[column] &= ((uint8)(~(uint8)rowSelect));
 518              		.loc 1 642 0
 519 0010 024A     		ldr	r2, .L49
 520 0012 535C     		ldrb	r3, [r2, r1]	@ zero_extendqisi2
 521 0014 23EA0000 		bic	r0, r3, r0
 522              	.LVL63:
 523 0018 5054     		strb	r0, [r2, r1]
 524              	.LVL64:
 525              	.L47:
 526 001a 7047     		bx	lr
 527              	.L50:
 528              		.align	2
 529              	.L49:
 530 001c 00000000 		.word	LED_segLBuffer
 531              		.cfi_endproc
 532              	.LFE9:
 533              		.size	LED_ClearRC, .-LED_ClearRC
 534              		.section	.text.LED_ToggleRC,"ax",%progbits
 535              		.align	2
 536              		.global	LED_ToggleRC
 537              		.thumb
ARM GAS  C:\Users\Tri94\AppData\Local\Temp\cc3LbiXl.s 			page 22


 538              		.thumb_func
 539              		.type	LED_ToggleRC, %function
 540              	LED_ToggleRC:
 541              	.LFB10:
 643:Generated_Source\PSoC5/LED.c ****             #else
 644:Generated_Source\PSoC5/LED.c ****                 LED_segLBuffer[column] |= rowSelect;
 645:Generated_Source\PSoC5/LED.c ****             #endif /* LED_SEG_DRIVE == LED_HIGH */
 646:Generated_Source\PSoC5/LED.c ****         }    
 647:Generated_Source\PSoC5/LED.c ****         else if (row < 16u)
 648:Generated_Source\PSoC5/LED.c ****         {
 649:Generated_Source\PSoC5/LED.c ****             #if (LED_NUM_SEG > 8u) 
 650:Generated_Source\PSoC5/LED.c ****                 rowSeg = row - 8u;
 651:Generated_Source\PSoC5/LED.c ****                 rowSelect = ((uint8)((uint8)0x01u << rowSeg));
 652:Generated_Source\PSoC5/LED.c ****                 #if(LED_SEG_DRIVE == LED_HIGH)
 653:Generated_Source\PSoC5/LED.c ****                     LED_segMBuffer[column] &= ((uint8)(~(uint8)rowSelect));
 654:Generated_Source\PSoC5/LED.c ****                 #else
 655:Generated_Source\PSoC5/LED.c ****                     LED_segMBuffer[column] |= rowSelect;
 656:Generated_Source\PSoC5/LED.c ****                 #endif /* LED_SEG_DRIVE == LED_HIGH */
 657:Generated_Source\PSoC5/LED.c ****             #endif /* (LED_NUM_SEG > 8u) */
 658:Generated_Source\PSoC5/LED.c ****         }
 659:Generated_Source\PSoC5/LED.c ****         else
 660:Generated_Source\PSoC5/LED.c ****         {
 661:Generated_Source\PSoC5/LED.c ****             #if (LED_NUM_SEG > 16u)
 662:Generated_Source\PSoC5/LED.c ****                 rowSeg = row - 16u;
 663:Generated_Source\PSoC5/LED.c ****                 rowSelect = ((uint8)((uint8)0x01u << rowSeg));
 664:Generated_Source\PSoC5/LED.c ****                 #if(LED_SEG_DRIVE == LED_HIGH)
 665:Generated_Source\PSoC5/LED.c ****                     LED_segHBuffer[column] &= ((uint8)(~(uint8)rowSelect));
 666:Generated_Source\PSoC5/LED.c ****                 #else
 667:Generated_Source\PSoC5/LED.c ****                     LED_segHBuffer[column] |= rowSelect;
 668:Generated_Source\PSoC5/LED.c ****                 #endif /* LED_SEG_DRIVE == LED_HIGH */
 669:Generated_Source\PSoC5/LED.c ****             #endif /* (LED_NUM_SEG > 16u) */
 670:Generated_Source\PSoC5/LED.c ****         }
 671:Generated_Source\PSoC5/LED.c ****     }
 672:Generated_Source\PSoC5/LED.c **** }
 673:Generated_Source\PSoC5/LED.c **** 
 674:Generated_Source\PSoC5/LED.c **** 
 675:Generated_Source\PSoC5/LED.c **** /*******************************************************************************
 676:Generated_Source\PSoC5/LED.c **** * Function Name: LED_ToggleRC
 677:Generated_Source\PSoC5/LED.c **** ********************************************************************************
 678:Generated_Source\PSoC5/LED.c **** *
 679:Generated_Source\PSoC5/LED.c **** * Summary:
 680:Generated_Source\PSoC5/LED.c **** *  Toggles the bit in the display RAM corresponding to the LED in the designated
 681:Generated_Source\PSoC5/LED.c **** *  row and column.
 682:Generated_Source\PSoC5/LED.c **** *
 683:Generated_Source\PSoC5/LED.c **** * Parameters:
 684:Generated_Source\PSoC5/LED.c **** *  uint8 row: Row value 0 to 23.
 685:Generated_Source\PSoC5/LED.c **** *  uint8 col: Column between 0 and 7.
 686:Generated_Source\PSoC5/LED.c **** *
 687:Generated_Source\PSoC5/LED.c **** * Return:
 688:Generated_Source\PSoC5/LED.c **** *  None
 689:Generated_Source\PSoC5/LED.c **** *
 690:Generated_Source\PSoC5/LED.c **** * Side effects:
 691:Generated_Source\PSoC5/LED.c **** *  None
 692:Generated_Source\PSoC5/LED.c **** *
 693:Generated_Source\PSoC5/LED.c **** *******************************************************************************/
 694:Generated_Source\PSoC5/LED.c **** void LED_ToggleRC(uint8 row, uint8 column) 
 695:Generated_Source\PSoC5/LED.c **** {
ARM GAS  C:\Users\Tri94\AppData\Local\Temp\cc3LbiXl.s 			page 23


 542              		.loc 1 695 0
 543              		.cfi_startproc
 544              		@ args = 0, pretend = 0, frame = 0
 545              		@ frame_needed = 0, uses_anonymous_args = 0
 546              		@ link register save eliminated.
 547              	.LVL65:
 696:Generated_Source\PSoC5/LED.c ****     uint8 rowSeg;
 697:Generated_Source\PSoC5/LED.c ****     
 698:Generated_Source\PSoC5/LED.c ****     if(column < LED_NUM_COM)
 548              		.loc 1 698 0
 549 0000 0329     		cmp	r1, #3
 550 0002 08D8     		bhi	.L51
 699:Generated_Source\PSoC5/LED.c ****     {
 700:Generated_Source\PSoC5/LED.c ****         if(row < 8u)
 551              		.loc 1 700 0
 552 0004 0728     		cmp	r0, #7
 553 0006 06D8     		bhi	.L51
 554              	.LVL66:
 701:Generated_Source\PSoC5/LED.c ****         {
 702:Generated_Source\PSoC5/LED.c ****             rowSeg = row;
 703:Generated_Source\PSoC5/LED.c ****             LED_segLBuffer[column] ^= ((uint8)((uint8)0x01u << rowSeg));
 555              		.loc 1 703 0
 556 0008 0123     		movs	r3, #1
 557 000a 03FA00F0 		lsl	r0, r3, r0
 558              	.LVL67:
 559 000e 024B     		ldr	r3, .L53
 560 0010 5A5C     		ldrb	r2, [r3, r1]	@ zero_extendqisi2
 561 0012 5040     		eors	r0, r0, r2
 562 0014 5854     		strb	r0, [r3, r1]
 563              	.LVL68:
 564              	.L51:
 565 0016 7047     		bx	lr
 566              	.L54:
 567              		.align	2
 568              	.L53:
 569 0018 00000000 		.word	LED_segLBuffer
 570              		.cfi_endproc
 571              	.LFE10:
 572              		.size	LED_ToggleRC, .-LED_ToggleRC
 573              		.section	.text.LED_GetRC,"ax",%progbits
 574              		.align	2
 575              		.global	LED_GetRC
 576              		.thumb
 577              		.thumb_func
 578              		.type	LED_GetRC, %function
 579              	LED_GetRC:
 580              	.LFB11:
 704:Generated_Source\PSoC5/LED.c ****         }    
 705:Generated_Source\PSoC5/LED.c ****         else if (row < 16u)
 706:Generated_Source\PSoC5/LED.c ****         {
 707:Generated_Source\PSoC5/LED.c ****             #if (LED_NUM_SEG > 8u)
 708:Generated_Source\PSoC5/LED.c ****                 rowSeg = row - 8u;
 709:Generated_Source\PSoC5/LED.c ****                 LED_segMBuffer[column] ^= ((uint8)((uint8)0x01u << rowSeg));
 710:Generated_Source\PSoC5/LED.c ****             #endif /* (LED_NUM_SEG > 8u) */
 711:Generated_Source\PSoC5/LED.c ****         } 
 712:Generated_Source\PSoC5/LED.c ****         else
 713:Generated_Source\PSoC5/LED.c ****         {
ARM GAS  C:\Users\Tri94\AppData\Local\Temp\cc3LbiXl.s 			page 24


 714:Generated_Source\PSoC5/LED.c ****             #if (LED_NUM_SEG > 16u)
 715:Generated_Source\PSoC5/LED.c ****                 rowSeg = row - 16u;
 716:Generated_Source\PSoC5/LED.c ****                 LED_segHBuffer[column] ^= ((uint8)((uint8)0x01u << rowSeg));
 717:Generated_Source\PSoC5/LED.c ****             #endif /* (LED_NUM_SEG > 16u) */
 718:Generated_Source\PSoC5/LED.c ****         }
 719:Generated_Source\PSoC5/LED.c ****     }
 720:Generated_Source\PSoC5/LED.c **** }
 721:Generated_Source\PSoC5/LED.c **** 
 722:Generated_Source\PSoC5/LED.c **** 
 723:Generated_Source\PSoC5/LED.c **** /*******************************************************************************
 724:Generated_Source\PSoC5/LED.c **** * Function Name: LED_GetRC
 725:Generated_Source\PSoC5/LED.c **** ********************************************************************************
 726:Generated_Source\PSoC5/LED.c **** *
 727:Generated_Source\PSoC5/LED.c **** * Summary:
 728:Generated_Source\PSoC5/LED.c **** *  Returns the bit value in the display RAM corresponding to the LED in the
 729:Generated_Source\PSoC5/LED.c **** *  designated row and column.
 730:Generated_Source\PSoC5/LED.c **** *
 731:Generated_Source\PSoC5/LED.c **** * Parameters:
 732:Generated_Source\PSoC5/LED.c **** *  uint8 row: Row value 0 to 23.
 733:Generated_Source\PSoC5/LED.c **** *  uint8 col: Column between 0 and 7.
 734:Generated_Source\PSoC5/LED.c **** *
 735:Generated_Source\PSoC5/LED.c **** * Return:
 736:Generated_Source\PSoC5/LED.c **** *  uint8 - bit value of the display RAM at the corresponding row and column. 
 737:Generated_Source\PSoC5/LED.c **** *
 738:Generated_Source\PSoC5/LED.c **** * Side effects:
 739:Generated_Source\PSoC5/LED.c **** *  None
 740:Generated_Source\PSoC5/LED.c **** *
 741:Generated_Source\PSoC5/LED.c **** *******************************************************************************/
 742:Generated_Source\PSoC5/LED.c **** uint8 LED_GetRC(uint8 row, uint8 column) 
 743:Generated_Source\PSoC5/LED.c **** {
 581              		.loc 1 743 0
 582              		.cfi_startproc
 583              		@ args = 0, pretend = 0, frame = 0
 584              		@ frame_needed = 0, uses_anonymous_args = 0
 585              		@ link register save eliminated.
 586              	.LVL69:
 744:Generated_Source\PSoC5/LED.c ****     uint8 valueRC = 0u;
 745:Generated_Source\PSoC5/LED.c ****     uint8 rowSeg;
 746:Generated_Source\PSoC5/LED.c ****     uint8 rowSegSelect = 0u;
 747:Generated_Source\PSoC5/LED.c ****     
 748:Generated_Source\PSoC5/LED.c ****     if(column < LED_NUM_COM)
 587              		.loc 1 748 0
 588 0000 0329     		cmp	r1, #3
 589 0002 0BD8     		bhi	.L58
 749:Generated_Source\PSoC5/LED.c ****     {
 750:Generated_Source\PSoC5/LED.c ****         if(row < 8u)
 590              		.loc 1 750 0
 591 0004 0728     		cmp	r0, #7
 592 0006 05D8     		bhi	.L59
 593              	.LVL70:
 751:Generated_Source\PSoC5/LED.c ****         {
 752:Generated_Source\PSoC5/LED.c ****             rowSeg = row;
 753:Generated_Source\PSoC5/LED.c ****             rowSegSelect = (uint8)((uint8)LED_segLBuffer[column] >> rowSeg);
 594              		.loc 1 753 0
 595 0008 054B     		ldr	r3, .L60
 596 000a 5B5C     		ldrb	r3, [r3, r1]	@ zero_extendqisi2
 597 000c 43FA00F0 		asr	r0, r3, r0
ARM GAS  C:\Users\Tri94\AppData\Local\Temp\cc3LbiXl.s 			page 25


 598              	.LVL71:
 599 0010 C0B2     		uxtb	r0, r0
 600              	.LVL72:
 601 0012 00E0     		b	.L57
 602              	.LVL73:
 603              	.L59:
 746:Generated_Source\PSoC5/LED.c ****     
 604              		.loc 1 746 0
 605 0014 0020     		movs	r0, #0
 606              	.LVL74:
 607              	.L57:
 754:Generated_Source\PSoC5/LED.c ****         }    
 755:Generated_Source\PSoC5/LED.c ****         else if (row < 16u)
 756:Generated_Source\PSoC5/LED.c ****         {
 757:Generated_Source\PSoC5/LED.c ****             #if (LED_NUM_SEG > 8u) 
 758:Generated_Source\PSoC5/LED.c ****                 rowSeg = row - 8u;
 759:Generated_Source\PSoC5/LED.c ****                 rowSegSelect = (uint8)((uint8)LED_segMBuffer[column] >> rowSeg);
 760:Generated_Source\PSoC5/LED.c ****             #endif /* (LED_NUM_SEG > 8u) */
 761:Generated_Source\PSoC5/LED.c ****         }
 762:Generated_Source\PSoC5/LED.c ****         else
 763:Generated_Source\PSoC5/LED.c ****         {
 764:Generated_Source\PSoC5/LED.c ****             #if (LED_NUM_SEG > 16u)
 765:Generated_Source\PSoC5/LED.c ****                 rowSeg = row - 16u;
 766:Generated_Source\PSoC5/LED.c ****                 rowSegSelect = (uint8)((uint8)LED_segHBuffer[column] >> rowSeg);
 767:Generated_Source\PSoC5/LED.c ****             #endif /* (LED_NUM_SEG > 16u) */
 768:Generated_Source\PSoC5/LED.c ****         }
 769:Generated_Source\PSoC5/LED.c ****         
 770:Generated_Source\PSoC5/LED.c ****         #if(LED_SEG_DRIVE == LED_HIGH)
 771:Generated_Source\PSoC5/LED.c ****             valueRC = (uint8)((uint8)rowSegSelect & 0x01u);
 608              		.loc 1 771 0
 609 0016 00F00100 		and	r0, r0, #1
 610              	.LVL75:
 611 001a 7047     		bx	lr
 612              	.LVL76:
 613              	.L58:
 744:Generated_Source\PSoC5/LED.c ****     uint8 rowSeg;
 614              		.loc 1 744 0
 615 001c 0020     		movs	r0, #0
 616              	.LVL77:
 772:Generated_Source\PSoC5/LED.c ****         #else
 773:Generated_Source\PSoC5/LED.c ****             valueRC = (uint8)((uint8)((uint8)~rowSegSelect) & 0x01u);
 774:Generated_Source\PSoC5/LED.c ****         #endif /* LED_SEG_DRIVE == LED_HIGH */
 775:Generated_Source\PSoC5/LED.c ****     }
 776:Generated_Source\PSoC5/LED.c ****     
 777:Generated_Source\PSoC5/LED.c ****     return(valueRC);
 778:Generated_Source\PSoC5/LED.c **** }
 617              		.loc 1 778 0
 618 001e 7047     		bx	lr
 619              	.L61:
 620              		.align	2
 621              	.L60:
 622 0020 00000000 		.word	LED_segLBuffer
 623              		.cfi_endproc
 624              	.LFE11:
 625              		.size	LED_GetRC, .-LED_GetRC
 626              		.section	.text.LED_ClearDisplay,"ax",%progbits
 627              		.align	2
ARM GAS  C:\Users\Tri94\AppData\Local\Temp\cc3LbiXl.s 			page 26


 628              		.global	LED_ClearDisplay
 629              		.thumb
 630              		.thumb_func
 631              		.type	LED_ClearDisplay, %function
 632              	LED_ClearDisplay:
 633              	.LFB12:
 779:Generated_Source\PSoC5/LED.c **** 
 780:Generated_Source\PSoC5/LED.c **** 
 781:Generated_Source\PSoC5/LED.c **** /*******************************************************************************
 782:Generated_Source\PSoC5/LED.c **** * Function Name: LED_ClearDisplay
 783:Generated_Source\PSoC5/LED.c **** ********************************************************************************
 784:Generated_Source\PSoC5/LED.c **** *
 785:Generated_Source\PSoC5/LED.c **** * Summary:
 786:Generated_Source\PSoC5/LED.c **** *  Clears the display (disables all the LEDs) for the associated position by
 787:Generated_Source\PSoC5/LED.c **** *  setting the display RAM to zero.
 788:Generated_Source\PSoC5/LED.c **** *
 789:Generated_Source\PSoC5/LED.c **** * Parameters:
 790:Generated_Source\PSoC5/LED.c **** *  uint8 position: The digit position to clear.
 791:Generated_Source\PSoC5/LED.c **** *
 792:Generated_Source\PSoC5/LED.c **** * Return:
 793:Generated_Source\PSoC5/LED.c **** *  None
 794:Generated_Source\PSoC5/LED.c **** *
 795:Generated_Source\PSoC5/LED.c **** * Side effects:
 796:Generated_Source\PSoC5/LED.c **** *  None
 797:Generated_Source\PSoC5/LED.c **** *
 798:Generated_Source\PSoC5/LED.c **** *******************************************************************************/
 799:Generated_Source\PSoC5/LED.c **** void LED_ClearDisplay(uint8 position) 
 800:Generated_Source\PSoC5/LED.c **** {  
 634              		.loc 1 800 0
 635              		.cfi_startproc
 636              		@ args = 0, pretend = 0, frame = 0
 637              		@ frame_needed = 0, uses_anonymous_args = 0
 638              		@ link register save eliminated.
 639              	.LVL78:
 801:Generated_Source\PSoC5/LED.c ****     uint8 relPosition;
 802:Generated_Source\PSoC5/LED.c ****     
 803:Generated_Source\PSoC5/LED.c ****     if(position < LED_NUM_COM)
 640              		.loc 1 803 0
 641 0000 0328     		cmp	r0, #3
 642 0002 02D8     		bhi	.L62
 643              	.LVL79:
 804:Generated_Source\PSoC5/LED.c ****     {
 805:Generated_Source\PSoC5/LED.c ****         relPosition = position;
 806:Generated_Source\PSoC5/LED.c ****         LED_segLBuffer[relPosition] = LED_CLEAR;
 644              		.loc 1 806 0
 645 0004 0022     		movs	r2, #0
 646 0006 014B     		ldr	r3, .L64
 647 0008 1A54     		strb	r2, [r3, r0]
 648              	.LVL80:
 649              	.L62:
 650 000a 7047     		bx	lr
 651              	.L65:
 652              		.align	2
 653              	.L64:
 654 000c 00000000 		.word	LED_segLBuffer
 655              		.cfi_endproc
 656              	.LFE12:
ARM GAS  C:\Users\Tri94\AppData\Local\Temp\cc3LbiXl.s 			page 27


 657              		.size	LED_ClearDisplay, .-LED_ClearDisplay
 658              		.section	.text.LED_ClearDisplayAll,"ax",%progbits
 659              		.align	2
 660              		.global	LED_ClearDisplayAll
 661              		.thumb
 662              		.thumb_func
 663              		.type	LED_ClearDisplayAll, %function
 664              	LED_ClearDisplayAll:
 665              	.LFB13:
 807:Generated_Source\PSoC5/LED.c ****     }    
 808:Generated_Source\PSoC5/LED.c ****     else if (position < LED_TWO_NUM_COM)
 809:Generated_Source\PSoC5/LED.c ****     {
 810:Generated_Source\PSoC5/LED.c ****         #if (LED_NUM_SEG > 8u)
 811:Generated_Source\PSoC5/LED.c ****             relPosition = position - LED_NUM_COM;
 812:Generated_Source\PSoC5/LED.c ****             LED_segMBuffer[relPosition] = LED_CLEAR;
 813:Generated_Source\PSoC5/LED.c ****         #endif /* (LED_NUM_SEG > 8u) */
 814:Generated_Source\PSoC5/LED.c ****     }
 815:Generated_Source\PSoC5/LED.c ****     else
 816:Generated_Source\PSoC5/LED.c ****     {
 817:Generated_Source\PSoC5/LED.c ****         #if (LED_NUM_SEG > 16u)
 818:Generated_Source\PSoC5/LED.c ****             relPosition = position - LED_TWO_NUM_COM;
 819:Generated_Source\PSoC5/LED.c ****             if(relPosition < LED_NUM_COM)
 820:Generated_Source\PSoC5/LED.c ****             {
 821:Generated_Source\PSoC5/LED.c ****                 LED_segHBuffer[relPosition] = LED_CLEAR;
 822:Generated_Source\PSoC5/LED.c ****             }
 823:Generated_Source\PSoC5/LED.c ****         #endif /* (LED_NUM_SEG > 16u) */
 824:Generated_Source\PSoC5/LED.c ****     }
 825:Generated_Source\PSoC5/LED.c **** }
 826:Generated_Source\PSoC5/LED.c **** 
 827:Generated_Source\PSoC5/LED.c **** 
 828:Generated_Source\PSoC5/LED.c **** /*******************************************************************************
 829:Generated_Source\PSoC5/LED.c **** * Function Name: LED_ClearDisplayAll
 830:Generated_Source\PSoC5/LED.c **** ********************************************************************************
 831:Generated_Source\PSoC5/LED.c **** *
 832:Generated_Source\PSoC5/LED.c **** * Summary:
 833:Generated_Source\PSoC5/LED.c **** *  Clears the entire display by writing zeros to all the display RAM locations.
 834:Generated_Source\PSoC5/LED.c **** *
 835:Generated_Source\PSoC5/LED.c **** * Parameters:
 836:Generated_Source\PSoC5/LED.c **** *  None
 837:Generated_Source\PSoC5/LED.c **** *
 838:Generated_Source\PSoC5/LED.c **** * Return:
 839:Generated_Source\PSoC5/LED.c **** *  None
 840:Generated_Source\PSoC5/LED.c **** *
 841:Generated_Source\PSoC5/LED.c **** * Side effects:
 842:Generated_Source\PSoC5/LED.c **** *  None
 843:Generated_Source\PSoC5/LED.c **** *
 844:Generated_Source\PSoC5/LED.c **** *******************************************************************************/
 845:Generated_Source\PSoC5/LED.c **** void LED_ClearDisplayAll(void) 
 846:Generated_Source\PSoC5/LED.c **** {
 666              		.loc 1 846 0
 667              		.cfi_startproc
 668              		@ args = 0, pretend = 0, frame = 0
 669              		@ frame_needed = 0, uses_anonymous_args = 0
 670              		@ link register save eliminated.
 671              	.LVL81:
 847:Generated_Source\PSoC5/LED.c ****     uint8 position;
 848:Generated_Source\PSoC5/LED.c ****     
ARM GAS  C:\Users\Tri94\AppData\Local\Temp\cc3LbiXl.s 			page 28


 849:Generated_Source\PSoC5/LED.c ****     for(position = 0u; position < LED_NUM_COM; position++)
 672              		.loc 1 849 0
 673 0000 0023     		movs	r3, #0
 674 0002 04E0     		b	.L67
 675              	.LVL82:
 676              	.L68:
 850:Generated_Source\PSoC5/LED.c ****     {
 851:Generated_Source\PSoC5/LED.c ****         LED_segLBuffer[position] = LED_CLEAR; 
 677              		.loc 1 851 0 discriminator 3
 678 0004 0021     		movs	r1, #0
 679 0006 034A     		ldr	r2, .L69
 680 0008 D154     		strb	r1, [r2, r3]
 849:Generated_Source\PSoC5/LED.c ****     {
 681              		.loc 1 849 0 discriminator 3
 682 000a 0133     		adds	r3, r3, #1
 683              	.LVL83:
 684 000c DBB2     		uxtb	r3, r3
 685              	.LVL84:
 686              	.L67:
 849:Generated_Source\PSoC5/LED.c ****     {
 687              		.loc 1 849 0 is_stmt 0 discriminator 1
 688 000e 032B     		cmp	r3, #3
 689 0010 F8D9     		bls	.L68
 852:Generated_Source\PSoC5/LED.c ****         
 853:Generated_Source\PSoC5/LED.c ****         #if (LED_NUM_SEG > 8u) 
 854:Generated_Source\PSoC5/LED.c ****             LED_segMBuffer[position] = LED_CLEAR;
 855:Generated_Source\PSoC5/LED.c ****         #endif /* (LED_NUM_SEG > 8u) */
 856:Generated_Source\PSoC5/LED.c ****         
 857:Generated_Source\PSoC5/LED.c ****         #if (LED_NUM_SEG > 16u)
 858:Generated_Source\PSoC5/LED.c ****             LED_segHBuffer[position] = LED_CLEAR;
 859:Generated_Source\PSoC5/LED.c ****         #endif /* (LED_NUM_SEG > 16u) */
 860:Generated_Source\PSoC5/LED.c ****     }
 861:Generated_Source\PSoC5/LED.c **** }
 690              		.loc 1 861 0 is_stmt 1
 691 0012 7047     		bx	lr
 692              	.L70:
 693              		.align	2
 694              	.L69:
 695 0014 00000000 		.word	LED_segLBuffer
 696              		.cfi_endproc
 697              	.LFE13:
 698              		.size	LED_ClearDisplayAll, .-LED_ClearDisplayAll
 699              		.section	.text.LED_Init,"ax",%progbits
 700              		.align	2
 701              		.global	LED_Init
 702              		.thumb
 703              		.thumb_func
 704              		.type	LED_Init, %function
 705              	LED_Init:
 706              	.LFB3:
 363:Generated_Source\PSoC5/LED.c ****     static uint8 LED_dmaInitDone = 0u;
 707              		.loc 1 363 0
 708              		.cfi_startproc
 709              		@ args = 0, pretend = 0, frame = 0
 710              		@ frame_needed = 0, uses_anonymous_args = 0
 711 0000 08B5     		push	{r3, lr}
 712              		.cfi_def_cfa_offset 8
ARM GAS  C:\Users\Tri94\AppData\Local\Temp\cc3LbiXl.s 			page 29


 713              		.cfi_offset 3, -8
 714              		.cfi_offset 14, -4
 370:Generated_Source\PSoC5/LED.c ****     
 715              		.loc 1 370 0
 716 0002 FFF7FEFF 		bl	LED_ClearDisplayAll
 717              	.LVL85:
 373:Generated_Source\PSoC5/LED.c ****     {
 718              		.loc 1 373 0
 719 0006 044B     		ldr	r3, .L74
 720 0008 5B7D     		ldrb	r3, [r3, #21]	@ zero_extendqisi2
 721 000a 23B9     		cbnz	r3, .L71
 375:Generated_Source\PSoC5/LED.c ****         LED_dmaInitDone = 1u;
 722              		.loc 1 375 0
 723 000c FFF7FEFF 		bl	LED_DmaInit
 724              	.LVL86:
 376:Generated_Source\PSoC5/LED.c ****     }
 725              		.loc 1 376 0
 726 0010 0122     		movs	r2, #1
 727 0012 014B     		ldr	r3, .L74
 728 0014 5A75     		strb	r2, [r3, #21]
 729              	.L71:
 730 0016 08BD     		pop	{r3, pc}
 731              	.L75:
 732              		.align	2
 733              	.L74:
 734 0018 00000000 		.word	.LANCHOR0
 735              		.cfi_endproc
 736              	.LFE3:
 737              		.size	LED_Init, .-LED_Init
 738              		.section	.text.LED_Start,"ax",%progbits
 739              		.align	2
 740              		.global	LED_Start
 741              		.thumb
 742              		.thumb_func
 743              		.type	LED_Start, %function
 744              	LED_Start:
 745              	.LFB5:
 445:Generated_Source\PSoC5/LED.c ****     if(0u == LED_initVar)
 746              		.loc 1 445 0
 747              		.cfi_startproc
 748              		@ args = 0, pretend = 0, frame = 0
 749              		@ frame_needed = 0, uses_anonymous_args = 0
 750 0000 08B5     		push	{r3, lr}
 751              		.cfi_def_cfa_offset 8
 752              		.cfi_offset 3, -8
 753              		.cfi_offset 14, -4
 446:Generated_Source\PSoC5/LED.c ****     {
 754              		.loc 1 446 0
 755 0002 054B     		ldr	r3, .L79
 756 0004 9B7D     		ldrb	r3, [r3, #22]	@ zero_extendqisi2
 757 0006 23B9     		cbnz	r3, .L77
 448:Generated_Source\PSoC5/LED.c ****         LED_initVar = 1u;
 758              		.loc 1 448 0
 759 0008 FFF7FEFF 		bl	LED_Init
 760              	.LVL87:
 449:Generated_Source\PSoC5/LED.c ****     }
 761              		.loc 1 449 0
ARM GAS  C:\Users\Tri94\AppData\Local\Temp\cc3LbiXl.s 			page 30


 762 000c 0122     		movs	r2, #1
 763 000e 024B     		ldr	r3, .L79
 764 0010 9A75     		strb	r2, [r3, #22]
 765              	.L77:
 452:Generated_Source\PSoC5/LED.c **** }
 766              		.loc 1 452 0
 767 0012 FFF7FEFF 		bl	LED_Enable
 768              	.LVL88:
 769 0016 08BD     		pop	{r3, pc}
 770              	.L80:
 771              		.align	2
 772              	.L79:
 773 0018 00000000 		.word	.LANCHOR0
 774              		.cfi_endproc
 775              	.LFE5:
 776              		.size	LED_Start, .-LED_Start
 777              		.section	.text.LED_Stop,"ax",%progbits
 778              		.align	2
 779              		.global	LED_Stop
 780              		.thumb
 781              		.thumb_func
 782              		.type	LED_Stop, %function
 783              	LED_Stop:
 784              	.LFB6:
 475:Generated_Source\PSoC5/LED.c ****     #if (LED_BRIGHTNESS_EN == LED_ENABLED)
 785              		.loc 1 475 0
 786              		.cfi_startproc
 787              		@ args = 0, pretend = 0, frame = 0
 788              		@ frame_needed = 0, uses_anonymous_args = 0
 789 0000 08B5     		push	{r3, lr}
 790              		.cfi_def_cfa_offset 8
 791              		.cfi_offset 3, -8
 792              		.cfi_offset 14, -4
 481:Generated_Source\PSoC5/LED.c ****     LED_ClearDisplayAll();
 793              		.loc 1 481 0
 794 0002 FFF7FEFF 		bl	LED_DmaDisable
 795              	.LVL89:
 482:Generated_Source\PSoC5/LED.c ****     
 796              		.loc 1 482 0
 797 0006 FFF7FEFF 		bl	LED_ClearDisplayAll
 798              	.LVL90:
 484:Generated_Source\PSoC5/LED.c **** }
 799              		.loc 1 484 0
 800 000a 0022     		movs	r2, #0
 801 000c 014B     		ldr	r3, .L83
 802 000e 1A75     		strb	r2, [r3, #20]
 803 0010 08BD     		pop	{r3, pc}
 804              	.L84:
 805 0012 00BF     		.align	2
 806              	.L83:
 807 0014 00000000 		.word	.LANCHOR0
 808              		.cfi_endproc
 809              	.LFE6:
 810              		.size	LED_Stop, .-LED_Stop
 811              		.section	.text.LED_PutDecimalPoint,"ax",%progbits
 812              		.align	2
 813              		.global	LED_PutDecimalPoint
ARM GAS  C:\Users\Tri94\AppData\Local\Temp\cc3LbiXl.s 			page 31


 814              		.thumb
 815              		.thumb_func
 816              		.type	LED_PutDecimalPoint, %function
 817              	LED_PutDecimalPoint:
 818              	.LFB32:
 862:Generated_Source\PSoC5/LED.c **** 
 863:Generated_Source\PSoC5/LED.c **** 
 864:Generated_Source\PSoC5/LED.c **** /*******************************************************************************
 865:Generated_Source\PSoC5/LED.c **** * Function Name: LED_Write7SegNumberDec
 866:Generated_Source\PSoC5/LED.c **** ********************************************************************************
 867:Generated_Source\PSoC5/LED.c **** *
 868:Generated_Source\PSoC5/LED.c **** * Summary:
 869:Generated_Source\PSoC5/LED.c **** *  Displays a signed integer up to 8 characters long, starting at 'position' 
 870:Generated_Source\PSoC5/LED.c **** *  and extending for 'digits' characters. The negative sign will consume one 
 871:Generated_Source\PSoC5/LED.c **** *  digit if it is required. If you do not use the correct number of digits for
 872:Generated_Source\PSoC5/LED.c **** *  your number, the least significant digits will be displayed. For example, 
 873:Generated_Source\PSoC5/LED.c **** *  if value is -1234, display is 0 and digits is 4, the result will be: -234.
 874:Generated_Source\PSoC5/LED.c **** *
 875:Generated_Source\PSoC5/LED.c **** * Parameters:
 876:Generated_Source\PSoC5/LED.c **** *  int32 number: a signed integer number to display. It is the responsibility 
 877:Generated_Source\PSoC5/LED.c **** *                of the user to ensure that the display has enough digits to 
 878:Generated_Source\PSoC5/LED.c **** *                accurately represent the number passed to this function. If 
 879:Generated_Source\PSoC5/LED.c **** *                not, the least significant digits will be displayed. Also note
 880:Generated_Source\PSoC5/LED.c **** *                that a negative number will require 1 more digit than the
 881:Generated_Source\PSoC5/LED.c **** *                equivalent positive number to display the negative sign.
 882:Generated_Source\PSoC5/LED.c **** *  uint8 position: Digit position of the Display/Common RAM to start.
 883:Generated_Source\PSoC5/LED.c **** *  uint8 digits: The number of digits you wish to use to display the value 
 884:Generated_Source\PSoC5/LED.c **** *                passed into the function. The negative sign will consume one 
 885:Generated_Source\PSoC5/LED.c **** *                digit if it is required.
 886:Generated_Source\PSoC5/LED.c **** *  uint8 alignment: How to align the provided number in the allocated digits.
 887:Generated_Source\PSoC5/LED.c **** *       RIGHT_ALIGN - Least significant digit occupies the rightmost digit
 888:Generated_Source\PSoC5/LED.c **** *                     (position + digits). Unused digits are turned off unless
 889:Generated_Source\PSoC5/LED.c **** *                     ZERO_PAD enabled.
 890:Generated_Source\PSoC5/LED.c **** *       LEFT_ALIGN - Most significant digit (or negative sign) occupies the
 891:Generated_Source\PSoC5/LED.c **** *                    digit specified by position. Unused digits are turned off.
 892:Generated_Source\PSoC5/LED.c **** *       ZERO_PAD - Unused digits to the left are padded with leading zeros.
 893:Generated_Source\PSoC5/LED.c **** *
 894:Generated_Source\PSoC5/LED.c **** * Return:
 895:Generated_Source\PSoC5/LED.c **** *  None
 896:Generated_Source\PSoC5/LED.c **** *
 897:Generated_Source\PSoC5/LED.c **** * Side effects:
 898:Generated_Source\PSoC5/LED.c **** *  None
 899:Generated_Source\PSoC5/LED.c **** *
 900:Generated_Source\PSoC5/LED.c **** *******************************************************************************/
 901:Generated_Source\PSoC5/LED.c **** void LED_Write7SegNumberDec(int32 number, uint8 position, uint8 digits, uint8 alignment)
 902:Generated_Source\PSoC5/LED.c **** 
 903:Generated_Source\PSoC5/LED.c **** {
 904:Generated_Source\PSoC5/LED.c ****     uint8 i;
 905:Generated_Source\PSoC5/LED.c ****     uint8 relPosition;
 906:Generated_Source\PSoC5/LED.c ****     uint8 choiceReg;
 907:Generated_Source\PSoC5/LED.c ****     uint8 numberSign;
 908:Generated_Source\PSoC5/LED.c ****     uint8 selectVal;
 909:Generated_Source\PSoC5/LED.c ****     uint8 zeroCount = 0u;
 910:Generated_Source\PSoC5/LED.c ****     uint8 bufArray[8u] = {0u};
 911:Generated_Source\PSoC5/LED.c ****     uint32 numberVal;
 912:Generated_Source\PSoC5/LED.c ****         
 913:Generated_Source\PSoC5/LED.c ****     /* Choose to use either the low, mid or high control registers */
ARM GAS  C:\Users\Tri94\AppData\Local\Temp\cc3LbiXl.s 			page 32


 914:Generated_Source\PSoC5/LED.c ****     if(position < LED_NUM_COM)
 915:Generated_Source\PSoC5/LED.c ****     {
 916:Generated_Source\PSoC5/LED.c ****         choiceReg = LED_SEG_REG_LOW;
 917:Generated_Source\PSoC5/LED.c ****         relPosition = position;
 918:Generated_Source\PSoC5/LED.c ****     }
 919:Generated_Source\PSoC5/LED.c ****     else if (position < LED_TWO_NUM_COM)
 920:Generated_Source\PSoC5/LED.c ****     {
 921:Generated_Source\PSoC5/LED.c ****         choiceReg = LED_SEG_REG_MID;
 922:Generated_Source\PSoC5/LED.c ****         relPosition = position - LED_NUM_COM;
 923:Generated_Source\PSoC5/LED.c ****     }
 924:Generated_Source\PSoC5/LED.c ****     else
 925:Generated_Source\PSoC5/LED.c ****     {
 926:Generated_Source\PSoC5/LED.c ****         choiceReg = LED_SEG_REG_HIGH;
 927:Generated_Source\PSoC5/LED.c ****         relPosition = position - LED_TWO_NUM_COM;
 928:Generated_Source\PSoC5/LED.c ****     }
 929:Generated_Source\PSoC5/LED.c ****     
 930:Generated_Source\PSoC5/LED.c ****     /* Routine to extract the sign and to convert to unsigned */
 931:Generated_Source\PSoC5/LED.c ****     if(number >= LED_ZERO_NEG)
 932:Generated_Source\PSoC5/LED.c ****     {
 933:Generated_Source\PSoC5/LED.c ****         numberVal = (uint32)number;
 934:Generated_Source\PSoC5/LED.c ****         numberSign = LED_UNSIGNED;
 935:Generated_Source\PSoC5/LED.c ****     }
 936:Generated_Source\PSoC5/LED.c ****     else
 937:Generated_Source\PSoC5/LED.c ****     {
 938:Generated_Source\PSoC5/LED.c ****         numberVal = (uint32)(-number);
 939:Generated_Source\PSoC5/LED.c ****         numberSign = LED_SIGNED;
 940:Generated_Source\PSoC5/LED.c ****     }
 941:Generated_Source\PSoC5/LED.c ****     
 942:Generated_Source\PSoC5/LED.c ****     /* Fill up the temporary array */
 943:Generated_Source\PSoC5/LED.c ****     for(i = digits; i > 0u; i--)
 944:Generated_Source\PSoC5/LED.c ****     {
 945:Generated_Source\PSoC5/LED.c ****         selectVal = (uint8)(numberVal % 10u);
 946:Generated_Source\PSoC5/LED.c ****         bufArray[i-1u] = LED_EncodeNumber7Seg(selectVal);
 947:Generated_Source\PSoC5/LED.c ****         numberVal = numberVal / 10u;
 948:Generated_Source\PSoC5/LED.c ****     }
 949:Generated_Source\PSoC5/LED.c ****     
 950:Generated_Source\PSoC5/LED.c ****     /* Clean up the array and place sign if needed */
 951:Generated_Source\PSoC5/LED.c ****     if(alignment == LED_ZERO_PAD)
 952:Generated_Source\PSoC5/LED.c ****     {
 953:Generated_Source\PSoC5/LED.c ****         if(numberSign == LED_SIGNED)
 954:Generated_Source\PSoC5/LED.c ****         {
 955:Generated_Source\PSoC5/LED.c ****             /* Place sign on the MSB */
 956:Generated_Source\PSoC5/LED.c ****             bufArray[0u] = LED_EncodeChar7Seg('-');
 957:Generated_Source\PSoC5/LED.c ****         }
 958:Generated_Source\PSoC5/LED.c ****     }
 959:Generated_Source\PSoC5/LED.c ****     else
 960:Generated_Source\PSoC5/LED.c ****     {
 961:Generated_Source\PSoC5/LED.c ****         for(i = 0u; i < digits; i++)
 962:Generated_Source\PSoC5/LED.c ****         {
 963:Generated_Source\PSoC5/LED.c ****             if (bufArray[i] != LED_ZERO_7CHAR)
 964:Generated_Source\PSoC5/LED.c ****             {
 965:Generated_Source\PSoC5/LED.c ****                 if(numberSign == LED_SIGNED)
 966:Generated_Source\PSoC5/LED.c ****                 {
 967:Generated_Source\PSoC5/LED.c ****                     if(i == 0u)
 968:Generated_Source\PSoC5/LED.c ****                     {
 969:Generated_Source\PSoC5/LED.c ****                         /* Place sign on the MSB */
 970:Generated_Source\PSoC5/LED.c ****                         bufArray[i] = LED_EncodeChar7Seg('-');
ARM GAS  C:\Users\Tri94\AppData\Local\Temp\cc3LbiXl.s 			page 33


 971:Generated_Source\PSoC5/LED.c ****                     }
 972:Generated_Source\PSoC5/LED.c ****                     else
 973:Generated_Source\PSoC5/LED.c ****                     {
 974:Generated_Source\PSoC5/LED.c ****                         /* Place sign before MSB */
 975:Generated_Source\PSoC5/LED.c ****                         bufArray[i-1u] = LED_EncodeChar7Seg('-');
 976:Generated_Source\PSoC5/LED.c ****                     }
 977:Generated_Source\PSoC5/LED.c ****                 }
 978:Generated_Source\PSoC5/LED.c ****                 /* Exit when encountering non-zero number */
 979:Generated_Source\PSoC5/LED.c ****                 break;
 980:Generated_Source\PSoC5/LED.c ****             }
 981:Generated_Source\PSoC5/LED.c ****             else
 982:Generated_Source\PSoC5/LED.c ****             {
 983:Generated_Source\PSoC5/LED.c ****                 if(zeroCount != (digits - 1u))
 984:Generated_Source\PSoC5/LED.c ****                 {
 985:Generated_Source\PSoC5/LED.c ****                     /* Turn off the display */
 986:Generated_Source\PSoC5/LED.c ****                     bufArray[i] = LED_CLEAR;
 987:Generated_Source\PSoC5/LED.c ****                     zeroCount++;
 988:Generated_Source\PSoC5/LED.c ****                 }
 989:Generated_Source\PSoC5/LED.c ****             }    
 990:Generated_Source\PSoC5/LED.c ****         }
 991:Generated_Source\PSoC5/LED.c ****     }
 992:Generated_Source\PSoC5/LED.c ****     
 993:Generated_Source\PSoC5/LED.c ****     /* Place the values in the segment array according to alignment */
 994:Generated_Source\PSoC5/LED.c ****     if(alignment == LED_LEFT_ALIGN)
 995:Generated_Source\PSoC5/LED.c ****     {
 996:Generated_Source\PSoC5/LED.c ****         for(i = 0u; i < digits; i++)
 997:Generated_Source\PSoC5/LED.c ****         {
 998:Generated_Source\PSoC5/LED.c ****             if(bufArray[i] != LED_CLEAR)
 999:Generated_Source\PSoC5/LED.c ****             {
1000:Generated_Source\PSoC5/LED.c ****                 if(relPosition < LED_NUM_COM)
1001:Generated_Source\PSoC5/LED.c ****                 {
1002:Generated_Source\PSoC5/LED.c ****                     /* Only show displays that are not empty */
1003:Generated_Source\PSoC5/LED.c ****                     switch(choiceReg)
1004:Generated_Source\PSoC5/LED.c ****                     {
1005:Generated_Source\PSoC5/LED.c ****                         case LED_SEG_REG_LOW :
1006:Generated_Source\PSoC5/LED.c ****                             LED_segLBuffer[relPosition] = bufArray[i];
1007:Generated_Source\PSoC5/LED.c ****                             break;
1008:Generated_Source\PSoC5/LED.c ****                         case LED_SEG_REG_MID :
1009:Generated_Source\PSoC5/LED.c ****                             #if (LED_NUM_SEG > 8u)
1010:Generated_Source\PSoC5/LED.c ****                                 LED_segMBuffer[relPosition] = bufArray[i];
1011:Generated_Source\PSoC5/LED.c ****                             #endif /* (LED_NUM_SEG > 8u) */
1012:Generated_Source\PSoC5/LED.c ****                             break;
1013:Generated_Source\PSoC5/LED.c ****                         case LED_SEG_REG_HIGH :
1014:Generated_Source\PSoC5/LED.c ****                             #if (LED_NUM_SEG > 16u)
1015:Generated_Source\PSoC5/LED.c ****                                 LED_segHBuffer[relPosition] = bufArray[i];
1016:Generated_Source\PSoC5/LED.c ****                             #endif /* (LED_NUM_SEG > 16u) */
1017:Generated_Source\PSoC5/LED.c ****                             break;
1018:Generated_Source\PSoC5/LED.c ****                         default :
1019:Generated_Source\PSoC5/LED.c ****                             LED_segLBuffer[relPosition] = bufArray[i];
1020:Generated_Source\PSoC5/LED.c ****                             break;
1021:Generated_Source\PSoC5/LED.c ****                     }
1022:Generated_Source\PSoC5/LED.c ****                 }
1023:Generated_Source\PSoC5/LED.c ****                 relPosition++;
1024:Generated_Source\PSoC5/LED.c ****             }
1025:Generated_Source\PSoC5/LED.c ****         }
1026:Generated_Source\PSoC5/LED.c ****         /* Clear the rest of the positions to the right of value */
1027:Generated_Source\PSoC5/LED.c ****         while(relPosition < digits)
ARM GAS  C:\Users\Tri94\AppData\Local\Temp\cc3LbiXl.s 			page 34


1028:Generated_Source\PSoC5/LED.c ****         {
1029:Generated_Source\PSoC5/LED.c ****             switch(choiceReg)
1030:Generated_Source\PSoC5/LED.c ****             {
1031:Generated_Source\PSoC5/LED.c ****                 case LED_SEG_REG_LOW :
1032:Generated_Source\PSoC5/LED.c ****                     LED_segLBuffer[relPosition] = LED_CLEAR;
1033:Generated_Source\PSoC5/LED.c ****                     break;
1034:Generated_Source\PSoC5/LED.c ****                 case LED_SEG_REG_MID :
1035:Generated_Source\PSoC5/LED.c ****                     #if (LED_NUM_SEG > 8u)
1036:Generated_Source\PSoC5/LED.c ****                         LED_segMBuffer[relPosition] = LED_CLEAR;
1037:Generated_Source\PSoC5/LED.c ****                     #endif /* (LED_NUM_SEG > 8u) */
1038:Generated_Source\PSoC5/LED.c ****                     break;
1039:Generated_Source\PSoC5/LED.c ****                 case LED_SEG_REG_HIGH :
1040:Generated_Source\PSoC5/LED.c ****                     #if (LED_NUM_SEG > 16u)
1041:Generated_Source\PSoC5/LED.c ****                         LED_segHBuffer[relPosition] = LED_CLEAR;
1042:Generated_Source\PSoC5/LED.c ****                     #endif /* (LED_NUM_SEG > 16u) */
1043:Generated_Source\PSoC5/LED.c ****                     break;
1044:Generated_Source\PSoC5/LED.c ****                 default :
1045:Generated_Source\PSoC5/LED.c ****                     LED_segLBuffer[relPosition] = LED_CLEAR;
1046:Generated_Source\PSoC5/LED.c ****                     break;
1047:Generated_Source\PSoC5/LED.c ****             }
1048:Generated_Source\PSoC5/LED.c ****             relPosition++;
1049:Generated_Source\PSoC5/LED.c ****         }
1050:Generated_Source\PSoC5/LED.c ****     }
1051:Generated_Source\PSoC5/LED.c ****     else
1052:Generated_Source\PSoC5/LED.c ****     {
1053:Generated_Source\PSoC5/LED.c ****         /* Alignment for Right and zero padded */
1054:Generated_Source\PSoC5/LED.c ****         for(i = digits; i > 0u; i--)
1055:Generated_Source\PSoC5/LED.c ****         {
1056:Generated_Source\PSoC5/LED.c ****             if(((i + relPosition) - 1u) < LED_NUM_COM)
1057:Generated_Source\PSoC5/LED.c ****             {
1058:Generated_Source\PSoC5/LED.c ****                 /* Decide which row to use */
1059:Generated_Source\PSoC5/LED.c ****                 switch(choiceReg)
1060:Generated_Source\PSoC5/LED.c ****                 {
1061:Generated_Source\PSoC5/LED.c ****                     case LED_SEG_REG_LOW :
1062:Generated_Source\PSoC5/LED.c ****                         LED_segLBuffer[(i + relPosition) - 1u] = bufArray[i-1u];
1063:Generated_Source\PSoC5/LED.c ****                         break;
1064:Generated_Source\PSoC5/LED.c ****                     case LED_SEG_REG_MID :
1065:Generated_Source\PSoC5/LED.c ****                         #if (LED_NUM_SEG > 8u)
1066:Generated_Source\PSoC5/LED.c ****                             LED_segMBuffer[(i + relPosition) - 1u] = bufArray[i-1u];
1067:Generated_Source\PSoC5/LED.c ****                         #endif /* (LED_NUM_SEG > 8u) */
1068:Generated_Source\PSoC5/LED.c ****                         break;
1069:Generated_Source\PSoC5/LED.c ****                     case LED_SEG_REG_HIGH :
1070:Generated_Source\PSoC5/LED.c ****                         #if (LED_NUM_SEG > 16u)
1071:Generated_Source\PSoC5/LED.c ****                             LED_segHBuffer[(i + relPosition) - 1u] = bufArray[i-1u];
1072:Generated_Source\PSoC5/LED.c ****                         #endif /* (LED_NUM_SEG > 16u) */
1073:Generated_Source\PSoC5/LED.c ****                         break;
1074:Generated_Source\PSoC5/LED.c ****                     default :
1075:Generated_Source\PSoC5/LED.c ****                         LED_segLBuffer[(i + relPosition) - 1u] = bufArray[i-1u];
1076:Generated_Source\PSoC5/LED.c ****                         break;
1077:Generated_Source\PSoC5/LED.c ****                 }
1078:Generated_Source\PSoC5/LED.c ****             }
1079:Generated_Source\PSoC5/LED.c ****         }
1080:Generated_Source\PSoC5/LED.c ****     }
1081:Generated_Source\PSoC5/LED.c **** }
1082:Generated_Source\PSoC5/LED.c **** 
1083:Generated_Source\PSoC5/LED.c **** 
1084:Generated_Source\PSoC5/LED.c **** /*******************************************************************************
ARM GAS  C:\Users\Tri94\AppData\Local\Temp\cc3LbiXl.s 			page 35


1085:Generated_Source\PSoC5/LED.c **** * Function Name: LED_Write7SegNumberHex
1086:Generated_Source\PSoC5/LED.c **** ********************************************************************************
1087:Generated_Source\PSoC5/LED.c **** *
1088:Generated_Source\PSoC5/LED.c **** * Summary:
1089:Generated_Source\PSoC5/LED.c **** *  Displays a hexadecimal number up to 8 characters long, starting at 'position'
1090:Generated_Source\PSoC5/LED.c **** *  and extending for 'digits' characters. If you do not use the correct number 
1091:Generated_Source\PSoC5/LED.c **** *  of digits for your number, the least significant digits will be displayed. 
1092:Generated_Source\PSoC5/LED.c **** *  For example, if value is 0xDEADBEEF, display is 0 and digits is 4, the result 
1093:Generated_Source\PSoC5/LED.c **** *  will be: BEEF.
1094:Generated_Source\PSoC5/LED.c **** *
1095:Generated_Source\PSoC5/LED.c **** * Parameters:
1096:Generated_Source\PSoC5/LED.c **** *  uint32 number: The hexadecimal number to display. It is the responsibility of
1097:Generated_Source\PSoC5/LED.c **** *                 the user to ensure that the display has enough digits to 
1098:Generated_Source\PSoC5/LED.c **** *                 accurately representthe number passed to this function. If 
1099:Generated_Source\PSoC5/LED.c **** *                 not, the least significant digits will be displayed.
1100:Generated_Source\PSoC5/LED.c **** *  uint8 position: Position of the Display/Common to start number.
1101:Generated_Source\PSoC5/LED.c **** *  uint8 digits: The number of digits you wish to use to display the value 
1102:Generated_Source\PSoC5/LED.c **** *                passed into the function. If you do not use the correct number 
1103:Generated_Source\PSoC5/LED.c **** *                of digits for your number, the least significant digits will be
1104:Generated_Source\PSoC5/LED.c **** *                displayed.
1105:Generated_Source\PSoC5/LED.c **** *  uint8 alignment: How to align the provided number in the allocated digits.
1106:Generated_Source\PSoC5/LED.c **** *       RIGHT_ALIGN - Least significant digit occupies the rightmost digit
1107:Generated_Source\PSoC5/LED.c **** *                     (position + digits). Unused digits are turned off unless
1108:Generated_Source\PSoC5/LED.c **** *                     ZERO_PAD enabled.
1109:Generated_Source\PSoC5/LED.c **** *       LEFT_ALIGN - Most significant digit (or negative sign) occupies the
1110:Generated_Source\PSoC5/LED.c **** *                    digit specified by position. Unused digits are turned off.
1111:Generated_Source\PSoC5/LED.c **** *       ZERO_PAD - Unused digits to the left are padded with leading zeros.
1112:Generated_Source\PSoC5/LED.c **** *
1113:Generated_Source\PSoC5/LED.c **** * Return:
1114:Generated_Source\PSoC5/LED.c **** *  None
1115:Generated_Source\PSoC5/LED.c **** *
1116:Generated_Source\PSoC5/LED.c **** * Side effects:
1117:Generated_Source\PSoC5/LED.c **** *  None
1118:Generated_Source\PSoC5/LED.c **** *
1119:Generated_Source\PSoC5/LED.c **** *******************************************************************************/
1120:Generated_Source\PSoC5/LED.c **** void LED_Write7SegNumberHex(uint32 number, uint8 position, uint8 digits, uint8 alignment)
1121:Generated_Source\PSoC5/LED.c **** 
1122:Generated_Source\PSoC5/LED.c **** {
1123:Generated_Source\PSoC5/LED.c ****     uint8 i;
1124:Generated_Source\PSoC5/LED.c ****     uint8 relPosition;
1125:Generated_Source\PSoC5/LED.c ****     uint8 choiceReg;
1126:Generated_Source\PSoC5/LED.c ****     uint8 selectVal;
1127:Generated_Source\PSoC5/LED.c ****     uint8 zeroCount = 0u;
1128:Generated_Source\PSoC5/LED.c ****     uint8 bufArray[8u] = {0u};
1129:Generated_Source\PSoC5/LED.c ****     uint32 numberVal;
1130:Generated_Source\PSoC5/LED.c ****         
1131:Generated_Source\PSoC5/LED.c ****     numberVal = number;
1132:Generated_Source\PSoC5/LED.c ****     
1133:Generated_Source\PSoC5/LED.c ****     /* Choose to use either the low, mid or high control registers */
1134:Generated_Source\PSoC5/LED.c ****     if(position < LED_NUM_COM)
1135:Generated_Source\PSoC5/LED.c ****     {
1136:Generated_Source\PSoC5/LED.c ****         choiceReg = LED_SEG_REG_LOW;
1137:Generated_Source\PSoC5/LED.c ****         relPosition = position;
1138:Generated_Source\PSoC5/LED.c ****     }
1139:Generated_Source\PSoC5/LED.c ****     else if (position < LED_TWO_NUM_COM)
1140:Generated_Source\PSoC5/LED.c ****     {
1141:Generated_Source\PSoC5/LED.c ****         choiceReg = LED_SEG_REG_MID;
ARM GAS  C:\Users\Tri94\AppData\Local\Temp\cc3LbiXl.s 			page 36


1142:Generated_Source\PSoC5/LED.c ****         relPosition = position - LED_NUM_COM;
1143:Generated_Source\PSoC5/LED.c ****     }
1144:Generated_Source\PSoC5/LED.c ****     else
1145:Generated_Source\PSoC5/LED.c ****     {
1146:Generated_Source\PSoC5/LED.c ****         choiceReg = LED_SEG_REG_HIGH;
1147:Generated_Source\PSoC5/LED.c ****         relPosition = position - LED_TWO_NUM_COM;
1148:Generated_Source\PSoC5/LED.c ****     }
1149:Generated_Source\PSoC5/LED.c ****     
1150:Generated_Source\PSoC5/LED.c ****     /* Fill up the temporary array */
1151:Generated_Source\PSoC5/LED.c ****     for(i = digits; i > 0u; i--)
1152:Generated_Source\PSoC5/LED.c ****     {
1153:Generated_Source\PSoC5/LED.c ****         selectVal = (uint8)((uint8)numberVal & LED_NIBBLE_MASK);
1154:Generated_Source\PSoC5/LED.c ****         bufArray[i-1u] = LED_EncodeNumber7Seg(selectVal);
1155:Generated_Source\PSoC5/LED.c ****         numberVal = (uint32)((uint32)numberVal >> LED_SHIFT_NIBBLE);
1156:Generated_Source\PSoC5/LED.c ****     }
1157:Generated_Source\PSoC5/LED.c ****     
1158:Generated_Source\PSoC5/LED.c ****     /* Clean up the array */
1159:Generated_Source\PSoC5/LED.c ****     if(alignment != LED_ZERO_PAD)
1160:Generated_Source\PSoC5/LED.c ****     {
1161:Generated_Source\PSoC5/LED.c ****         for(i = 0u; i < digits; i++)
1162:Generated_Source\PSoC5/LED.c ****         {
1163:Generated_Source\PSoC5/LED.c ****             if (bufArray[i] != LED_ZERO_7CHAR)
1164:Generated_Source\PSoC5/LED.c ****             {
1165:Generated_Source\PSoC5/LED.c ****                 /* Exit when encountering non-zero number */
1166:Generated_Source\PSoC5/LED.c ****                 break;
1167:Generated_Source\PSoC5/LED.c ****             }
1168:Generated_Source\PSoC5/LED.c ****             else
1169:Generated_Source\PSoC5/LED.c ****             {
1170:Generated_Source\PSoC5/LED.c ****                 if(zeroCount != (digits - 1u))
1171:Generated_Source\PSoC5/LED.c ****                 {
1172:Generated_Source\PSoC5/LED.c ****                     /* Turn off the display */
1173:Generated_Source\PSoC5/LED.c ****                     bufArray[i] = LED_CLEAR;
1174:Generated_Source\PSoC5/LED.c ****                     zeroCount++;
1175:Generated_Source\PSoC5/LED.c ****                 }
1176:Generated_Source\PSoC5/LED.c ****             }    
1177:Generated_Source\PSoC5/LED.c ****         }
1178:Generated_Source\PSoC5/LED.c ****     }
1179:Generated_Source\PSoC5/LED.c ****     
1180:Generated_Source\PSoC5/LED.c ****     /* Place the values in the segment array according to alignment */
1181:Generated_Source\PSoC5/LED.c ****     if(alignment == LED_LEFT_ALIGN)
1182:Generated_Source\PSoC5/LED.c ****     {
1183:Generated_Source\PSoC5/LED.c ****         for(i = 0u; i < digits; i++)
1184:Generated_Source\PSoC5/LED.c ****         {
1185:Generated_Source\PSoC5/LED.c ****             if(bufArray[i] != LED_CLEAR)
1186:Generated_Source\PSoC5/LED.c ****             {
1187:Generated_Source\PSoC5/LED.c ****                 if(relPosition < LED_NUM_COM)
1188:Generated_Source\PSoC5/LED.c ****                 {
1189:Generated_Source\PSoC5/LED.c ****                     /* Only show displays that are not empty */
1190:Generated_Source\PSoC5/LED.c ****                     switch(choiceReg)
1191:Generated_Source\PSoC5/LED.c ****                     {
1192:Generated_Source\PSoC5/LED.c ****                         case LED_SEG_REG_LOW :
1193:Generated_Source\PSoC5/LED.c ****                             LED_segLBuffer[relPosition] = bufArray[i];
1194:Generated_Source\PSoC5/LED.c ****                             break;
1195:Generated_Source\PSoC5/LED.c ****                         case LED_SEG_REG_MID :
1196:Generated_Source\PSoC5/LED.c ****                             #if (LED_NUM_SEG > 8u)
1197:Generated_Source\PSoC5/LED.c ****                                 LED_segMBuffer[relPosition] = bufArray[i];
1198:Generated_Source\PSoC5/LED.c ****                             #endif /* (LED_NUM_SEG > 8u) */
ARM GAS  C:\Users\Tri94\AppData\Local\Temp\cc3LbiXl.s 			page 37


1199:Generated_Source\PSoC5/LED.c ****                             break;
1200:Generated_Source\PSoC5/LED.c ****                         case LED_SEG_REG_HIGH :
1201:Generated_Source\PSoC5/LED.c ****                             #if (LED_NUM_SEG > 16u)
1202:Generated_Source\PSoC5/LED.c ****                                 LED_segHBuffer[relPosition] = bufArray[i];
1203:Generated_Source\PSoC5/LED.c ****                             #endif /* (LED_NUM_SEG > 16u) */
1204:Generated_Source\PSoC5/LED.c ****                             break;
1205:Generated_Source\PSoC5/LED.c ****                         default :
1206:Generated_Source\PSoC5/LED.c ****                             LED_segLBuffer[relPosition] = bufArray[i];
1207:Generated_Source\PSoC5/LED.c ****                             break;
1208:Generated_Source\PSoC5/LED.c ****                     }
1209:Generated_Source\PSoC5/LED.c ****                 }
1210:Generated_Source\PSoC5/LED.c ****                 relPosition++;
1211:Generated_Source\PSoC5/LED.c ****             }
1212:Generated_Source\PSoC5/LED.c ****         }
1213:Generated_Source\PSoC5/LED.c ****         /* Clear the rest of the positions to the right of value */
1214:Generated_Source\PSoC5/LED.c ****         while(relPosition < digits)
1215:Generated_Source\PSoC5/LED.c ****         {
1216:Generated_Source\PSoC5/LED.c ****             switch(choiceReg)
1217:Generated_Source\PSoC5/LED.c ****             {
1218:Generated_Source\PSoC5/LED.c ****                 case LED_SEG_REG_LOW :
1219:Generated_Source\PSoC5/LED.c ****                     LED_segLBuffer[relPosition] = LED_CLEAR;
1220:Generated_Source\PSoC5/LED.c ****                     break;
1221:Generated_Source\PSoC5/LED.c ****                 case LED_SEG_REG_MID :
1222:Generated_Source\PSoC5/LED.c ****                     #if (LED_NUM_SEG > 8u)
1223:Generated_Source\PSoC5/LED.c ****                         LED_segMBuffer[relPosition] = LED_CLEAR;
1224:Generated_Source\PSoC5/LED.c ****                     #endif /* (LED_NUM_SEG > 8u) */
1225:Generated_Source\PSoC5/LED.c ****                     break;
1226:Generated_Source\PSoC5/LED.c ****                 case LED_SEG_REG_HIGH :
1227:Generated_Source\PSoC5/LED.c ****                     #if (LED_NUM_SEG > 16u)
1228:Generated_Source\PSoC5/LED.c ****                         LED_segHBuffer[relPosition] = LED_CLEAR;
1229:Generated_Source\PSoC5/LED.c ****                     #endif /* (LED_NUM_SEG > 16u) */
1230:Generated_Source\PSoC5/LED.c ****                     break;
1231:Generated_Source\PSoC5/LED.c ****                 default :
1232:Generated_Source\PSoC5/LED.c ****                     LED_segLBuffer[relPosition] = LED_CLEAR;
1233:Generated_Source\PSoC5/LED.c ****                     break;
1234:Generated_Source\PSoC5/LED.c ****             }
1235:Generated_Source\PSoC5/LED.c ****             relPosition++;
1236:Generated_Source\PSoC5/LED.c ****         }
1237:Generated_Source\PSoC5/LED.c ****     }
1238:Generated_Source\PSoC5/LED.c ****     else
1239:Generated_Source\PSoC5/LED.c ****     {
1240:Generated_Source\PSoC5/LED.c ****         /* Alignment for right and zero padded */
1241:Generated_Source\PSoC5/LED.c ****         for(i = digits; i > 0u; i--)
1242:Generated_Source\PSoC5/LED.c ****         {
1243:Generated_Source\PSoC5/LED.c ****             if(((i + relPosition) - 1u) < LED_NUM_COM)
1244:Generated_Source\PSoC5/LED.c ****             {
1245:Generated_Source\PSoC5/LED.c ****                 /* Decide which row to use */
1246:Generated_Source\PSoC5/LED.c ****                 switch(choiceReg)
1247:Generated_Source\PSoC5/LED.c ****                 {
1248:Generated_Source\PSoC5/LED.c ****                     case LED_SEG_REG_LOW :
1249:Generated_Source\PSoC5/LED.c ****                         LED_segLBuffer[(i + relPosition) - 1u] = bufArray[i-1u];
1250:Generated_Source\PSoC5/LED.c ****                         break;
1251:Generated_Source\PSoC5/LED.c ****                     case LED_SEG_REG_MID :
1252:Generated_Source\PSoC5/LED.c ****                         #if (LED_NUM_SEG > 8u)
1253:Generated_Source\PSoC5/LED.c ****                             LED_segMBuffer[(i + relPosition) - 1u] = bufArray[i-1u];
1254:Generated_Source\PSoC5/LED.c ****                         #endif /* (LED_NUM_SEG > 8u) */
1255:Generated_Source\PSoC5/LED.c ****                         break;
ARM GAS  C:\Users\Tri94\AppData\Local\Temp\cc3LbiXl.s 			page 38


1256:Generated_Source\PSoC5/LED.c ****                     case LED_SEG_REG_HIGH :
1257:Generated_Source\PSoC5/LED.c ****                         #if (LED_NUM_SEG > 16u)
1258:Generated_Source\PSoC5/LED.c ****                             LED_segHBuffer[(i + relPosition) - 1u] = bufArray[i-1u];
1259:Generated_Source\PSoC5/LED.c ****                         #endif /* (LED_NUM_SEG > 16u) */
1260:Generated_Source\PSoC5/LED.c ****                         break;
1261:Generated_Source\PSoC5/LED.c ****                     default :
1262:Generated_Source\PSoC5/LED.c ****                         LED_segLBuffer[(i + relPosition) - 1u] = bufArray[i-1u];
1263:Generated_Source\PSoC5/LED.c ****                         break;
1264:Generated_Source\PSoC5/LED.c ****                 }
1265:Generated_Source\PSoC5/LED.c ****             }
1266:Generated_Source\PSoC5/LED.c ****         }
1267:Generated_Source\PSoC5/LED.c ****     }
1268:Generated_Source\PSoC5/LED.c **** }
1269:Generated_Source\PSoC5/LED.c **** 
1270:Generated_Source\PSoC5/LED.c **** 
1271:Generated_Source\PSoC5/LED.c **** /*******************************************************************************
1272:Generated_Source\PSoC5/LED.c **** * Function Name: LED_WriteString7Seg
1273:Generated_Source\PSoC5/LED.c **** ********************************************************************************
1274:Generated_Source\PSoC5/LED.c **** *
1275:Generated_Source\PSoC5/LED.c **** * Summary:
1276:Generated_Source\PSoC5/LED.c **** *  Displays a null terminated string starting at 'position' and ending at either
1277:Generated_Source\PSoC5/LED.c **** *  at the end the string or the end of the display. The displayable characters 
1278:Generated_Source\PSoC5/LED.c **** *  are the same for the LED_Driver_PutChar7Seg() function. Non-displayable
1279:Generated_Source\PSoC5/LED.c **** *  characters will produce a blank space.
1280:Generated_Source\PSoC5/LED.c **** *
1281:Generated_Source\PSoC5/LED.c **** * Parameters:
1282:Generated_Source\PSoC5/LED.c **** *  char8 const character[]: The null terminated string to be displayed.
1283:Generated_Source\PSoC5/LED.c **** *  uint8 position: The position to start the string.
1284:Generated_Source\PSoC5/LED.c **** *
1285:Generated_Source\PSoC5/LED.c **** * Return:
1286:Generated_Source\PSoC5/LED.c **** *  None
1287:Generated_Source\PSoC5/LED.c **** *
1288:Generated_Source\PSoC5/LED.c **** * Side effects:
1289:Generated_Source\PSoC5/LED.c **** *  None
1290:Generated_Source\PSoC5/LED.c **** *
1291:Generated_Source\PSoC5/LED.c **** *******************************************************************************/
1292:Generated_Source\PSoC5/LED.c **** void LED_WriteString7Seg(char8 const character[], uint8 position)
1293:Generated_Source\PSoC5/LED.c **** 
1294:Generated_Source\PSoC5/LED.c **** {
1295:Generated_Source\PSoC5/LED.c ****     uint8 relPosition;
1296:Generated_Source\PSoC5/LED.c ****     uint8 sizeLimit;
1297:Generated_Source\PSoC5/LED.c ****     uint8 i = 0u;
1298:Generated_Source\PSoC5/LED.c ****     
1299:Generated_Source\PSoC5/LED.c ****     if(position < LED_NUM_COM)
1300:Generated_Source\PSoC5/LED.c ****     {
1301:Generated_Source\PSoC5/LED.c ****         sizeLimit = (uint8)(strlen(character)) + position;
1302:Generated_Source\PSoC5/LED.c ****         for(relPosition = position; relPosition < LED_NUM_COM; relPosition++)
1303:Generated_Source\PSoC5/LED.c ****         {
1304:Generated_Source\PSoC5/LED.c ****             if(relPosition < sizeLimit)
1305:Generated_Source\PSoC5/LED.c ****             {
1306:Generated_Source\PSoC5/LED.c ****                 LED_segLBuffer[relPosition] = LED_EncodeChar7Seg(character[i]);
1307:Generated_Source\PSoC5/LED.c ****                 i++;
1308:Generated_Source\PSoC5/LED.c ****             }
1309:Generated_Source\PSoC5/LED.c ****         }
1310:Generated_Source\PSoC5/LED.c ****     }    
1311:Generated_Source\PSoC5/LED.c ****     else if (position < LED_TWO_NUM_COM)
1312:Generated_Source\PSoC5/LED.c ****     {
ARM GAS  C:\Users\Tri94\AppData\Local\Temp\cc3LbiXl.s 			page 39


1313:Generated_Source\PSoC5/LED.c ****         #if (LED_NUM_SEG > 8u) 
1314:Generated_Source\PSoC5/LED.c ****             sizeLimit = ((uint8)(strlen(character)) + position) - LED_NUM_COM;
1315:Generated_Source\PSoC5/LED.c ****             for(relPosition = position - LED_NUM_COM;
1316:Generated_Source\PSoC5/LED.c ****                 relPosition < LED_NUM_COM; 
1317:Generated_Source\PSoC5/LED.c ****                 relPosition++)
1318:Generated_Source\PSoC5/LED.c ****             {
1319:Generated_Source\PSoC5/LED.c ****                 if(relPosition < sizeLimit)
1320:Generated_Source\PSoC5/LED.c ****                 {
1321:Generated_Source\PSoC5/LED.c ****                     LED_segMBuffer[relPosition] = LED_EncodeChar7Seg(character[i]);
1322:Generated_Source\PSoC5/LED.c ****                     i++;
1323:Generated_Source\PSoC5/LED.c ****                 }
1324:Generated_Source\PSoC5/LED.c ****             }
1325:Generated_Source\PSoC5/LED.c ****         #endif /* (LED_NUM_SEG > 8u) */
1326:Generated_Source\PSoC5/LED.c ****     }
1327:Generated_Source\PSoC5/LED.c ****     else
1328:Generated_Source\PSoC5/LED.c ****     {
1329:Generated_Source\PSoC5/LED.c ****         #if (LED_NUM_SEG > 16u)
1330:Generated_Source\PSoC5/LED.c ****             sizeLimit = ((uint8)(strlen(character)) + position) - LED_TWO_NUM_COM;
1331:Generated_Source\PSoC5/LED.c ****             for(relPosition = position - LED_TWO_NUM_COM;
1332:Generated_Source\PSoC5/LED.c ****                 relPosition < LED_NUM_COM; 
1333:Generated_Source\PSoC5/LED.c ****                 relPosition++)
1334:Generated_Source\PSoC5/LED.c ****             {
1335:Generated_Source\PSoC5/LED.c ****                 if(relPosition < sizeLimit)
1336:Generated_Source\PSoC5/LED.c ****                 {
1337:Generated_Source\PSoC5/LED.c ****                     LED_segHBuffer[relPosition] = LED_EncodeChar7Seg(character[i]);
1338:Generated_Source\PSoC5/LED.c ****                     i++;
1339:Generated_Source\PSoC5/LED.c ****                 }    
1340:Generated_Source\PSoC5/LED.c ****             }
1341:Generated_Source\PSoC5/LED.c ****         #endif /* (LED_NUM_SEG > 16u) */
1342:Generated_Source\PSoC5/LED.c ****     }
1343:Generated_Source\PSoC5/LED.c **** }
1344:Generated_Source\PSoC5/LED.c **** 
1345:Generated_Source\PSoC5/LED.c **** 
1346:Generated_Source\PSoC5/LED.c **** /*******************************************************************************
1347:Generated_Source\PSoC5/LED.c **** * Function Name: LED_PutChar7Seg
1348:Generated_Source\PSoC5/LED.c **** ********************************************************************************
1349:Generated_Source\PSoC5/LED.c **** *
1350:Generated_Source\PSoC5/LED.c **** * Summary:
1351:Generated_Source\PSoC5/LED.c **** *  Displays an ascii encoded character at 'position'. This function can display 
1352:Generated_Source\PSoC5/LED.c **** *  all alphanumeric characters. The function can also display '-', '.', '_', 
1353:Generated_Source\PSoC5/LED.c **** *  ' ', and '='. All unknown characters are displayed as a space.
1354:Generated_Source\PSoC5/LED.c **** *
1355:Generated_Source\PSoC5/LED.c **** * Parameters:
1356:Generated_Source\PSoC5/LED.c **** *  char8 character: ASCII character.
1357:Generated_Source\PSoC5/LED.c **** *  uint8 position: The position of the character.
1358:Generated_Source\PSoC5/LED.c **** *
1359:Generated_Source\PSoC5/LED.c **** * Return:
1360:Generated_Source\PSoC5/LED.c **** *  None
1361:Generated_Source\PSoC5/LED.c **** *
1362:Generated_Source\PSoC5/LED.c **** * Side effects:
1363:Generated_Source\PSoC5/LED.c **** *  None
1364:Generated_Source\PSoC5/LED.c **** *
1365:Generated_Source\PSoC5/LED.c **** *******************************************************************************/
1366:Generated_Source\PSoC5/LED.c **** void LED_PutChar7Seg(char8 character , uint8 position)
1367:Generated_Source\PSoC5/LED.c **** 
1368:Generated_Source\PSoC5/LED.c **** {
1369:Generated_Source\PSoC5/LED.c ****     uint8 relPosition;
ARM GAS  C:\Users\Tri94\AppData\Local\Temp\cc3LbiXl.s 			page 40


1370:Generated_Source\PSoC5/LED.c ****     
1371:Generated_Source\PSoC5/LED.c ****     if(position < LED_NUM_COM)
1372:Generated_Source\PSoC5/LED.c ****     {
1373:Generated_Source\PSoC5/LED.c ****         relPosition = position;
1374:Generated_Source\PSoC5/LED.c ****         LED_segLBuffer[relPosition] = LED_EncodeChar7Seg(character);
1375:Generated_Source\PSoC5/LED.c ****     }    
1376:Generated_Source\PSoC5/LED.c ****     else if (position < LED_TWO_NUM_COM)
1377:Generated_Source\PSoC5/LED.c ****     {
1378:Generated_Source\PSoC5/LED.c ****         #if (LED_NUM_SEG > 8u) 
1379:Generated_Source\PSoC5/LED.c ****             relPosition = position - LED_NUM_COM;
1380:Generated_Source\PSoC5/LED.c ****             LED_segMBuffer[relPosition] = LED_EncodeChar7Seg(character);
1381:Generated_Source\PSoC5/LED.c ****         #endif /* (LED_NUM_SEG > 8u) */
1382:Generated_Source\PSoC5/LED.c ****     }
1383:Generated_Source\PSoC5/LED.c ****     else
1384:Generated_Source\PSoC5/LED.c ****     {
1385:Generated_Source\PSoC5/LED.c ****         #if (LED_NUM_SEG > 16u)
1386:Generated_Source\PSoC5/LED.c ****             relPosition = position - LED_TWO_NUM_COM;
1387:Generated_Source\PSoC5/LED.c ****             if(relPosition < LED_NUM_COM)
1388:Generated_Source\PSoC5/LED.c ****             {
1389:Generated_Source\PSoC5/LED.c ****                 LED_segHBuffer[relPosition] = LED_EncodeChar7Seg(character);
1390:Generated_Source\PSoC5/LED.c ****             }
1391:Generated_Source\PSoC5/LED.c ****         #endif /* (LED_NUM_SEG > 16u) */
1392:Generated_Source\PSoC5/LED.c ****     }
1393:Generated_Source\PSoC5/LED.c **** }
1394:Generated_Source\PSoC5/LED.c **** 
1395:Generated_Source\PSoC5/LED.c **** 
1396:Generated_Source\PSoC5/LED.c **** /*******************************************************************************
1397:Generated_Source\PSoC5/LED.c **** * Function Name: LED_Write7SegDigitDec
1398:Generated_Source\PSoC5/LED.c **** ********************************************************************************
1399:Generated_Source\PSoC5/LED.c **** *
1400:Generated_Source\PSoC5/LED.c **** * Summary:
1401:Generated_Source\PSoC5/LED.c **** *  Displays a single digit on the specified display. The number in 'digit' 
1402:Generated_Source\PSoC5/LED.c **** *  (0-9) is placed on 'position.'
1403:Generated_Source\PSoC5/LED.c **** *
1404:Generated_Source\PSoC5/LED.c **** * Parameters:
1405:Generated_Source\PSoC5/LED.c **** *  uint8 digit: A number between 0 and 9 to display.
1406:Generated_Source\PSoC5/LED.c **** *  uint8 position: Position of the display in which to place the number.
1407:Generated_Source\PSoC5/LED.c **** *
1408:Generated_Source\PSoC5/LED.c **** * Return:
1409:Generated_Source\PSoC5/LED.c **** *  None
1410:Generated_Source\PSoC5/LED.c **** *
1411:Generated_Source\PSoC5/LED.c **** * Side effects:
1412:Generated_Source\PSoC5/LED.c **** *  None
1413:Generated_Source\PSoC5/LED.c **** *
1414:Generated_Source\PSoC5/LED.c **** *******************************************************************************/
1415:Generated_Source\PSoC5/LED.c **** void LED_Write7SegDigitDec(uint8 digit, uint8 position)
1416:Generated_Source\PSoC5/LED.c **** 
1417:Generated_Source\PSoC5/LED.c **** {
1418:Generated_Source\PSoC5/LED.c ****     uint8 relPosition;
1419:Generated_Source\PSoC5/LED.c ****     
1420:Generated_Source\PSoC5/LED.c ****     /* Only display numerical values */
1421:Generated_Source\PSoC5/LED.c ****     if (digit < 10u)
1422:Generated_Source\PSoC5/LED.c ****     {
1423:Generated_Source\PSoC5/LED.c ****         if(position < LED_NUM_COM)
1424:Generated_Source\PSoC5/LED.c ****         {
1425:Generated_Source\PSoC5/LED.c ****             relPosition = position;
1426:Generated_Source\PSoC5/LED.c ****             LED_segLBuffer[relPosition] = LED_EncodeNumber7Seg(digit);
ARM GAS  C:\Users\Tri94\AppData\Local\Temp\cc3LbiXl.s 			page 41


1427:Generated_Source\PSoC5/LED.c ****         }    
1428:Generated_Source\PSoC5/LED.c ****         else if (position < LED_TWO_NUM_COM)
1429:Generated_Source\PSoC5/LED.c ****         {
1430:Generated_Source\PSoC5/LED.c ****             #if (LED_NUM_SEG > 8u)
1431:Generated_Source\PSoC5/LED.c ****                 relPosition = position - LED_NUM_COM;
1432:Generated_Source\PSoC5/LED.c ****                 LED_segMBuffer[relPosition] = LED_EncodeNumber7Seg(digit);
1433:Generated_Source\PSoC5/LED.c ****             #endif /* (LED_NUM_SEG > 8u) */
1434:Generated_Source\PSoC5/LED.c ****         } 
1435:Generated_Source\PSoC5/LED.c ****         else
1436:Generated_Source\PSoC5/LED.c ****         {
1437:Generated_Source\PSoC5/LED.c ****             #if (LED_NUM_SEG > 16u)
1438:Generated_Source\PSoC5/LED.c ****                 relPosition = position - LED_TWO_NUM_COM;
1439:Generated_Source\PSoC5/LED.c ****                 if(relPosition < LED_TWO_NUM_COM)
1440:Generated_Source\PSoC5/LED.c ****                 {
1441:Generated_Source\PSoC5/LED.c ****                     LED_segHBuffer[relPosition] = LED_EncodeNumber7Seg(digit);
1442:Generated_Source\PSoC5/LED.c ****                 }
1443:Generated_Source\PSoC5/LED.c ****             #endif /* (LED_NUM_SEG > 16u) */
1444:Generated_Source\PSoC5/LED.c ****         }
1445:Generated_Source\PSoC5/LED.c ****     }
1446:Generated_Source\PSoC5/LED.c **** }
1447:Generated_Source\PSoC5/LED.c **** 
1448:Generated_Source\PSoC5/LED.c **** 
1449:Generated_Source\PSoC5/LED.c **** /*******************************************************************************
1450:Generated_Source\PSoC5/LED.c **** * Function Name: LED_Write7SegDigitHex
1451:Generated_Source\PSoC5/LED.c **** ********************************************************************************
1452:Generated_Source\PSoC5/LED.c **** *
1453:Generated_Source\PSoC5/LED.c **** * Summary:
1454:Generated_Source\PSoC5/LED.c **** *  Displays a single digit at the specified position. The number in 'digit' 
1455:Generated_Source\PSoC5/LED.c **** *  (0-F) is placed on 'position'.
1456:Generated_Source\PSoC5/LED.c **** *
1457:Generated_Source\PSoC5/LED.c **** * Parameters:
1458:Generated_Source\PSoC5/LED.c **** *  uint8 digit: A number between 0x0 and 0xF (0 to 15)
1459:Generated_Source\PSoC5/LED.c **** *  uint8 position: The position in which to place the number.
1460:Generated_Source\PSoC5/LED.c **** *
1461:Generated_Source\PSoC5/LED.c **** * Return:
1462:Generated_Source\PSoC5/LED.c **** *  None
1463:Generated_Source\PSoC5/LED.c **** *
1464:Generated_Source\PSoC5/LED.c **** * Side effects:
1465:Generated_Source\PSoC5/LED.c **** *  None
1466:Generated_Source\PSoC5/LED.c **** *
1467:Generated_Source\PSoC5/LED.c **** *******************************************************************************/
1468:Generated_Source\PSoC5/LED.c **** void LED_Write7SegDigitHex(uint8 digit, uint8 position)
1469:Generated_Source\PSoC5/LED.c **** 
1470:Generated_Source\PSoC5/LED.c **** {
1471:Generated_Source\PSoC5/LED.c ****     uint8 relPosition;
1472:Generated_Source\PSoC5/LED.c ****     
1473:Generated_Source\PSoC5/LED.c ****     if(position < LED_NUM_COM)
1474:Generated_Source\PSoC5/LED.c ****     {
1475:Generated_Source\PSoC5/LED.c ****         relPosition = position;
1476:Generated_Source\PSoC5/LED.c ****         LED_segLBuffer[relPosition] = LED_EncodeNumber7Seg(digit);
1477:Generated_Source\PSoC5/LED.c ****     }    
1478:Generated_Source\PSoC5/LED.c ****     else if (position < LED_TWO_NUM_COM)
1479:Generated_Source\PSoC5/LED.c ****     {
1480:Generated_Source\PSoC5/LED.c ****         #if (LED_NUM_SEG > 8u) 
1481:Generated_Source\PSoC5/LED.c ****             relPosition = position - LED_NUM_COM;
1482:Generated_Source\PSoC5/LED.c ****             LED_segMBuffer[relPosition] = LED_EncodeNumber7Seg(digit);
1483:Generated_Source\PSoC5/LED.c ****         #endif /* (LED_NUM_SEG > 8u) */
ARM GAS  C:\Users\Tri94\AppData\Local\Temp\cc3LbiXl.s 			page 42


1484:Generated_Source\PSoC5/LED.c ****     }
1485:Generated_Source\PSoC5/LED.c ****     else
1486:Generated_Source\PSoC5/LED.c ****     {
1487:Generated_Source\PSoC5/LED.c ****         #if (LED_NUM_SEG > 16u)
1488:Generated_Source\PSoC5/LED.c ****             relPosition = position - LED_TWO_NUM_COM;
1489:Generated_Source\PSoC5/LED.c ****             if(relPosition < LED_NUM_COM)
1490:Generated_Source\PSoC5/LED.c ****             {
1491:Generated_Source\PSoC5/LED.c ****                 LED_segHBuffer[relPosition] = LED_EncodeNumber7Seg(digit);
1492:Generated_Source\PSoC5/LED.c ****             }
1493:Generated_Source\PSoC5/LED.c ****         #endif /* (LED_NUM_SEG > 16u) */
1494:Generated_Source\PSoC5/LED.c ****     }
1495:Generated_Source\PSoC5/LED.c **** }
1496:Generated_Source\PSoC5/LED.c **** 
1497:Generated_Source\PSoC5/LED.c **** 
1498:Generated_Source\PSoC5/LED.c **** /*******************************************************************************
1499:Generated_Source\PSoC5/LED.c **** * Function Name: LED_Write14SegNumberDec
1500:Generated_Source\PSoC5/LED.c **** ********************************************************************************
1501:Generated_Source\PSoC5/LED.c **** *
1502:Generated_Source\PSoC5/LED.c **** * Summary:
1503:Generated_Source\PSoC5/LED.c **** *  Displays a signed integer up to 8 characters long, starting at 'position' and
1504:Generated_Source\PSoC5/LED.c **** *  extending for 'digits' characters. The negative sign will take an extra digit
1505:Generated_Source\PSoC5/LED.c **** *  if it is required. If you do not use the correct number of digits for your 
1506:Generated_Source\PSoC5/LED.c **** *  number, only the least significant digits will be displayed.
1507:Generated_Source\PSoC5/LED.c **** *
1508:Generated_Source\PSoC5/LED.c **** * Parameters:
1509:Generated_Source\PSoC5/LED.c **** *  int32 number: a signed integer number to display. It is the responsibility 
1510:Generated_Source\PSoC5/LED.c **** *                of the user to ensure that the display has enough digits to 
1511:Generated_Source\PSoC5/LED.c **** *                accurately represent the number passed to this function. Note 
1512:Generated_Source\PSoC5/LED.c **** *                that a negative number will require 1 more digit than the 
1513:Generated_Source\PSoC5/LED.c **** *                equivalent positive number to display the negative sign.
1514:Generated_Source\PSoC5/LED.c **** *  uint8 position: Digit position of the Display/Common RAM to start.
1515:Generated_Source\PSoC5/LED.c **** *  uint8 digits: The number of digits you wish to use to display the value 
1516:Generated_Source\PSoC5/LED.c **** *                passed into the function. The negative sign will take an extra
1517:Generated_Source\PSoC5/LED.c **** *                digit if it is required.
1518:Generated_Source\PSoC5/LED.c **** *  uint8 alignment: How to align the provided number in the allocated digits.
1519:Generated_Source\PSoC5/LED.c **** *       RIGHT_ALIGN - Least significant digit occupies the rightmost digit
1520:Generated_Source\PSoC5/LED.c **** *                     (position + digits). Unused digits are turned off unless
1521:Generated_Source\PSoC5/LED.c **** *                     ZERO_PAD enabled.
1522:Generated_Source\PSoC5/LED.c **** *       LEFT_ALIGN - Most significant digit (or negative sign) occupies the
1523:Generated_Source\PSoC5/LED.c **** *                    digit specified by position. Unused digits are turned off.
1524:Generated_Source\PSoC5/LED.c **** *       ZERO_PAD - Unused digits to the left are padded with leading zeros.
1525:Generated_Source\PSoC5/LED.c **** * Return:
1526:Generated_Source\PSoC5/LED.c **** *  None
1527:Generated_Source\PSoC5/LED.c **** *
1528:Generated_Source\PSoC5/LED.c **** * Side effects:
1529:Generated_Source\PSoC5/LED.c **** *  None
1530:Generated_Source\PSoC5/LED.c **** *
1531:Generated_Source\PSoC5/LED.c **** *******************************************************************************/
1532:Generated_Source\PSoC5/LED.c **** void LED_Write14SegNumberDec(int32 number, uint8 position, uint8 digits, uint8 alignment)
1533:Generated_Source\PSoC5/LED.c **** 
1534:Generated_Source\PSoC5/LED.c **** {
1535:Generated_Source\PSoC5/LED.c ****     uint8 i;
1536:Generated_Source\PSoC5/LED.c ****     uint8 relPosition;
1537:Generated_Source\PSoC5/LED.c ****     uint8 numberSign;
1538:Generated_Source\PSoC5/LED.c ****     uint8 selectVal;
1539:Generated_Source\PSoC5/LED.c ****     uint8 zeroCount = 0u;
1540:Generated_Source\PSoC5/LED.c ****     uint16 bufArray[8u] = {0u};
ARM GAS  C:\Users\Tri94\AppData\Local\Temp\cc3LbiXl.s 			page 43


1541:Generated_Source\PSoC5/LED.c ****     uint32 numberVal;
1542:Generated_Source\PSoC5/LED.c ****         
1543:Generated_Source\PSoC5/LED.c ****     /* Routine to extract the sign and to convert to unsigned */
1544:Generated_Source\PSoC5/LED.c ****     if(number >= LED_ZERO_NEG)
1545:Generated_Source\PSoC5/LED.c ****     {
1546:Generated_Source\PSoC5/LED.c ****         numberVal = (uint32)number;
1547:Generated_Source\PSoC5/LED.c ****         numberSign = LED_UNSIGNED;
1548:Generated_Source\PSoC5/LED.c ****     }
1549:Generated_Source\PSoC5/LED.c ****     else
1550:Generated_Source\PSoC5/LED.c ****     {
1551:Generated_Source\PSoC5/LED.c ****         numberVal = (uint32)(-number);
1552:Generated_Source\PSoC5/LED.c ****         numberSign = LED_SIGNED;
1553:Generated_Source\PSoC5/LED.c ****     }
1554:Generated_Source\PSoC5/LED.c ****     
1555:Generated_Source\PSoC5/LED.c ****     /* Fill up the temporary array */
1556:Generated_Source\PSoC5/LED.c ****     for(i = digits; i > 0u; i--)
1557:Generated_Source\PSoC5/LED.c ****     {
1558:Generated_Source\PSoC5/LED.c ****         selectVal = (uint8)(numberVal % 10u);
1559:Generated_Source\PSoC5/LED.c ****         bufArray[i-1u] = LED_EncodeNumber14Seg(selectVal);
1560:Generated_Source\PSoC5/LED.c ****         numberVal = numberVal / 10u;
1561:Generated_Source\PSoC5/LED.c ****     }
1562:Generated_Source\PSoC5/LED.c ****     
1563:Generated_Source\PSoC5/LED.c ****     /* Clean up the array and place sign if needed */
1564:Generated_Source\PSoC5/LED.c ****     if(alignment == LED_ZERO_PAD)
1565:Generated_Source\PSoC5/LED.c ****     {
1566:Generated_Source\PSoC5/LED.c ****         if(numberSign == LED_SIGNED)
1567:Generated_Source\PSoC5/LED.c ****         {
1568:Generated_Source\PSoC5/LED.c ****             /* Place sign on the MSB */
1569:Generated_Source\PSoC5/LED.c ****             bufArray[0u] = LED_EncodeChar14Seg('-');
1570:Generated_Source\PSoC5/LED.c ****         }
1571:Generated_Source\PSoC5/LED.c ****     }
1572:Generated_Source\PSoC5/LED.c ****     else
1573:Generated_Source\PSoC5/LED.c ****     {
1574:Generated_Source\PSoC5/LED.c ****         for(i = 0u; i < digits; i++)
1575:Generated_Source\PSoC5/LED.c ****         {
1576:Generated_Source\PSoC5/LED.c ****             if (bufArray[i] != LED_ZERO_14CHAR)
1577:Generated_Source\PSoC5/LED.c ****             {
1578:Generated_Source\PSoC5/LED.c ****                 if(numberSign == LED_SIGNED)
1579:Generated_Source\PSoC5/LED.c ****                 {
1580:Generated_Source\PSoC5/LED.c ****                     if(i == 0u)
1581:Generated_Source\PSoC5/LED.c ****                     {
1582:Generated_Source\PSoC5/LED.c ****                         /* Place sign on the MSB */
1583:Generated_Source\PSoC5/LED.c ****                         bufArray[i] = LED_EncodeChar14Seg('-');
1584:Generated_Source\PSoC5/LED.c ****                     }
1585:Generated_Source\PSoC5/LED.c ****                     else
1586:Generated_Source\PSoC5/LED.c ****                     {
1587:Generated_Source\PSoC5/LED.c ****                         /* Place sign before MSB */
1588:Generated_Source\PSoC5/LED.c ****                         bufArray[i-1u] = LED_EncodeChar14Seg('-');
1589:Generated_Source\PSoC5/LED.c ****                     }
1590:Generated_Source\PSoC5/LED.c ****                 }
1591:Generated_Source\PSoC5/LED.c ****                 /* Exit when encountering non-zero number */
1592:Generated_Source\PSoC5/LED.c ****                 break;
1593:Generated_Source\PSoC5/LED.c ****             }
1594:Generated_Source\PSoC5/LED.c ****             else
1595:Generated_Source\PSoC5/LED.c ****             {
1596:Generated_Source\PSoC5/LED.c ****                 if(zeroCount != (digits - 1u))
1597:Generated_Source\PSoC5/LED.c ****                 {
ARM GAS  C:\Users\Tri94\AppData\Local\Temp\cc3LbiXl.s 			page 44


1598:Generated_Source\PSoC5/LED.c ****                     /* Turn off the display */
1599:Generated_Source\PSoC5/LED.c ****                     bufArray[i] = LED_CLEAR_16;
1600:Generated_Source\PSoC5/LED.c ****                     zeroCount++;
1601:Generated_Source\PSoC5/LED.c ****                 }
1602:Generated_Source\PSoC5/LED.c ****             }    
1603:Generated_Source\PSoC5/LED.c ****         }
1604:Generated_Source\PSoC5/LED.c ****     }
1605:Generated_Source\PSoC5/LED.c ****     
1606:Generated_Source\PSoC5/LED.c ****     relPosition = position;
1607:Generated_Source\PSoC5/LED.c ****     
1608:Generated_Source\PSoC5/LED.c ****     /* Place the values in the segment array according to alignment */
1609:Generated_Source\PSoC5/LED.c ****     if(alignment == LED_LEFT_ALIGN)
1610:Generated_Source\PSoC5/LED.c ****     {
1611:Generated_Source\PSoC5/LED.c ****         for(i = 0u; i < digits; i++)
1612:Generated_Source\PSoC5/LED.c ****         {
1613:Generated_Source\PSoC5/LED.c ****             if(bufArray[i] != LED_CLEAR_16)
1614:Generated_Source\PSoC5/LED.c ****             {
1615:Generated_Source\PSoC5/LED.c ****                 if(relPosition < LED_NUM_COM)
1616:Generated_Source\PSoC5/LED.c ****                 {
1617:Generated_Source\PSoC5/LED.c ****                     /* Only show displays that are not empty */
1618:Generated_Source\PSoC5/LED.c ****                     LED_segLBuffer[relPosition] = LO8(bufArray[i]);
1619:Generated_Source\PSoC5/LED.c ****                 #if (LED_NUM_SEG > 8u)
1620:Generated_Source\PSoC5/LED.c ****                     LED_segMBuffer[relPosition] = HI8(bufArray[i]);
1621:Generated_Source\PSoC5/LED.c ****                 #endif /* (LED_NUM_SEG > 8u) */
1622:Generated_Source\PSoC5/LED.c ****                 }
1623:Generated_Source\PSoC5/LED.c ****                 relPosition++;
1624:Generated_Source\PSoC5/LED.c ****             }
1625:Generated_Source\PSoC5/LED.c ****         }
1626:Generated_Source\PSoC5/LED.c ****         /* Clear the rest of the positions to the right of value */
1627:Generated_Source\PSoC5/LED.c ****         while(relPosition < digits)
1628:Generated_Source\PSoC5/LED.c ****         {
1629:Generated_Source\PSoC5/LED.c ****             /* Only show displays that are not empty */
1630:Generated_Source\PSoC5/LED.c ****             LED_segLBuffer[relPosition] = LED_CLEAR;
1631:Generated_Source\PSoC5/LED.c ****             #if (LED_NUM_SEG > 8u)
1632:Generated_Source\PSoC5/LED.c ****                 LED_segMBuffer[relPosition] = LED_CLEAR;
1633:Generated_Source\PSoC5/LED.c ****             #endif /* (LED_NUM_SEG > 8u) */
1634:Generated_Source\PSoC5/LED.c ****             
1635:Generated_Source\PSoC5/LED.c ****             relPosition++;
1636:Generated_Source\PSoC5/LED.c ****         }
1637:Generated_Source\PSoC5/LED.c ****     }
1638:Generated_Source\PSoC5/LED.c ****     else
1639:Generated_Source\PSoC5/LED.c ****     {
1640:Generated_Source\PSoC5/LED.c ****         for(i = digits; i > 0u; i--)
1641:Generated_Source\PSoC5/LED.c ****         {
1642:Generated_Source\PSoC5/LED.c ****             if(((i + relPosition) - 1u) < LED_NUM_COM)
1643:Generated_Source\PSoC5/LED.c ****             {
1644:Generated_Source\PSoC5/LED.c ****                 LED_segLBuffer[(i + relPosition) - 1u] = LO8(bufArray[i-1u]);
1645:Generated_Source\PSoC5/LED.c ****             #if (LED_NUM_SEG > 8u)
1646:Generated_Source\PSoC5/LED.c ****                 LED_segMBuffer[(i + relPosition) - 1u] = HI8(bufArray[i-1u]);
1647:Generated_Source\PSoC5/LED.c ****             #endif /* (LED_NUM_SEG > 8u) */
1648:Generated_Source\PSoC5/LED.c ****             }
1649:Generated_Source\PSoC5/LED.c ****         }  
1650:Generated_Source\PSoC5/LED.c ****     }
1651:Generated_Source\PSoC5/LED.c **** }
1652:Generated_Source\PSoC5/LED.c **** 
1653:Generated_Source\PSoC5/LED.c **** 
1654:Generated_Source\PSoC5/LED.c **** /*******************************************************************************
ARM GAS  C:\Users\Tri94\AppData\Local\Temp\cc3LbiXl.s 			page 45


1655:Generated_Source\PSoC5/LED.c **** * Function Name: LED_Write14SegNumberHex
1656:Generated_Source\PSoC5/LED.c **** ********************************************************************************
1657:Generated_Source\PSoC5/LED.c **** *
1658:Generated_Source\PSoC5/LED.c **** * Summary:
1659:Generated_Source\PSoC5/LED.c **** *  Displays a hexadecimal number up to 8 characters long, starting at 'position'
1660:Generated_Source\PSoC5/LED.c **** *  and extending for 'digits' characters. If you do not use the correct number
1661:Generated_Source\PSoC5/LED.c **** *  of digits for your number, the least significant digits will be displayed. 
1662:Generated_Source\PSoC5/LED.c **** *  For example, if value is 0xDEADBEEF, display is 0 and digits is 4, the result
1663:Generated_Source\PSoC5/LED.c **** *  will be: BEEF.
1664:Generated_Source\PSoC5/LED.c **** *
1665:Generated_Source\PSoC5/LED.c **** * Parameters:
1666:Generated_Source\PSoC5/LED.c **** *  uint32 number: The hexadecimal number to display. It is the responsibility 
1667:Generated_Source\PSoC5/LED.c **** *                 of the user to ensure that the display has enough digits to 
1668:Generated_Source\PSoC5/LED.c **** *                 accurately represent the number passed to this function. If 
1669:Generated_Source\PSoC5/LED.c **** *                 not, only the least significant digits will be displayed.
1670:Generated_Source\PSoC5/LED.c **** *  uint8 position: Position of the Display/Common to start number.
1671:Generated_Source\PSoC5/LED.c **** *  uint8 digits: The number of digits you wish to use to display the value 
1672:Generated_Source\PSoC5/LED.c **** *                passed into the function. If you do not use the correct number
1673:Generated_Source\PSoC5/LED.c **** *                of digits for your number, the least significant digits will 
1674:Generated_Source\PSoC5/LED.c **** *                be displayed.
1675:Generated_Source\PSoC5/LED.c **** *  uint8 alignment: How to align the provided number in the allocated digits.
1676:Generated_Source\PSoC5/LED.c **** *       RIGHT_ALIGN - Least significant digit occupies the rightmost digit
1677:Generated_Source\PSoC5/LED.c **** *                     (position + digits). Unused digits are turned off unless
1678:Generated_Source\PSoC5/LED.c **** *                     ZERO_PAD enabled.
1679:Generated_Source\PSoC5/LED.c **** *       LEFT_ALIGN - Most significant digit (or negative sign) occupies the
1680:Generated_Source\PSoC5/LED.c **** *                    digit specified by position. Unused digits are turned off.
1681:Generated_Source\PSoC5/LED.c **** *       ZERO_PAD - Unused digits to the left are padded with leading zeros.
1682:Generated_Source\PSoC5/LED.c **** * Return:
1683:Generated_Source\PSoC5/LED.c **** *  None
1684:Generated_Source\PSoC5/LED.c **** *
1685:Generated_Source\PSoC5/LED.c **** * Side effects:
1686:Generated_Source\PSoC5/LED.c **** *  None
1687:Generated_Source\PSoC5/LED.c **** *
1688:Generated_Source\PSoC5/LED.c **** *******************************************************************************/
1689:Generated_Source\PSoC5/LED.c **** void LED_Write14SegNumberHex(uint32 number, uint8 position, uint8 digits, uint8 alignment)
1690:Generated_Source\PSoC5/LED.c **** 
1691:Generated_Source\PSoC5/LED.c **** {
1692:Generated_Source\PSoC5/LED.c ****     uint8 i;
1693:Generated_Source\PSoC5/LED.c ****     uint8 relPosition;
1694:Generated_Source\PSoC5/LED.c ****     uint8 selectVal;
1695:Generated_Source\PSoC5/LED.c ****     uint16 bufArray[8u] = {0u};
1696:Generated_Source\PSoC5/LED.c ****     uint32 numberVal;
1697:Generated_Source\PSoC5/LED.c ****     
1698:Generated_Source\PSoC5/LED.c ****     numberVal = number;
1699:Generated_Source\PSoC5/LED.c ****     
1700:Generated_Source\PSoC5/LED.c ****     /* Fill up the temporary array */
1701:Generated_Source\PSoC5/LED.c ****     for(i = digits; i > 0u; i--)
1702:Generated_Source\PSoC5/LED.c ****     {
1703:Generated_Source\PSoC5/LED.c ****         selectVal = (uint8)((uint8)numberVal & LED_NIBBLE_MASK);
1704:Generated_Source\PSoC5/LED.c ****         bufArray[i-1u] = LED_EncodeNumber14Seg(selectVal);
1705:Generated_Source\PSoC5/LED.c ****         numberVal = (uint32)((uint32)numberVal >> LED_SHIFT_NIBBLE);
1706:Generated_Source\PSoC5/LED.c ****     }
1707:Generated_Source\PSoC5/LED.c ****     
1708:Generated_Source\PSoC5/LED.c ****     /* Clean up the array */
1709:Generated_Source\PSoC5/LED.c ****     for(i = 0u; i < digits; i++)
1710:Generated_Source\PSoC5/LED.c ****     {
1711:Generated_Source\PSoC5/LED.c ****         if (bufArray[i] != LED_ZERO_14CHAR)
ARM GAS  C:\Users\Tri94\AppData\Local\Temp\cc3LbiXl.s 			page 46


1712:Generated_Source\PSoC5/LED.c ****         {
1713:Generated_Source\PSoC5/LED.c ****             /* Exit when encountering non-zero number */
1714:Generated_Source\PSoC5/LED.c ****             break;
1715:Generated_Source\PSoC5/LED.c ****         }
1716:Generated_Source\PSoC5/LED.c ****         else
1717:Generated_Source\PSoC5/LED.c ****         {
1718:Generated_Source\PSoC5/LED.c ****             /* Turn off the display */
1719:Generated_Source\PSoC5/LED.c ****             bufArray[i] = LED_CLEAR_16;
1720:Generated_Source\PSoC5/LED.c ****         }    
1721:Generated_Source\PSoC5/LED.c ****     }
1722:Generated_Source\PSoC5/LED.c ****     
1723:Generated_Source\PSoC5/LED.c ****     relPosition = position;
1724:Generated_Source\PSoC5/LED.c ****     
1725:Generated_Source\PSoC5/LED.c ****     /* Place the values in the segment array according to alignment */
1726:Generated_Source\PSoC5/LED.c ****     if(alignment == LED_LEFT_ALIGN)
1727:Generated_Source\PSoC5/LED.c ****     {
1728:Generated_Source\PSoC5/LED.c ****         for(i = 0u; i < digits; i++)
1729:Generated_Source\PSoC5/LED.c ****         {
1730:Generated_Source\PSoC5/LED.c ****             if(bufArray[i] != LED_CLEAR_16)
1731:Generated_Source\PSoC5/LED.c ****             {
1732:Generated_Source\PSoC5/LED.c ****                 if(relPosition < LED_NUM_COM)
1733:Generated_Source\PSoC5/LED.c ****                 {
1734:Generated_Source\PSoC5/LED.c ****                     /* Only show displays that are not empty */
1735:Generated_Source\PSoC5/LED.c ****                     LED_segLBuffer[relPosition] = LO8(bufArray[i]);
1736:Generated_Source\PSoC5/LED.c ****                 #if (LED_NUM_SEG > 8u)
1737:Generated_Source\PSoC5/LED.c ****                     LED_segMBuffer[relPosition] = HI8(bufArray[i]);
1738:Generated_Source\PSoC5/LED.c ****                 #endif /* (LED_NUM_SEG > 8u) */
1739:Generated_Source\PSoC5/LED.c ****                 }
1740:Generated_Source\PSoC5/LED.c ****                 relPosition++;
1741:Generated_Source\PSoC5/LED.c ****             }
1742:Generated_Source\PSoC5/LED.c ****         }
1743:Generated_Source\PSoC5/LED.c ****         /* Clear the rest of the positions to the right of value */
1744:Generated_Source\PSoC5/LED.c ****         while(relPosition < digits)
1745:Generated_Source\PSoC5/LED.c ****         {
1746:Generated_Source\PSoC5/LED.c ****             /* Only show displays that are not empty */
1747:Generated_Source\PSoC5/LED.c ****             LED_segLBuffer[relPosition] = LED_CLEAR;
1748:Generated_Source\PSoC5/LED.c ****             #if (LED_NUM_SEG > 8u)
1749:Generated_Source\PSoC5/LED.c ****                 LED_segMBuffer[relPosition] = LED_CLEAR;
1750:Generated_Source\PSoC5/LED.c ****             #endif /* (LED_NUM_SEG > 8u) */
1751:Generated_Source\PSoC5/LED.c ****             
1752:Generated_Source\PSoC5/LED.c ****             relPosition++;
1753:Generated_Source\PSoC5/LED.c ****         }
1754:Generated_Source\PSoC5/LED.c ****     }
1755:Generated_Source\PSoC5/LED.c ****     else
1756:Generated_Source\PSoC5/LED.c ****     {
1757:Generated_Source\PSoC5/LED.c ****         for(i = digits; i > 0u; i--)
1758:Generated_Source\PSoC5/LED.c ****         {
1759:Generated_Source\PSoC5/LED.c ****             if(((i + relPosition) - 1u) < LED_NUM_COM)
1760:Generated_Source\PSoC5/LED.c ****             {
1761:Generated_Source\PSoC5/LED.c ****                 LED_segLBuffer[(i + relPosition) - 1u] = LO8(bufArray[i-1u]);
1762:Generated_Source\PSoC5/LED.c ****             #if (LED_NUM_SEG > 8u)
1763:Generated_Source\PSoC5/LED.c ****                 LED_segMBuffer[(i + relPosition) - 1u] = HI8(bufArray[i-1u]);
1764:Generated_Source\PSoC5/LED.c ****             #endif /* (LED_NUM_SEG > 8u) */
1765:Generated_Source\PSoC5/LED.c ****             }
1766:Generated_Source\PSoC5/LED.c ****         }  
1767:Generated_Source\PSoC5/LED.c ****     }
1768:Generated_Source\PSoC5/LED.c **** }
ARM GAS  C:\Users\Tri94\AppData\Local\Temp\cc3LbiXl.s 			page 47


1769:Generated_Source\PSoC5/LED.c **** 
1770:Generated_Source\PSoC5/LED.c **** 
1771:Generated_Source\PSoC5/LED.c **** /*******************************************************************************
1772:Generated_Source\PSoC5/LED.c **** * Function Name: LED_WriteString14Seg
1773:Generated_Source\PSoC5/LED.c **** ********************************************************************************
1774:Generated_Source\PSoC5/LED.c **** *
1775:Generated_Source\PSoC5/LED.c **** * Summary:
1776:Generated_Source\PSoC5/LED.c **** *  Displays a null terminated string starting at 'position' and ending at 
1777:Generated_Source\PSoC5/LED.c **** *  either the  the string or the  the display. The displayable 
1778:Generated_Source\PSoC5/LED.c **** *  characters are the same for the LED_Driver_PutCharacter() function. 
1779:Generated_Source\PSoC5/LED.c **** *  Non-displayable characters will produce a blank space.
1780:Generated_Source\PSoC5/LED.c **** *
1781:Generated_Source\PSoC5/LED.c **** * Parameters:
1782:Generated_Source\PSoC5/LED.c **** *  char8 const character[]: The null terminated string to be displayed.
1783:Generated_Source\PSoC5/LED.c **** *  uint8 position: The position to start the string.
1784:Generated_Source\PSoC5/LED.c **** *
1785:Generated_Source\PSoC5/LED.c **** * Return:
1786:Generated_Source\PSoC5/LED.c **** *  None
1787:Generated_Source\PSoC5/LED.c **** *
1788:Generated_Source\PSoC5/LED.c **** * Side effects:
1789:Generated_Source\PSoC5/LED.c **** *  None
1790:Generated_Source\PSoC5/LED.c **** *
1791:Generated_Source\PSoC5/LED.c **** *******************************************************************************/
1792:Generated_Source\PSoC5/LED.c **** void LED_WriteString14Seg(char8 const character[], uint8 position)
1793:Generated_Source\PSoC5/LED.c **** 
1794:Generated_Source\PSoC5/LED.c **** {
1795:Generated_Source\PSoC5/LED.c ****     uint8 currPosition;
1796:Generated_Source\PSoC5/LED.c ****     uint8 sizeLimit;
1797:Generated_Source\PSoC5/LED.c ****     uint8 i = 0u;
1798:Generated_Source\PSoC5/LED.c ****     uint16 charDisplay;
1799:Generated_Source\PSoC5/LED.c ****     
1800:Generated_Source\PSoC5/LED.c ****     sizeLimit = (uint8)(strlen(character)) + position;
1801:Generated_Source\PSoC5/LED.c ****     
1802:Generated_Source\PSoC5/LED.c ****     for(currPosition = position; currPosition < LED_NUM_COM; currPosition++)
1803:Generated_Source\PSoC5/LED.c ****     {
1804:Generated_Source\PSoC5/LED.c ****         if(currPosition < sizeLimit)
1805:Generated_Source\PSoC5/LED.c ****         {
1806:Generated_Source\PSoC5/LED.c ****             charDisplay = LED_EncodeChar14Seg(character[i]);
1807:Generated_Source\PSoC5/LED.c ****             LED_segLBuffer[currPosition] = LO8(charDisplay);
1808:Generated_Source\PSoC5/LED.c ****             #if (LED_NUM_SEG > 8u)
1809:Generated_Source\PSoC5/LED.c ****             LED_segMBuffer[currPosition] = HI8(charDisplay);
1810:Generated_Source\PSoC5/LED.c ****             #endif /* (LED_NUM_SEG > 8u) */
1811:Generated_Source\PSoC5/LED.c ****             i++;
1812:Generated_Source\PSoC5/LED.c ****         }
1813:Generated_Source\PSoC5/LED.c ****     }
1814:Generated_Source\PSoC5/LED.c **** }
1815:Generated_Source\PSoC5/LED.c **** 
1816:Generated_Source\PSoC5/LED.c **** 
1817:Generated_Source\PSoC5/LED.c **** /*******************************************************************************
1818:Generated_Source\PSoC5/LED.c **** * Function Name: LED_PutChar14Seg
1819:Generated_Source\PSoC5/LED.c **** ********************************************************************************
1820:Generated_Source\PSoC5/LED.c **** *
1821:Generated_Source\PSoC5/LED.c **** * Summary:
1822:Generated_Source\PSoC5/LED.c **** *  Displays an ascii encoded character at 'position'. This function can display
1823:Generated_Source\PSoC5/LED.c **** *  all alphanumeric characters. The function can also display '-', '.', '_', 
1824:Generated_Source\PSoC5/LED.c **** *  ' ', and '='. All unknown characters are displayed as a space.
1825:Generated_Source\PSoC5/LED.c **** *
ARM GAS  C:\Users\Tri94\AppData\Local\Temp\cc3LbiXl.s 			page 48


1826:Generated_Source\PSoC5/LED.c **** * Parameters:
1827:Generated_Source\PSoC5/LED.c **** *  char8 character: ASCII character.
1828:Generated_Source\PSoC5/LED.c **** *  uint8 position: The position of the character.
1829:Generated_Source\PSoC5/LED.c **** *
1830:Generated_Source\PSoC5/LED.c **** * Return:
1831:Generated_Source\PSoC5/LED.c **** *  None
1832:Generated_Source\PSoC5/LED.c **** *
1833:Generated_Source\PSoC5/LED.c **** * Side effects:
1834:Generated_Source\PSoC5/LED.c **** *  None
1835:Generated_Source\PSoC5/LED.c **** *
1836:Generated_Source\PSoC5/LED.c **** *******************************************************************************/
1837:Generated_Source\PSoC5/LED.c **** void LED_PutChar14Seg(char8 character , uint8 position)
1838:Generated_Source\PSoC5/LED.c **** 
1839:Generated_Source\PSoC5/LED.c **** {
1840:Generated_Source\PSoC5/LED.c ****     uint16 charDisplay;
1841:Generated_Source\PSoC5/LED.c ****     
1842:Generated_Source\PSoC5/LED.c ****     if(position < LED_NUM_COM)
1843:Generated_Source\PSoC5/LED.c ****     {
1844:Generated_Source\PSoC5/LED.c ****         charDisplay = LED_EncodeChar14Seg(character);
1845:Generated_Source\PSoC5/LED.c ****         LED_segLBuffer[position] = LO8(charDisplay);
1846:Generated_Source\PSoC5/LED.c ****     #if (LED_NUM_SEG > 8u)
1847:Generated_Source\PSoC5/LED.c ****         LED_segMBuffer[position] = HI8(charDisplay);
1848:Generated_Source\PSoC5/LED.c ****     #endif /* (LED_NUM_SEG > 8u) */
1849:Generated_Source\PSoC5/LED.c ****     }
1850:Generated_Source\PSoC5/LED.c **** }
1851:Generated_Source\PSoC5/LED.c **** 
1852:Generated_Source\PSoC5/LED.c **** 
1853:Generated_Source\PSoC5/LED.c **** /*******************************************************************************
1854:Generated_Source\PSoC5/LED.c **** * Function Name: LED_Write14SegDigitDec
1855:Generated_Source\PSoC5/LED.c **** ********************************************************************************
1856:Generated_Source\PSoC5/LED.c **** *
1857:Generated_Source\PSoC5/LED.c **** * Summary:
1858:Generated_Source\PSoC5/LED.c **** *  Displays a single digit on the specified display. The number in 'digit' 
1859:Generated_Source\PSoC5/LED.c **** *  (0-9) is placed on 'position'.
1860:Generated_Source\PSoC5/LED.c **** *
1861:Generated_Source\PSoC5/LED.c **** * Parameters:
1862:Generated_Source\PSoC5/LED.c **** *  uint8 digit: A number between 0 and 9 to display.
1863:Generated_Source\PSoC5/LED.c **** *  uint8 position: Position of the display in which to place the number.
1864:Generated_Source\PSoC5/LED.c **** *
1865:Generated_Source\PSoC5/LED.c **** * Return:
1866:Generated_Source\PSoC5/LED.c **** *  None
1867:Generated_Source\PSoC5/LED.c **** *
1868:Generated_Source\PSoC5/LED.c **** * Side effects:
1869:Generated_Source\PSoC5/LED.c **** *  None
1870:Generated_Source\PSoC5/LED.c **** *
1871:Generated_Source\PSoC5/LED.c **** *******************************************************************************/
1872:Generated_Source\PSoC5/LED.c **** void LED_Write14SegDigitDec(uint8 digit, uint8 position)
1873:Generated_Source\PSoC5/LED.c **** 
1874:Generated_Source\PSoC5/LED.c **** {
1875:Generated_Source\PSoC5/LED.c ****     uint16 charDisplay;
1876:Generated_Source\PSoC5/LED.c ****     
1877:Generated_Source\PSoC5/LED.c ****     if((digit < 10u) && (position < LED_NUM_COM))
1878:Generated_Source\PSoC5/LED.c ****     {
1879:Generated_Source\PSoC5/LED.c ****         charDisplay = LED_EncodeNumber14Seg(digit);
1880:Generated_Source\PSoC5/LED.c ****         LED_segLBuffer[position] = LO8(charDisplay);
1881:Generated_Source\PSoC5/LED.c ****     #if (LED_NUM_SEG > 8u)
1882:Generated_Source\PSoC5/LED.c ****         LED_segMBuffer[position] = HI8(charDisplay);
ARM GAS  C:\Users\Tri94\AppData\Local\Temp\cc3LbiXl.s 			page 49


1883:Generated_Source\PSoC5/LED.c ****     #endif /* (LED_NUM_SEG > 8u) */
1884:Generated_Source\PSoC5/LED.c ****     }
1885:Generated_Source\PSoC5/LED.c **** }
1886:Generated_Source\PSoC5/LED.c **** 
1887:Generated_Source\PSoC5/LED.c **** 
1888:Generated_Source\PSoC5/LED.c **** /*******************************************************************************
1889:Generated_Source\PSoC5/LED.c **** * Function Name: LED_Write14SegDigitHex
1890:Generated_Source\PSoC5/LED.c **** ********************************************************************************
1891:Generated_Source\PSoC5/LED.c **** *
1892:Generated_Source\PSoC5/LED.c **** * Summary:
1893:Generated_Source\PSoC5/LED.c **** *  Displays a single digit at the specified position. The number in 'digit' 
1894:Generated_Source\PSoC5/LED.c **** *  (0-F) is placed on 'position'.
1895:Generated_Source\PSoC5/LED.c **** *
1896:Generated_Source\PSoC5/LED.c **** * Parameters:
1897:Generated_Source\PSoC5/LED.c **** *  uint8 digit: A number between 0x0 and 0xF (0 to 15)
1898:Generated_Source\PSoC5/LED.c **** *  uint8 position: The position in which to place the number.
1899:Generated_Source\PSoC5/LED.c **** *
1900:Generated_Source\PSoC5/LED.c **** * Return:
1901:Generated_Source\PSoC5/LED.c **** *  None
1902:Generated_Source\PSoC5/LED.c **** *
1903:Generated_Source\PSoC5/LED.c **** * Side effects:
1904:Generated_Source\PSoC5/LED.c **** *  None
1905:Generated_Source\PSoC5/LED.c **** *
1906:Generated_Source\PSoC5/LED.c **** *******************************************************************************/
1907:Generated_Source\PSoC5/LED.c **** void LED_Write14SegDigitHex(uint8 digit, uint8 position)
1908:Generated_Source\PSoC5/LED.c **** 
1909:Generated_Source\PSoC5/LED.c **** {
1910:Generated_Source\PSoC5/LED.c ****     uint16 charDisplay;
1911:Generated_Source\PSoC5/LED.c **** 
1912:Generated_Source\PSoC5/LED.c ****     if(position < LED_NUM_COM)
1913:Generated_Source\PSoC5/LED.c ****     {
1914:Generated_Source\PSoC5/LED.c ****         charDisplay = LED_EncodeNumber14Seg(digit);
1915:Generated_Source\PSoC5/LED.c ****         LED_segLBuffer[position] = LO8(charDisplay);
1916:Generated_Source\PSoC5/LED.c ****     #if (LED_NUM_SEG > 8u)
1917:Generated_Source\PSoC5/LED.c ****         LED_segMBuffer[position] = HI8(charDisplay);
1918:Generated_Source\PSoC5/LED.c ****     #endif /* (LED_NUM_SEG > 8u) */
1919:Generated_Source\PSoC5/LED.c ****     }
1920:Generated_Source\PSoC5/LED.c **** }
1921:Generated_Source\PSoC5/LED.c **** 
1922:Generated_Source\PSoC5/LED.c **** 
1923:Generated_Source\PSoC5/LED.c **** /*******************************************************************************
1924:Generated_Source\PSoC5/LED.c **** * Function Name: LED_Write16SegNumberDec
1925:Generated_Source\PSoC5/LED.c **** ********************************************************************************
1926:Generated_Source\PSoC5/LED.c **** *
1927:Generated_Source\PSoC5/LED.c **** * Summary:
1928:Generated_Source\PSoC5/LED.c **** *  Displays a signed integer up to 8 characters long, starting at 'position' 
1929:Generated_Source\PSoC5/LED.c **** *  and extending for 'digits' characters. The negative sign will take an extra 
1930:Generated_Source\PSoC5/LED.c **** *  digit if it is required.
1931:Generated_Source\PSoC5/LED.c **** *
1932:Generated_Source\PSoC5/LED.c **** * Parameters:
1933:Generated_Source\PSoC5/LED.c **** *  int32 number: a signed integer number to display. It is the responsibility 
1934:Generated_Source\PSoC5/LED.c **** *                of the user to ensure that the display has enough digits to 
1935:Generated_Source\PSoC5/LED.c **** *                accurately represent the number passed to this function. If 
1936:Generated_Source\PSoC5/LED.c **** *                not, the least significant digits will be displayed. Also 
1937:Generated_Source\PSoC5/LED.c **** *                note that a negative number will require 1 more digit than the
1938:Generated_Source\PSoC5/LED.c **** *                equivalent positive number to display the negative sign.
1939:Generated_Source\PSoC5/LED.c **** *  uint8 position: Digit position of the Display/Common RAM to start.
ARM GAS  C:\Users\Tri94\AppData\Local\Temp\cc3LbiXl.s 			page 50


1940:Generated_Source\PSoC5/LED.c **** *  uint8 digits: The number of digits you wish to use to display the value 
1941:Generated_Source\PSoC5/LED.c **** *                passed into the function. The negative sign will take an extra 
1942:Generated_Source\PSoC5/LED.c **** *                digit if it is required.
1943:Generated_Source\PSoC5/LED.c **** *  uint8 alignment: How to align the provided number in the allocated digits.
1944:Generated_Source\PSoC5/LED.c **** *       RIGHT_ALIGN - Least significant digit occupies the rightmost digit
1945:Generated_Source\PSoC5/LED.c **** *                     (position + digits). Unused digits are turned off unless
1946:Generated_Source\PSoC5/LED.c **** *                     ZERO_PAD enabled.
1947:Generated_Source\PSoC5/LED.c **** *       LEFT_ALIGN - Most significant digit (or negative sign) occupies the
1948:Generated_Source\PSoC5/LED.c **** *                    digit specified by position. Unused digits are turned off.
1949:Generated_Source\PSoC5/LED.c **** *       ZERO_PAD - Unused digits to the left are padded with leading zeros.
1950:Generated_Source\PSoC5/LED.c **** * Return:
1951:Generated_Source\PSoC5/LED.c **** *  None
1952:Generated_Source\PSoC5/LED.c **** *
1953:Generated_Source\PSoC5/LED.c **** * Side effects:
1954:Generated_Source\PSoC5/LED.c **** *  None
1955:Generated_Source\PSoC5/LED.c **** *
1956:Generated_Source\PSoC5/LED.c **** *******************************************************************************/
1957:Generated_Source\PSoC5/LED.c **** void LED_Write16SegNumberDec(int32 number, uint8 position, uint8 digits, uint8 alignment)
1958:Generated_Source\PSoC5/LED.c **** 
1959:Generated_Source\PSoC5/LED.c **** {
1960:Generated_Source\PSoC5/LED.c ****     uint8 i;
1961:Generated_Source\PSoC5/LED.c ****     uint8 relPosition;
1962:Generated_Source\PSoC5/LED.c ****     uint8 numberSign;
1963:Generated_Source\PSoC5/LED.c ****     uint8 selectVal;
1964:Generated_Source\PSoC5/LED.c ****     uint8 zeroCount = 0u;
1965:Generated_Source\PSoC5/LED.c ****     uint16 bufArray[8u] = {0u};
1966:Generated_Source\PSoC5/LED.c ****     uint32 numberVal;
1967:Generated_Source\PSoC5/LED.c ****     
1968:Generated_Source\PSoC5/LED.c ****     /* Routine to extract the sign and to convert to unsigned */
1969:Generated_Source\PSoC5/LED.c ****     if(number >= LED_ZERO_NEG)
1970:Generated_Source\PSoC5/LED.c ****     {
1971:Generated_Source\PSoC5/LED.c ****         numberVal = (uint32)number;
1972:Generated_Source\PSoC5/LED.c ****         numberSign = LED_UNSIGNED;
1973:Generated_Source\PSoC5/LED.c ****     }
1974:Generated_Source\PSoC5/LED.c ****     else
1975:Generated_Source\PSoC5/LED.c ****     {
1976:Generated_Source\PSoC5/LED.c ****         numberVal = (uint32)(-number);
1977:Generated_Source\PSoC5/LED.c ****         numberSign = LED_SIGNED;
1978:Generated_Source\PSoC5/LED.c ****     }
1979:Generated_Source\PSoC5/LED.c ****     
1980:Generated_Source\PSoC5/LED.c ****     /* Fill up the temporary array */
1981:Generated_Source\PSoC5/LED.c ****     for(i = digits; i > 0u; i--)
1982:Generated_Source\PSoC5/LED.c ****     {
1983:Generated_Source\PSoC5/LED.c ****         selectVal = (uint8)(numberVal % 10u);
1984:Generated_Source\PSoC5/LED.c ****         bufArray[i-1u] = LED_EncodeNumber16Seg(selectVal);
1985:Generated_Source\PSoC5/LED.c ****         numberVal = numberVal / 10u;
1986:Generated_Source\PSoC5/LED.c ****     }
1987:Generated_Source\PSoC5/LED.c ****     
1988:Generated_Source\PSoC5/LED.c ****     /* Clean up the array and place sign if needed */
1989:Generated_Source\PSoC5/LED.c ****     if(alignment == LED_ZERO_PAD)
1990:Generated_Source\PSoC5/LED.c ****     {
1991:Generated_Source\PSoC5/LED.c ****         if(numberSign == LED_SIGNED)
1992:Generated_Source\PSoC5/LED.c ****         {
1993:Generated_Source\PSoC5/LED.c ****             /* Place sign on the MSB */
1994:Generated_Source\PSoC5/LED.c ****             bufArray[0u] = LED_EncodeChar16Seg('-');
1995:Generated_Source\PSoC5/LED.c ****         }
1996:Generated_Source\PSoC5/LED.c ****     }
ARM GAS  C:\Users\Tri94\AppData\Local\Temp\cc3LbiXl.s 			page 51


1997:Generated_Source\PSoC5/LED.c ****     else
1998:Generated_Source\PSoC5/LED.c ****     {
1999:Generated_Source\PSoC5/LED.c ****         for(i = 0u; i < digits; i++)
2000:Generated_Source\PSoC5/LED.c ****         {
2001:Generated_Source\PSoC5/LED.c ****             if (bufArray[i] != LED_ZERO_16CHAR)
2002:Generated_Source\PSoC5/LED.c ****             {
2003:Generated_Source\PSoC5/LED.c ****                 if(numberSign == LED_SIGNED)
2004:Generated_Source\PSoC5/LED.c ****                 {
2005:Generated_Source\PSoC5/LED.c ****                     if(i == 0u)
2006:Generated_Source\PSoC5/LED.c ****                     {
2007:Generated_Source\PSoC5/LED.c ****                         /* Place sign on the MSB */
2008:Generated_Source\PSoC5/LED.c ****                         bufArray[i] = LED_EncodeChar16Seg('-');
2009:Generated_Source\PSoC5/LED.c ****                     }
2010:Generated_Source\PSoC5/LED.c ****                     else
2011:Generated_Source\PSoC5/LED.c ****                     {
2012:Generated_Source\PSoC5/LED.c ****                         /* Place sign before MSB */
2013:Generated_Source\PSoC5/LED.c ****                         bufArray[i-1u] = LED_EncodeChar16Seg('-');
2014:Generated_Source\PSoC5/LED.c ****                     }
2015:Generated_Source\PSoC5/LED.c ****                 }
2016:Generated_Source\PSoC5/LED.c ****                 /* Exit when encountering non-zero number */
2017:Generated_Source\PSoC5/LED.c ****                 break;
2018:Generated_Source\PSoC5/LED.c ****             }
2019:Generated_Source\PSoC5/LED.c ****             else
2020:Generated_Source\PSoC5/LED.c ****             {
2021:Generated_Source\PSoC5/LED.c ****                 if(zeroCount != (digits - 1u))
2022:Generated_Source\PSoC5/LED.c ****                 {
2023:Generated_Source\PSoC5/LED.c ****                     /* Turn off the display */
2024:Generated_Source\PSoC5/LED.c ****                     bufArray[i] = LED_CLEAR_16;
2025:Generated_Source\PSoC5/LED.c ****                     zeroCount++;
2026:Generated_Source\PSoC5/LED.c ****                 }
2027:Generated_Source\PSoC5/LED.c ****             }    
2028:Generated_Source\PSoC5/LED.c ****         }
2029:Generated_Source\PSoC5/LED.c ****     }
2030:Generated_Source\PSoC5/LED.c ****     
2031:Generated_Source\PSoC5/LED.c ****     relPosition = position;
2032:Generated_Source\PSoC5/LED.c ****     
2033:Generated_Source\PSoC5/LED.c ****     /* Place the values in the segment array according to alignment */
2034:Generated_Source\PSoC5/LED.c ****     if(alignment == LED_LEFT_ALIGN)
2035:Generated_Source\PSoC5/LED.c ****     {
2036:Generated_Source\PSoC5/LED.c ****         for(i = 0u; i < digits; i++)
2037:Generated_Source\PSoC5/LED.c ****         {
2038:Generated_Source\PSoC5/LED.c ****             if(bufArray[i] != LED_CLEAR_16)
2039:Generated_Source\PSoC5/LED.c ****             {
2040:Generated_Source\PSoC5/LED.c ****                 if(relPosition < LED_NUM_COM)
2041:Generated_Source\PSoC5/LED.c ****                 {
2042:Generated_Source\PSoC5/LED.c ****                     /* Only show displays that are not empty */
2043:Generated_Source\PSoC5/LED.c ****                     LED_segLBuffer[relPosition] = LO8(bufArray[i]);
2044:Generated_Source\PSoC5/LED.c ****                 #if (LED_NUM_SEG > 8u)
2045:Generated_Source\PSoC5/LED.c ****                     LED_segMBuffer[relPosition] = HI8(bufArray[i]);
2046:Generated_Source\PSoC5/LED.c ****                 #endif /* (LED_NUM_SEG > 8u) */
2047:Generated_Source\PSoC5/LED.c ****                 }
2048:Generated_Source\PSoC5/LED.c ****                 relPosition++;
2049:Generated_Source\PSoC5/LED.c ****             }
2050:Generated_Source\PSoC5/LED.c ****         }
2051:Generated_Source\PSoC5/LED.c ****         /* Clear the rest of the positions to the right of value */
2052:Generated_Source\PSoC5/LED.c ****         while(relPosition < digits)
2053:Generated_Source\PSoC5/LED.c ****         {
ARM GAS  C:\Users\Tri94\AppData\Local\Temp\cc3LbiXl.s 			page 52


2054:Generated_Source\PSoC5/LED.c ****             /* Only show displays that are not empty */
2055:Generated_Source\PSoC5/LED.c ****             LED_segLBuffer[relPosition] = LED_CLEAR;
2056:Generated_Source\PSoC5/LED.c ****             #if (LED_NUM_SEG > 8u)
2057:Generated_Source\PSoC5/LED.c ****                 LED_segMBuffer[relPosition] = LED_CLEAR;
2058:Generated_Source\PSoC5/LED.c ****             #endif /* (LED_NUM_SEG > 8u) */
2059:Generated_Source\PSoC5/LED.c ****             
2060:Generated_Source\PSoC5/LED.c ****             relPosition++;
2061:Generated_Source\PSoC5/LED.c ****         }
2062:Generated_Source\PSoC5/LED.c ****     }
2063:Generated_Source\PSoC5/LED.c ****     else
2064:Generated_Source\PSoC5/LED.c ****     {
2065:Generated_Source\PSoC5/LED.c ****         for(i = digits; i > 0u; i--)
2066:Generated_Source\PSoC5/LED.c ****         {
2067:Generated_Source\PSoC5/LED.c ****             if(((i + relPosition) - 1u) < LED_NUM_COM)
2068:Generated_Source\PSoC5/LED.c ****             {
2069:Generated_Source\PSoC5/LED.c ****                 LED_segLBuffer[(i + relPosition) - 1u] = LO8(bufArray[i-1u]);
2070:Generated_Source\PSoC5/LED.c ****             #if (LED_NUM_SEG > 8u)
2071:Generated_Source\PSoC5/LED.c ****                 LED_segMBuffer[(i + relPosition) - 1u] = HI8(bufArray[i-1u]);
2072:Generated_Source\PSoC5/LED.c ****             #endif /* (LED_NUM_SEG > 8u) */
2073:Generated_Source\PSoC5/LED.c ****             }
2074:Generated_Source\PSoC5/LED.c ****         }
2075:Generated_Source\PSoC5/LED.c ****     }
2076:Generated_Source\PSoC5/LED.c **** }
2077:Generated_Source\PSoC5/LED.c **** 
2078:Generated_Source\PSoC5/LED.c **** 
2079:Generated_Source\PSoC5/LED.c **** /*******************************************************************************
2080:Generated_Source\PSoC5/LED.c **** * Function Name: LED_Write16SegNumberHex
2081:Generated_Source\PSoC5/LED.c **** ********************************************************************************
2082:Generated_Source\PSoC5/LED.c **** *
2083:Generated_Source\PSoC5/LED.c **** * Summary:
2084:Generated_Source\PSoC5/LED.c **** *  Displays a hexadecimal number up to 8 characters long, starting at 'position'
2085:Generated_Source\PSoC5/LED.c **** *  and extending for 'digits' characters. If you do not use the correct number 
2086:Generated_Source\PSoC5/LED.c **** *  of digits for your number, the least significant digits will be displayed. 
2087:Generated_Source\PSoC5/LED.c **** *  For example, if value is 0xDEADBEEF, display is 0 and digits is 4, the result
2088:Generated_Source\PSoC5/LED.c **** *  will be: BEEF.
2089:Generated_Source\PSoC5/LED.c **** *
2090:Generated_Source\PSoC5/LED.c **** * Parameters:
2091:Generated_Source\PSoC5/LED.c **** *  uint32 number: The hexadecimal number to display. It is the responsibility of
2092:Generated_Source\PSoC5/LED.c **** *  the user to ensure that the display has enough digits to accurately represent
2093:Generated_Source\PSoC5/LED.c **** *  the number passed to this function.
2094:Generated_Source\PSoC5/LED.c **** *  uint8 position: Position of the Display/Common to start number.
2095:Generated_Source\PSoC5/LED.c **** *  uint8 digits: The number of digits you wish to use to display the value 
2096:Generated_Source\PSoC5/LED.c **** *                passed into the function.
2097:Generated_Source\PSoC5/LED.c **** *  uint8 alignment: How to align the provided number in the allocated digits.
2098:Generated_Source\PSoC5/LED.c **** *       RIGHT_ALIGN - Least significant digit occupies the rightmost digit
2099:Generated_Source\PSoC5/LED.c **** *                     (position + digits). Unused digits are turned off unless
2100:Generated_Source\PSoC5/LED.c **** *                     ZERO_PAD enabled.
2101:Generated_Source\PSoC5/LED.c **** *       LEFT_ALIGN - Most significant digit (or negative sign) occupies the
2102:Generated_Source\PSoC5/LED.c **** *                    digit specified by position. Unused digits are turned off.
2103:Generated_Source\PSoC5/LED.c **** *       ZERO_PAD - Unused digits to the left are padded with leading zeros.
2104:Generated_Source\PSoC5/LED.c **** * Return:
2105:Generated_Source\PSoC5/LED.c **** *  None
2106:Generated_Source\PSoC5/LED.c **** *
2107:Generated_Source\PSoC5/LED.c **** * Side effects:
2108:Generated_Source\PSoC5/LED.c **** *  None
2109:Generated_Source\PSoC5/LED.c **** *
2110:Generated_Source\PSoC5/LED.c **** *******************************************************************************/
ARM GAS  C:\Users\Tri94\AppData\Local\Temp\cc3LbiXl.s 			page 53


2111:Generated_Source\PSoC5/LED.c **** void LED_Write16SegNumberHex(uint32 number, uint8 position, uint8 digits, uint8 alignment)
2112:Generated_Source\PSoC5/LED.c **** 
2113:Generated_Source\PSoC5/LED.c **** {
2114:Generated_Source\PSoC5/LED.c ****     uint8 i;
2115:Generated_Source\PSoC5/LED.c ****     uint8 relPosition;
2116:Generated_Source\PSoC5/LED.c ****     uint8 selectVal;
2117:Generated_Source\PSoC5/LED.c ****     uint16 bufArray[8u] = {0u};
2118:Generated_Source\PSoC5/LED.c ****     uint32 numberVal;
2119:Generated_Source\PSoC5/LED.c ****     
2120:Generated_Source\PSoC5/LED.c ****     numberVal = number;
2121:Generated_Source\PSoC5/LED.c ****     
2122:Generated_Source\PSoC5/LED.c ****     /* Fill up the temporary array */
2123:Generated_Source\PSoC5/LED.c ****     for(i = digits; i > 0u; i--)
2124:Generated_Source\PSoC5/LED.c ****     {
2125:Generated_Source\PSoC5/LED.c ****         selectVal = (uint8)((uint8)numberVal & LED_NIBBLE_MASK);
2126:Generated_Source\PSoC5/LED.c ****         bufArray[i-1u] = LED_EncodeNumber16Seg(selectVal);
2127:Generated_Source\PSoC5/LED.c ****         numberVal = (uint32)((uint32)numberVal >> LED_SHIFT_NIBBLE);
2128:Generated_Source\PSoC5/LED.c ****     }
2129:Generated_Source\PSoC5/LED.c ****     
2130:Generated_Source\PSoC5/LED.c ****     /* Clean up the array and place sign if needed */
2131:Generated_Source\PSoC5/LED.c ****     for(i = 0u; i < digits; i++)
2132:Generated_Source\PSoC5/LED.c ****     {
2133:Generated_Source\PSoC5/LED.c ****         if (bufArray[i] != LED_ZERO_16CHAR)
2134:Generated_Source\PSoC5/LED.c ****         {
2135:Generated_Source\PSoC5/LED.c ****             /* Exit when encountering non-zero number */
2136:Generated_Source\PSoC5/LED.c ****             break;
2137:Generated_Source\PSoC5/LED.c ****         }
2138:Generated_Source\PSoC5/LED.c ****         else
2139:Generated_Source\PSoC5/LED.c ****         {
2140:Generated_Source\PSoC5/LED.c ****             /* Turn off the display */
2141:Generated_Source\PSoC5/LED.c ****             bufArray[i] = LED_CLEAR_16;
2142:Generated_Source\PSoC5/LED.c ****         }    
2143:Generated_Source\PSoC5/LED.c ****     }
2144:Generated_Source\PSoC5/LED.c ****     
2145:Generated_Source\PSoC5/LED.c ****     relPosition = position;
2146:Generated_Source\PSoC5/LED.c ****     
2147:Generated_Source\PSoC5/LED.c ****     /* Place the values in the segment array according to alignment */
2148:Generated_Source\PSoC5/LED.c ****     if(alignment == LED_LEFT_ALIGN)
2149:Generated_Source\PSoC5/LED.c ****     {
2150:Generated_Source\PSoC5/LED.c ****         for(i = 0u; i < digits; i++)
2151:Generated_Source\PSoC5/LED.c ****         {
2152:Generated_Source\PSoC5/LED.c ****             if(bufArray[i] != LED_CLEAR_16)
2153:Generated_Source\PSoC5/LED.c ****             {
2154:Generated_Source\PSoC5/LED.c ****                 if(relPosition < LED_NUM_COM)
2155:Generated_Source\PSoC5/LED.c ****                 {
2156:Generated_Source\PSoC5/LED.c ****                     /* Only show displays that are not empty */
2157:Generated_Source\PSoC5/LED.c ****                     LED_segLBuffer[relPosition] = LO8(bufArray[i]);
2158:Generated_Source\PSoC5/LED.c ****                 #if (LED_NUM_SEG > 8u)
2159:Generated_Source\PSoC5/LED.c ****                     LED_segMBuffer[relPosition] = HI8(bufArray[i]);
2160:Generated_Source\PSoC5/LED.c ****                 #endif /* (LED_NUM_SEG > 8u) */
2161:Generated_Source\PSoC5/LED.c ****                 }
2162:Generated_Source\PSoC5/LED.c ****                 relPosition++;
2163:Generated_Source\PSoC5/LED.c ****             }
2164:Generated_Source\PSoC5/LED.c ****         }
2165:Generated_Source\PSoC5/LED.c ****         /* Clear the rest of the positions to the right of value */
2166:Generated_Source\PSoC5/LED.c ****         while(relPosition < digits)
2167:Generated_Source\PSoC5/LED.c ****         {
ARM GAS  C:\Users\Tri94\AppData\Local\Temp\cc3LbiXl.s 			page 54


2168:Generated_Source\PSoC5/LED.c ****             /* Only show displays that are not empty */
2169:Generated_Source\PSoC5/LED.c ****             LED_segLBuffer[relPosition] = LED_CLEAR;
2170:Generated_Source\PSoC5/LED.c ****             #if (LED_NUM_SEG > 8u)
2171:Generated_Source\PSoC5/LED.c ****                 LED_segMBuffer[relPosition] = LED_CLEAR;
2172:Generated_Source\PSoC5/LED.c ****             #endif /* (LED_NUM_SEG > 8u) */
2173:Generated_Source\PSoC5/LED.c ****             
2174:Generated_Source\PSoC5/LED.c ****             relPosition++;
2175:Generated_Source\PSoC5/LED.c ****         }
2176:Generated_Source\PSoC5/LED.c ****     }
2177:Generated_Source\PSoC5/LED.c ****     else
2178:Generated_Source\PSoC5/LED.c ****     {
2179:Generated_Source\PSoC5/LED.c ****         for(i = digits; i > 0u; i--)
2180:Generated_Source\PSoC5/LED.c ****         {
2181:Generated_Source\PSoC5/LED.c ****             if(((i + relPosition) - 1u) < LED_NUM_COM)
2182:Generated_Source\PSoC5/LED.c ****             {
2183:Generated_Source\PSoC5/LED.c ****                 LED_segLBuffer[(i + relPosition) - 1u] = LO8(bufArray[i-1u]);
2184:Generated_Source\PSoC5/LED.c ****             #if (LED_NUM_SEG > 8u)
2185:Generated_Source\PSoC5/LED.c ****                 LED_segMBuffer[(i + relPosition) - 1u] = HI8(bufArray[i-1u]);
2186:Generated_Source\PSoC5/LED.c ****             #endif /* (LED_NUM_SEG > 8u) */
2187:Generated_Source\PSoC5/LED.c ****             }
2188:Generated_Source\PSoC5/LED.c ****         }
2189:Generated_Source\PSoC5/LED.c ****     }
2190:Generated_Source\PSoC5/LED.c **** }
2191:Generated_Source\PSoC5/LED.c **** 
2192:Generated_Source\PSoC5/LED.c **** 
2193:Generated_Source\PSoC5/LED.c **** /*******************************************************************************
2194:Generated_Source\PSoC5/LED.c **** * Function Name: LED_WriteString16Seg
2195:Generated_Source\PSoC5/LED.c **** ********************************************************************************
2196:Generated_Source\PSoC5/LED.c **** *
2197:Generated_Source\PSoC5/LED.c **** * Summary:
2198:Generated_Source\PSoC5/LED.c **** *  Displays a null terminated string starting at 'position' and ending at either
2199:Generated_Source\PSoC5/LED.c **** *  the  the string or the  the display. The displayable characters 
2200:Generated_Source\PSoC5/LED.c **** *  are the same for the LED_Driver_PutCharacter() function. Non-displayable
2201:Generated_Source\PSoC5/LED.c **** *  characters will produce a blank space.
2202:Generated_Source\PSoC5/LED.c **** *
2203:Generated_Source\PSoC5/LED.c **** * Parameters:
2204:Generated_Source\PSoC5/LED.c **** *  char8 const character[]: The null terminated string to be displayed.
2205:Generated_Source\PSoC5/LED.c **** *  uint8 position: The position to start the string.
2206:Generated_Source\PSoC5/LED.c **** * Return:
2207:Generated_Source\PSoC5/LED.c **** *  None
2208:Generated_Source\PSoC5/LED.c **** *
2209:Generated_Source\PSoC5/LED.c **** * Side effects:
2210:Generated_Source\PSoC5/LED.c **** *  None
2211:Generated_Source\PSoC5/LED.c **** *
2212:Generated_Source\PSoC5/LED.c **** *******************************************************************************/
2213:Generated_Source\PSoC5/LED.c **** void LED_WriteString16Seg(char8 const character[], uint8 position)
2214:Generated_Source\PSoC5/LED.c **** 
2215:Generated_Source\PSoC5/LED.c **** {
2216:Generated_Source\PSoC5/LED.c ****     uint8 currPosition;
2217:Generated_Source\PSoC5/LED.c ****     uint8 sizeLimit;
2218:Generated_Source\PSoC5/LED.c ****     uint8 i = 0u;
2219:Generated_Source\PSoC5/LED.c ****     uint16 charDisplay;
2220:Generated_Source\PSoC5/LED.c ****     
2221:Generated_Source\PSoC5/LED.c ****     sizeLimit = (uint8)(strlen(character)) + position;
2222:Generated_Source\PSoC5/LED.c ****     
2223:Generated_Source\PSoC5/LED.c ****     for(currPosition = position; currPosition < LED_NUM_COM; currPosition++)
2224:Generated_Source\PSoC5/LED.c ****     {
ARM GAS  C:\Users\Tri94\AppData\Local\Temp\cc3LbiXl.s 			page 55


2225:Generated_Source\PSoC5/LED.c ****         if(currPosition < sizeLimit)
2226:Generated_Source\PSoC5/LED.c ****         {
2227:Generated_Source\PSoC5/LED.c ****             charDisplay = LED_EncodeChar16Seg(character[i]);
2228:Generated_Source\PSoC5/LED.c ****             LED_segLBuffer[currPosition] = LO8(charDisplay);
2229:Generated_Source\PSoC5/LED.c ****             #if (LED_NUM_SEG > 8u)
2230:Generated_Source\PSoC5/LED.c ****                 LED_segMBuffer[currPosition] = HI8(charDisplay);
2231:Generated_Source\PSoC5/LED.c ****             #endif /* (LED_NUM_SEG > 8u) */
2232:Generated_Source\PSoC5/LED.c ****             i++;
2233:Generated_Source\PSoC5/LED.c ****         }
2234:Generated_Source\PSoC5/LED.c ****     }
2235:Generated_Source\PSoC5/LED.c **** }
2236:Generated_Source\PSoC5/LED.c **** 
2237:Generated_Source\PSoC5/LED.c **** 
2238:Generated_Source\PSoC5/LED.c **** /*******************************************************************************
2239:Generated_Source\PSoC5/LED.c **** * Function Name: LED_PutChar16Seg
2240:Generated_Source\PSoC5/LED.c **** ********************************************************************************
2241:Generated_Source\PSoC5/LED.c **** *
2242:Generated_Source\PSoC5/LED.c **** * Summary:
2243:Generated_Source\PSoC5/LED.c **** *  Displays an ascii encoded character at 'position'. This function can display 
2244:Generated_Source\PSoC5/LED.c **** *  all alphanumeric characters. The function can also display '-', '.', '_', 
2245:Generated_Source\PSoC5/LED.c **** *  ' ', and '='. All unknown characters are displayed as a space.
2246:Generated_Source\PSoC5/LED.c **** *
2247:Generated_Source\PSoC5/LED.c **** * Parameters:
2248:Generated_Source\PSoC5/LED.c **** *  char8 character: ASCII character.
2249:Generated_Source\PSoC5/LED.c **** *  uint8 position: The position of the character.
2250:Generated_Source\PSoC5/LED.c **** * Return:
2251:Generated_Source\PSoC5/LED.c **** *  None
2252:Generated_Source\PSoC5/LED.c **** *
2253:Generated_Source\PSoC5/LED.c **** * Side effects:
2254:Generated_Source\PSoC5/LED.c **** *  None
2255:Generated_Source\PSoC5/LED.c **** *
2256:Generated_Source\PSoC5/LED.c **** *******************************************************************************/
2257:Generated_Source\PSoC5/LED.c **** void LED_PutChar16Seg(char8 character , uint8 position)
2258:Generated_Source\PSoC5/LED.c **** 
2259:Generated_Source\PSoC5/LED.c **** {
2260:Generated_Source\PSoC5/LED.c ****     uint16 charDisplay;
2261:Generated_Source\PSoC5/LED.c ****     
2262:Generated_Source\PSoC5/LED.c ****     if(position < LED_NUM_COM)
2263:Generated_Source\PSoC5/LED.c ****     {
2264:Generated_Source\PSoC5/LED.c ****         charDisplay = LED_EncodeChar16Seg(character);
2265:Generated_Source\PSoC5/LED.c ****         LED_segLBuffer[position] = LO8(charDisplay);
2266:Generated_Source\PSoC5/LED.c ****         #if (LED_NUM_SEG > 8u)
2267:Generated_Source\PSoC5/LED.c ****             LED_segMBuffer[position] = HI8(charDisplay);
2268:Generated_Source\PSoC5/LED.c ****         #endif /* (LED_NUM_SEG > 8u) */
2269:Generated_Source\PSoC5/LED.c ****     }
2270:Generated_Source\PSoC5/LED.c **** }
2271:Generated_Source\PSoC5/LED.c **** 
2272:Generated_Source\PSoC5/LED.c **** 
2273:Generated_Source\PSoC5/LED.c **** /*******************************************************************************
2274:Generated_Source\PSoC5/LED.c **** * Function Name: LED_Write16SegDigitDec
2275:Generated_Source\PSoC5/LED.c **** ********************************************************************************
2276:Generated_Source\PSoC5/LED.c **** *
2277:Generated_Source\PSoC5/LED.c **** * Summary:
2278:Generated_Source\PSoC5/LED.c **** *  Displays a single digit on the specified display. The number in 'digit' 
2279:Generated_Source\PSoC5/LED.c **** *  (0-9) is placed on 'position'.
2280:Generated_Source\PSoC5/LED.c **** *
2281:Generated_Source\PSoC5/LED.c **** * Parameters:
ARM GAS  C:\Users\Tri94\AppData\Local\Temp\cc3LbiXl.s 			page 56


2282:Generated_Source\PSoC5/LED.c **** *  uint8 digit: A number between 0 and 9 to display.
2283:Generated_Source\PSoC5/LED.c **** *  uint8 position: Position of the display in which to place the number.
2284:Generated_Source\PSoC5/LED.c **** * Return:
2285:Generated_Source\PSoC5/LED.c **** *  None
2286:Generated_Source\PSoC5/LED.c **** *
2287:Generated_Source\PSoC5/LED.c **** * Side effects:
2288:Generated_Source\PSoC5/LED.c **** *  None
2289:Generated_Source\PSoC5/LED.c **** *
2290:Generated_Source\PSoC5/LED.c **** *******************************************************************************/
2291:Generated_Source\PSoC5/LED.c **** void LED_Write16SegDigitDec(uint8 digit, uint8 position)
2292:Generated_Source\PSoC5/LED.c **** 
2293:Generated_Source\PSoC5/LED.c **** {
2294:Generated_Source\PSoC5/LED.c ****     uint16 charDisplay;
2295:Generated_Source\PSoC5/LED.c ****     
2296:Generated_Source\PSoC5/LED.c ****     if((digit < 10u) && (position < LED_NUM_COM))
2297:Generated_Source\PSoC5/LED.c ****     {
2298:Generated_Source\PSoC5/LED.c ****         charDisplay = LED_EncodeNumber16Seg(digit);
2299:Generated_Source\PSoC5/LED.c ****         LED_segLBuffer[position] = LO8(charDisplay);
2300:Generated_Source\PSoC5/LED.c ****         #if (LED_NUM_SEG > 8u)
2301:Generated_Source\PSoC5/LED.c ****             LED_segMBuffer[position] = HI8(charDisplay);
2302:Generated_Source\PSoC5/LED.c ****         #endif /* (LED_NUM_SEG > 8u) */
2303:Generated_Source\PSoC5/LED.c ****     }
2304:Generated_Source\PSoC5/LED.c **** }
2305:Generated_Source\PSoC5/LED.c **** 
2306:Generated_Source\PSoC5/LED.c **** 
2307:Generated_Source\PSoC5/LED.c **** /*******************************************************************************
2308:Generated_Source\PSoC5/LED.c **** * Function Name: LED_Write16SegDigitHex
2309:Generated_Source\PSoC5/LED.c **** ********************************************************************************
2310:Generated_Source\PSoC5/LED.c **** *
2311:Generated_Source\PSoC5/LED.c **** * Summary:
2312:Generated_Source\PSoC5/LED.c **** *  Displays a single digit at the specified position. The number in 'digit' 
2313:Generated_Source\PSoC5/LED.c **** *  (0-F) is placed on 'position'.
2314:Generated_Source\PSoC5/LED.c **** *
2315:Generated_Source\PSoC5/LED.c **** * Parameters:
2316:Generated_Source\PSoC5/LED.c **** *  uint8 digit: A number between 0x0 and 0xF (0 to 15).
2317:Generated_Source\PSoC5/LED.c **** *  uint8 position: The position in which to place the number.
2318:Generated_Source\PSoC5/LED.c **** * Return:
2319:Generated_Source\PSoC5/LED.c **** *  None
2320:Generated_Source\PSoC5/LED.c **** *
2321:Generated_Source\PSoC5/LED.c **** * Side effects:
2322:Generated_Source\PSoC5/LED.c **** *  None
2323:Generated_Source\PSoC5/LED.c **** *
2324:Generated_Source\PSoC5/LED.c **** *******************************************************************************/
2325:Generated_Source\PSoC5/LED.c **** void LED_Write16SegDigitHex(uint8 digit, uint8 position)
2326:Generated_Source\PSoC5/LED.c **** 
2327:Generated_Source\PSoC5/LED.c **** {
2328:Generated_Source\PSoC5/LED.c ****     uint16 charDisplay;
2329:Generated_Source\PSoC5/LED.c **** 
2330:Generated_Source\PSoC5/LED.c ****     if(position < LED_NUM_COM)
2331:Generated_Source\PSoC5/LED.c ****     {
2332:Generated_Source\PSoC5/LED.c ****         charDisplay = LED_EncodeNumber16Seg(digit);
2333:Generated_Source\PSoC5/LED.c ****         LED_segLBuffer[position] = LO8(charDisplay);
2334:Generated_Source\PSoC5/LED.c ****         #if (LED_NUM_SEG > 8u)
2335:Generated_Source\PSoC5/LED.c ****             LED_segMBuffer[position] = HI8(charDisplay);
2336:Generated_Source\PSoC5/LED.c ****         #endif /* (LED_NUM_SEG > 8u) */
2337:Generated_Source\PSoC5/LED.c ****     }
2338:Generated_Source\PSoC5/LED.c **** }
ARM GAS  C:\Users\Tri94\AppData\Local\Temp\cc3LbiXl.s 			page 57


2339:Generated_Source\PSoC5/LED.c **** 
2340:Generated_Source\PSoC5/LED.c **** 
2341:Generated_Source\PSoC5/LED.c **** /*******************************************************************************
2342:Generated_Source\PSoC5/LED.c **** * Function Name: LED_PutDecimalPoint
2343:Generated_Source\PSoC5/LED.c **** ********************************************************************************
2344:Generated_Source\PSoC5/LED.c **** *
2345:Generated_Source\PSoC5/LED.c **** * Summary:
2346:Generated_Source\PSoC5/LED.c **** *  Sets or clears the decimal point at the specified position.
2347:Generated_Source\PSoC5/LED.c **** *
2348:Generated_Source\PSoC5/LED.c **** * Parameters:
2349:Generated_Source\PSoC5/LED.c **** *  uint8 dp: If the value is > 0 the decimal point will be set, if zero, the 
2350:Generated_Source\PSoC5/LED.c **** *            decimal point will be cleared.
2351:Generated_Source\PSoC5/LED.c **** *  uint8 position: The position at which to adjust the decimal point.
2352:Generated_Source\PSoC5/LED.c **** * Return:
2353:Generated_Source\PSoC5/LED.c **** *  None
2354:Generated_Source\PSoC5/LED.c **** *
2355:Generated_Source\PSoC5/LED.c **** * Side effects:
2356:Generated_Source\PSoC5/LED.c **** *  None
2357:Generated_Source\PSoC5/LED.c **** *
2358:Generated_Source\PSoC5/LED.c **** *******************************************************************************/
2359:Generated_Source\PSoC5/LED.c **** void LED_PutDecimalPoint(uint8 dp, uint8 position)
2360:Generated_Source\PSoC5/LED.c **** 
2361:Generated_Source\PSoC5/LED.c **** {
 819              		.loc 1 2361 0
 820              		.cfi_startproc
 821              		@ args = 0, pretend = 0, frame = 0
 822              		@ frame_needed = 0, uses_anonymous_args = 0
 823              		@ link register save eliminated.
 824              	.LVL91:
2362:Generated_Source\PSoC5/LED.c ****     uint8 value;
2363:Generated_Source\PSoC5/LED.c ****     uint8 relPosition;
2364:Generated_Source\PSoC5/LED.c ****     
2365:Generated_Source\PSoC5/LED.c ****     value = LED_DEC_POINT_VALUE;
2366:Generated_Source\PSoC5/LED.c ****     
2367:Generated_Source\PSoC5/LED.c ****     if(position < LED_NUM_COM)
 825              		.loc 1 2367 0
 826 0000 0329     		cmp	r1, #3
 827 0002 0BD8     		bhi	.L85
 828              	.LVL92:
2368:Generated_Source\PSoC5/LED.c ****     {
2369:Generated_Source\PSoC5/LED.c ****         relPosition = position;
2370:Generated_Source\PSoC5/LED.c ****         if(dp != 0u)
 829              		.loc 1 2370 0
 830 0004 28B1     		cbz	r0, .L87
2371:Generated_Source\PSoC5/LED.c ****         {
2372:Generated_Source\PSoC5/LED.c ****             #if(LED_SEG_DRIVE == LED_HIGH)
2373:Generated_Source\PSoC5/LED.c ****                 LED_segLBuffer[relPosition] |= value;
 831              		.loc 1 2373 0
 832 0006 064A     		ldr	r2, .L88
 833 0008 535C     		ldrb	r3, [r2, r1]	@ zero_extendqisi2
 834 000a 63F07F03 		orn	r3, r3, #127
 835 000e 5354     		strb	r3, [r2, r1]
 836 0010 7047     		bx	lr
 837              	.L87:
2374:Generated_Source\PSoC5/LED.c ****             #else
2375:Generated_Source\PSoC5/LED.c ****                 LED_segLBuffer[relPosition] &= value;
2376:Generated_Source\PSoC5/LED.c ****             #endif /* (LED_SEG_DRIVE == LED_HIGH) */
ARM GAS  C:\Users\Tri94\AppData\Local\Temp\cc3LbiXl.s 			page 58


2377:Generated_Source\PSoC5/LED.c ****         }
2378:Generated_Source\PSoC5/LED.c ****         else
2379:Generated_Source\PSoC5/LED.c ****         {
2380:Generated_Source\PSoC5/LED.c ****             #if(LED_SEG_DRIVE == LED_HIGH)
2381:Generated_Source\PSoC5/LED.c ****                 LED_segLBuffer[relPosition] &= ((uint8)(~(uint8)value));
 838              		.loc 1 2381 0
 839 0012 034A     		ldr	r2, .L88
 840 0014 535C     		ldrb	r3, [r2, r1]	@ zero_extendqisi2
 841 0016 03F07F03 		and	r3, r3, #127
 842 001a 5354     		strb	r3, [r2, r1]
 843              	.LVL93:
 844              	.L85:
 845 001c 7047     		bx	lr
 846              	.L89:
 847 001e 00BF     		.align	2
 848              	.L88:
 849 0020 00000000 		.word	LED_segLBuffer
 850              		.cfi_endproc
 851              	.LFE32:
 852              		.size	LED_PutDecimalPoint, .-LED_PutDecimalPoint
 853              		.section	.text.LED_GetDecimalPoint,"ax",%progbits
 854              		.align	2
 855              		.global	LED_GetDecimalPoint
 856              		.thumb
 857              		.thumb_func
 858              		.type	LED_GetDecimalPoint, %function
 859              	LED_GetDecimalPoint:
 860              	.LFB33:
2382:Generated_Source\PSoC5/LED.c ****             #else
2383:Generated_Source\PSoC5/LED.c ****                 LED_segLBuffer[relPosition] |= ((uint8)(~(uint8)value));
2384:Generated_Source\PSoC5/LED.c ****             #endif /* (LED_SEG_DRIVE == LED_HIGH) */
2385:Generated_Source\PSoC5/LED.c ****         }
2386:Generated_Source\PSoC5/LED.c ****     } 
2387:Generated_Source\PSoC5/LED.c ****     else if (position < LED_TWO_NUM_COM)
2388:Generated_Source\PSoC5/LED.c ****     {
2389:Generated_Source\PSoC5/LED.c ****         #if (LED_NUM_SEG > 8u)
2390:Generated_Source\PSoC5/LED.c ****             relPosition = position - LED_NUM_COM;
2391:Generated_Source\PSoC5/LED.c ****             if(dp != 0u)
2392:Generated_Source\PSoC5/LED.c ****             {
2393:Generated_Source\PSoC5/LED.c ****                 #if(LED_SEG_DRIVE == LED_HIGH)
2394:Generated_Source\PSoC5/LED.c ****                     LED_segMBuffer[relPosition] |= value;
2395:Generated_Source\PSoC5/LED.c ****                 #else
2396:Generated_Source\PSoC5/LED.c ****                     LED_segMBuffer[relPosition] &= value;
2397:Generated_Source\PSoC5/LED.c ****                 #endif /* (LED_SEG_DRIVE == LED_HIGH) */
2398:Generated_Source\PSoC5/LED.c ****             }
2399:Generated_Source\PSoC5/LED.c ****             else
2400:Generated_Source\PSoC5/LED.c ****             {
2401:Generated_Source\PSoC5/LED.c ****                 #if(LED_SEG_DRIVE == LED_HIGH)
2402:Generated_Source\PSoC5/LED.c ****                     LED_segMBuffer[relPosition] &= ((uint8)(~(uint8)value));
2403:Generated_Source\PSoC5/LED.c ****                 #else
2404:Generated_Source\PSoC5/LED.c ****                     LED_segMBuffer[relPosition] |= ((uint8)(~(uint8)value));
2405:Generated_Source\PSoC5/LED.c ****                 #endif /* (LED_SEG_DRIVE == LED_HIGH) */
2406:Generated_Source\PSoC5/LED.c ****             }
2407:Generated_Source\PSoC5/LED.c ****         #endif /* (LED_NUM_SEG > 8u) */
2408:Generated_Source\PSoC5/LED.c ****     } 
2409:Generated_Source\PSoC5/LED.c ****     else
2410:Generated_Source\PSoC5/LED.c ****     {
ARM GAS  C:\Users\Tri94\AppData\Local\Temp\cc3LbiXl.s 			page 59


2411:Generated_Source\PSoC5/LED.c ****         #if (LED_NUM_SEG > 16u)
2412:Generated_Source\PSoC5/LED.c ****             relPosition = position - LED_TWO_NUM_COM;
2413:Generated_Source\PSoC5/LED.c ****             if(relPosition < LED_NUM_COM)
2414:Generated_Source\PSoC5/LED.c ****             {
2415:Generated_Source\PSoC5/LED.c ****                 if(dp != 0u)
2416:Generated_Source\PSoC5/LED.c ****                 {
2417:Generated_Source\PSoC5/LED.c ****                     #if(LED_SEG_DRIVE == LED_HIGH)
2418:Generated_Source\PSoC5/LED.c ****                         LED_segHBuffer[relPosition] |= value;
2419:Generated_Source\PSoC5/LED.c ****                     #else
2420:Generated_Source\PSoC5/LED.c ****                         LED_segHBuffer[relPosition] &= value;
2421:Generated_Source\PSoC5/LED.c ****                     #endif /* (LED_SEG_DRIVE == LED_HIGH) */
2422:Generated_Source\PSoC5/LED.c ****                 }
2423:Generated_Source\PSoC5/LED.c ****                 else
2424:Generated_Source\PSoC5/LED.c ****                 {
2425:Generated_Source\PSoC5/LED.c ****                     #if(LED_SEG_DRIVE == LED_HIGH)
2426:Generated_Source\PSoC5/LED.c ****                         LED_segHBuffer[relPosition] &= ((uint8)(~(uint8)value));
2427:Generated_Source\PSoC5/LED.c ****                     #else
2428:Generated_Source\PSoC5/LED.c ****                         LED_segHBuffer[relPosition] |= ((uint8)(~(uint8)value));
2429:Generated_Source\PSoC5/LED.c ****                     #endif /* (LED_SEG_DRIVE == LED_HIGH) */
2430:Generated_Source\PSoC5/LED.c ****                 }
2431:Generated_Source\PSoC5/LED.c ****             }
2432:Generated_Source\PSoC5/LED.c ****         #endif /* (LED_NUM_SEG > 16u) */
2433:Generated_Source\PSoC5/LED.c ****     }
2434:Generated_Source\PSoC5/LED.c **** }
2435:Generated_Source\PSoC5/LED.c **** 
2436:Generated_Source\PSoC5/LED.c **** 
2437:Generated_Source\PSoC5/LED.c **** /*******************************************************************************
2438:Generated_Source\PSoC5/LED.c **** * Function Name: LED_GetDecimalPoint
2439:Generated_Source\PSoC5/LED.c **** ********************************************************************************
2440:Generated_Source\PSoC5/LED.c **** *
2441:Generated_Source\PSoC5/LED.c **** * Summary:
2442:Generated_Source\PSoC5/LED.c **** *  Returns zero if the decimal point is not set and one if the decimal point 
2443:Generated_Source\PSoC5/LED.c **** *  is set.
2444:Generated_Source\PSoC5/LED.c **** *
2445:Generated_Source\PSoC5/LED.c **** * Parameters:
2446:Generated_Source\PSoC5/LED.c **** *  uint8 position: The position in which to query the decimal point value.
2447:Generated_Source\PSoC5/LED.c **** *
2448:Generated_Source\PSoC5/LED.c **** * Return:
2449:Generated_Source\PSoC5/LED.c **** *  Returns the current state of the decimal point (segment #7 on a 7-seg 
2450:Generated_Source\PSoC5/LED.c **** *  display). '1' indicates the decimal point is on. '0' indicates the decimal 
2451:Generated_Source\PSoC5/LED.c **** *  point is off.
2452:Generated_Source\PSoC5/LED.c **** *
2453:Generated_Source\PSoC5/LED.c **** * Side effects:
2454:Generated_Source\PSoC5/LED.c **** *  None
2455:Generated_Source\PSoC5/LED.c **** *
2456:Generated_Source\PSoC5/LED.c **** *******************************************************************************/
2457:Generated_Source\PSoC5/LED.c **** uint8 LED_GetDecimalPoint(uint8 position) 
2458:Generated_Source\PSoC5/LED.c **** {
 861              		.loc 1 2458 0
 862              		.cfi_startproc
 863              		@ args = 0, pretend = 0, frame = 0
 864              		@ frame_needed = 0, uses_anonymous_args = 0
 865              		@ link register save eliminated.
 866              	.LVL94:
2459:Generated_Source\PSoC5/LED.c ****     uint8 value;
2460:Generated_Source\PSoC5/LED.c ****     uint8 relPosition;
2461:Generated_Source\PSoC5/LED.c ****     uint8 decPointVal = 0u;
ARM GAS  C:\Users\Tri94\AppData\Local\Temp\cc3LbiXl.s 			page 60


2462:Generated_Source\PSoC5/LED.c ****     
2463:Generated_Source\PSoC5/LED.c ****     if(position < LED_NUM_COM)
 867              		.loc 1 2463 0
 868 0000 0328     		cmp	r0, #3
 869 0002 03D8     		bhi	.L92
 870              	.LVL95:
2464:Generated_Source\PSoC5/LED.c ****     {
2465:Generated_Source\PSoC5/LED.c ****         relPosition = position;
2466:Generated_Source\PSoC5/LED.c ****         decPointVal = (uint8)((uint8)(LED_segLBuffer[relPosition]) >> LED_DEC_POINT);
 871              		.loc 1 2466 0
 872 0004 024B     		ldr	r3, .L93
 873 0006 185C     		ldrb	r0, [r3, r0]	@ zero_extendqisi2
 874              	.LVL96:
 875 0008 C009     		lsrs	r0, r0, #7
 876              	.LVL97:
 877 000a 7047     		bx	lr
 878              	.LVL98:
 879              	.L92:
2461:Generated_Source\PSoC5/LED.c ****     
 880              		.loc 1 2461 0
 881 000c 0020     		movs	r0, #0
 882              	.LVL99:
2467:Generated_Source\PSoC5/LED.c ****     } 
2468:Generated_Source\PSoC5/LED.c ****     else if (position < LED_TWO_NUM_COM)
2469:Generated_Source\PSoC5/LED.c ****     {
2470:Generated_Source\PSoC5/LED.c ****         #if (LED_NUM_SEG > 8u) 
2471:Generated_Source\PSoC5/LED.c ****             relPosition = position - LED_NUM_COM;
2472:Generated_Source\PSoC5/LED.c ****             decPointVal = (uint8)((uint8)(LED_segMBuffer[relPosition]) >> LED_DEC_POINT);
2473:Generated_Source\PSoC5/LED.c ****         #endif /* (LED_NUM_SEG > 8u) */
2474:Generated_Source\PSoC5/LED.c ****     }
2475:Generated_Source\PSoC5/LED.c ****     else
2476:Generated_Source\PSoC5/LED.c ****     {
2477:Generated_Source\PSoC5/LED.c ****         #if (LED_NUM_SEG > 16u)
2478:Generated_Source\PSoC5/LED.c ****             relPosition = position - LED_TWO_NUM_COM;
2479:Generated_Source\PSoC5/LED.c ****             if(relPosition < LED_NUM_COM)
2480:Generated_Source\PSoC5/LED.c ****             {
2481:Generated_Source\PSoC5/LED.c ****                 decPointVal = (uint8)((uint8)(LED_segHBuffer[relPosition]) >> LED_DEC_POINT);
2482:Generated_Source\PSoC5/LED.c ****             }
2483:Generated_Source\PSoC5/LED.c ****         #endif /* (LED_NUM_SEG > 16u) */
2484:Generated_Source\PSoC5/LED.c ****     }
2485:Generated_Source\PSoC5/LED.c ****     
2486:Generated_Source\PSoC5/LED.c ****     #if(LED_SEG_DRIVE == LED_HIGH)
2487:Generated_Source\PSoC5/LED.c ****         value = (uint8)(decPointVal & LED_DEC_POINT_MASK);
2488:Generated_Source\PSoC5/LED.c ****     #else
2489:Generated_Source\PSoC5/LED.c ****         value = (uint8)((uint8)((uint8)~decPointVal) & LED_DEC_POINT_MASK);
2490:Generated_Source\PSoC5/LED.c ****     #endif /* (LED_SEG_DRIVE == LED_HIGH) */
2491:Generated_Source\PSoC5/LED.c ****     
2492:Generated_Source\PSoC5/LED.c ****     return(value);
2493:Generated_Source\PSoC5/LED.c **** }
 883              		.loc 1 2493 0
 884 000e 7047     		bx	lr
 885              	.L94:
 886              		.align	2
 887              	.L93:
 888 0010 00000000 		.word	LED_segLBuffer
 889              		.cfi_endproc
 890              	.LFE33:
ARM GAS  C:\Users\Tri94\AppData\Local\Temp\cc3LbiXl.s 			page 61


 891              		.size	LED_GetDecimalPoint, .-LED_GetDecimalPoint
 892              		.section	.text.LED_EncodeNumber7Seg,"ax",%progbits
 893              		.align	2
 894              		.global	LED_EncodeNumber7Seg
 895              		.thumb
 896              		.thumb_func
 897              		.type	LED_EncodeNumber7Seg, %function
 898              	LED_EncodeNumber7Seg:
 899              	.LFB34:
2494:Generated_Source\PSoC5/LED.c **** 
2495:Generated_Source\PSoC5/LED.c **** 
2496:Generated_Source\PSoC5/LED.c **** /*******************************************************************************
2497:Generated_Source\PSoC5/LED.c **** * Function Name: LED_EncodeNumber7Seg
2498:Generated_Source\PSoC5/LED.c **** ********************************************************************************
2499:Generated_Source\PSoC5/LED.c **** *
2500:Generated_Source\PSoC5/LED.c **** * Summary:
2501:Generated_Source\PSoC5/LED.c **** *  Converts the lower 4 bits of the input into 7-segment data that will display 
2502:Generated_Source\PSoC5/LED.c **** *  the number in hex on a display. The returned data can be written directly 
2503:Generated_Source\PSoC5/LED.c **** *  into the display RAM to display the desired number. It is not necessary to 
2504:Generated_Source\PSoC5/LED.c **** *  use this function since higher level API are provided to both decode the 
2505:Generated_Source\PSoC5/LED.c **** *  value and write it to the display RAM.
2506:Generated_Source\PSoC5/LED.c **** *
2507:Generated_Source\PSoC5/LED.c **** * Parameters:
2508:Generated_Source\PSoC5/LED.c **** *  uint8 number: A number between 0x0 and 0xF to be converted into segment data.
2509:Generated_Source\PSoC5/LED.c **** *
2510:Generated_Source\PSoC5/LED.c **** * Return:
2511:Generated_Source\PSoC5/LED.c **** *  The value to be written into the display RAM for displaying the specific
2512:Generated_Source\PSoC5/LED.c **** *  number.
2513:Generated_Source\PSoC5/LED.c **** *
2514:Generated_Source\PSoC5/LED.c **** * Side effects:
2515:Generated_Source\PSoC5/LED.c **** *  None
2516:Generated_Source\PSoC5/LED.c **** *
2517:Generated_Source\PSoC5/LED.c **** *******************************************************************************/
2518:Generated_Source\PSoC5/LED.c **** uint8 LED_EncodeNumber7Seg(uint8 number) 
2519:Generated_Source\PSoC5/LED.c **** {
 900              		.loc 1 2519 0
 901              		.cfi_startproc
 902              		@ args = 0, pretend = 0, frame = 0
 903              		@ frame_needed = 0, uses_anonymous_args = 0
 904              		@ link register save eliminated.
 905              	.LVL100:
2520:Generated_Source\PSoC5/LED.c ****     /* 7-segment numerical LUT */
2521:Generated_Source\PSoC5/LED.c ****     #if(LED_SEG_DRIVE == LED_HIGH)
2522:Generated_Source\PSoC5/LED.c ****         static const uint8 CYCODE LED_7SegDigits[16] =
2523:Generated_Source\PSoC5/LED.c ****               /*--------------------------------------------------------*/
2524:Generated_Source\PSoC5/LED.c ****               /*  '0'    '1'    '2'    '3'    '4'    '5'    '6'    '7'  */
2525:Generated_Source\PSoC5/LED.c ****               /*--------------------------------------------------------*/
2526:Generated_Source\PSoC5/LED.c ****                 {0x3fu, 0x06u, 0x5bu, 0x4fu, 0x66u, 0x6du, 0x7du, 0x07u,
2527:Generated_Source\PSoC5/LED.c ****               /*--------------------------------------------------------*/
2528:Generated_Source\PSoC5/LED.c ****               /*  '8'    '9'    'A'    'B'    'C'    'D'    'E'    'F'  */
2529:Generated_Source\PSoC5/LED.c ****               /*--------------------------------------------------------*/
2530:Generated_Source\PSoC5/LED.c ****                  0x7fu, 0x6fu, 0x77u, 0x7cu, 0x39u, 0x5eu, 0x79u, 0x71u};
2531:Generated_Source\PSoC5/LED.c ****     #else
2532:Generated_Source\PSoC5/LED.c ****         static const uint8 CYCODE LED_7SegDigits[16] =
2533:Generated_Source\PSoC5/LED.c ****               /*--------------------------------------------------------*/
2534:Generated_Source\PSoC5/LED.c ****               /*  '0'    '1'    '2'    '3'    '4'    '5'    '6'    '7'  */
2535:Generated_Source\PSoC5/LED.c ****               /*--------------------------------------------------------*/
ARM GAS  C:\Users\Tri94\AppData\Local\Temp\cc3LbiXl.s 			page 62


2536:Generated_Source\PSoC5/LED.c ****                 {0xc0u, 0xf9u, 0xa4u, 0xb0u, 0x99u, 0x92u, 0x82u, 0xf8u,
2537:Generated_Source\PSoC5/LED.c ****               /*--------------------------------------------------------*/
2538:Generated_Source\PSoC5/LED.c ****               /*  '8'    '9'    'A'    'B'    'C'    'D'    'E'    'F'  */
2539:Generated_Source\PSoC5/LED.c ****               /*--------------------------------------------------------*/
2540:Generated_Source\PSoC5/LED.c ****                  0x80u, 0x90u, 0x88u, 0x83u, 0xc6u, 0xa1u, 0x86u, 0x8eu};
2541:Generated_Source\PSoC5/LED.c ****     #endif /*  LED_SEG_DRIVE */
2542:Generated_Source\PSoC5/LED.c **** 
2543:Generated_Source\PSoC5/LED.c ****     uint8 valNum;
2544:Generated_Source\PSoC5/LED.c ****     uint8 valHex;
2545:Generated_Source\PSoC5/LED.c ****     
2546:Generated_Source\PSoC5/LED.c ****     valNum = (uint8)(number & LED_NIBBLE_MASK);
 906              		.loc 1 2546 0
 907 0000 00F00F00 		and	r0, r0, #15
 908              	.LVL101:
2547:Generated_Source\PSoC5/LED.c ****     
2548:Generated_Source\PSoC5/LED.c ****     valHex = LED_7SegDigits[valNum];
2549:Generated_Source\PSoC5/LED.c ****     
2550:Generated_Source\PSoC5/LED.c ****     return(valHex);
2551:Generated_Source\PSoC5/LED.c **** }
 909              		.loc 1 2551 0
 910 0004 014B     		ldr	r3, .L96
 911 0006 185C     		ldrb	r0, [r3, r0]	@ zero_extendqisi2
 912              	.LVL102:
 913 0008 7047     		bx	lr
 914              	.L97:
 915 000a 00BF     		.align	2
 916              	.L96:
 917 000c 00000000 		.word	.LANCHOR2
 918              		.cfi_endproc
 919              	.LFE34:
 920              		.size	LED_EncodeNumber7Seg, .-LED_EncodeNumber7Seg
 921              		.section	.text.LED_Write7SegNumberHex,"ax",%progbits
 922              		.align	2
 923              		.global	LED_Write7SegNumberHex
 924              		.thumb
 925              		.thumb_func
 926              		.type	LED_Write7SegNumberHex, %function
 927              	LED_Write7SegNumberHex:
 928              	.LFB15:
1122:Generated_Source\PSoC5/LED.c ****     uint8 i;
 929              		.loc 1 1122 0
 930              		.cfi_startproc
 931              		@ args = 0, pretend = 0, frame = 8
 932              		@ frame_needed = 0, uses_anonymous_args = 0
 933              	.LVL103:
 934 0000 2DE9F043 		push	{r4, r5, r6, r7, r8, r9, lr}
 935              		.cfi_def_cfa_offset 28
 936              		.cfi_offset 4, -28
 937              		.cfi_offset 5, -24
 938              		.cfi_offset 6, -20
 939              		.cfi_offset 7, -16
 940              		.cfi_offset 8, -12
 941              		.cfi_offset 9, -8
 942              		.cfi_offset 14, -4
 943 0004 83B0     		sub	sp, sp, #12
 944              		.cfi_def_cfa_offset 40
 945 0006 8146     		mov	r9, r0
ARM GAS  C:\Users\Tri94\AppData\Local\Temp\cc3LbiXl.s 			page 63


 946 0008 0E46     		mov	r6, r1
 947 000a 1446     		mov	r4, r2
 948 000c 9846     		mov	r8, r3
 949              	.LVL104:
1128:Generated_Source\PSoC5/LED.c ****     uint32 numberVal;
 950              		.loc 1 1128 0
 951 000e 0023     		movs	r3, #0
 952              	.LVL105:
 953 0010 0093     		str	r3, [sp]
 954 0012 0193     		str	r3, [sp, #4]
 955              	.LVL106:
1134:Generated_Source\PSoC5/LED.c ****     {
 956              		.loc 1 1134 0
 957 0014 0329     		cmp	r1, #3
 958 0016 0AD9     		bls	.L124
1139:Generated_Source\PSoC5/LED.c ****     {
 959              		.loc 1 1139 0
 960 0018 0729     		cmp	r1, #7
 961 001a 03D8     		bhi	.L100
 962              	.LVL107:
1142:Generated_Source\PSoC5/LED.c ****     }
 963              		.loc 1 1142 0
 964 001c 0E1F     		subs	r6, r1, #4
 965 001e F6B2     		uxtb	r6, r6
 966              	.LVL108:
1141:Generated_Source\PSoC5/LED.c ****         relPosition = position - LED_NUM_COM;
 967              		.loc 1 1141 0
 968 0020 0127     		movs	r7, #1
 969 0022 05E0     		b	.L99
 970              	.LVL109:
 971              	.L100:
1147:Generated_Source\PSoC5/LED.c ****     }
 972              		.loc 1 1147 0
 973 0024 A1F10806 		sub	r6, r1, #8
 974 0028 F6B2     		uxtb	r6, r6
 975              	.LVL110:
1146:Generated_Source\PSoC5/LED.c ****         relPosition = position - LED_TWO_NUM_COM;
 976              		.loc 1 1146 0
 977 002a 0227     		movs	r7, #2
 978 002c 00E0     		b	.L99
 979              	.LVL111:
 980              	.L124:
1136:Generated_Source\PSoC5/LED.c ****         relPosition = position;
 981              		.loc 1 1136 0
 982 002e 0027     		movs	r7, #0
 983              	.L99:
 984              	.LVL112:
1151:Generated_Source\PSoC5/LED.c ****     {
 985              		.loc 1 1151 0
 986 0030 2346     		mov	r3, r4
 987 0032 0BE0     		b	.L101
 988              	.LVL113:
 989              	.L102:
1154:Generated_Source\PSoC5/LED.c ****         numberVal = (uint32)((uint32)numberVal >> LED_SHIFT_NIBBLE);
 990              		.loc 1 1154 0 discriminator 3
 991 0034 5D1E     		subs	r5, r3, #1
 992 0036 09F00F00 		and	r0, r9, #15
ARM GAS  C:\Users\Tri94\AppData\Local\Temp\cc3LbiXl.s 			page 64


 993 003a FFF7FEFF 		bl	LED_EncodeNumber7Seg
 994              	.LVL114:
 995 003e 02AB     		add	r3, sp, #8
 996 0040 2B44     		add	r3, r3, r5
 997 0042 03F8080C 		strb	r0, [r3, #-8]
1155:Generated_Source\PSoC5/LED.c ****     }
 998              		.loc 1 1155 0 discriminator 3
 999 0046 4FEA1919 		lsr	r9, r9, #4
 1000              	.LVL115:
1151:Generated_Source\PSoC5/LED.c ****     {
 1001              		.loc 1 1151 0 discriminator 3
 1002 004a EBB2     		uxtb	r3, r5
 1003              	.LVL116:
 1004              	.L101:
1151:Generated_Source\PSoC5/LED.c ****     {
 1005              		.loc 1 1151 0 is_stmt 0 discriminator 1
 1006 004c 002B     		cmp	r3, #0
 1007 004e F1D1     		bne	.L102
1159:Generated_Source\PSoC5/LED.c ****     {
 1008              		.loc 1 1159 0 is_stmt 1
 1009 0050 B8F1020F 		cmp	r8, #2
 1010 0054 14D1     		bne	.L125
 1011 0056 17E0     		b	.L104
 1012              	.LVL117:
 1013              	.L106:
1163:Generated_Source\PSoC5/LED.c ****             {
 1014              		.loc 1 1163 0
 1015 0058 1946     		mov	r1, r3
 1016 005a 02A8     		add	r0, sp, #8
 1017 005c 1844     		add	r0, r0, r3
 1018 005e 10F8080C 		ldrb	r0, [r0, #-8]	@ zero_extendqisi2
 1019 0062 3F28     		cmp	r0, #63
 1020 0064 10D1     		bne	.L104
1170:Generated_Source\PSoC5/LED.c ****                 {
 1021              		.loc 1 1170 0
 1022 0066 601E     		subs	r0, r4, #1
 1023 0068 8242     		cmp	r2, r0
 1024 006a 06D0     		beq	.L105
1173:Generated_Source\PSoC5/LED.c ****                     zeroCount++;
 1025              		.loc 1 1173 0
 1026 006c 02A8     		add	r0, sp, #8
 1027 006e 0144     		add	r1, r1, r0
 1028 0070 0020     		movs	r0, #0
 1029 0072 01F8080C 		strb	r0, [r1, #-8]
1174:Generated_Source\PSoC5/LED.c ****                 }
 1030              		.loc 1 1174 0
 1031 0076 0132     		adds	r2, r2, #1
 1032              	.LVL118:
 1033 0078 D2B2     		uxtb	r2, r2
 1034              	.LVL119:
 1035              	.L105:
1161:Generated_Source\PSoC5/LED.c ****         {
 1036              		.loc 1 1161 0 discriminator 2
 1037 007a 0133     		adds	r3, r3, #1
 1038              	.LVL120:
 1039 007c DBB2     		uxtb	r3, r3
 1040              	.LVL121:
ARM GAS  C:\Users\Tri94\AppData\Local\Temp\cc3LbiXl.s 			page 65


 1041 007e 01E0     		b	.L103
 1042              	.LVL122:
 1043              	.L125:
 1044 0080 0022     		movs	r2, #0
 1045 0082 1346     		mov	r3, r2
 1046              	.LVL123:
 1047              	.L103:
1161:Generated_Source\PSoC5/LED.c ****         {
 1048              		.loc 1 1161 0 is_stmt 0 discriminator 1
 1049 0084 A342     		cmp	r3, r4
 1050 0086 E7D3     		bcc	.L106
 1051              	.LVL124:
 1052              	.L104:
1181:Generated_Source\PSoC5/LED.c ****     {
 1053              		.loc 1 1181 0 is_stmt 1
 1054 0088 B8F1010F 		cmp	r8, #1
 1055 008c 42D1     		bne	.L108
 1056 008e 14E0     		b	.L126
 1057              	.L113:
1185:Generated_Source\PSoC5/LED.c ****             {
 1058              		.loc 1 1185 0
 1059 0090 02AA     		add	r2, sp, #8
 1060 0092 1A44     		add	r2, r2, r3
 1061 0094 12F8082C 		ldrb	r2, [r2, #-8]	@ zero_extendqisi2
 1062 0098 62B1     		cbz	r2, .L109
1187:Generated_Source\PSoC5/LED.c ****                 {
 1063              		.loc 1 1187 0
 1064 009a 032E     		cmp	r6, #3
 1065 009c 08D8     		bhi	.L110
1190:Generated_Source\PSoC5/LED.c ****                     {
 1066              		.loc 1 1190 0
 1067 009e 17B1     		cbz	r7, .L112
 1068 00a0 022F     		cmp	r7, #2
 1069 00a2 03D8     		bhi	.L111
 1070 00a4 04E0     		b	.L110
 1071              	.L112:
1193:Generated_Source\PSoC5/LED.c ****                             break;
 1072              		.loc 1 1193 0
 1073 00a6 1E49     		ldr	r1, .L128
 1074 00a8 8A55     		strb	r2, [r1, r6]
1194:Generated_Source\PSoC5/LED.c ****                         case LED_SEG_REG_MID :
 1075              		.loc 1 1194 0
 1076 00aa 01E0     		b	.L110
 1077              	.L111:
1206:Generated_Source\PSoC5/LED.c ****                             break;
 1078              		.loc 1 1206 0
 1079 00ac 1C49     		ldr	r1, .L128
 1080 00ae 8A55     		strb	r2, [r1, r6]
 1081              	.L110:
1210:Generated_Source\PSoC5/LED.c ****             }
 1082              		.loc 1 1210 0
 1083 00b0 0136     		adds	r6, r6, #1
 1084              	.LVL125:
 1085 00b2 F6B2     		uxtb	r6, r6
 1086              	.LVL126:
 1087              	.L109:
1183:Generated_Source\PSoC5/LED.c ****         {
ARM GAS  C:\Users\Tri94\AppData\Local\Temp\cc3LbiXl.s 			page 66


 1088              		.loc 1 1183 0 discriminator 2
 1089 00b4 0133     		adds	r3, r3, #1
 1090              	.LVL127:
 1091 00b6 DBB2     		uxtb	r3, r3
 1092              	.LVL128:
 1093 00b8 00E0     		b	.L107
 1094              	.L126:
 1095 00ba 0023     		movs	r3, #0
 1096              	.LVL129:
 1097              	.L107:
1183:Generated_Source\PSoC5/LED.c ****         {
 1098              		.loc 1 1183 0 is_stmt 0 discriminator 1
 1099 00bc A342     		cmp	r3, r4
 1100 00be E7D3     		bcc	.L113
 1101 00c0 0CE0     		b	.L114
 1102              	.LVL130:
 1103              	.L118:
1216:Generated_Source\PSoC5/LED.c ****             {
 1104              		.loc 1 1216 0 is_stmt 1
 1105 00c2 17B1     		cbz	r7, .L116
 1106 00c4 022F     		cmp	r7, #2
 1107 00c6 04D8     		bhi	.L115
 1108 00c8 06E0     		b	.L117
 1109              	.L116:
1219:Generated_Source\PSoC5/LED.c ****                     break;
 1110              		.loc 1 1219 0
 1111 00ca 0022     		movs	r2, #0
 1112 00cc 144B     		ldr	r3, .L128
 1113 00ce 9A55     		strb	r2, [r3, r6]
1220:Generated_Source\PSoC5/LED.c ****                 case LED_SEG_REG_MID :
 1114              		.loc 1 1220 0
 1115 00d0 02E0     		b	.L117
 1116              	.L115:
1232:Generated_Source\PSoC5/LED.c ****                     break;
 1117              		.loc 1 1232 0
 1118 00d2 0022     		movs	r2, #0
 1119 00d4 124B     		ldr	r3, .L128
 1120 00d6 9A55     		strb	r2, [r3, r6]
 1121              	.L117:
1235:Generated_Source\PSoC5/LED.c ****         }
 1122              		.loc 1 1235 0
 1123 00d8 0136     		adds	r6, r6, #1
 1124              	.LVL131:
 1125 00da F6B2     		uxtb	r6, r6
 1126              	.LVL132:
 1127              	.L114:
1214:Generated_Source\PSoC5/LED.c ****         {
 1128              		.loc 1 1214 0
 1129 00dc A642     		cmp	r6, r4
 1130 00de F0D3     		bcc	.L118
 1131 00e0 1AE0     		b	.L98
 1132              	.LVL133:
 1133              	.L123:
1243:Generated_Source\PSoC5/LED.c ****             {
 1134              		.loc 1 1243 0
 1135 00e2 A319     		adds	r3, r4, r6
 1136 00e4 013B     		subs	r3, r3, #1
ARM GAS  C:\Users\Tri94\AppData\Local\Temp\cc3LbiXl.s 			page 67


 1137 00e6 032B     		cmp	r3, #3
 1138 00e8 12D8     		bhi	.L120
1246:Generated_Source\PSoC5/LED.c ****                 {
 1139              		.loc 1 1246 0
 1140 00ea 17B1     		cbz	r7, .L122
 1141 00ec 022F     		cmp	r7, #2
 1142 00ee 08D8     		bhi	.L121
 1143 00f0 0EE0     		b	.L120
 1144              	.L122:
1249:Generated_Source\PSoC5/LED.c ****                         break;
 1145              		.loc 1 1249 0
 1146 00f2 621E     		subs	r2, r4, #1
 1147 00f4 02A9     		add	r1, sp, #8
 1148 00f6 0A44     		add	r2, r2, r1
 1149 00f8 12F8081C 		ldrb	r1, [r2, #-8]	@ zero_extendqisi2
 1150 00fc 084A     		ldr	r2, .L128
 1151 00fe D154     		strb	r1, [r2, r3]
1250:Generated_Source\PSoC5/LED.c ****                     case LED_SEG_REG_MID :
 1152              		.loc 1 1250 0
 1153 0100 06E0     		b	.L120
 1154              	.L121:
1262:Generated_Source\PSoC5/LED.c ****                         break;
 1155              		.loc 1 1262 0
 1156 0102 621E     		subs	r2, r4, #1
 1157 0104 02A9     		add	r1, sp, #8
 1158 0106 0A44     		add	r2, r2, r1
 1159 0108 12F8081C 		ldrb	r1, [r2, #-8]	@ zero_extendqisi2
 1160 010c 044A     		ldr	r2, .L128
 1161 010e D154     		strb	r1, [r2, r3]
 1162              	.L120:
1241:Generated_Source\PSoC5/LED.c ****         {
 1163              		.loc 1 1241 0 discriminator 2
 1164 0110 013C     		subs	r4, r4, #1
 1165              	.LVL134:
 1166 0112 E4B2     		uxtb	r4, r4
 1167              	.LVL135:
 1168              	.L108:
1241:Generated_Source\PSoC5/LED.c ****         {
 1169              		.loc 1 1241 0 is_stmt 0 discriminator 1
 1170 0114 002C     		cmp	r4, #0
 1171 0116 E4D1     		bne	.L123
 1172              	.LVL136:
 1173              	.L98:
1268:Generated_Source\PSoC5/LED.c **** 
 1174              		.loc 1 1268 0 is_stmt 1
 1175 0118 03B0     		add	sp, sp, #12
 1176              		.cfi_def_cfa_offset 28
 1177              		@ sp needed
 1178 011a BDE8F083 		pop	{r4, r5, r6, r7, r8, r9, pc}
 1179              	.LVL137:
 1180              	.L129:
 1181 011e 00BF     		.align	2
 1182              	.L128:
 1183 0120 00000000 		.word	LED_segLBuffer
 1184              		.cfi_endproc
 1185              	.LFE15:
 1186              		.size	LED_Write7SegNumberHex, .-LED_Write7SegNumberHex
ARM GAS  C:\Users\Tri94\AppData\Local\Temp\cc3LbiXl.s 			page 68


 1187              		.section	.text.LED_Write7SegDigitDec,"ax",%progbits
 1188              		.align	2
 1189              		.global	LED_Write7SegDigitDec
 1190              		.thumb
 1191              		.thumb_func
 1192              		.type	LED_Write7SegDigitDec, %function
 1193              	LED_Write7SegDigitDec:
 1194              	.LFB18:
1417:Generated_Source\PSoC5/LED.c ****     uint8 relPosition;
 1195              		.loc 1 1417 0
 1196              		.cfi_startproc
 1197              		@ args = 0, pretend = 0, frame = 0
 1198              		@ frame_needed = 0, uses_anonymous_args = 0
 1199              	.LVL138:
1421:Generated_Source\PSoC5/LED.c ****     {
 1200              		.loc 1 1421 0
 1201 0000 0928     		cmp	r0, #9
 1202 0002 08D8     		bhi	.L133
1423:Generated_Source\PSoC5/LED.c ****         {
 1203              		.loc 1 1423 0
 1204 0004 0329     		cmp	r1, #3
 1205 0006 06D8     		bhi	.L133
1417:Generated_Source\PSoC5/LED.c ****     uint8 relPosition;
 1206              		.loc 1 1417 0
 1207 0008 10B5     		push	{r4, lr}
 1208              		.cfi_def_cfa_offset 8
 1209              		.cfi_offset 4, -8
 1210              		.cfi_offset 14, -4
 1211 000a 0C46     		mov	r4, r1
 1212              	.LVL139:
1426:Generated_Source\PSoC5/LED.c ****         }    
 1213              		.loc 1 1426 0
 1214 000c FFF7FEFF 		bl	LED_EncodeNumber7Seg
 1215              	.LVL140:
 1216 0010 014B     		ldr	r3, .L134
 1217 0012 1855     		strb	r0, [r3, r4]
 1218 0014 10BD     		pop	{r4, pc}
 1219              	.LVL141:
 1220              	.L133:
 1221              		.cfi_def_cfa_offset 0
 1222              		.cfi_restore 4
 1223              		.cfi_restore 14
 1224 0016 7047     		bx	lr
 1225              	.L135:
 1226              		.align	2
 1227              	.L134:
 1228 0018 00000000 		.word	LED_segLBuffer
 1229              		.cfi_endproc
 1230              	.LFE18:
 1231              		.size	LED_Write7SegDigitDec, .-LED_Write7SegDigitDec
 1232              		.section	.text.LED_Write7SegDigitHex,"ax",%progbits
 1233              		.align	2
 1234              		.global	LED_Write7SegDigitHex
 1235              		.thumb
 1236              		.thumb_func
 1237              		.type	LED_Write7SegDigitHex, %function
 1238              	LED_Write7SegDigitHex:
ARM GAS  C:\Users\Tri94\AppData\Local\Temp\cc3LbiXl.s 			page 69


 1239              	.LFB19:
1470:Generated_Source\PSoC5/LED.c ****     uint8 relPosition;
 1240              		.loc 1 1470 0
 1241              		.cfi_startproc
 1242              		@ args = 0, pretend = 0, frame = 0
 1243              		@ frame_needed = 0, uses_anonymous_args = 0
 1244              	.LVL142:
1473:Generated_Source\PSoC5/LED.c ****     {
 1245              		.loc 1 1473 0
 1246 0000 0329     		cmp	r1, #3
 1247 0002 06D8     		bhi	.L139
1470:Generated_Source\PSoC5/LED.c ****     uint8 relPosition;
 1248              		.loc 1 1470 0
 1249 0004 10B5     		push	{r4, lr}
 1250              		.cfi_def_cfa_offset 8
 1251              		.cfi_offset 4, -8
 1252              		.cfi_offset 14, -4
 1253 0006 0C46     		mov	r4, r1
 1254              	.LVL143:
1476:Generated_Source\PSoC5/LED.c ****     }    
 1255              		.loc 1 1476 0
 1256 0008 FFF7FEFF 		bl	LED_EncodeNumber7Seg
 1257              	.LVL144:
 1258 000c 014B     		ldr	r3, .L140
 1259 000e 1855     		strb	r0, [r3, r4]
 1260 0010 10BD     		pop	{r4, pc}
 1261              	.LVL145:
 1262              	.L139:
 1263              		.cfi_def_cfa_offset 0
 1264              		.cfi_restore 4
 1265              		.cfi_restore 14
 1266 0012 7047     		bx	lr
 1267              	.L141:
 1268              		.align	2
 1269              	.L140:
 1270 0014 00000000 		.word	LED_segLBuffer
 1271              		.cfi_endproc
 1272              	.LFE19:
 1273              		.size	LED_Write7SegDigitHex, .-LED_Write7SegDigitHex
 1274              		.section	.text.LED_EncodeChar7Seg,"ax",%progbits
 1275              		.align	2
 1276              		.global	LED_EncodeChar7Seg
 1277              		.thumb
 1278              		.thumb_func
 1279              		.type	LED_EncodeChar7Seg, %function
 1280              	LED_EncodeChar7Seg:
 1281              	.LFB35:
2552:Generated_Source\PSoC5/LED.c **** 
2553:Generated_Source\PSoC5/LED.c **** 
2554:Generated_Source\PSoC5/LED.c **** /*******************************************************************************
2555:Generated_Source\PSoC5/LED.c **** * Function Name: LED_EncodeChar7Seg
2556:Generated_Source\PSoC5/LED.c **** ********************************************************************************
2557:Generated_Source\PSoC5/LED.c **** *
2558:Generated_Source\PSoC5/LED.c **** * Summary:
2559:Generated_Source\PSoC5/LED.c **** *  Converts the ASCII encoded alphabet character input into the 7-segment data
2560:Generated_Source\PSoC5/LED.c **** *  that will display the alphabet character on a display. The returned data can
2561:Generated_Source\PSoC5/LED.c **** *  be written directly into the display RAM to display the desired number. It is
ARM GAS  C:\Users\Tri94\AppData\Local\Temp\cc3LbiXl.s 			page 70


2562:Generated_Source\PSoC5/LED.c **** *  not necessary to use this function since higher level API are provided to 
2563:Generated_Source\PSoC5/LED.c **** *  both decode the value and write it to the display RAM.
2564:Generated_Source\PSoC5/LED.c **** *
2565:Generated_Source\PSoC5/LED.c **** * Parameters:
2566:Generated_Source\PSoC5/LED.c **** *  char8 input: An ASCII alphabet character to be converted into segment data.
2567:Generated_Source\PSoC5/LED.c **** *
2568:Generated_Source\PSoC5/LED.c **** * Return:
2569:Generated_Source\PSoC5/LED.c **** *  The value to be written into the display RAM for displaying the specified
2570:Generated_Source\PSoC5/LED.c **** *  character.
2571:Generated_Source\PSoC5/LED.c **** *
2572:Generated_Source\PSoC5/LED.c **** * Side effects:
2573:Generated_Source\PSoC5/LED.c **** *  None
2574:Generated_Source\PSoC5/LED.c **** *
2575:Generated_Source\PSoC5/LED.c **** *******************************************************************************/
2576:Generated_Source\PSoC5/LED.c **** uint8 LED_EncodeChar7Seg(char8 input)  
2577:Generated_Source\PSoC5/LED.c **** {
 1282              		.loc 1 2577 0
 1283              		.cfi_startproc
 1284              		@ args = 0, pretend = 0, frame = 0
 1285              		@ frame_needed = 0, uses_anonymous_args = 0
 1286              		@ link register save eliminated.
 1287              	.LVL146:
2578:Generated_Source\PSoC5/LED.c ****     /* 7-segment ASCII LUT */
2579:Generated_Source\PSoC5/LED.c ****     #if(LED_SEG_DRIVE == LED_HIGH)
2580:Generated_Source\PSoC5/LED.c ****         static const uint8 CYCODE LED_7SegASCII[6][16] =
2581:Generated_Source\PSoC5/LED.c ****               {
2582:Generated_Source\PSoC5/LED.c ****               /*--------------------------------------------------------*/
2583:Generated_Source\PSoC5/LED.c ****               /* 'Space' '!'    '"'    '#'    '$'    '%'    '&'    '''  */
2584:Generated_Source\PSoC5/LED.c ****               /*--------------------------------------------------------*/
2585:Generated_Source\PSoC5/LED.c ****                 {0x00u, 0x00u, 0x00u, 0x00u, 0x00u, 0x00u, 0x00u, 0x00u,
2586:Generated_Source\PSoC5/LED.c ****               /*--------------------------------------------------------*/
2587:Generated_Source\PSoC5/LED.c ****               /*  '('    ')'    '*'    '+'    ','    '-'    '.'    '/'  */
2588:Generated_Source\PSoC5/LED.c ****               /*--------------------------------------------------------*/
2589:Generated_Source\PSoC5/LED.c ****                  0x00u, 0x00u, 0x00u, 0x00u, 0x00u, 0x40u, 0x80u, 0x00u},
2590:Generated_Source\PSoC5/LED.c ****               /*--------------------------------------------------------*/   
2591:Generated_Source\PSoC5/LED.c ****               /*  '0'    '1'    '2'    '3'    '4'    '5'    '6'    '7'  */
2592:Generated_Source\PSoC5/LED.c ****               /*--------------------------------------------------------*/
2593:Generated_Source\PSoC5/LED.c ****                 {0x3fu, 0x06u, 0x5bu, 0x4fu, 0x66u, 0x6du, 0x7du, 0x07u,
2594:Generated_Source\PSoC5/LED.c ****               /*--------------------------------------------------------*/
2595:Generated_Source\PSoC5/LED.c ****               /*  '8'    '9'    ':'    ';'    '<'    '='    '>'    '?'  */
2596:Generated_Source\PSoC5/LED.c ****               /*--------------------------------------------------------*/
2597:Generated_Source\PSoC5/LED.c ****                  0x7fu, 0x6fu, 0x00u, 0x00u, 0x00u, 0x48u, 0x00u, 0x00u},
2598:Generated_Source\PSoC5/LED.c ****               /*--------------------------------------------------------*/
2599:Generated_Source\PSoC5/LED.c ****               /*  '@'    'A'    'B'    'C'    'D'    'E'    'F'    'G'  */
2600:Generated_Source\PSoC5/LED.c ****               /*--------------------------------------------------------*/
2601:Generated_Source\PSoC5/LED.c ****                 {0x00u, 0x77u, 0x7cu, 0x58u, 0x5eu, 0x79u, 0x71u, 0x3du,
2602:Generated_Source\PSoC5/LED.c ****               /*--------------------------------------------------------*/
2603:Generated_Source\PSoC5/LED.c ****               /*  'H'    'I'    'J'    'K'    'L'    'M'    'N'    'O'  */
2604:Generated_Source\PSoC5/LED.c ****               /*--------------------------------------------------------*/
2605:Generated_Source\PSoC5/LED.c ****                  0x74u, 0x10u, 0x1Eu, 0x76u, 0x38u, 0x55u, 0x54u, 0x5cu},
2606:Generated_Source\PSoC5/LED.c ****               /*--------------------------------------------------------*/
2607:Generated_Source\PSoC5/LED.c ****               /*  'P'    'Q'    'R'    'S'    'T'    'U'    'V'    'W'  */
2608:Generated_Source\PSoC5/LED.c ****               /*--------------------------------------------------------*/
2609:Generated_Source\PSoC5/LED.c ****                 {0x73u, 0x67u, 0x50u, 0x6du, 0x78u, 0x1cu, 0x1cu, 0x1du,
2610:Generated_Source\PSoC5/LED.c ****               /*--------------------------------------------------------*/
2611:Generated_Source\PSoC5/LED.c ****               /*  'X'    'Y'    'Z'    '['    '\'    ']'    '^'    '_'  */
2612:Generated_Source\PSoC5/LED.c ****               /*--------------------------------------------------------*/
ARM GAS  C:\Users\Tri94\AppData\Local\Temp\cc3LbiXl.s 			page 71


2613:Generated_Source\PSoC5/LED.c ****                  0x76u, 0x6eu, 0x5bu, 0x00u, 0x00u, 0x00u, 0x00u, 0x08u},
2614:Generated_Source\PSoC5/LED.c ****               /*--------------------------------------------------------*/
2615:Generated_Source\PSoC5/LED.c ****               /*  '`'    'a'    'b'    'c'    'd'    'e'    'f'    'g'  */
2616:Generated_Source\PSoC5/LED.c ****               /*--------------------------------------------------------*/
2617:Generated_Source\PSoC5/LED.c ****                 {0x00u, 0x77u, 0x7cu, 0x58u, 0x5eu, 0x79u, 0x71u, 0x3du,
2618:Generated_Source\PSoC5/LED.c ****               /*--------------------------------------------------------*/
2619:Generated_Source\PSoC5/LED.c ****               /*  'h'    'i'    'j'    'k'    'l'    'm'    'n'    'o'  */
2620:Generated_Source\PSoC5/LED.c ****               /*--------------------------------------------------------*/
2621:Generated_Source\PSoC5/LED.c ****                  0x74u, 0x10u, 0x1Eu, 0x76u, 0x38u, 0x55u, 0x54u, 0x5cu},
2622:Generated_Source\PSoC5/LED.c ****               /*--------------------------------------------------------*/
2623:Generated_Source\PSoC5/LED.c ****               /*  'p'    'q'    'r'    's'    't'    'u'    'v'    'w'  */
2624:Generated_Source\PSoC5/LED.c ****               /*--------------------------------------------------------*/
2625:Generated_Source\PSoC5/LED.c ****                 {0x73u, 0x67u, 0x50u, 0x6du, 0x78u, 0x1cu, 0x1cu, 0x1du,
2626:Generated_Source\PSoC5/LED.c ****               /*--------------------------------------------------------*/
2627:Generated_Source\PSoC5/LED.c ****               /*  'x'    'y'    'z'    '{'    '|'    '}'    '~'   'DEL' */
2628:Generated_Source\PSoC5/LED.c ****               /*--------------------------------------------------------*/
2629:Generated_Source\PSoC5/LED.c ****                  0x76u, 0x6eu, 0x5bu, 0x00u, 0x00u, 0x00u, 0x00u, 0x00u}
2630:Generated_Source\PSoC5/LED.c ****               };
2631:Generated_Source\PSoC5/LED.c ****     #else
2632:Generated_Source\PSoC5/LED.c ****         static const uint8 CYCODE LED_7SegASCII[6][16] =
2633:Generated_Source\PSoC5/LED.c ****               {
2634:Generated_Source\PSoC5/LED.c ****               /*--------------------------------------------------------*/
2635:Generated_Source\PSoC5/LED.c ****               /* 'Space' '!'    '"'    '#'    '$'    '%'    '&'    '''  */
2636:Generated_Source\PSoC5/LED.c ****               /*--------------------------------------------------------*/
2637:Generated_Source\PSoC5/LED.c ****                 {0xffu, 0xffu, 0xffu, 0xffu, 0xffu, 0xffu, 0xffu, 0xffu,
2638:Generated_Source\PSoC5/LED.c ****               /*--------------------------------------------------------*/
2639:Generated_Source\PSoC5/LED.c ****               /*  '('    ')'    '*'    '+'    ','    '-'    '.'    '/'  */
2640:Generated_Source\PSoC5/LED.c ****               /*--------------------------------------------------------*/
2641:Generated_Source\PSoC5/LED.c ****                  0xffu, 0xffu, 0xffu, 0xffu, 0xffu, 0xBfu, 0x7fu, 0xffu},
2642:Generated_Source\PSoC5/LED.c ****               /*--------------------------------------------------------*/   
2643:Generated_Source\PSoC5/LED.c ****               /*  '0'    '1'    '2'    '3'    '4'    '5'    '6'    '7'  */
2644:Generated_Source\PSoC5/LED.c ****               /*--------------------------------------------------------*/
2645:Generated_Source\PSoC5/LED.c ****                 {0xc0u, 0xf9u, 0xa4u, 0xb0u, 0x99u, 0x92u, 0x82u, 0xf8u,
2646:Generated_Source\PSoC5/LED.c ****               /*--------------------------------------------------------*/
2647:Generated_Source\PSoC5/LED.c ****               /*  '8'    '9'    ':'    ';'    '<'    '='    '>'    '?'  */
2648:Generated_Source\PSoC5/LED.c ****               /*--------------------------------------------------------*/
2649:Generated_Source\PSoC5/LED.c ****                  0x80u, 0x90u, 0xffu, 0xffu, 0xffu, 0xb7u, 0xffu, 0xffu},
