ARM GAS  C:\Users\Tri94\AppData\Local\Temp\cc8i0nak.s 			page 1


   1              		.syntax unified
   2              		.cpu cortex-m3
   3              		.fpu softvfp
   4              		.eabi_attribute 20, 1
   5              		.eabi_attribute 21, 1
   6              		.eabi_attribute 23, 3
   7              		.eabi_attribute 24, 1
   8              		.eabi_attribute 25, 1
   9              		.eabi_attribute 26, 1
  10              		.eabi_attribute 30, 1
  11              		.eabi_attribute 34, 1
  12              		.eabi_attribute 18, 4
  13              		.thumb
  14              		.syntax unified
  15              		.file	"main.c"
  16              		.text
  17              	.Ltext0:
  18              		.cfi_sections	.debug_frame
  19              		.section	.text.main,"ax",%progbits
  20              		.align	2
  21              		.global	main
  22              		.thumb
  23              		.thumb_func
  24              		.type	main, %function
  25              	main:
  26              	.LFB64:
  27              		.file 1 "main.c"
   1:main.c        **** /* ========================================
   2:main.c        ****  *
   3:main.c        ****  * Copyright YOUR COMPANY, THE YEAR
   4:main.c        ****  * All Rights Reserved
   5:main.c        ****  * UNPUBLISHED, LICENSED SOFTWARE.
   6:main.c        ****  *
   7:main.c        ****  * CONFIDENTIAL AND PROPRIETARY INFORMATION
   8:main.c        ****  * WHICH IS THE PROPERTY OF your company.
   9:main.c        ****  *
  10:main.c        ****  * ========================================
  11:main.c        **** */
  12:main.c        **** #include "project.h"
  13:main.c        **** #include <stdio.h>
  14:main.c        **** #include <stdlib.h>
  15:main.c        **** #include <stdint.h>
  16:main.c        **** #include <stdbool.h>
  17:main.c        ****  
  18:main.c        **** int main(void)
  19:main.c        **** {
  28              		.loc 1 19 0
  29              		.cfi_startproc
  30              		@ args = 0, pretend = 0, frame = 0
  31              		@ frame_needed = 0, uses_anonymous_args = 0
  32 0000 38B5     		push	{r3, r4, r5, lr}
  33              		.cfi_def_cfa_offset 16
  34              		.cfi_offset 3, -16
  35              		.cfi_offset 4, -12
  36              		.cfi_offset 5, -8
  37              		.cfi_offset 14, -4
  20:main.c        **** 
ARM GAS  C:\Users\Tri94\AppData\Local\Temp\cc8i0nak.s 			page 2


  21:main.c        ****      
  22:main.c        ****     CyGlobalIntEnable; /* Enable global interrupts. */
  38              		.loc 1 22 0
  39              		.syntax unified
  40              	@ 22 "main.c" 1
  41 0002 62B6     		CPSIE   i
  42              	@ 0 "" 2
  43              	.LVL0:
  23:main.c        ****  
  24:main.c        ****     /* Place your initialization/startup code here (e.g. MyInst_Start()) */
  25:main.c        ****     //int toogle = 0;
  26:main.c        ****     bool preState;
  27:main.c        ****     bool curState;
  28:main.c        ****     
  29:main.c        ****     //Initial value for preState
  30:main.c        ****     preState = 1;
  44              		.loc 1 30 0
  45              		.thumb
  46              		.syntax unified
  47 0004 0124     		movs	r4, #1
  48 0006 00E0     		b	.L2
  49              	.LVL1:
  50              	.L3:
  19:main.c        **** 
  51              		.loc 1 19 0
  52 0008 2C46     		mov	r4, r5
  53              	.LVL2:
  54              	.L2:
  31:main.c        ****     
  32:main.c        ****     for(;;)
  33:main.c        ****     {
  34:main.c        ****         /* Place your application code here. */
  35:main.c        **** 
  36:main.c        ****         //Read current switch state
  37:main.c        ****         curState = nSW_Read();
  55              		.loc 1 37 0
  56 000a FFF7FEFF 		bl	nSW_Read
  57              	.LVL3:
  58 000e 051C     		adds	r5, r0, #0
  59 0010 18BF     		it	ne
  60 0012 0125     		movne	r5, #1
  61              	.LVL4:
  38:main.c        ****         
  39:main.c        ****         //Detect when switch pushed
  40:main.c        ****         if ( (preState == 1) && (curState == 0)){
  62              		.loc 1 40 0
  63 0014 002C     		cmp	r4, #0
  64 0016 F7D0     		beq	.L3
  65              		.loc 1 40 0 is_stmt 0 discriminator 1
  66 0018 0028     		cmp	r0, #0
  67 001a F5D1     		bne	.L3
  41:main.c        ****             LEDA_Write(!LEDA_Read());
  68              		.loc 1 41 0 is_stmt 1
  69 001c FFF7FEFF 		bl	LEDA_Read
  70              	.LVL5:
  71 0020 B0FA80F0 		clz	r0, r0
  72 0024 4009     		lsrs	r0, r0, #5
ARM GAS  C:\Users\Tri94\AppData\Local\Temp\cc8i0nak.s 			page 3


  73 0026 FFF7FEFF 		bl	LEDA_Write
  74              	.LVL6:
  42:main.c        ****             LEDB_Write(!LEDB_Read());
  75              		.loc 1 42 0
  76 002a FFF7FEFF 		bl	LEDB_Read
  77              	.LVL7:
  78 002e B0FA80F0 		clz	r0, r0
  79 0032 4009     		lsrs	r0, r0, #5
  80 0034 FFF7FEFF 		bl	LEDB_Write
  81              	.LVL8:
  43:main.c        ****             LEDC_Write(!LEDC_Read());
  82              		.loc 1 43 0
  83 0038 FFF7FEFF 		bl	LEDC_Read
  84              	.LVL9:
  85 003c B0FA80F0 		clz	r0, r0
  86 0040 4009     		lsrs	r0, r0, #5
  87 0042 FFF7FEFF 		bl	LEDC_Write
  88              	.LVL10:
  44:main.c        ****             LEDD_Write(!LEDD_Read());
  89              		.loc 1 44 0
  90 0046 FFF7FEFF 		bl	LEDD_Read
  91              	.LVL11:
  92 004a B0FA80F0 		clz	r0, r0
  93 004e 4009     		lsrs	r0, r0, #5
  94 0050 FFF7FEFF 		bl	LEDD_Write
  95              	.LVL12:
  45:main.c        ****             LEDE_Write(!LEDE_Read());
  96              		.loc 1 45 0
  97 0054 FFF7FEFF 		bl	LEDE_Read
  98              	.LVL13:
  99 0058 B0FA80F0 		clz	r0, r0
 100 005c 4009     		lsrs	r0, r0, #5
 101 005e FFF7FEFF 		bl	LEDE_Write
 102              	.LVL14:
  46:main.c        ****             LEDF_Write(!LEDF_Read());
 103              		.loc 1 46 0
 104 0062 FFF7FEFF 		bl	LEDF_Read
 105              	.LVL15:
 106 0066 B0FA80F0 		clz	r0, r0
 107 006a 4009     		lsrs	r0, r0, #5
 108 006c FFF7FEFF 		bl	LEDF_Write
 109              	.LVL16:
  47:main.c        ****             LEDG_Write(!LEDG_Read());
 110              		.loc 1 47 0
 111 0070 FFF7FEFF 		bl	LEDG_Read
 112              	.LVL17:
 113 0074 B0FA80F0 		clz	r0, r0
 114 0078 4009     		lsrs	r0, r0, #5
 115 007a FFF7FEFF 		bl	LEDG_Write
 116              	.LVL18:
  48:main.c        ****             LEDDP_Write(!LEDDP_Read());
 117              		.loc 1 48 0
 118 007e FFF7FEFF 		bl	LEDDP_Read
 119              	.LVL19:
 120 0082 B0FA80F0 		clz	r0, r0
 121 0086 4009     		lsrs	r0, r0, #5
 122 0088 FFF7FEFF 		bl	LEDDP_Write
ARM GAS  C:\Users\Tri94\AppData\Local\Temp\cc8i0nak.s 			page 4


 123              	.LVL20:
  49:main.c        ****             DIG1_Write(!DIG1_Read());
 124              		.loc 1 49 0
 125 008c FFF7FEFF 		bl	DIG1_Read
 126              	.LVL21:
 127 0090 B0FA80F0 		clz	r0, r0
 128 0094 4009     		lsrs	r0, r0, #5
 129 0096 FFF7FEFF 		bl	DIG1_Write
 130              	.LVL22:
 131 009a B5E7     		b	.L3
 132              		.cfi_endproc
 133              	.LFE64:
 134              		.size	main, .-main
 135              		.text
 136              	.Letext0:
 137              		.file 2 "c:\\program files (x86)\\cypress\\psoc creator\\4.2\\psoc creator\\import\\gnu\\arm\\5.4.
 138              		.file 3 "c:\\program files (x86)\\cypress\\psoc creator\\4.2\\psoc creator\\import\\gnu\\arm\\5.4.
 139              		.file 4 "Generated_Source\\PSoC5/nSW.h"
 140              		.file 5 "Generated_Source\\PSoC5/LEDA.h"
 141              		.file 6 "Generated_Source\\PSoC5/LEDB.h"
 142              		.file 7 "Generated_Source\\PSoC5/LEDC.h"
 143              		.file 8 "Generated_Source\\PSoC5/LEDD.h"
 144              		.file 9 "Generated_Source\\PSoC5/LEDE.h"
 145              		.file 10 "Generated_Source\\PSoC5/LEDF.h"
 146              		.file 11 "Generated_Source\\PSoC5/LEDG.h"
 147              		.file 12 "Generated_Source\\PSoC5/LEDDP.h"
 148              		.file 13 "Generated_Source\\PSoC5/DIG1.h"
 149              		.file 14 "Generated_Source\\PSoC5/core_cm3.h"