ARM GAS  C:\Users\Tri94\AppData\Local\Temp\ccHaJcja.s 			page 1


   1              		.syntax unified
   2              		.cpu cortex-m3
   3              		.fpu softvfp
   4              		.eabi_attribute 20, 1
   5              		.eabi_attribute 21, 1
   6              		.eabi_attribute 23, 3
   7              		.eabi_attribute 24, 1
   8              		.eabi_attribute 25, 1
   9              		.eabi_attribute 26, 1
  10              		.eabi_attribute 30, 1
  11              		.eabi_attribute 34, 1
  12              		.eabi_attribute 18, 4
  13              		.thumb
  14              		.syntax unified
  15              		.file	"stream_buffer.c"
  16              		.text
  17              	.Ltext0:
  18              		.cfi_sections	.debug_frame
  19              		.section	.text.prvBytesInBuffer,"ax",%progbits
  20              		.align	2
  21              		.thumb
  22              		.thumb_func
  23              		.type	prvBytesInBuffer, %function
  24              	prvBytesInBuffer:
  25              	.LFB87:
  26              		.file 1 "..\\FreeRTOS\\stream_buffer.c"
   1:..\FreeRTOS/stream_buffer.c **** /*
   2:..\FreeRTOS/stream_buffer.c ****  * FreeRTOS Kernel V10.0.0
   3:..\FreeRTOS/stream_buffer.c ****  * Copyright (C) 2017 Amazon.com, Inc. or its affiliates.  All Rights Reserved.
   4:..\FreeRTOS/stream_buffer.c ****  *
   5:..\FreeRTOS/stream_buffer.c ****  * Permission is hereby granted, free of charge, to any person obtaining a copy of
   6:..\FreeRTOS/stream_buffer.c ****  * this software and associated documentation files (the "Software"), to deal in
   7:..\FreeRTOS/stream_buffer.c ****  * the Software without restriction, including without limitation the rights to
   8:..\FreeRTOS/stream_buffer.c ****  * use, copy, modify, merge, publish, distribute, sublicense, and/or sell copies of
   9:..\FreeRTOS/stream_buffer.c ****  * the Software, and to permit persons to whom the Software is furnished to do so,
  10:..\FreeRTOS/stream_buffer.c ****  * subject to the following conditions:
  11:..\FreeRTOS/stream_buffer.c ****  *
  12:..\FreeRTOS/stream_buffer.c ****  * The above copyright notice and this permission notice shall be included in all
  13:..\FreeRTOS/stream_buffer.c ****  * copies or substantial portions of the Software. If you wish to use our Amazon
  14:..\FreeRTOS/stream_buffer.c ****  * FreeRTOS name, please do so in a fair use way that does not cause confusion.
  15:..\FreeRTOS/stream_buffer.c ****  *
  16:..\FreeRTOS/stream_buffer.c ****  * THE SOFTWARE IS PROVIDED "AS IS", WITHOUT WARRANTY OF ANY KIND, EXPRESS OR
  17:..\FreeRTOS/stream_buffer.c ****  * IMPLIED, INCLUDING BUT NOT LIMITED TO THE WARRANTIES OF MERCHANTABILITY, FITNESS
  18:..\FreeRTOS/stream_buffer.c ****  * FOR A PARTICULAR PURPOSE AND NONINFRINGEMENT. IN NO EVENT SHALL THE AUTHORS OR
  19:..\FreeRTOS/stream_buffer.c ****  * COPYRIGHT HOLDERS BE LIABLE FOR ANY CLAIM, DAMAGES OR OTHER LIABILITY, WHETHER
  20:..\FreeRTOS/stream_buffer.c ****  * IN AN ACTION OF CONTRACT, TORT OR OTHERWISE, ARISING FROM, OUT OF OR IN
  21:..\FreeRTOS/stream_buffer.c ****  * CONNECTION WITH THE SOFTWARE OR THE USE OR OTHER DEALINGS IN THE SOFTWARE.
  22:..\FreeRTOS/stream_buffer.c ****  *
  23:..\FreeRTOS/stream_buffer.c ****  * http://www.FreeRTOS.org
  24:..\FreeRTOS/stream_buffer.c ****  * http://aws.amazon.com/freertos
  25:..\FreeRTOS/stream_buffer.c ****  *
  26:..\FreeRTOS/stream_buffer.c ****  * 1 tab == 4 spaces!
  27:..\FreeRTOS/stream_buffer.c ****  */
  28:..\FreeRTOS/stream_buffer.c **** 
  29:..\FreeRTOS/stream_buffer.c **** /* Standard includes. */
  30:..\FreeRTOS/stream_buffer.c **** #include <stdint.h>
  31:..\FreeRTOS/stream_buffer.c **** #include <string.h>
ARM GAS  C:\Users\Tri94\AppData\Local\Temp\ccHaJcja.s 			page 2


  32:..\FreeRTOS/stream_buffer.c **** 
  33:..\FreeRTOS/stream_buffer.c **** /* Defining MPU_WRAPPERS_INCLUDED_FROM_API_FILE prevents task.h from redefining
  34:..\FreeRTOS/stream_buffer.c **** all the API functions to use the MPU wrappers.  That should only be done when
  35:..\FreeRTOS/stream_buffer.c **** task.h is included from an application file. */
  36:..\FreeRTOS/stream_buffer.c **** #define MPU_WRAPPERS_INCLUDED_FROM_API_FILE
  37:..\FreeRTOS/stream_buffer.c **** 
  38:..\FreeRTOS/stream_buffer.c **** /* FreeRTOS includes. */
  39:..\FreeRTOS/stream_buffer.c **** #include "FreeRTOS.h"
  40:..\FreeRTOS/stream_buffer.c **** #include "task.h"
  41:..\FreeRTOS/stream_buffer.c **** #include "stream_buffer.h"
  42:..\FreeRTOS/stream_buffer.c **** 
  43:..\FreeRTOS/stream_buffer.c **** /* Lint e961 and e750 are suppressed as a MISRA exception justified because the
  44:..\FreeRTOS/stream_buffer.c **** MPU ports require MPU_WRAPPERS_INCLUDED_FROM_API_FILE to be defined for the
  45:..\FreeRTOS/stream_buffer.c **** header files above, but not in this file, in order to generate the correct
  46:..\FreeRTOS/stream_buffer.c **** privileged Vs unprivileged linkage and placement. */
  47:..\FreeRTOS/stream_buffer.c **** #undef MPU_WRAPPERS_INCLUDED_FROM_API_FILE /*lint !e961 !e750. */
  48:..\FreeRTOS/stream_buffer.c **** 
  49:..\FreeRTOS/stream_buffer.c **** /* If the user has not provided application specific Rx notification macros,
  50:..\FreeRTOS/stream_buffer.c **** or #defined the notification macros away, them provide default implementations
  51:..\FreeRTOS/stream_buffer.c **** that uses task notifications. */
  52:..\FreeRTOS/stream_buffer.c **** /*lint -save -e9026 Function like macros allowed and needed here so they can be overidden. */
  53:..\FreeRTOS/stream_buffer.c **** #ifndef sbRECEIVE_COMPLETED
  54:..\FreeRTOS/stream_buffer.c **** 	#define sbRECEIVE_COMPLETED( pxStreamBuffer )										\
  55:..\FreeRTOS/stream_buffer.c **** 		vTaskSuspendAll();																\
  56:..\FreeRTOS/stream_buffer.c **** 		{																				\
  57:..\FreeRTOS/stream_buffer.c **** 			if( ( pxStreamBuffer )->xTaskWaitingToSend != NULL )						\
  58:..\FreeRTOS/stream_buffer.c **** 			{																			\
  59:..\FreeRTOS/stream_buffer.c **** 				( void ) xTaskNotify( ( pxStreamBuffer )->xTaskWaitingToSend,			\
  60:..\FreeRTOS/stream_buffer.c **** 									  ( uint32_t ) 0,									\
  61:..\FreeRTOS/stream_buffer.c **** 									  eNoAction );										\
  62:..\FreeRTOS/stream_buffer.c **** 				( pxStreamBuffer )->xTaskWaitingToSend = NULL;							\
  63:..\FreeRTOS/stream_buffer.c **** 			}																			\
  64:..\FreeRTOS/stream_buffer.c **** 		}																				\
  65:..\FreeRTOS/stream_buffer.c **** 		( void ) xTaskResumeAll();
  66:..\FreeRTOS/stream_buffer.c **** #endif /* sbRECEIVE_COMPLETED */
  67:..\FreeRTOS/stream_buffer.c **** 
  68:..\FreeRTOS/stream_buffer.c **** #ifndef sbRECEIVE_COMPLETED_FROM_ISR
  69:..\FreeRTOS/stream_buffer.c **** 	#define sbRECEIVE_COMPLETED_FROM_ISR( pxStreamBuffer,								\
  70:..\FreeRTOS/stream_buffer.c **** 										  pxHigherPriorityTaskWoken )					\
  71:..\FreeRTOS/stream_buffer.c **** 	{																					\
  72:..\FreeRTOS/stream_buffer.c **** 	UBaseType_t uxSavedInterruptStatus;													\
  73:..\FreeRTOS/stream_buffer.c **** 																						\
  74:..\FreeRTOS/stream_buffer.c **** 		uxSavedInterruptStatus = ( UBaseType_t ) portSET_INTERRUPT_MASK_FROM_ISR();		\
  75:..\FreeRTOS/stream_buffer.c **** 		{																				\
  76:..\FreeRTOS/stream_buffer.c **** 			if( ( pxStreamBuffer )->xTaskWaitingToSend != NULL )						\
  77:..\FreeRTOS/stream_buffer.c **** 			{																			\
  78:..\FreeRTOS/stream_buffer.c **** 				( void ) xTaskNotifyFromISR( ( pxStreamBuffer )->xTaskWaitingToSend,	\
  79:..\FreeRTOS/stream_buffer.c **** 											 ( uint32_t ) 0,							\
  80:..\FreeRTOS/stream_buffer.c **** 											 eNoAction,									\
  81:..\FreeRTOS/stream_buffer.c **** 											 pxHigherPriorityTaskWoken );				\
  82:..\FreeRTOS/stream_buffer.c **** 				( pxStreamBuffer )->xTaskWaitingToSend = NULL;							\
  83:..\FreeRTOS/stream_buffer.c **** 			}																			\
  84:..\FreeRTOS/stream_buffer.c **** 		}																				\
  85:..\FreeRTOS/stream_buffer.c **** 		portCLEAR_INTERRUPT_MASK_FROM_ISR( uxSavedInterruptStatus );					\
  86:..\FreeRTOS/stream_buffer.c **** 	}
  87:..\FreeRTOS/stream_buffer.c **** #endif /* sbRECEIVE_COMPLETED_FROM_ISR */
  88:..\FreeRTOS/stream_buffer.c **** 
ARM GAS  C:\Users\Tri94\AppData\Local\Temp\ccHaJcja.s 			page 3


  89:..\FreeRTOS/stream_buffer.c **** /* If the user has not provided an application specific Tx notification macro,
  90:..\FreeRTOS/stream_buffer.c **** or #defined the notification macro away, them provide a default implementation
  91:..\FreeRTOS/stream_buffer.c **** that uses task notifications. */
  92:..\FreeRTOS/stream_buffer.c **** #ifndef sbSEND_COMPLETED
  93:..\FreeRTOS/stream_buffer.c **** 	#define sbSEND_COMPLETED( pxStreamBuffer )											\
  94:..\FreeRTOS/stream_buffer.c **** 		vTaskSuspendAll();																\
  95:..\FreeRTOS/stream_buffer.c **** 		{																				\
  96:..\FreeRTOS/stream_buffer.c **** 			if( ( pxStreamBuffer )->xTaskWaitingToReceive != NULL )						\
  97:..\FreeRTOS/stream_buffer.c **** 			{																			\
  98:..\FreeRTOS/stream_buffer.c **** 				( void ) xTaskNotify( ( pxStreamBuffer )->xTaskWaitingToReceive,		\
  99:..\FreeRTOS/stream_buffer.c **** 									  ( uint32_t ) 0,									\
 100:..\FreeRTOS/stream_buffer.c **** 									  eNoAction );										\
 101:..\FreeRTOS/stream_buffer.c **** 				( pxStreamBuffer )->xTaskWaitingToReceive = NULL;						\
 102:..\FreeRTOS/stream_buffer.c **** 			}																			\
 103:..\FreeRTOS/stream_buffer.c **** 		}																				\
 104:..\FreeRTOS/stream_buffer.c **** 		( void ) xTaskResumeAll();
 105:..\FreeRTOS/stream_buffer.c **** #endif /* sbSEND_COMPLETED */
 106:..\FreeRTOS/stream_buffer.c **** 
 107:..\FreeRTOS/stream_buffer.c **** #ifndef sbSEND_COMPLETE_FROM_ISR
 108:..\FreeRTOS/stream_buffer.c **** 	#define sbSEND_COMPLETE_FROM_ISR( pxStreamBuffer, pxHigherPriorityTaskWoken )		\
 109:..\FreeRTOS/stream_buffer.c **** 	{																					\
 110:..\FreeRTOS/stream_buffer.c **** 	UBaseType_t uxSavedInterruptStatus;													\
 111:..\FreeRTOS/stream_buffer.c **** 																						\
 112:..\FreeRTOS/stream_buffer.c **** 		uxSavedInterruptStatus = ( UBaseType_t ) portSET_INTERRUPT_MASK_FROM_ISR();		\
 113:..\FreeRTOS/stream_buffer.c **** 		{																				\
 114:..\FreeRTOS/stream_buffer.c **** 			if( ( pxStreamBuffer )->xTaskWaitingToReceive != NULL )						\
 115:..\FreeRTOS/stream_buffer.c **** 			{																			\
 116:..\FreeRTOS/stream_buffer.c **** 				( void ) xTaskNotifyFromISR( ( pxStreamBuffer )->xTaskWaitingToReceive,	\
 117:..\FreeRTOS/stream_buffer.c **** 											 ( uint32_t ) 0,							\
 118:..\FreeRTOS/stream_buffer.c **** 											 eNoAction,									\
 119:..\FreeRTOS/stream_buffer.c **** 											 pxHigherPriorityTaskWoken );				\
 120:..\FreeRTOS/stream_buffer.c **** 				( pxStreamBuffer )->xTaskWaitingToReceive = NULL;						\
 121:..\FreeRTOS/stream_buffer.c **** 			}																			\
 122:..\FreeRTOS/stream_buffer.c **** 		}																				\
 123:..\FreeRTOS/stream_buffer.c **** 		portCLEAR_INTERRUPT_MASK_FROM_ISR( uxSavedInterruptStatus );					\
 124:..\FreeRTOS/stream_buffer.c **** 	}
 125:..\FreeRTOS/stream_buffer.c **** #endif /* sbSEND_COMPLETE_FROM_ISR */
 126:..\FreeRTOS/stream_buffer.c **** /*lint -restore (9026) */
 127:..\FreeRTOS/stream_buffer.c **** 
 128:..\FreeRTOS/stream_buffer.c **** /* The number of bytes used to hold the length of a message in the buffer. */
 129:..\FreeRTOS/stream_buffer.c **** #define sbBYTES_TO_STORE_MESSAGE_LENGTH ( sizeof( size_t ) )
 130:..\FreeRTOS/stream_buffer.c **** 
 131:..\FreeRTOS/stream_buffer.c **** /* Bits stored in the ucFlags field of the stream buffer. */
 132:..\FreeRTOS/stream_buffer.c **** #define sbFLAGS_IS_MESSAGE_BUFFER		( ( uint8_t ) 1 ) /* Set if the stream buffer was created as a m
 133:..\FreeRTOS/stream_buffer.c **** #define sbFLAGS_IS_STATICALLY_ALLOCATED ( ( uint8_t ) 2 ) /* Set if the stream buffer was created u
 134:..\FreeRTOS/stream_buffer.c **** 
 135:..\FreeRTOS/stream_buffer.c **** /*-----------------------------------------------------------*/
 136:..\FreeRTOS/stream_buffer.c **** 
 137:..\FreeRTOS/stream_buffer.c **** /* Structure that hold state information on the buffer. */
 138:..\FreeRTOS/stream_buffer.c **** typedef struct xSTREAM_BUFFER /*lint !e9058 Style convention uses tag. */
 139:..\FreeRTOS/stream_buffer.c **** {
 140:..\FreeRTOS/stream_buffer.c **** 	volatile size_t xTail;				/* Index to the next item to read within the buffer. */
 141:..\FreeRTOS/stream_buffer.c **** 	volatile size_t xHead;				/* Index to the next item to write within the buffer. */
 142:..\FreeRTOS/stream_buffer.c **** 	size_t xLength;						/* The length of the buffer pointed to by pucBuffer. */
 143:..\FreeRTOS/stream_buffer.c **** 	size_t xTriggerLevelBytes;			/* The number of bytes that must be in the stream buffer before a tas
 144:..\FreeRTOS/stream_buffer.c **** 	volatile TaskHandle_t xTaskWaitingToReceive; /* Holds the handle of a task waiting for data, or NU
 145:..\FreeRTOS/stream_buffer.c **** 	volatile TaskHandle_t xTaskWaitingToSend;	/* Holds the handle of a task waiting to send data to a 
ARM GAS  C:\Users\Tri94\AppData\Local\Temp\ccHaJcja.s 			page 4


 146:..\FreeRTOS/stream_buffer.c **** 	uint8_t *pucBuffer;					/* Points to the buffer itself - that is - the RAM that stores the data pa
 147:..\FreeRTOS/stream_buffer.c **** 	uint8_t ucFlags;
 148:..\FreeRTOS/stream_buffer.c **** 
 149:..\FreeRTOS/stream_buffer.c **** 	#if ( configUSE_TRACE_FACILITY == 1 )
 150:..\FreeRTOS/stream_buffer.c **** 		UBaseType_t uxStreamBufferNumber;		/* Used for tracing purposes. */
 151:..\FreeRTOS/stream_buffer.c **** 	#endif
 152:..\FreeRTOS/stream_buffer.c **** } StreamBuffer_t;
 153:..\FreeRTOS/stream_buffer.c **** 
 154:..\FreeRTOS/stream_buffer.c **** /*
 155:..\FreeRTOS/stream_buffer.c ****  * The number of bytes available to be read from the buffer.
 156:..\FreeRTOS/stream_buffer.c ****  */
 157:..\FreeRTOS/stream_buffer.c **** static size_t prvBytesInBuffer( const StreamBuffer_t * const pxStreamBuffer ) PRIVILEGED_FUNCTION;
 158:..\FreeRTOS/stream_buffer.c **** 
 159:..\FreeRTOS/stream_buffer.c **** /*
 160:..\FreeRTOS/stream_buffer.c ****  * Add xCount bytes from pucData into the pxStreamBuffer message buffer.
 161:..\FreeRTOS/stream_buffer.c ****  * Returns the number of bytes written, which will either equal xCount in the
 162:..\FreeRTOS/stream_buffer.c ****  * success case, or 0 if there was not enough space in the buffer (in which case
 163:..\FreeRTOS/stream_buffer.c ****  * no data is written into the buffer).
 164:..\FreeRTOS/stream_buffer.c ****  */
 165:..\FreeRTOS/stream_buffer.c **** static size_t prvWriteBytesToBuffer( StreamBuffer_t * const pxStreamBuffer, const uint8_t *pucData,
 166:..\FreeRTOS/stream_buffer.c **** 
 167:..\FreeRTOS/stream_buffer.c **** /*
 168:..\FreeRTOS/stream_buffer.c ****  * If the stream buffer is being used as a message buffer, then reads an entire
 169:..\FreeRTOS/stream_buffer.c ****  * message out of the buffer.  If the stream buffer is being used as a stream
 170:..\FreeRTOS/stream_buffer.c ****  * buffer then read as many bytes as possible from the buffer.
 171:..\FreeRTOS/stream_buffer.c ****  * prvReadBytesFromBuffer() is called to actually extract the bytes from the
 172:..\FreeRTOS/stream_buffer.c ****  * buffer's data storage area.
 173:..\FreeRTOS/stream_buffer.c ****  */
 174:..\FreeRTOS/stream_buffer.c **** static size_t prvReadMessageFromBuffer( StreamBuffer_t *pxStreamBuffer,
 175:..\FreeRTOS/stream_buffer.c **** 										void *pvRxData,
 176:..\FreeRTOS/stream_buffer.c **** 										size_t xBufferLengthBytes,
 177:..\FreeRTOS/stream_buffer.c **** 										size_t xBytesAvailable,
 178:..\FreeRTOS/stream_buffer.c **** 										size_t xBytesToStoreMessageLength ) PRIVILEGED_FUNCTION;
 179:..\FreeRTOS/stream_buffer.c **** 
 180:..\FreeRTOS/stream_buffer.c **** /*
 181:..\FreeRTOS/stream_buffer.c ****  * If the stream buffer is being used as a message buffer, then writes an entire
 182:..\FreeRTOS/stream_buffer.c ****  * message to the buffer.  If the stream buffer is being used as a stream
 183:..\FreeRTOS/stream_buffer.c ****  * buffer then write as many bytes as possible to the buffer.
 184:..\FreeRTOS/stream_buffer.c ****  * prvWriteBytestoBuffer() is called to actually send the bytes to the buffer's
 185:..\FreeRTOS/stream_buffer.c ****  * data storage area.
 186:..\FreeRTOS/stream_buffer.c ****  */
 187:..\FreeRTOS/stream_buffer.c **** static size_t prvWriteMessageToBuffer(  StreamBuffer_t * const pxStreamBuffer,
 188:..\FreeRTOS/stream_buffer.c **** 										const void * pvTxData,
 189:..\FreeRTOS/stream_buffer.c **** 										size_t xDataLengthBytes,
 190:..\FreeRTOS/stream_buffer.c **** 										size_t xSpace,
 191:..\FreeRTOS/stream_buffer.c **** 										size_t xRequiredSpace ) PRIVILEGED_FUNCTION;
 192:..\FreeRTOS/stream_buffer.c **** 
 193:..\FreeRTOS/stream_buffer.c **** /*
 194:..\FreeRTOS/stream_buffer.c ****  * Read xMaxCount bytes from the pxStreamBuffer message buffer and write them
 195:..\FreeRTOS/stream_buffer.c ****  * to pucData.
 196:..\FreeRTOS/stream_buffer.c ****  */
 197:..\FreeRTOS/stream_buffer.c **** static size_t prvReadBytesFromBuffer( StreamBuffer_t *pxStreamBuffer,
 198:..\FreeRTOS/stream_buffer.c **** 									  uint8_t *pucData,
 199:..\FreeRTOS/stream_buffer.c **** 									  size_t xMaxCount,
 200:..\FreeRTOS/stream_buffer.c **** 									  size_t xBytesAvailable ); PRIVILEGED_FUNCTION
 201:..\FreeRTOS/stream_buffer.c **** 
 202:..\FreeRTOS/stream_buffer.c **** /*
ARM GAS  C:\Users\Tri94\AppData\Local\Temp\ccHaJcja.s 			page 5


 203:..\FreeRTOS/stream_buffer.c ****  * Called by both pxStreamBufferCreate() and pxStreamBufferCreateStatic() to
 204:..\FreeRTOS/stream_buffer.c ****  * initialise the members of the newly created stream buffer structure.
 205:..\FreeRTOS/stream_buffer.c ****  */
 206:..\FreeRTOS/stream_buffer.c **** static void prvInitialiseNewStreamBuffer( StreamBuffer_t * const pxStreamBuffer,
 207:..\FreeRTOS/stream_buffer.c **** 										  uint8_t * const pucBuffer,
 208:..\FreeRTOS/stream_buffer.c **** 										  size_t xBufferSizeBytes,
 209:..\FreeRTOS/stream_buffer.c **** 										  size_t xTriggerLevelBytes,
 210:..\FreeRTOS/stream_buffer.c **** 										  BaseType_t xIsMessageBuffer ) PRIVILEGED_FUNCTION;
 211:..\FreeRTOS/stream_buffer.c **** 
 212:..\FreeRTOS/stream_buffer.c **** /*-----------------------------------------------------------*/
 213:..\FreeRTOS/stream_buffer.c **** 
 214:..\FreeRTOS/stream_buffer.c **** #if( configSUPPORT_DYNAMIC_ALLOCATION == 1 )
 215:..\FreeRTOS/stream_buffer.c **** 
 216:..\FreeRTOS/stream_buffer.c **** 	StreamBufferHandle_t xStreamBufferGenericCreate( size_t xBufferSizeBytes, size_t xTriggerLevelByte
 217:..\FreeRTOS/stream_buffer.c **** 	{
 218:..\FreeRTOS/stream_buffer.c **** 	uint8_t *pucAllocatedMemory;
 219:..\FreeRTOS/stream_buffer.c **** 
 220:..\FreeRTOS/stream_buffer.c **** 		/* In case the stream buffer is going to be used as a message buffer
 221:..\FreeRTOS/stream_buffer.c **** 		(that is, it will hold discrete messages with a little meta data that
 222:..\FreeRTOS/stream_buffer.c **** 		says how big the next message is) check the buffer will be large enough
 223:..\FreeRTOS/stream_buffer.c **** 		to hold at least one message. */
 224:..\FreeRTOS/stream_buffer.c **** 		configASSERT( xBufferSizeBytes > sbBYTES_TO_STORE_MESSAGE_LENGTH );
 225:..\FreeRTOS/stream_buffer.c **** 		configASSERT( xTriggerLevelBytes <= xBufferSizeBytes );
 226:..\FreeRTOS/stream_buffer.c **** 
 227:..\FreeRTOS/stream_buffer.c **** 		/* A trigger level of 0 would cause a waiting task to unblock even when
 228:..\FreeRTOS/stream_buffer.c **** 		the buffer was empty. */
 229:..\FreeRTOS/stream_buffer.c **** 		if( xTriggerLevelBytes == ( size_t ) 0 )
 230:..\FreeRTOS/stream_buffer.c **** 		{
 231:..\FreeRTOS/stream_buffer.c **** 			xTriggerLevelBytes = ( size_t ) 1; /*lint !e9044 Parameter modified to ensure it doesn't have a 
 232:..\FreeRTOS/stream_buffer.c **** 		}
 233:..\FreeRTOS/stream_buffer.c **** 
 234:..\FreeRTOS/stream_buffer.c **** 		/* A stream buffer requires a StreamBuffer_t structure and a buffer.
 235:..\FreeRTOS/stream_buffer.c **** 		Both are allocated in a single call to pvPortMalloc().  The
 236:..\FreeRTOS/stream_buffer.c **** 		StreamBuffer_t structure is placed at the start of the allocated memory
 237:..\FreeRTOS/stream_buffer.c **** 		and the buffer follows immediately after.  The requested size is
 238:..\FreeRTOS/stream_buffer.c **** 		incremented so the free space is returned as the user would expect -
 239:..\FreeRTOS/stream_buffer.c **** 		this is a quirk of the implementation that means otherwise the free
 240:..\FreeRTOS/stream_buffer.c **** 		space would be reported as one byte smaller than would be logically
 241:..\FreeRTOS/stream_buffer.c **** 		expected. */
 242:..\FreeRTOS/stream_buffer.c **** 		xBufferSizeBytes++;
 243:..\FreeRTOS/stream_buffer.c **** 		pucAllocatedMemory = ( uint8_t * ) pvPortMalloc( xBufferSizeBytes + sizeof( StreamBuffer_t ) ); /
 244:..\FreeRTOS/stream_buffer.c **** 
 245:..\FreeRTOS/stream_buffer.c **** 		if( pucAllocatedMemory != NULL )
 246:..\FreeRTOS/stream_buffer.c **** 		{
 247:..\FreeRTOS/stream_buffer.c **** 			prvInitialiseNewStreamBuffer( ( StreamBuffer_t * ) pucAllocatedMemory, /* Structure at the start
 248:..\FreeRTOS/stream_buffer.c **** 										   pucAllocatedMemory + sizeof( StreamBuffer_t ),  /* Storage area follows. */ /*lint !e9
 249:..\FreeRTOS/stream_buffer.c **** 										   xBufferSizeBytes,
 250:..\FreeRTOS/stream_buffer.c **** 										   xTriggerLevelBytes,
 251:..\FreeRTOS/stream_buffer.c **** 										   xIsMessageBuffer );
 252:..\FreeRTOS/stream_buffer.c **** 
 253:..\FreeRTOS/stream_buffer.c **** 			traceSTREAM_BUFFER_CREATE( ( ( StreamBuffer_t * ) pucAllocatedMemory ), xIsMessageBuffer );
 254:..\FreeRTOS/stream_buffer.c **** 		}
 255:..\FreeRTOS/stream_buffer.c **** 		else
 256:..\FreeRTOS/stream_buffer.c **** 		{
 257:..\FreeRTOS/stream_buffer.c **** 			traceSTREAM_BUFFER_CREATE_FAILED( xIsMessageBuffer );
 258:..\FreeRTOS/stream_buffer.c **** 		}
 259:..\FreeRTOS/stream_buffer.c **** 
ARM GAS  C:\Users\Tri94\AppData\Local\Temp\ccHaJcja.s 			page 6


 260:..\FreeRTOS/stream_buffer.c **** 		return ( StreamBufferHandle_t * ) pucAllocatedMemory; /*lint !e9087 !e826 Safe cast as allocated 
 261:..\FreeRTOS/stream_buffer.c **** 	}
 262:..\FreeRTOS/stream_buffer.c **** 
 263:..\FreeRTOS/stream_buffer.c **** #endif /* configSUPPORT_DYNAMIC_ALLOCATION */
 264:..\FreeRTOS/stream_buffer.c **** /*-----------------------------------------------------------*/
 265:..\FreeRTOS/stream_buffer.c **** 
 266:..\FreeRTOS/stream_buffer.c **** #if( configSUPPORT_STATIC_ALLOCATION == 1 )
 267:..\FreeRTOS/stream_buffer.c **** 
 268:..\FreeRTOS/stream_buffer.c **** 	StreamBufferHandle_t xStreamBufferGenericCreateStatic( size_t xBufferSizeBytes,
 269:..\FreeRTOS/stream_buffer.c **** 														   size_t xTriggerLevelBytes,
 270:..\FreeRTOS/stream_buffer.c **** 														   BaseType_t xIsMessageBuffer,
 271:..\FreeRTOS/stream_buffer.c **** 														   uint8_t * const pucStreamBufferStorageArea,
 272:..\FreeRTOS/stream_buffer.c **** 														   StaticStreamBuffer_t * const pxStaticStreamBuffer )
 273:..\FreeRTOS/stream_buffer.c **** 	{
 274:..\FreeRTOS/stream_buffer.c **** 	StreamBuffer_t * const pxStreamBuffer = ( StreamBuffer_t * ) pxStaticStreamBuffer; /*lint !e740 !e
 275:..\FreeRTOS/stream_buffer.c **** 	StreamBufferHandle_t xReturn;
 276:..\FreeRTOS/stream_buffer.c **** 
 277:..\FreeRTOS/stream_buffer.c **** 		configASSERT( pucStreamBufferStorageArea );
 278:..\FreeRTOS/stream_buffer.c **** 		configASSERT( pxStaticStreamBuffer );
 279:..\FreeRTOS/stream_buffer.c **** 		configASSERT( xTriggerLevelBytes <= xBufferSizeBytes );
 280:..\FreeRTOS/stream_buffer.c **** 
 281:..\FreeRTOS/stream_buffer.c **** 		/* A trigger level of 0 would cause a waiting task to unblock even when
 282:..\FreeRTOS/stream_buffer.c **** 		the buffer was empty. */
 283:..\FreeRTOS/stream_buffer.c **** 		if( xTriggerLevelBytes == ( size_t ) 0 )
 284:..\FreeRTOS/stream_buffer.c **** 		{
 285:..\FreeRTOS/stream_buffer.c **** 			xTriggerLevelBytes = ( size_t ) 1; /*lint !e9044 Function parameter deliberately modified to ens
 286:..\FreeRTOS/stream_buffer.c **** 		}
 287:..\FreeRTOS/stream_buffer.c **** 
 288:..\FreeRTOS/stream_buffer.c **** 		/* In case the stream buffer is going to be used as a message buffer
 289:..\FreeRTOS/stream_buffer.c **** 		(that is, it will hold discrete messages with a little meta data that
 290:..\FreeRTOS/stream_buffer.c **** 		says how big the next message is) check the buffer will be large enough
 291:..\FreeRTOS/stream_buffer.c **** 		to hold at least one message. */
 292:..\FreeRTOS/stream_buffer.c **** 		configASSERT( xBufferSizeBytes > sbBYTES_TO_STORE_MESSAGE_LENGTH );
 293:..\FreeRTOS/stream_buffer.c **** 
 294:..\FreeRTOS/stream_buffer.c **** 		#if( configASSERT_DEFINED == 1 )
 295:..\FreeRTOS/stream_buffer.c **** 		{
 296:..\FreeRTOS/stream_buffer.c **** 			/* Sanity check that the size of the structure used to declare a
 297:..\FreeRTOS/stream_buffer.c **** 			variable of type StaticStreamBuffer_t equals the size of the real
 298:..\FreeRTOS/stream_buffer.c **** 			message buffer structure. */
 299:..\FreeRTOS/stream_buffer.c **** 			volatile size_t xSize = sizeof( StaticStreamBuffer_t );
 300:..\FreeRTOS/stream_buffer.c **** 			configASSERT( xSize == sizeof( StreamBuffer_t ) );
 301:..\FreeRTOS/stream_buffer.c **** 		}
 302:..\FreeRTOS/stream_buffer.c **** 		#endif /* configASSERT_DEFINED */
 303:..\FreeRTOS/stream_buffer.c **** 
 304:..\FreeRTOS/stream_buffer.c **** 		if( ( pucStreamBufferStorageArea != NULL ) && ( pxStaticStreamBuffer != NULL ) )
 305:..\FreeRTOS/stream_buffer.c **** 		{
 306:..\FreeRTOS/stream_buffer.c **** 			prvInitialiseNewStreamBuffer( pxStreamBuffer,
 307:..\FreeRTOS/stream_buffer.c **** 										  pucStreamBufferStorageArea,
 308:..\FreeRTOS/stream_buffer.c **** 										  xBufferSizeBytes,
 309:..\FreeRTOS/stream_buffer.c **** 										  xTriggerLevelBytes,
 310:..\FreeRTOS/stream_buffer.c **** 										  xIsMessageBuffer );
 311:..\FreeRTOS/stream_buffer.c **** 
 312:..\FreeRTOS/stream_buffer.c **** 			/* Remember this was statically allocated in case it is ever deleted
 313:..\FreeRTOS/stream_buffer.c **** 			again. */
 314:..\FreeRTOS/stream_buffer.c **** 			pxStreamBuffer->ucFlags |= sbFLAGS_IS_STATICALLY_ALLOCATED;
 315:..\FreeRTOS/stream_buffer.c **** 
 316:..\FreeRTOS/stream_buffer.c **** 			traceSTREAM_BUFFER_CREATE( pxStreamBuffer, xIsMessageBuffer );
ARM GAS  C:\Users\Tri94\AppData\Local\Temp\ccHaJcja.s 			page 7


 317:..\FreeRTOS/stream_buffer.c **** 
 318:..\FreeRTOS/stream_buffer.c **** 			xReturn = ( StreamBufferHandle_t ) pxStaticStreamBuffer; /*lint !e9087 Data hiding requires cast
 319:..\FreeRTOS/stream_buffer.c **** 		}
 320:..\FreeRTOS/stream_buffer.c **** 		else
 321:..\FreeRTOS/stream_buffer.c **** 		{
 322:..\FreeRTOS/stream_buffer.c **** 			xReturn = NULL;
 323:..\FreeRTOS/stream_buffer.c **** 			traceSTREAM_BUFFER_CREATE_STATIC_FAILED( xReturn, xIsMessageBuffer );
 324:..\FreeRTOS/stream_buffer.c **** 		}
 325:..\FreeRTOS/stream_buffer.c **** 
 326:..\FreeRTOS/stream_buffer.c **** 		return xReturn;
 327:..\FreeRTOS/stream_buffer.c **** 	}
 328:..\FreeRTOS/stream_buffer.c **** 
 329:..\FreeRTOS/stream_buffer.c **** #endif /* ( configSUPPORT_STATIC_ALLOCATION == 1 ) */
 330:..\FreeRTOS/stream_buffer.c **** /*-----------------------------------------------------------*/
 331:..\FreeRTOS/stream_buffer.c **** 
 332:..\FreeRTOS/stream_buffer.c **** void vStreamBufferDelete( StreamBufferHandle_t xStreamBuffer )
 333:..\FreeRTOS/stream_buffer.c **** {
 334:..\FreeRTOS/stream_buffer.c **** StreamBuffer_t * pxStreamBuffer = ( StreamBuffer_t * ) xStreamBuffer; /*lint !e9087 !e9079 Safe cas
 335:..\FreeRTOS/stream_buffer.c **** 
 336:..\FreeRTOS/stream_buffer.c **** 	configASSERT( pxStreamBuffer );
 337:..\FreeRTOS/stream_buffer.c **** 
 338:..\FreeRTOS/stream_buffer.c **** 	traceSTREAM_BUFFER_DELETE( xStreamBuffer );
 339:..\FreeRTOS/stream_buffer.c **** 
 340:..\FreeRTOS/stream_buffer.c **** 	if( ( pxStreamBuffer->ucFlags & sbFLAGS_IS_STATICALLY_ALLOCATED ) == ( uint8_t ) pdFALSE )
 341:..\FreeRTOS/stream_buffer.c **** 	{
 342:..\FreeRTOS/stream_buffer.c **** 		#if( configSUPPORT_DYNAMIC_ALLOCATION == 1 )
 343:..\FreeRTOS/stream_buffer.c **** 		{
 344:..\FreeRTOS/stream_buffer.c **** 			/* Both the structure and the buffer were allocated using a single call
 345:..\FreeRTOS/stream_buffer.c **** 			to pvPortMalloc(), hence only one call to vPortFree() is required. */
 346:..\FreeRTOS/stream_buffer.c **** 			vPortFree( ( void * ) pxStreamBuffer ); /*lint !e9087 Standard free() semantics require void *, 
 347:..\FreeRTOS/stream_buffer.c **** 		}
 348:..\FreeRTOS/stream_buffer.c **** 		#else
 349:..\FreeRTOS/stream_buffer.c **** 		{
 350:..\FreeRTOS/stream_buffer.c **** 			/* Should not be possible to get here, ucFlags must be corrupt.
 351:..\FreeRTOS/stream_buffer.c **** 			Force an assert. */
 352:..\FreeRTOS/stream_buffer.c **** 			configASSERT( xStreamBuffer == ( StreamBufferHandle_t ) ~0 );
 353:..\FreeRTOS/stream_buffer.c **** 		}
 354:..\FreeRTOS/stream_buffer.c **** 		#endif
 355:..\FreeRTOS/stream_buffer.c **** 	}
 356:..\FreeRTOS/stream_buffer.c **** 	else
 357:..\FreeRTOS/stream_buffer.c **** 	{
 358:..\FreeRTOS/stream_buffer.c **** 		/* The structure and buffer were not allocated dynamically and cannot be
 359:..\FreeRTOS/stream_buffer.c **** 		freed - just scrub the structure so future use will assert. */
 360:..\FreeRTOS/stream_buffer.c **** 		memset( pxStreamBuffer, 0x00, sizeof( StreamBuffer_t ) );
 361:..\FreeRTOS/stream_buffer.c **** 	}
 362:..\FreeRTOS/stream_buffer.c **** }
 363:..\FreeRTOS/stream_buffer.c **** /*-----------------------------------------------------------*/
 364:..\FreeRTOS/stream_buffer.c **** 
 365:..\FreeRTOS/stream_buffer.c **** BaseType_t xStreamBufferReset( StreamBufferHandle_t xStreamBuffer )
 366:..\FreeRTOS/stream_buffer.c **** {
 367:..\FreeRTOS/stream_buffer.c **** StreamBuffer_t * const pxStreamBuffer = ( StreamBuffer_t * ) xStreamBuffer; /*lint !e9087 !e9079 Sa
 368:..\FreeRTOS/stream_buffer.c **** BaseType_t xReturn = pdFAIL, xIsMessageBuffer;
 369:..\FreeRTOS/stream_buffer.c **** 
 370:..\FreeRTOS/stream_buffer.c **** #if( configUSE_TRACE_FACILITY == 1 )
 371:..\FreeRTOS/stream_buffer.c **** 	UBaseType_t uxStreamBufferNumber;
 372:..\FreeRTOS/stream_buffer.c **** #endif
 373:..\FreeRTOS/stream_buffer.c **** 
ARM GAS  C:\Users\Tri94\AppData\Local\Temp\ccHaJcja.s 			page 8


 374:..\FreeRTOS/stream_buffer.c **** 	configASSERT( pxStreamBuffer );
 375:..\FreeRTOS/stream_buffer.c **** 
 376:..\FreeRTOS/stream_buffer.c **** 	#if( configUSE_TRACE_FACILITY == 1 )
 377:..\FreeRTOS/stream_buffer.c **** 	{
 378:..\FreeRTOS/stream_buffer.c **** 		/* Store the stream buffer number so it can be restored after the
 379:..\FreeRTOS/stream_buffer.c **** 		reset. */
 380:..\FreeRTOS/stream_buffer.c **** 		uxStreamBufferNumber = pxStreamBuffer->uxStreamBufferNumber;
 381:..\FreeRTOS/stream_buffer.c **** 	}
 382:..\FreeRTOS/stream_buffer.c **** 	#endif
 383:..\FreeRTOS/stream_buffer.c **** 
 384:..\FreeRTOS/stream_buffer.c **** 	/* Can only reset a message buffer if there are no tasks blocked on it. */
 385:..\FreeRTOS/stream_buffer.c **** 	if( pxStreamBuffer->xTaskWaitingToReceive == NULL )
 386:..\FreeRTOS/stream_buffer.c **** 	{
 387:..\FreeRTOS/stream_buffer.c **** 		if( pxStreamBuffer->xTaskWaitingToSend == NULL )
 388:..\FreeRTOS/stream_buffer.c **** 		{
 389:..\FreeRTOS/stream_buffer.c **** 			if( ( pxStreamBuffer->ucFlags & sbFLAGS_IS_MESSAGE_BUFFER ) != ( uint8_t ) 0 )
 390:..\FreeRTOS/stream_buffer.c **** 			{
 391:..\FreeRTOS/stream_buffer.c **** 				xIsMessageBuffer = pdTRUE;
 392:..\FreeRTOS/stream_buffer.c **** 			}
 393:..\FreeRTOS/stream_buffer.c **** 			else
 394:..\FreeRTOS/stream_buffer.c **** 			{
 395:..\FreeRTOS/stream_buffer.c **** 				xIsMessageBuffer = pdFALSE;
 396:..\FreeRTOS/stream_buffer.c **** 			}
 397:..\FreeRTOS/stream_buffer.c **** 
 398:..\FreeRTOS/stream_buffer.c **** 			prvInitialiseNewStreamBuffer( pxStreamBuffer,
 399:..\FreeRTOS/stream_buffer.c **** 										  pxStreamBuffer->pucBuffer,
 400:..\FreeRTOS/stream_buffer.c **** 										  pxStreamBuffer->xLength,
 401:..\FreeRTOS/stream_buffer.c **** 										  pxStreamBuffer->xTriggerLevelBytes,
 402:..\FreeRTOS/stream_buffer.c **** 										  xIsMessageBuffer );
 403:..\FreeRTOS/stream_buffer.c **** 			xReturn = pdPASS;
 404:..\FreeRTOS/stream_buffer.c **** 
 405:..\FreeRTOS/stream_buffer.c **** 			#if( configUSE_TRACE_FACILITY == 1 )
 406:..\FreeRTOS/stream_buffer.c **** 			{
 407:..\FreeRTOS/stream_buffer.c **** 				pxStreamBuffer->uxStreamBufferNumber = uxStreamBufferNumber;
 408:..\FreeRTOS/stream_buffer.c **** 			}
 409:..\FreeRTOS/stream_buffer.c **** 			#endif
 410:..\FreeRTOS/stream_buffer.c **** 
 411:..\FreeRTOS/stream_buffer.c **** 			traceSTREAM_BUFFER_RESET( xStreamBuffer );
 412:..\FreeRTOS/stream_buffer.c **** 		}
 413:..\FreeRTOS/stream_buffer.c **** 	}
 414:..\FreeRTOS/stream_buffer.c **** 
 415:..\FreeRTOS/stream_buffer.c **** 	return xReturn;
 416:..\FreeRTOS/stream_buffer.c **** }
 417:..\FreeRTOS/stream_buffer.c **** /*-----------------------------------------------------------*/
 418:..\FreeRTOS/stream_buffer.c **** 
 419:..\FreeRTOS/stream_buffer.c **** BaseType_t xStreamBufferSetTriggerLevel( StreamBufferHandle_t xStreamBuffer, size_t xTriggerLevel )
 420:..\FreeRTOS/stream_buffer.c **** {
 421:..\FreeRTOS/stream_buffer.c **** StreamBuffer_t * const pxStreamBuffer = ( StreamBuffer_t * ) xStreamBuffer; /*lint !e9087 !e9079 Sa
 422:..\FreeRTOS/stream_buffer.c **** BaseType_t xReturn;
 423:..\FreeRTOS/stream_buffer.c **** 
 424:..\FreeRTOS/stream_buffer.c **** 	configASSERT( pxStreamBuffer );
 425:..\FreeRTOS/stream_buffer.c **** 
 426:..\FreeRTOS/stream_buffer.c **** 	/* It is not valid for the trigger level to be 0. */
 427:..\FreeRTOS/stream_buffer.c **** 	if( xTriggerLevel == ( size_t ) 0 )
 428:..\FreeRTOS/stream_buffer.c **** 	{
 429:..\FreeRTOS/stream_buffer.c **** 		xTriggerLevel = ( size_t ) 1; /*lint !e9044 Parameter modified to ensure it doesn't have a danger
 430:..\FreeRTOS/stream_buffer.c **** 	}
ARM GAS  C:\Users\Tri94\AppData\Local\Temp\ccHaJcja.s 			page 9


 431:..\FreeRTOS/stream_buffer.c **** 
 432:..\FreeRTOS/stream_buffer.c **** 	/* The trigger level is the number of bytes that must be in the stream
 433:..\FreeRTOS/stream_buffer.c **** 	buffer before a task that is waiting for data is unblocked. */
 434:..\FreeRTOS/stream_buffer.c **** 	if( xTriggerLevel <= pxStreamBuffer->xLength )
 435:..\FreeRTOS/stream_buffer.c **** 	{
 436:..\FreeRTOS/stream_buffer.c **** 		pxStreamBuffer->xTriggerLevelBytes = xTriggerLevel;
 437:..\FreeRTOS/stream_buffer.c **** 		xReturn = pdPASS;
 438:..\FreeRTOS/stream_buffer.c **** 	}
 439:..\FreeRTOS/stream_buffer.c **** 	else
 440:..\FreeRTOS/stream_buffer.c **** 	{
 441:..\FreeRTOS/stream_buffer.c **** 		xReturn = pdFALSE;
 442:..\FreeRTOS/stream_buffer.c **** 	}
 443:..\FreeRTOS/stream_buffer.c **** 
 444:..\FreeRTOS/stream_buffer.c **** 	return xReturn;
 445:..\FreeRTOS/stream_buffer.c **** }
 446:..\FreeRTOS/stream_buffer.c **** /*-----------------------------------------------------------*/
 447:..\FreeRTOS/stream_buffer.c **** 
 448:..\FreeRTOS/stream_buffer.c **** size_t xStreamBufferSpacesAvailable( StreamBufferHandle_t xStreamBuffer )
 449:..\FreeRTOS/stream_buffer.c **** {
 450:..\FreeRTOS/stream_buffer.c **** const StreamBuffer_t * const pxStreamBuffer = ( StreamBuffer_t * ) xStreamBuffer; /*lint !e9087 !e9
 451:..\FreeRTOS/stream_buffer.c **** size_t xSpace;
 452:..\FreeRTOS/stream_buffer.c **** 
 453:..\FreeRTOS/stream_buffer.c **** 	configASSERT( pxStreamBuffer );
 454:..\FreeRTOS/stream_buffer.c **** 
 455:..\FreeRTOS/stream_buffer.c **** 	xSpace = pxStreamBuffer->xLength + pxStreamBuffer->xTail;
 456:..\FreeRTOS/stream_buffer.c **** 	xSpace -= pxStreamBuffer->xHead;
 457:..\FreeRTOS/stream_buffer.c **** 	xSpace -= ( size_t ) 1;
 458:..\FreeRTOS/stream_buffer.c **** 
 459:..\FreeRTOS/stream_buffer.c **** 	if( xSpace >= pxStreamBuffer->xLength )
 460:..\FreeRTOS/stream_buffer.c **** 	{
 461:..\FreeRTOS/stream_buffer.c **** 		xSpace -= pxStreamBuffer->xLength;
 462:..\FreeRTOS/stream_buffer.c **** 	}
 463:..\FreeRTOS/stream_buffer.c **** 	else
 464:..\FreeRTOS/stream_buffer.c **** 	{
 465:..\FreeRTOS/stream_buffer.c **** 		mtCOVERAGE_TEST_MARKER();
 466:..\FreeRTOS/stream_buffer.c **** 	}
 467:..\FreeRTOS/stream_buffer.c **** 
 468:..\FreeRTOS/stream_buffer.c **** 	return xSpace;
 469:..\FreeRTOS/stream_buffer.c **** }
 470:..\FreeRTOS/stream_buffer.c **** /*-----------------------------------------------------------*/
 471:..\FreeRTOS/stream_buffer.c **** 
 472:..\FreeRTOS/stream_buffer.c **** size_t xStreamBufferBytesAvailable( StreamBufferHandle_t xStreamBuffer )
 473:..\FreeRTOS/stream_buffer.c **** {
 474:..\FreeRTOS/stream_buffer.c **** const StreamBuffer_t * const pxStreamBuffer = ( StreamBuffer_t * ) xStreamBuffer; /*lint !e9087 !e9
 475:..\FreeRTOS/stream_buffer.c **** size_t xReturn;
 476:..\FreeRTOS/stream_buffer.c **** 
 477:..\FreeRTOS/stream_buffer.c **** 	configASSERT( pxStreamBuffer );
 478:..\FreeRTOS/stream_buffer.c **** 
 479:..\FreeRTOS/stream_buffer.c **** 	xReturn = prvBytesInBuffer( pxStreamBuffer );
 480:..\FreeRTOS/stream_buffer.c **** 	return xReturn;
 481:..\FreeRTOS/stream_buffer.c **** }
 482:..\FreeRTOS/stream_buffer.c **** /*-----------------------------------------------------------*/
 483:..\FreeRTOS/stream_buffer.c **** 
 484:..\FreeRTOS/stream_buffer.c **** size_t xStreamBufferSend( StreamBufferHandle_t xStreamBuffer,
 485:..\FreeRTOS/stream_buffer.c **** 						  const void *pvTxData,
 486:..\FreeRTOS/stream_buffer.c **** 						  size_t xDataLengthBytes,
 487:..\FreeRTOS/stream_buffer.c **** 						  TickType_t xTicksToWait )
ARM GAS  C:\Users\Tri94\AppData\Local\Temp\ccHaJcja.s 			page 10


 488:..\FreeRTOS/stream_buffer.c **** {
 489:..\FreeRTOS/stream_buffer.c **** StreamBuffer_t * const pxStreamBuffer = ( StreamBuffer_t * ) xStreamBuffer; /*lint !e9087 !e9079 Sa
 490:..\FreeRTOS/stream_buffer.c **** size_t xReturn, xSpace = 0;
 491:..\FreeRTOS/stream_buffer.c **** size_t xRequiredSpace = xDataLengthBytes;
 492:..\FreeRTOS/stream_buffer.c **** TimeOut_t xTimeOut;
 493:..\FreeRTOS/stream_buffer.c **** 
 494:..\FreeRTOS/stream_buffer.c **** 	configASSERT( pvTxData );
 495:..\FreeRTOS/stream_buffer.c **** 	configASSERT( pxStreamBuffer );
 496:..\FreeRTOS/stream_buffer.c **** 
 497:..\FreeRTOS/stream_buffer.c **** 	/* This send function is used to write to both message buffers and stream
 498:..\FreeRTOS/stream_buffer.c **** 	buffers.  If this is a message buffer then the space needed must be
 499:..\FreeRTOS/stream_buffer.c **** 	increased by the amount of bytes needed to store the length of the
 500:..\FreeRTOS/stream_buffer.c **** 	message. */
 501:..\FreeRTOS/stream_buffer.c **** 	if( ( pxStreamBuffer->ucFlags & sbFLAGS_IS_MESSAGE_BUFFER ) != ( uint8_t ) 0 )
 502:..\FreeRTOS/stream_buffer.c **** 	{
 503:..\FreeRTOS/stream_buffer.c **** 		xRequiredSpace += sbBYTES_TO_STORE_MESSAGE_LENGTH;
 504:..\FreeRTOS/stream_buffer.c **** 	}
 505:..\FreeRTOS/stream_buffer.c **** 	else
 506:..\FreeRTOS/stream_buffer.c **** 	{
 507:..\FreeRTOS/stream_buffer.c **** 		mtCOVERAGE_TEST_MARKER();
 508:..\FreeRTOS/stream_buffer.c **** 	}
 509:..\FreeRTOS/stream_buffer.c **** 
 510:..\FreeRTOS/stream_buffer.c **** 	if( xTicksToWait != ( TickType_t ) 0 )
 511:..\FreeRTOS/stream_buffer.c **** 	{
 512:..\FreeRTOS/stream_buffer.c **** 		vTaskSetTimeOutState( &xTimeOut );
 513:..\FreeRTOS/stream_buffer.c **** 
 514:..\FreeRTOS/stream_buffer.c **** 		do
 515:..\FreeRTOS/stream_buffer.c **** 		{
 516:..\FreeRTOS/stream_buffer.c **** 			/* Wait until the required number of bytes are free in the message
 517:..\FreeRTOS/stream_buffer.c **** 			buffer. */
 518:..\FreeRTOS/stream_buffer.c **** 			taskENTER_CRITICAL();
 519:..\FreeRTOS/stream_buffer.c **** 			{
 520:..\FreeRTOS/stream_buffer.c **** 				xSpace = xStreamBufferSpacesAvailable( pxStreamBuffer );
 521:..\FreeRTOS/stream_buffer.c **** 
 522:..\FreeRTOS/stream_buffer.c **** 				if( xSpace < xRequiredSpace )
 523:..\FreeRTOS/stream_buffer.c **** 				{
 524:..\FreeRTOS/stream_buffer.c **** 					/* Clear notification state as going to wait for space. */
 525:..\FreeRTOS/stream_buffer.c **** 					( void ) xTaskNotifyStateClear( NULL );
 526:..\FreeRTOS/stream_buffer.c **** 
 527:..\FreeRTOS/stream_buffer.c **** 					/* Should only be one writer. */
 528:..\FreeRTOS/stream_buffer.c **** 					configASSERT( pxStreamBuffer->xTaskWaitingToSend == NULL );
 529:..\FreeRTOS/stream_buffer.c **** 					pxStreamBuffer->xTaskWaitingToSend = xTaskGetCurrentTaskHandle();
 530:..\FreeRTOS/stream_buffer.c **** 				}
 531:..\FreeRTOS/stream_buffer.c **** 				else
 532:..\FreeRTOS/stream_buffer.c **** 				{
 533:..\FreeRTOS/stream_buffer.c **** 					taskEXIT_CRITICAL();
 534:..\FreeRTOS/stream_buffer.c **** 					break;
 535:..\FreeRTOS/stream_buffer.c **** 				}
 536:..\FreeRTOS/stream_buffer.c **** 			}
 537:..\FreeRTOS/stream_buffer.c **** 			taskEXIT_CRITICAL();
 538:..\FreeRTOS/stream_buffer.c **** 
 539:..\FreeRTOS/stream_buffer.c **** 			traceBLOCKING_ON_STREAM_BUFFER_SEND( xStreamBuffer );
 540:..\FreeRTOS/stream_buffer.c **** 			( void ) xTaskNotifyWait( ( uint32_t ) 0, UINT32_MAX, NULL, xTicksToWait );
 541:..\FreeRTOS/stream_buffer.c **** 			pxStreamBuffer->xTaskWaitingToSend = NULL;
 542:..\FreeRTOS/stream_buffer.c **** 
 543:..\FreeRTOS/stream_buffer.c **** 		} while( xTaskCheckForTimeOut( &xTimeOut, &xTicksToWait ) == pdFALSE );
 544:..\FreeRTOS/stream_buffer.c **** 	}
ARM GAS  C:\Users\Tri94\AppData\Local\Temp\ccHaJcja.s 			page 11


 545:..\FreeRTOS/stream_buffer.c **** 	else
 546:..\FreeRTOS/stream_buffer.c **** 	{
 547:..\FreeRTOS/stream_buffer.c **** 		mtCOVERAGE_TEST_MARKER();
 548:..\FreeRTOS/stream_buffer.c **** 	}
 549:..\FreeRTOS/stream_buffer.c **** 
 550:..\FreeRTOS/stream_buffer.c **** 	if( xSpace == ( size_t ) 0 )
 551:..\FreeRTOS/stream_buffer.c **** 	{
 552:..\FreeRTOS/stream_buffer.c **** 		xSpace = xStreamBufferSpacesAvailable( pxStreamBuffer );
 553:..\FreeRTOS/stream_buffer.c **** 	}
 554:..\FreeRTOS/stream_buffer.c **** 	else
 555:..\FreeRTOS/stream_buffer.c **** 	{
 556:..\FreeRTOS/stream_buffer.c **** 		mtCOVERAGE_TEST_MARKER();
 557:..\FreeRTOS/stream_buffer.c **** 	}
 558:..\FreeRTOS/stream_buffer.c **** 
 559:..\FreeRTOS/stream_buffer.c **** 	xReturn = prvWriteMessageToBuffer( pxStreamBuffer, pvTxData, xDataLengthBytes, xSpace, xRequiredSp
 560:..\FreeRTOS/stream_buffer.c **** 
 561:..\FreeRTOS/stream_buffer.c **** 	if( xReturn > ( size_t ) 0 )
 562:..\FreeRTOS/stream_buffer.c **** 	{
 563:..\FreeRTOS/stream_buffer.c **** 		traceSTREAM_BUFFER_SEND( xStreamBuffer, xReturn );
 564:..\FreeRTOS/stream_buffer.c **** 
 565:..\FreeRTOS/stream_buffer.c **** 		/* Was a task waiting for the data? */
 566:..\FreeRTOS/stream_buffer.c **** 		if( prvBytesInBuffer( pxStreamBuffer ) >= pxStreamBuffer->xTriggerLevelBytes )
 567:..\FreeRTOS/stream_buffer.c **** 		{
 568:..\FreeRTOS/stream_buffer.c **** 			sbSEND_COMPLETED( pxStreamBuffer );
 569:..\FreeRTOS/stream_buffer.c **** 		}
 570:..\FreeRTOS/stream_buffer.c **** 		else
 571:..\FreeRTOS/stream_buffer.c **** 		{
 572:..\FreeRTOS/stream_buffer.c **** 			mtCOVERAGE_TEST_MARKER();
 573:..\FreeRTOS/stream_buffer.c **** 		}
 574:..\FreeRTOS/stream_buffer.c **** 	}
 575:..\FreeRTOS/stream_buffer.c **** 	else
 576:..\FreeRTOS/stream_buffer.c **** 	{
 577:..\FreeRTOS/stream_buffer.c **** 		mtCOVERAGE_TEST_MARKER();
 578:..\FreeRTOS/stream_buffer.c **** 		traceSTREAM_BUFFER_SEND_FAILED( xStreamBuffer );
 579:..\FreeRTOS/stream_buffer.c **** 	}
 580:..\FreeRTOS/stream_buffer.c **** 
 581:..\FreeRTOS/stream_buffer.c **** 	return xReturn;
 582:..\FreeRTOS/stream_buffer.c **** }
 583:..\FreeRTOS/stream_buffer.c **** /*-----------------------------------------------------------*/
 584:..\FreeRTOS/stream_buffer.c **** 
 585:..\FreeRTOS/stream_buffer.c **** size_t xStreamBufferSendFromISR( StreamBufferHandle_t xStreamBuffer,
 586:..\FreeRTOS/stream_buffer.c **** 								 const void *pvTxData,
 587:..\FreeRTOS/stream_buffer.c **** 								 size_t xDataLengthBytes,
 588:..\FreeRTOS/stream_buffer.c **** 								 BaseType_t * const pxHigherPriorityTaskWoken )
 589:..\FreeRTOS/stream_buffer.c **** {
 590:..\FreeRTOS/stream_buffer.c **** StreamBuffer_t * const pxStreamBuffer = ( StreamBuffer_t * ) xStreamBuffer; /*lint !e9087 !e9079 Sa
 591:..\FreeRTOS/stream_buffer.c **** size_t xReturn, xSpace;
 592:..\FreeRTOS/stream_buffer.c **** size_t xRequiredSpace = xDataLengthBytes;
 593:..\FreeRTOS/stream_buffer.c **** 
 594:..\FreeRTOS/stream_buffer.c **** 	configASSERT( pvTxData );
 595:..\FreeRTOS/stream_buffer.c **** 	configASSERT( pxStreamBuffer );
 596:..\FreeRTOS/stream_buffer.c **** 
 597:..\FreeRTOS/stream_buffer.c **** 	/* This send function is used to write to both message buffers and stream
 598:..\FreeRTOS/stream_buffer.c **** 	buffers.  If this is a message buffer then the space needed must be
 599:..\FreeRTOS/stream_buffer.c **** 	increased by the amount of bytes needed to store the length of the
 600:..\FreeRTOS/stream_buffer.c **** 	message. */
 601:..\FreeRTOS/stream_buffer.c **** 	if( ( pxStreamBuffer->ucFlags & sbFLAGS_IS_MESSAGE_BUFFER ) != ( uint8_t ) 0 )
ARM GAS  C:\Users\Tri94\AppData\Local\Temp\ccHaJcja.s 			page 12


 602:..\FreeRTOS/stream_buffer.c **** 	{
 603:..\FreeRTOS/stream_buffer.c **** 		xRequiredSpace += sbBYTES_TO_STORE_MESSAGE_LENGTH;
 604:..\FreeRTOS/stream_buffer.c **** 	}
 605:..\FreeRTOS/stream_buffer.c **** 	else
 606:..\FreeRTOS/stream_buffer.c **** 	{
 607:..\FreeRTOS/stream_buffer.c **** 		mtCOVERAGE_TEST_MARKER();
 608:..\FreeRTOS/stream_buffer.c **** 	}
 609:..\FreeRTOS/stream_buffer.c **** 
 610:..\FreeRTOS/stream_buffer.c **** 	xSpace = xStreamBufferSpacesAvailable( pxStreamBuffer );
 611:..\FreeRTOS/stream_buffer.c **** 	xReturn = prvWriteMessageToBuffer( pxStreamBuffer, pvTxData, xDataLengthBytes, xSpace, xRequiredSp
 612:..\FreeRTOS/stream_buffer.c **** 
 613:..\FreeRTOS/stream_buffer.c **** 	if( xReturn > ( size_t ) 0 )
 614:..\FreeRTOS/stream_buffer.c **** 	{
 615:..\FreeRTOS/stream_buffer.c **** 		/* Was a task waiting for the data? */
 616:..\FreeRTOS/stream_buffer.c **** 		if( prvBytesInBuffer( pxStreamBuffer ) >= pxStreamBuffer->xTriggerLevelBytes )
 617:..\FreeRTOS/stream_buffer.c **** 		{
 618:..\FreeRTOS/stream_buffer.c **** 			sbSEND_COMPLETE_FROM_ISR( pxStreamBuffer, pxHigherPriorityTaskWoken );
 619:..\FreeRTOS/stream_buffer.c **** 		}
 620:..\FreeRTOS/stream_buffer.c **** 		else
 621:..\FreeRTOS/stream_buffer.c **** 		{
 622:..\FreeRTOS/stream_buffer.c **** 			mtCOVERAGE_TEST_MARKER();
 623:..\FreeRTOS/stream_buffer.c **** 		}
 624:..\FreeRTOS/stream_buffer.c **** 	}
 625:..\FreeRTOS/stream_buffer.c **** 	else
 626:..\FreeRTOS/stream_buffer.c **** 	{
 627:..\FreeRTOS/stream_buffer.c **** 		mtCOVERAGE_TEST_MARKER();
 628:..\FreeRTOS/stream_buffer.c **** 	}
 629:..\FreeRTOS/stream_buffer.c **** 
 630:..\FreeRTOS/stream_buffer.c **** 	traceSTREAM_BUFFER_SEND_FROM_ISR( xStreamBuffer, xReturn );
 631:..\FreeRTOS/stream_buffer.c **** 
 632:..\FreeRTOS/stream_buffer.c **** 	return xReturn;
 633:..\FreeRTOS/stream_buffer.c **** }
 634:..\FreeRTOS/stream_buffer.c **** /*-----------------------------------------------------------*/
 635:..\FreeRTOS/stream_buffer.c **** 
 636:..\FreeRTOS/stream_buffer.c **** static size_t prvWriteMessageToBuffer( StreamBuffer_t * const pxStreamBuffer,
 637:..\FreeRTOS/stream_buffer.c **** 									   const void * pvTxData,
 638:..\FreeRTOS/stream_buffer.c **** 									   size_t xDataLengthBytes,
 639:..\FreeRTOS/stream_buffer.c **** 									   size_t xSpace,
 640:..\FreeRTOS/stream_buffer.c **** 									   size_t xRequiredSpace )
 641:..\FreeRTOS/stream_buffer.c **** {
 642:..\FreeRTOS/stream_buffer.c **** 	BaseType_t xShouldWrite;
 643:..\FreeRTOS/stream_buffer.c **** 	size_t xReturn;
 644:..\FreeRTOS/stream_buffer.c **** 
 645:..\FreeRTOS/stream_buffer.c **** 	if( xSpace == ( size_t ) 0 )
 646:..\FreeRTOS/stream_buffer.c **** 	{
 647:..\FreeRTOS/stream_buffer.c **** 		/* Doesn't matter if this is a stream buffer or a message buffer, there
 648:..\FreeRTOS/stream_buffer.c **** 		is no space to write. */
 649:..\FreeRTOS/stream_buffer.c **** 		xShouldWrite = pdFALSE;
 650:..\FreeRTOS/stream_buffer.c **** 	}
 651:..\FreeRTOS/stream_buffer.c **** 	else if( ( pxStreamBuffer->ucFlags & sbFLAGS_IS_MESSAGE_BUFFER ) == ( uint8_t ) 0 )
 652:..\FreeRTOS/stream_buffer.c **** 	{
 653:..\FreeRTOS/stream_buffer.c **** 		/* This is a stream buffer, as opposed to a message buffer, so writing a
 654:..\FreeRTOS/stream_buffer.c **** 		stream of bytes rather than discrete messages.  Write as many bytes as
 655:..\FreeRTOS/stream_buffer.c **** 		possible. */
 656:..\FreeRTOS/stream_buffer.c **** 		xShouldWrite = pdTRUE;
 657:..\FreeRTOS/stream_buffer.c **** 		xDataLengthBytes = configMIN( xDataLengthBytes, xSpace ); /*lint !e9044 Function parameter modifi
 658:..\FreeRTOS/stream_buffer.c **** 	}
ARM GAS  C:\Users\Tri94\AppData\Local\Temp\ccHaJcja.s 			page 13


 659:..\FreeRTOS/stream_buffer.c **** 	else if( xSpace >= xRequiredSpace )
 660:..\FreeRTOS/stream_buffer.c **** 	{
 661:..\FreeRTOS/stream_buffer.c **** 		/* This is a message buffer, as opposed to a stream buffer, and there
 662:..\FreeRTOS/stream_buffer.c **** 		is enough space to write both the message length and the message itself
 663:..\FreeRTOS/stream_buffer.c **** 		into the buffer.  Start by writing the length of the data, the data
 664:..\FreeRTOS/stream_buffer.c **** 		itself will be written later in this function. */
 665:..\FreeRTOS/stream_buffer.c **** 		xShouldWrite = pdTRUE;
 666:..\FreeRTOS/stream_buffer.c **** 		( void ) prvWriteBytesToBuffer( pxStreamBuffer, ( const uint8_t * ) &( xDataLengthBytes ), sbBYTE
 667:..\FreeRTOS/stream_buffer.c **** 	}
 668:..\FreeRTOS/stream_buffer.c **** 	else
 669:..\FreeRTOS/stream_buffer.c **** 	{
 670:..\FreeRTOS/stream_buffer.c **** 		/* There is space available, but not enough space. */
 671:..\FreeRTOS/stream_buffer.c **** 		xShouldWrite = pdFALSE;
 672:..\FreeRTOS/stream_buffer.c **** 	}
 673:..\FreeRTOS/stream_buffer.c **** 
 674:..\FreeRTOS/stream_buffer.c **** 	if( xShouldWrite != pdFALSE )
 675:..\FreeRTOS/stream_buffer.c **** 	{
 676:..\FreeRTOS/stream_buffer.c **** 		/* Writes the data itself. */
 677:..\FreeRTOS/stream_buffer.c **** 		xReturn = prvWriteBytesToBuffer( pxStreamBuffer, ( const uint8_t * ) pvTxData, xDataLengthBytes )
 678:..\FreeRTOS/stream_buffer.c **** 	}
 679:..\FreeRTOS/stream_buffer.c **** 	else
 680:..\FreeRTOS/stream_buffer.c **** 	{
 681:..\FreeRTOS/stream_buffer.c **** 		xReturn = 0;
 682:..\FreeRTOS/stream_buffer.c **** 	}
 683:..\FreeRTOS/stream_buffer.c **** 
 684:..\FreeRTOS/stream_buffer.c **** 	return xReturn;
 685:..\FreeRTOS/stream_buffer.c **** }
 686:..\FreeRTOS/stream_buffer.c **** /*-----------------------------------------------------------*/
 687:..\FreeRTOS/stream_buffer.c **** 
 688:..\FreeRTOS/stream_buffer.c **** size_t xStreamBufferReceive( StreamBufferHandle_t xStreamBuffer,
 689:..\FreeRTOS/stream_buffer.c **** 							 void *pvRxData,
 690:..\FreeRTOS/stream_buffer.c **** 							 size_t xBufferLengthBytes,
 691:..\FreeRTOS/stream_buffer.c **** 							 TickType_t xTicksToWait )
 692:..\FreeRTOS/stream_buffer.c **** {
 693:..\FreeRTOS/stream_buffer.c **** StreamBuffer_t * const pxStreamBuffer = ( StreamBuffer_t * ) xStreamBuffer; /*lint !e9087 !e9079 Sa
 694:..\FreeRTOS/stream_buffer.c **** size_t xReceivedLength = 0, xBytesAvailable, xBytesToStoreMessageLength;
 695:..\FreeRTOS/stream_buffer.c **** 
 696:..\FreeRTOS/stream_buffer.c **** 	configASSERT( pvRxData );
 697:..\FreeRTOS/stream_buffer.c **** 	configASSERT( pxStreamBuffer );
 698:..\FreeRTOS/stream_buffer.c **** 
 699:..\FreeRTOS/stream_buffer.c **** 	/* This receive function is used by both message buffers, which store
 700:..\FreeRTOS/stream_buffer.c **** 	discrete messages, and stream buffers, which store a continuous stream of
 701:..\FreeRTOS/stream_buffer.c **** 	bytes.  Discrete messages include an additional
 702:..\FreeRTOS/stream_buffer.c **** 	sbBYTES_TO_STORE_MESSAGE_LENGTH bytes that hold the length of the
 703:..\FreeRTOS/stream_buffer.c **** 	message. */
 704:..\FreeRTOS/stream_buffer.c **** 	if( ( pxStreamBuffer->ucFlags & sbFLAGS_IS_MESSAGE_BUFFER ) != ( uint8_t ) 0 )
 705:..\FreeRTOS/stream_buffer.c **** 	{
 706:..\FreeRTOS/stream_buffer.c **** 		xBytesToStoreMessageLength = sbBYTES_TO_STORE_MESSAGE_LENGTH;
 707:..\FreeRTOS/stream_buffer.c **** 	}
 708:..\FreeRTOS/stream_buffer.c **** 	else
 709:..\FreeRTOS/stream_buffer.c **** 	{
 710:..\FreeRTOS/stream_buffer.c **** 		xBytesToStoreMessageLength = 0;
 711:..\FreeRTOS/stream_buffer.c **** 	}
 712:..\FreeRTOS/stream_buffer.c **** 
 713:..\FreeRTOS/stream_buffer.c **** 	if( xTicksToWait != ( TickType_t ) 0 )
 714:..\FreeRTOS/stream_buffer.c **** 	{
 715:..\FreeRTOS/stream_buffer.c **** 		/* Checking if there is data and clearing the notification state must be
ARM GAS  C:\Users\Tri94\AppData\Local\Temp\ccHaJcja.s 			page 14


 716:..\FreeRTOS/stream_buffer.c **** 		performed atomically. */
 717:..\FreeRTOS/stream_buffer.c **** 		taskENTER_CRITICAL();
 718:..\FreeRTOS/stream_buffer.c **** 		{
 719:..\FreeRTOS/stream_buffer.c **** 			xBytesAvailable = prvBytesInBuffer( pxStreamBuffer );
 720:..\FreeRTOS/stream_buffer.c **** 
 721:..\FreeRTOS/stream_buffer.c **** 			/* If this function was invoked by a message buffer read then
 722:..\FreeRTOS/stream_buffer.c **** 			xBytesToStoreMessageLength holds the number of bytes used to hold
 723:..\FreeRTOS/stream_buffer.c **** 			the length of the next discrete message.  If this function was
 724:..\FreeRTOS/stream_buffer.c **** 			invoked by a stream buffer read then xBytesToStoreMessageLength will
 725:..\FreeRTOS/stream_buffer.c **** 			be 0. */
 726:..\FreeRTOS/stream_buffer.c **** 			if( xBytesAvailable <= xBytesToStoreMessageLength )
 727:..\FreeRTOS/stream_buffer.c **** 			{
 728:..\FreeRTOS/stream_buffer.c **** 				/* Clear notification state as going to wait for data. */
 729:..\FreeRTOS/stream_buffer.c **** 				( void ) xTaskNotifyStateClear( NULL );
 730:..\FreeRTOS/stream_buffer.c **** 
 731:..\FreeRTOS/stream_buffer.c **** 				/* Should only be one reader. */
 732:..\FreeRTOS/stream_buffer.c **** 				configASSERT( pxStreamBuffer->xTaskWaitingToReceive == NULL );
 733:..\FreeRTOS/stream_buffer.c **** 				pxStreamBuffer->xTaskWaitingToReceive = xTaskGetCurrentTaskHandle();
 734:..\FreeRTOS/stream_buffer.c **** 			}
 735:..\FreeRTOS/stream_buffer.c **** 			else
 736:..\FreeRTOS/stream_buffer.c **** 			{
 737:..\FreeRTOS/stream_buffer.c **** 				mtCOVERAGE_TEST_MARKER();
 738:..\FreeRTOS/stream_buffer.c **** 			}
 739:..\FreeRTOS/stream_buffer.c **** 		}
 740:..\FreeRTOS/stream_buffer.c **** 		taskEXIT_CRITICAL();
 741:..\FreeRTOS/stream_buffer.c **** 
 742:..\FreeRTOS/stream_buffer.c **** 		if( xBytesAvailable <= xBytesToStoreMessageLength )
 743:..\FreeRTOS/stream_buffer.c **** 		{
 744:..\FreeRTOS/stream_buffer.c **** 			/* Wait for data to be available. */
 745:..\FreeRTOS/stream_buffer.c **** 			traceBLOCKING_ON_STREAM_BUFFER_RECEIVE( xStreamBuffer );
 746:..\FreeRTOS/stream_buffer.c **** 			( void ) xTaskNotifyWait( ( uint32_t ) 0, UINT32_MAX, NULL, xTicksToWait );
 747:..\FreeRTOS/stream_buffer.c **** 			pxStreamBuffer->xTaskWaitingToReceive = NULL;
 748:..\FreeRTOS/stream_buffer.c **** 
 749:..\FreeRTOS/stream_buffer.c **** 			/* Recheck the data available after blocking. */
 750:..\FreeRTOS/stream_buffer.c **** 			xBytesAvailable = prvBytesInBuffer( pxStreamBuffer );
 751:..\FreeRTOS/stream_buffer.c **** 		}
 752:..\FreeRTOS/stream_buffer.c **** 		else
 753:..\FreeRTOS/stream_buffer.c **** 		{
 754:..\FreeRTOS/stream_buffer.c **** 			mtCOVERAGE_TEST_MARKER();
 755:..\FreeRTOS/stream_buffer.c **** 		}
 756:..\FreeRTOS/stream_buffer.c **** 	}
 757:..\FreeRTOS/stream_buffer.c **** 	else
 758:..\FreeRTOS/stream_buffer.c **** 	{
 759:..\FreeRTOS/stream_buffer.c **** 		xBytesAvailable = prvBytesInBuffer( pxStreamBuffer );
 760:..\FreeRTOS/stream_buffer.c **** 	}
 761:..\FreeRTOS/stream_buffer.c **** 
 762:..\FreeRTOS/stream_buffer.c **** 	/* Whether receiving a discrete message (where xBytesToStoreMessageLength
 763:..\FreeRTOS/stream_buffer.c **** 	holds the number of bytes used to store the message length) or a stream of
 764:..\FreeRTOS/stream_buffer.c **** 	bytes (where xBytesToStoreMessageLength is zero), the number of bytes
 765:..\FreeRTOS/stream_buffer.c **** 	available must be greater than xBytesToStoreMessageLength to be able to
 766:..\FreeRTOS/stream_buffer.c **** 	read bytes from the buffer. */
 767:..\FreeRTOS/stream_buffer.c **** 	if( xBytesAvailable > xBytesToStoreMessageLength )
 768:..\FreeRTOS/stream_buffer.c **** 	{
 769:..\FreeRTOS/stream_buffer.c **** 		xReceivedLength = prvReadMessageFromBuffer( pxStreamBuffer, pvRxData, xBufferLengthBytes, xBytesA
 770:..\FreeRTOS/stream_buffer.c **** 
 771:..\FreeRTOS/stream_buffer.c **** 		/* Was a task waiting for space in the buffer? */
 772:..\FreeRTOS/stream_buffer.c **** 		if( xReceivedLength != ( size_t ) 0 )
ARM GAS  C:\Users\Tri94\AppData\Local\Temp\ccHaJcja.s 			page 15


 773:..\FreeRTOS/stream_buffer.c **** 		{
 774:..\FreeRTOS/stream_buffer.c **** 			traceSTREAM_BUFFER_RECEIVE( xStreamBuffer, xReceivedLength );
 775:..\FreeRTOS/stream_buffer.c **** 			sbRECEIVE_COMPLETED( pxStreamBuffer );
 776:..\FreeRTOS/stream_buffer.c **** 		}
 777:..\FreeRTOS/stream_buffer.c **** 		else
 778:..\FreeRTOS/stream_buffer.c **** 		{
 779:..\FreeRTOS/stream_buffer.c **** 			mtCOVERAGE_TEST_MARKER();
 780:..\FreeRTOS/stream_buffer.c **** 		}
 781:..\FreeRTOS/stream_buffer.c **** 	}
 782:..\FreeRTOS/stream_buffer.c **** 	else
 783:..\FreeRTOS/stream_buffer.c **** 	{
 784:..\FreeRTOS/stream_buffer.c **** 		traceSTREAM_BUFFER_RECEIVE_FAILED( xStreamBuffer );
 785:..\FreeRTOS/stream_buffer.c **** 		mtCOVERAGE_TEST_MARKER();
 786:..\FreeRTOS/stream_buffer.c **** 	}
 787:..\FreeRTOS/stream_buffer.c **** 
 788:..\FreeRTOS/stream_buffer.c **** 	return xReceivedLength;
 789:..\FreeRTOS/stream_buffer.c **** }
 790:..\FreeRTOS/stream_buffer.c **** /*-----------------------------------------------------------*/
 791:..\FreeRTOS/stream_buffer.c **** 
 792:..\FreeRTOS/stream_buffer.c **** size_t xStreamBufferReceiveFromISR( StreamBufferHandle_t xStreamBuffer,
 793:..\FreeRTOS/stream_buffer.c **** 									void *pvRxData,
 794:..\FreeRTOS/stream_buffer.c **** 									size_t xBufferLengthBytes,
 795:..\FreeRTOS/stream_buffer.c **** 									BaseType_t * const pxHigherPriorityTaskWoken )
 796:..\FreeRTOS/stream_buffer.c **** {
 797:..\FreeRTOS/stream_buffer.c **** StreamBuffer_t * const pxStreamBuffer = ( StreamBuffer_t * ) xStreamBuffer; /*lint !e9087 !e9079 Sa
 798:..\FreeRTOS/stream_buffer.c **** size_t xReceivedLength = 0, xBytesAvailable, xBytesToStoreMessageLength;
 799:..\FreeRTOS/stream_buffer.c **** 
 800:..\FreeRTOS/stream_buffer.c **** 	configASSERT( pvRxData );
 801:..\FreeRTOS/stream_buffer.c **** 	configASSERT( pxStreamBuffer );
 802:..\FreeRTOS/stream_buffer.c **** 
 803:..\FreeRTOS/stream_buffer.c **** 	/* This receive function is used by both message buffers, which store
 804:..\FreeRTOS/stream_buffer.c **** 	discrete messages, and stream buffers, which store a continuous stream of
 805:..\FreeRTOS/stream_buffer.c **** 	bytes.  Discrete messages include an additional
 806:..\FreeRTOS/stream_buffer.c **** 	sbBYTES_TO_STORE_MESSAGE_LENGTH bytes that hold the length of the
 807:..\FreeRTOS/stream_buffer.c **** 	message. */
 808:..\FreeRTOS/stream_buffer.c **** 	if( ( pxStreamBuffer->ucFlags & sbFLAGS_IS_MESSAGE_BUFFER ) != ( uint8_t ) 0 )
 809:..\FreeRTOS/stream_buffer.c **** 	{
 810:..\FreeRTOS/stream_buffer.c **** 		xBytesToStoreMessageLength = sbBYTES_TO_STORE_MESSAGE_LENGTH;
 811:..\FreeRTOS/stream_buffer.c **** 	}
 812:..\FreeRTOS/stream_buffer.c **** 	else
 813:..\FreeRTOS/stream_buffer.c **** 	{
 814:..\FreeRTOS/stream_buffer.c **** 		xBytesToStoreMessageLength = 0;
 815:..\FreeRTOS/stream_buffer.c **** 	}
 816:..\FreeRTOS/stream_buffer.c **** 
 817:..\FreeRTOS/stream_buffer.c **** 	xBytesAvailable = prvBytesInBuffer( pxStreamBuffer );
 818:..\FreeRTOS/stream_buffer.c **** 
 819:..\FreeRTOS/stream_buffer.c **** 	/* Whether receiving a discrete message (where xBytesToStoreMessageLength
 820:..\FreeRTOS/stream_buffer.c **** 	holds the number of bytes used to store the message length) or a stream of
 821:..\FreeRTOS/stream_buffer.c **** 	bytes (where xBytesToStoreMessageLength is zero), the number of bytes
 822:..\FreeRTOS/stream_buffer.c **** 	available must be greater than xBytesToStoreMessageLength to be able to
 823:..\FreeRTOS/stream_buffer.c **** 	read bytes from the buffer. */
 824:..\FreeRTOS/stream_buffer.c **** 	if( xBytesAvailable > xBytesToStoreMessageLength )
 825:..\FreeRTOS/stream_buffer.c **** 	{
 826:..\FreeRTOS/stream_buffer.c **** 		xReceivedLength = prvReadMessageFromBuffer( pxStreamBuffer, pvRxData, xBufferLengthBytes, xBytesA
 827:..\FreeRTOS/stream_buffer.c **** 
 828:..\FreeRTOS/stream_buffer.c **** 		/* Was a task waiting for space in the buffer? */
 829:..\FreeRTOS/stream_buffer.c **** 		if( xReceivedLength != ( size_t ) 0 )
ARM GAS  C:\Users\Tri94\AppData\Local\Temp\ccHaJcja.s 			page 16


 830:..\FreeRTOS/stream_buffer.c **** 		{
 831:..\FreeRTOS/stream_buffer.c **** 			sbRECEIVE_COMPLETED_FROM_ISR( pxStreamBuffer, pxHigherPriorityTaskWoken );
 832:..\FreeRTOS/stream_buffer.c **** 		}
 833:..\FreeRTOS/stream_buffer.c **** 		else
 834:..\FreeRTOS/stream_buffer.c **** 		{
 835:..\FreeRTOS/stream_buffer.c **** 			mtCOVERAGE_TEST_MARKER();
 836:..\FreeRTOS/stream_buffer.c **** 		}
 837:..\FreeRTOS/stream_buffer.c **** 	}
 838:..\FreeRTOS/stream_buffer.c **** 	else
 839:..\FreeRTOS/stream_buffer.c **** 	{
 840:..\FreeRTOS/stream_buffer.c **** 		mtCOVERAGE_TEST_MARKER();
 841:..\FreeRTOS/stream_buffer.c **** 	}
 842:..\FreeRTOS/stream_buffer.c **** 
 843:..\FreeRTOS/stream_buffer.c **** 	traceSTREAM_BUFFER_RECEIVE_FROM_ISR( xStreamBuffer, xReceivedLength );
 844:..\FreeRTOS/stream_buffer.c **** 
 845:..\FreeRTOS/stream_buffer.c **** 	return xReceivedLength;
 846:..\FreeRTOS/stream_buffer.c **** }
 847:..\FreeRTOS/stream_buffer.c **** /*-----------------------------------------------------------*/
 848:..\FreeRTOS/stream_buffer.c **** 
 849:..\FreeRTOS/stream_buffer.c **** static size_t prvReadMessageFromBuffer( StreamBuffer_t *pxStreamBuffer,
 850:..\FreeRTOS/stream_buffer.c **** 										void *pvRxData,
 851:..\FreeRTOS/stream_buffer.c **** 										size_t xBufferLengthBytes,
 852:..\FreeRTOS/stream_buffer.c **** 										size_t xBytesAvailable,
 853:..\FreeRTOS/stream_buffer.c **** 										size_t xBytesToStoreMessageLength )
 854:..\FreeRTOS/stream_buffer.c **** {
 855:..\FreeRTOS/stream_buffer.c **** size_t xOriginalTail, xReceivedLength, xNextMessageLength;
 856:..\FreeRTOS/stream_buffer.c **** 
 857:..\FreeRTOS/stream_buffer.c **** 	if( xBytesToStoreMessageLength != ( size_t ) 0 )
 858:..\FreeRTOS/stream_buffer.c **** 	{
 859:..\FreeRTOS/stream_buffer.c **** 		/* A discrete message is being received.  First receive the length
 860:..\FreeRTOS/stream_buffer.c **** 		of the message.  A copy of the tail is stored so the buffer can be
 861:..\FreeRTOS/stream_buffer.c **** 		returned to its prior state if the length of the message is too
 862:..\FreeRTOS/stream_buffer.c **** 		large for the provided buffer. */
 863:..\FreeRTOS/stream_buffer.c **** 		xOriginalTail = pxStreamBuffer->xTail;
 864:..\FreeRTOS/stream_buffer.c **** 		( void ) prvReadBytesFromBuffer( pxStreamBuffer, ( uint8_t * ) &xNextMessageLength, xBytesToStore
 865:..\FreeRTOS/stream_buffer.c **** 
 866:..\FreeRTOS/stream_buffer.c **** 		/* Reduce the number of bytes available by the number of bytes just
 867:..\FreeRTOS/stream_buffer.c **** 		read out. */
 868:..\FreeRTOS/stream_buffer.c **** 		xBytesAvailable -= xBytesToStoreMessageLength;
 869:..\FreeRTOS/stream_buffer.c **** 
 870:..\FreeRTOS/stream_buffer.c **** 		/* Check there is enough space in the buffer provided by the
 871:..\FreeRTOS/stream_buffer.c **** 		user. */
 872:..\FreeRTOS/stream_buffer.c **** 		if( xNextMessageLength > xBufferLengthBytes )
 873:..\FreeRTOS/stream_buffer.c **** 		{
 874:..\FreeRTOS/stream_buffer.c **** 			/* The user has provided insufficient space to read the message
 875:..\FreeRTOS/stream_buffer.c **** 			so return the buffer to its previous state (so the length of
 876:..\FreeRTOS/stream_buffer.c **** 			the message is in the buffer again). */
 877:..\FreeRTOS/stream_buffer.c **** 			pxStreamBuffer->xTail = xOriginalTail;
 878:..\FreeRTOS/stream_buffer.c **** 			xNextMessageLength = 0;
 879:..\FreeRTOS/stream_buffer.c **** 		}
 880:..\FreeRTOS/stream_buffer.c **** 		else
 881:..\FreeRTOS/stream_buffer.c **** 		{
 882:..\FreeRTOS/stream_buffer.c **** 			mtCOVERAGE_TEST_MARKER();
 883:..\FreeRTOS/stream_buffer.c **** 		}
 884:..\FreeRTOS/stream_buffer.c **** 	}
 885:..\FreeRTOS/stream_buffer.c **** 	else
 886:..\FreeRTOS/stream_buffer.c **** 	{
ARM GAS  C:\Users\Tri94\AppData\Local\Temp\ccHaJcja.s 			page 17


 887:..\FreeRTOS/stream_buffer.c **** 		/* A stream of bytes is being received (as opposed to a discrete
 888:..\FreeRTOS/stream_buffer.c **** 		message), so read as many bytes as possible. */
 889:..\FreeRTOS/stream_buffer.c **** 		xNextMessageLength = xBufferLengthBytes;
 890:..\FreeRTOS/stream_buffer.c **** 	}
 891:..\FreeRTOS/stream_buffer.c **** 
 892:..\FreeRTOS/stream_buffer.c **** 	/* Read the actual data. */
 893:..\FreeRTOS/stream_buffer.c **** 	xReceivedLength = prvReadBytesFromBuffer( pxStreamBuffer, ( uint8_t * ) pvRxData, xNextMessageLeng
 894:..\FreeRTOS/stream_buffer.c **** 
 895:..\FreeRTOS/stream_buffer.c **** 	return xReceivedLength;
 896:..\FreeRTOS/stream_buffer.c **** }
 897:..\FreeRTOS/stream_buffer.c **** /*-----------------------------------------------------------*/
 898:..\FreeRTOS/stream_buffer.c **** 
 899:..\FreeRTOS/stream_buffer.c **** BaseType_t xStreamBufferIsEmpty( StreamBufferHandle_t xStreamBuffer )
 900:..\FreeRTOS/stream_buffer.c **** {
 901:..\FreeRTOS/stream_buffer.c **** const StreamBuffer_t * const pxStreamBuffer = ( StreamBuffer_t * ) xStreamBuffer; /*lint !e9087 !e9
 902:..\FreeRTOS/stream_buffer.c **** BaseType_t xReturn;
 903:..\FreeRTOS/stream_buffer.c **** size_t xTail;
 904:..\FreeRTOS/stream_buffer.c **** 
 905:..\FreeRTOS/stream_buffer.c **** 	configASSERT( pxStreamBuffer );
 906:..\FreeRTOS/stream_buffer.c **** 
 907:..\FreeRTOS/stream_buffer.c **** 	/* True if no bytes are available. */
 908:..\FreeRTOS/stream_buffer.c **** 	xTail = pxStreamBuffer->xTail;
 909:..\FreeRTOS/stream_buffer.c **** 	if( pxStreamBuffer->xHead == xTail )
 910:..\FreeRTOS/stream_buffer.c **** 	{
 911:..\FreeRTOS/stream_buffer.c **** 		xReturn = pdTRUE;
 912:..\FreeRTOS/stream_buffer.c **** 	}
 913:..\FreeRTOS/stream_buffer.c **** 	else
 914:..\FreeRTOS/stream_buffer.c **** 	{
 915:..\FreeRTOS/stream_buffer.c **** 		xReturn = pdFALSE;
 916:..\FreeRTOS/stream_buffer.c **** 	}
 917:..\FreeRTOS/stream_buffer.c **** 
 918:..\FreeRTOS/stream_buffer.c **** 	return xReturn;
 919:..\FreeRTOS/stream_buffer.c **** }
 920:..\FreeRTOS/stream_buffer.c **** /*-----------------------------------------------------------*/
 921:..\FreeRTOS/stream_buffer.c **** 
 922:..\FreeRTOS/stream_buffer.c **** BaseType_t xStreamBufferIsFull( StreamBufferHandle_t xStreamBuffer )
 923:..\FreeRTOS/stream_buffer.c **** {
 924:..\FreeRTOS/stream_buffer.c **** BaseType_t xReturn;
 925:..\FreeRTOS/stream_buffer.c **** size_t xBytesToStoreMessageLength;
 926:..\FreeRTOS/stream_buffer.c **** const StreamBuffer_t * const pxStreamBuffer = ( StreamBuffer_t * ) xStreamBuffer; /*lint !e9087 !e9
 927:..\FreeRTOS/stream_buffer.c **** 
 928:..\FreeRTOS/stream_buffer.c **** 	configASSERT( pxStreamBuffer );
 929:..\FreeRTOS/stream_buffer.c **** 
 930:..\FreeRTOS/stream_buffer.c **** 	/* This generic version of the receive function is used by both message
 931:..\FreeRTOS/stream_buffer.c **** 	buffers, which store discrete messages, and stream buffers, which store a
 932:..\FreeRTOS/stream_buffer.c **** 	continuous stream of bytes.  Discrete messages include an additional
 933:..\FreeRTOS/stream_buffer.c **** 	sbBYTES_TO_STORE_MESSAGE_LENGTH bytes that hold the length of the message. */
 934:..\FreeRTOS/stream_buffer.c **** 	if( ( pxStreamBuffer->ucFlags & sbFLAGS_IS_MESSAGE_BUFFER ) != ( uint8_t ) 0 )
 935:..\FreeRTOS/stream_buffer.c **** 	{
 936:..\FreeRTOS/stream_buffer.c **** 		xBytesToStoreMessageLength = sbBYTES_TO_STORE_MESSAGE_LENGTH;
 937:..\FreeRTOS/stream_buffer.c **** 	}
 938:..\FreeRTOS/stream_buffer.c **** 	else
 939:..\FreeRTOS/stream_buffer.c **** 	{
 940:..\FreeRTOS/stream_buffer.c **** 		xBytesToStoreMessageLength = 0;
 941:..\FreeRTOS/stream_buffer.c **** 	}
 942:..\FreeRTOS/stream_buffer.c **** 
 943:..\FreeRTOS/stream_buffer.c **** 	/* True if the available space equals zero. */
ARM GAS  C:\Users\Tri94\AppData\Local\Temp\ccHaJcja.s 			page 18


 944:..\FreeRTOS/stream_buffer.c **** 	if( xStreamBufferSpacesAvailable( xStreamBuffer ) <= xBytesToStoreMessageLength )
 945:..\FreeRTOS/stream_buffer.c **** 	{
 946:..\FreeRTOS/stream_buffer.c **** 		xReturn = pdTRUE;
 947:..\FreeRTOS/stream_buffer.c **** 	}
 948:..\FreeRTOS/stream_buffer.c **** 	else
 949:..\FreeRTOS/stream_buffer.c **** 	{
 950:..\FreeRTOS/stream_buffer.c **** 		xReturn = pdFALSE;
 951:..\FreeRTOS/stream_buffer.c **** 	}
 952:..\FreeRTOS/stream_buffer.c **** 
 953:..\FreeRTOS/stream_buffer.c **** 	return xReturn;
 954:..\FreeRTOS/stream_buffer.c **** }
 955:..\FreeRTOS/stream_buffer.c **** /*-----------------------------------------------------------*/
 956:..\FreeRTOS/stream_buffer.c **** 
 957:..\FreeRTOS/stream_buffer.c **** BaseType_t xStreamBufferSendCompletedFromISR( StreamBufferHandle_t xStreamBuffer, BaseType_t *pxHig
 958:..\FreeRTOS/stream_buffer.c **** {
 959:..\FreeRTOS/stream_buffer.c **** StreamBuffer_t * const pxStreamBuffer = ( StreamBuffer_t * ) xStreamBuffer; /*lint !e9087 !e9079 Sa
 960:..\FreeRTOS/stream_buffer.c **** BaseType_t xReturn;
 961:..\FreeRTOS/stream_buffer.c **** UBaseType_t uxSavedInterruptStatus;
 962:..\FreeRTOS/stream_buffer.c **** 
 963:..\FreeRTOS/stream_buffer.c **** 	configASSERT( pxStreamBuffer );
 964:..\FreeRTOS/stream_buffer.c **** 
 965:..\FreeRTOS/stream_buffer.c **** 	uxSavedInterruptStatus = ( UBaseType_t ) portSET_INTERRUPT_MASK_FROM_ISR();
 966:..\FreeRTOS/stream_buffer.c **** 	{
 967:..\FreeRTOS/stream_buffer.c **** 		if( ( pxStreamBuffer )->xTaskWaitingToReceive != NULL )
 968:..\FreeRTOS/stream_buffer.c **** 		{
 969:..\FreeRTOS/stream_buffer.c **** 			( void ) xTaskNotifyFromISR( ( pxStreamBuffer )->xTaskWaitingToReceive,
 970:..\FreeRTOS/stream_buffer.c **** 										 ( uint32_t ) 0,
 971:..\FreeRTOS/stream_buffer.c **** 										 eNoAction,
 972:..\FreeRTOS/stream_buffer.c **** 										 pxHigherPriorityTaskWoken );
 973:..\FreeRTOS/stream_buffer.c **** 			( pxStreamBuffer )->xTaskWaitingToReceive = NULL;
 974:..\FreeRTOS/stream_buffer.c **** 			xReturn = pdTRUE;
 975:..\FreeRTOS/stream_buffer.c **** 		}
 976:..\FreeRTOS/stream_buffer.c **** 		else
 977:..\FreeRTOS/stream_buffer.c **** 		{
 978:..\FreeRTOS/stream_buffer.c **** 			xReturn = pdFALSE;
 979:..\FreeRTOS/stream_buffer.c **** 		}
 980:..\FreeRTOS/stream_buffer.c **** 	}
 981:..\FreeRTOS/stream_buffer.c **** 	portCLEAR_INTERRUPT_MASK_FROM_ISR( uxSavedInterruptStatus );
 982:..\FreeRTOS/stream_buffer.c **** 
 983:..\FreeRTOS/stream_buffer.c **** 	return xReturn;
 984:..\FreeRTOS/stream_buffer.c **** }
 985:..\FreeRTOS/stream_buffer.c **** /*-----------------------------------------------------------*/
 986:..\FreeRTOS/stream_buffer.c **** 
 987:..\FreeRTOS/stream_buffer.c **** BaseType_t xStreamBufferReceiveCompletedFromISR( StreamBufferHandle_t xStreamBuffer, BaseType_t *px
 988:..\FreeRTOS/stream_buffer.c **** {
 989:..\FreeRTOS/stream_buffer.c **** StreamBuffer_t * const pxStreamBuffer = ( StreamBuffer_t * ) xStreamBuffer; /*lint !e9087 !e9079 Sa
 990:..\FreeRTOS/stream_buffer.c **** BaseType_t xReturn;
 991:..\FreeRTOS/stream_buffer.c **** UBaseType_t uxSavedInterruptStatus;
 992:..\FreeRTOS/stream_buffer.c **** 
 993:..\FreeRTOS/stream_buffer.c **** 	configASSERT( pxStreamBuffer );
 994:..\FreeRTOS/stream_buffer.c **** 
 995:..\FreeRTOS/stream_buffer.c **** 	uxSavedInterruptStatus = ( UBaseType_t ) portSET_INTERRUPT_MASK_FROM_ISR();
 996:..\FreeRTOS/stream_buffer.c **** 	{
 997:..\FreeRTOS/stream_buffer.c **** 		if( ( pxStreamBuffer )->xTaskWaitingToSend != NULL )
 998:..\FreeRTOS/stream_buffer.c **** 		{
 999:..\FreeRTOS/stream_buffer.c **** 			( void ) xTaskNotifyFromISR( ( pxStreamBuffer )->xTaskWaitingToSend,
1000:..\FreeRTOS/stream_buffer.c **** 										 ( uint32_t ) 0,
ARM GAS  C:\Users\Tri94\AppData\Local\Temp\ccHaJcja.s 			page 19


1001:..\FreeRTOS/stream_buffer.c **** 										 eNoAction,
1002:..\FreeRTOS/stream_buffer.c **** 										 pxHigherPriorityTaskWoken );
1003:..\FreeRTOS/stream_buffer.c **** 			( pxStreamBuffer )->xTaskWaitingToSend = NULL;
1004:..\FreeRTOS/stream_buffer.c **** 			xReturn = pdTRUE;
1005:..\FreeRTOS/stream_buffer.c **** 		}
1006:..\FreeRTOS/stream_buffer.c **** 		else
1007:..\FreeRTOS/stream_buffer.c **** 		{
1008:..\FreeRTOS/stream_buffer.c **** 			xReturn = pdFALSE;
1009:..\FreeRTOS/stream_buffer.c **** 		}
1010:..\FreeRTOS/stream_buffer.c **** 	}
1011:..\FreeRTOS/stream_buffer.c **** 	portCLEAR_INTERRUPT_MASK_FROM_ISR( uxSavedInterruptStatus );
1012:..\FreeRTOS/stream_buffer.c **** 
1013:..\FreeRTOS/stream_buffer.c **** 	return xReturn;
1014:..\FreeRTOS/stream_buffer.c **** }
1015:..\FreeRTOS/stream_buffer.c **** /*-----------------------------------------------------------*/
1016:..\FreeRTOS/stream_buffer.c **** 
1017:..\FreeRTOS/stream_buffer.c **** static size_t prvWriteBytesToBuffer( StreamBuffer_t * const pxStreamBuffer, const uint8_t *pucData,
1018:..\FreeRTOS/stream_buffer.c **** {
1019:..\FreeRTOS/stream_buffer.c **** size_t xNextHead, xFirstLength;
1020:..\FreeRTOS/stream_buffer.c **** 
1021:..\FreeRTOS/stream_buffer.c **** 	configASSERT( xCount > ( size_t ) 0 );
1022:..\FreeRTOS/stream_buffer.c **** 
1023:..\FreeRTOS/stream_buffer.c **** 	xNextHead = pxStreamBuffer->xHead;
1024:..\FreeRTOS/stream_buffer.c **** 
1025:..\FreeRTOS/stream_buffer.c **** 	/* Calculate the number of bytes that can be added in the first write -
1026:..\FreeRTOS/stream_buffer.c **** 	which may be less than the total number of bytes that need to be added if
1027:..\FreeRTOS/stream_buffer.c **** 	the buffer will wrap back to the beginning. */
1028:..\FreeRTOS/stream_buffer.c **** 	xFirstLength = configMIN( pxStreamBuffer->xLength - xNextHead, xCount );
1029:..\FreeRTOS/stream_buffer.c **** 
1030:..\FreeRTOS/stream_buffer.c **** 	/* Write as many bytes as can be written in the first write. */
1031:..\FreeRTOS/stream_buffer.c **** 	configASSERT( ( xNextHead + xFirstLength ) <= pxStreamBuffer->xLength );
1032:..\FreeRTOS/stream_buffer.c **** 	memcpy( ( void* ) ( &( pxStreamBuffer->pucBuffer[ xNextHead ] ) ), ( const void * ) pucData, xFirs
1033:..\FreeRTOS/stream_buffer.c **** 
1034:..\FreeRTOS/stream_buffer.c **** 	/* If the number of bytes written was less than the number that could be
1035:..\FreeRTOS/stream_buffer.c **** 	written in the first write... */
1036:..\FreeRTOS/stream_buffer.c **** 	if( xCount > xFirstLength )
1037:..\FreeRTOS/stream_buffer.c **** 	{
1038:..\FreeRTOS/stream_buffer.c **** 		/* ...then write the remaining bytes to the start of the buffer. */
1039:..\FreeRTOS/stream_buffer.c **** 		configASSERT( ( xCount - xFirstLength ) <= pxStreamBuffer->xLength );
1040:..\FreeRTOS/stream_buffer.c **** 		memcpy( ( void * ) pxStreamBuffer->pucBuffer, ( const void * ) &( pucData[ xFirstLength ] ), xCou
1041:..\FreeRTOS/stream_buffer.c **** 	}
1042:..\FreeRTOS/stream_buffer.c **** 	else
1043:..\FreeRTOS/stream_buffer.c **** 	{
1044:..\FreeRTOS/stream_buffer.c **** 		mtCOVERAGE_TEST_MARKER();
1045:..\FreeRTOS/stream_buffer.c **** 	}
1046:..\FreeRTOS/stream_buffer.c **** 
1047:..\FreeRTOS/stream_buffer.c **** 	xNextHead += xCount;
1048:..\FreeRTOS/stream_buffer.c **** 	if( xNextHead >= pxStreamBuffer->xLength )
1049:..\FreeRTOS/stream_buffer.c **** 	{
1050:..\FreeRTOS/stream_buffer.c **** 		xNextHead -= pxStreamBuffer->xLength;
1051:..\FreeRTOS/stream_buffer.c **** 	}
1052:..\FreeRTOS/stream_buffer.c **** 	else
1053:..\FreeRTOS/stream_buffer.c **** 	{
1054:..\FreeRTOS/stream_buffer.c **** 		mtCOVERAGE_TEST_MARKER();
1055:..\FreeRTOS/stream_buffer.c **** 	}
1056:..\FreeRTOS/stream_buffer.c **** 
1057:..\FreeRTOS/stream_buffer.c **** 	pxStreamBuffer->xHead = xNextHead;
ARM GAS  C:\Users\Tri94\AppData\Local\Temp\ccHaJcja.s 			page 20


1058:..\FreeRTOS/stream_buffer.c **** 
1059:..\FreeRTOS/stream_buffer.c **** 	return xCount;
1060:..\FreeRTOS/stream_buffer.c **** }
1061:..\FreeRTOS/stream_buffer.c **** /*-----------------------------------------------------------*/
1062:..\FreeRTOS/stream_buffer.c **** 
1063:..\FreeRTOS/stream_buffer.c **** static size_t prvReadBytesFromBuffer( StreamBuffer_t *pxStreamBuffer, uint8_t *pucData, size_t xMax
1064:..\FreeRTOS/stream_buffer.c **** {
1065:..\FreeRTOS/stream_buffer.c **** size_t xCount, xFirstLength, xNextTail;
1066:..\FreeRTOS/stream_buffer.c **** 
1067:..\FreeRTOS/stream_buffer.c **** 	/* Use the minimum of the wanted bytes and the available bytes. */
1068:..\FreeRTOS/stream_buffer.c **** 	xCount = configMIN( xBytesAvailable, xMaxCount );
1069:..\FreeRTOS/stream_buffer.c **** 
1070:..\FreeRTOS/stream_buffer.c **** 	if( xCount > ( size_t ) 0 )
1071:..\FreeRTOS/stream_buffer.c **** 	{
1072:..\FreeRTOS/stream_buffer.c **** 		xNextTail = pxStreamBuffer->xTail;
1073:..\FreeRTOS/stream_buffer.c **** 
1074:..\FreeRTOS/stream_buffer.c **** 		/* Calculate the number of bytes that can be read - which may be
1075:..\FreeRTOS/stream_buffer.c **** 		less than the number wanted if the data wraps around to the start of
1076:..\FreeRTOS/stream_buffer.c **** 		the buffer. */
1077:..\FreeRTOS/stream_buffer.c **** 		xFirstLength = configMIN( pxStreamBuffer->xLength - xNextTail, xCount );
1078:..\FreeRTOS/stream_buffer.c **** 
1079:..\FreeRTOS/stream_buffer.c **** 		/* Obtain the number of bytes it is possible to obtain in the first
1080:..\FreeRTOS/stream_buffer.c **** 		read.  Asserts check bounds of read and write. */
1081:..\FreeRTOS/stream_buffer.c **** 		configASSERT( xFirstLength <= xMaxCount );
1082:..\FreeRTOS/stream_buffer.c **** 		configASSERT( ( xNextTail + xFirstLength ) <= pxStreamBuffer->xLength );
1083:..\FreeRTOS/stream_buffer.c **** 		memcpy( ( void * ) pucData, ( const void * ) &( pxStreamBuffer->pucBuffer[ xNextTail ] ), xFirstL
1084:..\FreeRTOS/stream_buffer.c **** 
1085:..\FreeRTOS/stream_buffer.c **** 		/* If the total number of wanted bytes is greater than the number
1086:..\FreeRTOS/stream_buffer.c **** 		that could be read in the first read... */
1087:..\FreeRTOS/stream_buffer.c **** 		if( xCount > xFirstLength )
1088:..\FreeRTOS/stream_buffer.c **** 		{
1089:..\FreeRTOS/stream_buffer.c **** 			/*...then read the remaining bytes from the start of the buffer. */
1090:..\FreeRTOS/stream_buffer.c **** 			configASSERT( xCount <= xMaxCount );
1091:..\FreeRTOS/stream_buffer.c **** 			memcpy( ( void * ) &( pucData[ xFirstLength ] ), ( void * ) ( pxStreamBuffer->pucBuffer ), xCoun
1092:..\FreeRTOS/stream_buffer.c **** 		}
1093:..\FreeRTOS/stream_buffer.c **** 		else
1094:..\FreeRTOS/stream_buffer.c **** 		{
1095:..\FreeRTOS/stream_buffer.c **** 			mtCOVERAGE_TEST_MARKER();
1096:..\FreeRTOS/stream_buffer.c **** 		}
1097:..\FreeRTOS/stream_buffer.c **** 
1098:..\FreeRTOS/stream_buffer.c **** 		/* Move the tail pointer to effectively remove the data read from
1099:..\FreeRTOS/stream_buffer.c **** 		the buffer. */
1100:..\FreeRTOS/stream_buffer.c **** 		xNextTail += xCount;
1101:..\FreeRTOS/stream_buffer.c **** 
1102:..\FreeRTOS/stream_buffer.c **** 		if( xNextTail >= pxStreamBuffer->xLength )
1103:..\FreeRTOS/stream_buffer.c **** 		{
1104:..\FreeRTOS/stream_buffer.c **** 			xNextTail -= pxStreamBuffer->xLength;
1105:..\FreeRTOS/stream_buffer.c **** 		}
1106:..\FreeRTOS/stream_buffer.c **** 
1107:..\FreeRTOS/stream_buffer.c **** 		pxStreamBuffer->xTail = xNextTail;
1108:..\FreeRTOS/stream_buffer.c **** 	}
1109:..\FreeRTOS/stream_buffer.c **** 	else
1110:..\FreeRTOS/stream_buffer.c **** 	{
1111:..\FreeRTOS/stream_buffer.c **** 		mtCOVERAGE_TEST_MARKER();
1112:..\FreeRTOS/stream_buffer.c **** 	}
1113:..\FreeRTOS/stream_buffer.c **** 
1114:..\FreeRTOS/stream_buffer.c **** 	return xCount;
ARM GAS  C:\Users\Tri94\AppData\Local\Temp\ccHaJcja.s 			page 21


1115:..\FreeRTOS/stream_buffer.c **** }
1116:..\FreeRTOS/stream_buffer.c **** /*-----------------------------------------------------------*/
1117:..\FreeRTOS/stream_buffer.c **** 
1118:..\FreeRTOS/stream_buffer.c **** static size_t prvBytesInBuffer( const StreamBuffer_t * const pxStreamBuffer )
1119:..\FreeRTOS/stream_buffer.c **** {
  27              		.loc 1 1119 0
  28              		.cfi_startproc
  29              		@ args = 0, pretend = 0, frame = 0
  30              		@ frame_needed = 0, uses_anonymous_args = 0
  31              		@ link register save eliminated.
  32              	.LVL0:
1120:..\FreeRTOS/stream_buffer.c **** /* Returns the distance between xTail and xHead. */
1121:..\FreeRTOS/stream_buffer.c **** size_t xCount;
1122:..\FreeRTOS/stream_buffer.c **** 
1123:..\FreeRTOS/stream_buffer.c **** 	xCount = pxStreamBuffer->xLength + pxStreamBuffer->xHead;
  33              		.loc 1 1123 0
  34 0000 8268     		ldr	r2, [r0, #8]
  35 0002 4368     		ldr	r3, [r0, #4]
  36 0004 1344     		add	r3, r3, r2
  37              	.LVL1:
1124:..\FreeRTOS/stream_buffer.c **** 	xCount -= pxStreamBuffer->xTail;
  38              		.loc 1 1124 0
  39 0006 0068     		ldr	r0, [r0]
  40              	.LVL2:
  41 0008 181A     		subs	r0, r3, r0
  42              	.LVL3:
1125:..\FreeRTOS/stream_buffer.c **** 	if ( xCount >= pxStreamBuffer->xLength )
  43              		.loc 1 1125 0
  44 000a 8242     		cmp	r2, r0
  45 000c 00D8     		bhi	.L2
1126:..\FreeRTOS/stream_buffer.c **** 	{
1127:..\FreeRTOS/stream_buffer.c **** 		xCount -= pxStreamBuffer->xLength;
  46              		.loc 1 1127 0
  47 000e 801A     		subs	r0, r0, r2
  48              	.LVL4:
  49              	.L2:
1128:..\FreeRTOS/stream_buffer.c **** 	}
1129:..\FreeRTOS/stream_buffer.c **** 	else
1130:..\FreeRTOS/stream_buffer.c **** 	{
1131:..\FreeRTOS/stream_buffer.c **** 		mtCOVERAGE_TEST_MARKER();
1132:..\FreeRTOS/stream_buffer.c **** 	}
1133:..\FreeRTOS/stream_buffer.c **** 
1134:..\FreeRTOS/stream_buffer.c **** 	return xCount;
1135:..\FreeRTOS/stream_buffer.c **** }
  50              		.loc 1 1135 0
  51 0010 7047     		bx	lr
  52              		.cfi_endproc
  53              	.LFE87:
  54              		.size	prvBytesInBuffer, .-prvBytesInBuffer
  55 0012 00BF     		.section	.text.prvInitialiseNewStreamBuffer,"ax",%progbits
  56              		.align	2
  57              		.thumb
  58              		.thumb_func
  59              		.type	prvInitialiseNewStreamBuffer, %function
  60              	prvInitialiseNewStreamBuffer:
  61              	.LFB88:
1136:..\FreeRTOS/stream_buffer.c **** /*-----------------------------------------------------------*/
ARM GAS  C:\Users\Tri94\AppData\Local\Temp\ccHaJcja.s 			page 22


1137:..\FreeRTOS/stream_buffer.c **** 
1138:..\FreeRTOS/stream_buffer.c **** static void prvInitialiseNewStreamBuffer( StreamBuffer_t * const pxStreamBuffer,
1139:..\FreeRTOS/stream_buffer.c **** 										  uint8_t * const pucBuffer,
1140:..\FreeRTOS/stream_buffer.c **** 										  size_t xBufferSizeBytes,
1141:..\FreeRTOS/stream_buffer.c **** 										  size_t xTriggerLevelBytes,
1142:..\FreeRTOS/stream_buffer.c **** 										  BaseType_t xIsMessageBuffer )
1143:..\FreeRTOS/stream_buffer.c **** {
  62              		.loc 1 1143 0
  63              		.cfi_startproc
  64              		@ args = 4, pretend = 0, frame = 0
  65              		@ frame_needed = 0, uses_anonymous_args = 0
  66              	.LVL5:
  67 0000 F8B5     		push	{r3, r4, r5, r6, r7, lr}
  68              		.cfi_def_cfa_offset 24
  69              		.cfi_offset 3, -24
  70              		.cfi_offset 4, -20
  71              		.cfi_offset 5, -16
  72              		.cfi_offset 6, -12
  73              		.cfi_offset 7, -8
  74              		.cfi_offset 14, -4
  75 0002 0446     		mov	r4, r0
  76 0004 0D46     		mov	r5, r1
  77 0006 1746     		mov	r7, r2
  78 0008 1E46     		mov	r6, r3
1144:..\FreeRTOS/stream_buffer.c **** 	/* Assert here is deliberately writing to the entire buffer to ensure it can
1145:..\FreeRTOS/stream_buffer.c **** 	be written to without generating exceptions, and is setting the buffer to a
1146:..\FreeRTOS/stream_buffer.c **** 	known value to assist in development/debugging. */
1147:..\FreeRTOS/stream_buffer.c **** 	#if( configASSERT_DEFINED == 1 )
1148:..\FreeRTOS/stream_buffer.c **** 	{
1149:..\FreeRTOS/stream_buffer.c **** 		/* The value written just has to be identifiable when looking at the
1150:..\FreeRTOS/stream_buffer.c **** 		memory.  Don't use 0xA5 as that is the stack fill value and could
1151:..\FreeRTOS/stream_buffer.c **** 		result in confusion as to what is actually being observed. */
1152:..\FreeRTOS/stream_buffer.c **** 		const BaseType_t xWriteValue = 0x55;
1153:..\FreeRTOS/stream_buffer.c **** 		configASSERT( memset( pucBuffer, ( int ) xWriteValue, xBufferSizeBytes ) == pucBuffer );
1154:..\FreeRTOS/stream_buffer.c **** 	}
1155:..\FreeRTOS/stream_buffer.c **** 	#endif
1156:..\FreeRTOS/stream_buffer.c **** 
1157:..\FreeRTOS/stream_buffer.c **** 	memset( ( void * ) pxStreamBuffer, 0x00, sizeof( StreamBuffer_t ) ); /*lint !e9087 memset() requir
  79              		.loc 1 1157 0
  80 000a 2022     		movs	r2, #32
  81              	.LVL6:
  82 000c 0021     		movs	r1, #0
  83              	.LVL7:
  84 000e FFF7FEFF 		bl	memset
  85              	.LVL8:
1158:..\FreeRTOS/stream_buffer.c **** 	pxStreamBuffer->pucBuffer = pucBuffer;
  86              		.loc 1 1158 0
  87 0012 A561     		str	r5, [r4, #24]
1159:..\FreeRTOS/stream_buffer.c **** 	pxStreamBuffer->xLength = xBufferSizeBytes;
  88              		.loc 1 1159 0
  89 0014 A760     		str	r7, [r4, #8]
1160:..\FreeRTOS/stream_buffer.c **** 	pxStreamBuffer->xTriggerLevelBytes = xTriggerLevelBytes;
  90              		.loc 1 1160 0
  91 0016 E660     		str	r6, [r4, #12]
1161:..\FreeRTOS/stream_buffer.c **** 
1162:..\FreeRTOS/stream_buffer.c **** 	if( xIsMessageBuffer != pdFALSE )
  92              		.loc 1 1162 0
ARM GAS  C:\Users\Tri94\AppData\Local\Temp\ccHaJcja.s 			page 23


  93 0018 069B     		ldr	r3, [sp, #24]
  94 001a 1BB1     		cbz	r3, .L3
1163:..\FreeRTOS/stream_buffer.c **** 	{
1164:..\FreeRTOS/stream_buffer.c **** 		pxStreamBuffer->ucFlags |= sbFLAGS_IS_MESSAGE_BUFFER;
  95              		.loc 1 1164 0
  96 001c 237F     		ldrb	r3, [r4, #28]	@ zero_extendqisi2
  97 001e 43F00103 		orr	r3, r3, #1
  98 0022 2377     		strb	r3, [r4, #28]
  99              	.L3:
 100 0024 F8BD     		pop	{r3, r4, r5, r6, r7, pc}
 101              		.cfi_endproc
 102              	.LFE88:
 103              		.size	prvInitialiseNewStreamBuffer, .-prvInitialiseNewStreamBuffer
 104 0026 00BF     		.section	.text.prvWriteBytesToBuffer,"ax",%progbits
 105              		.align	2
 106              		.thumb
 107              		.thumb_func
 108              		.type	prvWriteBytesToBuffer, %function
 109              	prvWriteBytesToBuffer:
 110              	.LFB85:
1018:..\FreeRTOS/stream_buffer.c **** size_t xNextHead, xFirstLength;
 111              		.loc 1 1018 0
 112              		.cfi_startproc
 113              		@ args = 0, pretend = 0, frame = 0
 114              		@ frame_needed = 0, uses_anonymous_args = 0
 115              	.LVL9:
 116 0000 2DE9F041 		push	{r4, r5, r6, r7, r8, lr}
 117              		.cfi_def_cfa_offset 24
 118              		.cfi_offset 4, -24
 119              		.cfi_offset 5, -20
 120              		.cfi_offset 6, -16
 121              		.cfi_offset 7, -12
 122              		.cfi_offset 8, -8
 123              		.cfi_offset 14, -4
 124 0004 0646     		mov	r6, r0
 125 0006 8846     		mov	r8, r1
 126 0008 1746     		mov	r7, r2
1023:..\FreeRTOS/stream_buffer.c **** 
 127              		.loc 1 1023 0
 128 000a 4468     		ldr	r4, [r0, #4]
 129              	.LVL10:
1028:..\FreeRTOS/stream_buffer.c **** 
 130              		.loc 1 1028 0
 131 000c 8568     		ldr	r5, [r0, #8]
 132 000e 2D1B     		subs	r5, r5, r4
 133 0010 9542     		cmp	r5, r2
 134 0012 28BF     		it	cs
 135 0014 1546     		movcs	r5, r2
 136              	.LVL11:
1032:..\FreeRTOS/stream_buffer.c **** 
 137              		.loc 1 1032 0
 138 0016 8069     		ldr	r0, [r0, #24]
 139              	.LVL12:
 140 0018 2A46     		mov	r2, r5
 141              	.LVL13:
 142 001a 2044     		add	r0, r0, r4
 143 001c FFF7FEFF 		bl	memcpy
ARM GAS  C:\Users\Tri94\AppData\Local\Temp\ccHaJcja.s 			page 24


 144              	.LVL14:
1036:..\FreeRTOS/stream_buffer.c **** 	{
 145              		.loc 1 1036 0
 146 0020 AF42     		cmp	r7, r5
 147 0022 05D9     		bls	.L7
1040:..\FreeRTOS/stream_buffer.c **** 	}
 148              		.loc 1 1040 0
 149 0024 7A1B     		subs	r2, r7, r5
 150 0026 08EB0501 		add	r1, r8, r5
 151 002a B069     		ldr	r0, [r6, #24]
 152 002c FFF7FEFF 		bl	memcpy
 153              	.LVL15:
 154              	.L7:
1047:..\FreeRTOS/stream_buffer.c **** 	if( xNextHead >= pxStreamBuffer->xLength )
 155              		.loc 1 1047 0
 156 0030 E319     		adds	r3, r4, r7
 157              	.LVL16:
1048:..\FreeRTOS/stream_buffer.c **** 	{
 158              		.loc 1 1048 0
 159 0032 B268     		ldr	r2, [r6, #8]
 160 0034 9342     		cmp	r3, r2
 161 0036 00D3     		bcc	.L8
1050:..\FreeRTOS/stream_buffer.c **** 	}
 162              		.loc 1 1050 0
 163 0038 9B1A     		subs	r3, r3, r2
 164              	.LVL17:
 165              	.L8:
1057:..\FreeRTOS/stream_buffer.c **** 
 166              		.loc 1 1057 0
 167 003a 7360     		str	r3, [r6, #4]
1060:..\FreeRTOS/stream_buffer.c **** /*-----------------------------------------------------------*/
 168              		.loc 1 1060 0
 169 003c 3846     		mov	r0, r7
 170 003e BDE8F081 		pop	{r4, r5, r6, r7, r8, pc}
 171              		.cfi_endproc
 172              	.LFE85:
 173              		.size	prvWriteBytesToBuffer, .-prvWriteBytesToBuffer
 174 0042 00BF     		.section	.text.prvWriteMessageToBuffer,"ax",%progbits
 175              		.align	2
 176              		.thumb
 177              		.thumb_func
 178              		.type	prvWriteMessageToBuffer, %function
 179              	prvWriteMessageToBuffer:
 180              	.LFB77:
 641:..\FreeRTOS/stream_buffer.c **** 	BaseType_t xShouldWrite;
 181              		.loc 1 641 0
 182              		.cfi_startproc
 183              		@ args = 4, pretend = 0, frame = 8
 184              		@ frame_needed = 0, uses_anonymous_args = 0
 185              	.LVL18:
 186 0000 30B5     		push	{r4, r5, lr}
 187              		.cfi_def_cfa_offset 12
 188              		.cfi_offset 4, -12
 189              		.cfi_offset 5, -8
 190              		.cfi_offset 14, -4
 191 0002 83B0     		sub	sp, sp, #12
 192              		.cfi_def_cfa_offset 24
ARM GAS  C:\Users\Tri94\AppData\Local\Temp\ccHaJcja.s 			page 25


 193 0004 0446     		mov	r4, r0
 194 0006 0D46     		mov	r5, r1
 195 0008 0192     		str	r2, [sp, #4]
 645:..\FreeRTOS/stream_buffer.c **** 	{
 196              		.loc 1 645 0
 197 000a ABB1     		cbz	r3, .L14
 198 000c 1A46     		mov	r2, r3
 199              	.LVL19:
 651:..\FreeRTOS/stream_buffer.c **** 	{
 200              		.loc 1 651 0
 201 000e 037F     		ldrb	r3, [r0, #28]	@ zero_extendqisi2
 202              	.LVL20:
 203 0010 13F0010F 		tst	r3, #1
 204 0014 06D1     		bne	.L12
 205              	.LVL21:
 657:..\FreeRTOS/stream_buffer.c **** 	}
 206              		.loc 1 657 0
 207 0016 019B     		ldr	r3, [sp, #4]
 208 0018 9A42     		cmp	r2, r3
 209 001a 28BF     		it	cs
 210 001c 1A46     		movcs	r2, r3
 211              	.LVL22:
 212 001e 0192     		str	r2, [sp, #4]
 213              	.LVL23:
 656:..\FreeRTOS/stream_buffer.c **** 		xDataLengthBytes = configMIN( xDataLengthBytes, xSpace ); /*lint !e9044 Function parameter modifi
 214              		.loc 1 656 0
 215 0020 0123     		movs	r3, #1
 216              	.LVL24:
 217 0022 0CE0     		b	.L11
 218              	.LVL25:
 219              	.L12:
 659:..\FreeRTOS/stream_buffer.c **** 	{
 220              		.loc 1 659 0
 221 0024 069B     		ldr	r3, [sp, #24]
 222 0026 9A42     		cmp	r2, r3
 223 0028 08D3     		bcc	.L15
 224              	.LVL26:
 666:..\FreeRTOS/stream_buffer.c **** 	}
 225              		.loc 1 666 0
 226 002a 0422     		movs	r2, #4
 227              	.LVL27:
 228 002c 0DEB0201 		add	r1, sp, r2
 229              	.LVL28:
 230 0030 FFF7FEFF 		bl	prvWriteBytesToBuffer
 231              	.LVL29:
 665:..\FreeRTOS/stream_buffer.c **** 		( void ) prvWriteBytesToBuffer( pxStreamBuffer, ( const uint8_t * ) &( xDataLengthBytes ), sbBYTE
 232              		.loc 1 665 0
 233 0034 0123     		movs	r3, #1
 234 0036 02E0     		b	.L11
 235              	.LVL30:
 236              	.L14:
 649:..\FreeRTOS/stream_buffer.c **** 	}
 237              		.loc 1 649 0
 238 0038 0023     		movs	r3, #0
 239              	.LVL31:
 240 003a 00E0     		b	.L11
 241              	.LVL32:
ARM GAS  C:\Users\Tri94\AppData\Local\Temp\ccHaJcja.s 			page 26


 242              	.L15:
 671:..\FreeRTOS/stream_buffer.c **** 	}
 243              		.loc 1 671 0
 244 003c 0023     		movs	r3, #0
 245              	.LVL33:
 246              	.L11:
 674:..\FreeRTOS/stream_buffer.c **** 	{
 247              		.loc 1 674 0
 248 003e 2BB1     		cbz	r3, .L16
 677:..\FreeRTOS/stream_buffer.c **** 	}
 249              		.loc 1 677 0
 250 0040 019A     		ldr	r2, [sp, #4]
 251 0042 2946     		mov	r1, r5
 252 0044 2046     		mov	r0, r4
 253 0046 FFF7FEFF 		bl	prvWriteBytesToBuffer
 254              	.LVL34:
 255 004a 00E0     		b	.L13
 256              	.LVL35:
 257              	.L16:
 681:..\FreeRTOS/stream_buffer.c **** 	}
 258              		.loc 1 681 0
 259 004c 0020     		movs	r0, #0
 260              	.LVL36:
 261              	.L13:
 685:..\FreeRTOS/stream_buffer.c **** /*-----------------------------------------------------------*/
 262              		.loc 1 685 0
 263 004e 03B0     		add	sp, sp, #12
 264              		.cfi_def_cfa_offset 12
 265              		@ sp needed
 266 0050 30BD     		pop	{r4, r5, pc}
 267              		.cfi_endproc
 268              	.LFE77:
 269              		.size	prvWriteMessageToBuffer, .-prvWriteMessageToBuffer
 270 0052 00BF     		.section	.text.prvReadBytesFromBuffer,"ax",%progbits
 271              		.align	2
 272              		.thumb
 273              		.thumb_func
 274              		.type	prvReadBytesFromBuffer, %function
 275              	prvReadBytesFromBuffer:
 276              	.LFB86:
1064:..\FreeRTOS/stream_buffer.c **** size_t xCount, xFirstLength, xNextTail;
 277              		.loc 1 1064 0
 278              		.cfi_startproc
 279              		@ args = 0, pretend = 0, frame = 0
 280              		@ frame_needed = 0, uses_anonymous_args = 0
 281              	.LVL37:
 282 0000 2DE9F041 		push	{r4, r5, r6, r7, r8, lr}
 283              		.cfi_def_cfa_offset 24
 284              		.cfi_offset 4, -24
 285              		.cfi_offset 5, -20
 286              		.cfi_offset 6, -16
 287              		.cfi_offset 7, -12
 288              		.cfi_offset 8, -8
 289              		.cfi_offset 14, -4
1068:..\FreeRTOS/stream_buffer.c **** 
 290              		.loc 1 1068 0
 291 0004 9A42     		cmp	r2, r3
ARM GAS  C:\Users\Tri94\AppData\Local\Temp\ccHaJcja.s 			page 27


 292 0006 28BF     		it	cs
 293 0008 1A46     		movcs	r2, r3
 294              	.LVL38:
 295 000a 1446     		mov	r4, r2
 296              	.LVL39:
1070:..\FreeRTOS/stream_buffer.c **** 	{
 297              		.loc 1 1070 0
 298 000c DAB1     		cbz	r2, .L19
 299 000e 8846     		mov	r8, r1
 300 0010 0546     		mov	r5, r0
1072:..\FreeRTOS/stream_buffer.c **** 
 301              		.loc 1 1072 0
 302 0012 0668     		ldr	r6, [r0]
 303              	.LVL40:
1077:..\FreeRTOS/stream_buffer.c **** 
 304              		.loc 1 1077 0
 305 0014 8768     		ldr	r7, [r0, #8]
 306 0016 BF1B     		subs	r7, r7, r6
 307 0018 9742     		cmp	r7, r2
 308 001a 28BF     		it	cs
 309 001c 1746     		movcs	r7, r2
 310              	.LVL41:
1083:..\FreeRTOS/stream_buffer.c **** 
 311              		.loc 1 1083 0
 312 001e 8169     		ldr	r1, [r0, #24]
 313              	.LVL42:
 314 0020 3A46     		mov	r2, r7
 315              	.LVL43:
 316 0022 3144     		add	r1, r1, r6
 317 0024 4046     		mov	r0, r8
 318              	.LVL44:
 319 0026 FFF7FEFF 		bl	memcpy
 320              	.LVL45:
1087:..\FreeRTOS/stream_buffer.c **** 		{
 321              		.loc 1 1087 0
 322 002a BC42     		cmp	r4, r7
 323 002c 05D9     		bls	.L20
1091:..\FreeRTOS/stream_buffer.c **** 		}
 324              		.loc 1 1091 0
 325 002e E21B     		subs	r2, r4, r7
 326 0030 A969     		ldr	r1, [r5, #24]
 327 0032 08EB0700 		add	r0, r8, r7
 328 0036 FFF7FEFF 		bl	memcpy
 329              	.LVL46:
 330              	.L20:
1100:..\FreeRTOS/stream_buffer.c **** 
 331              		.loc 1 1100 0
 332 003a 2644     		add	r6, r6, r4
 333              	.LVL47:
1102:..\FreeRTOS/stream_buffer.c **** 		{
 334              		.loc 1 1102 0
 335 003c AB68     		ldr	r3, [r5, #8]
 336 003e 9E42     		cmp	r6, r3
 337 0040 00D3     		bcc	.L21
1104:..\FreeRTOS/stream_buffer.c **** 		}
 338              		.loc 1 1104 0
 339 0042 F61A     		subs	r6, r6, r3
ARM GAS  C:\Users\Tri94\AppData\Local\Temp\ccHaJcja.s 			page 28


 340              	.LVL48:
 341              	.L21:
1107:..\FreeRTOS/stream_buffer.c **** 	}
 342              		.loc 1 1107 0
 343 0044 2E60     		str	r6, [r5]
 344              	.LVL49:
 345              	.L19:
1115:..\FreeRTOS/stream_buffer.c **** /*-----------------------------------------------------------*/
 346              		.loc 1 1115 0
 347 0046 2046     		mov	r0, r4
 348 0048 BDE8F081 		pop	{r4, r5, r6, r7, r8, pc}
 349              		.cfi_endproc
 350              	.LFE86:
 351              		.size	prvReadBytesFromBuffer, .-prvReadBytesFromBuffer
 352              		.section	.text.prvReadMessageFromBuffer,"ax",%progbits
 353              		.align	2
 354              		.thumb
 355              		.thumb_func
 356              		.type	prvReadMessageFromBuffer, %function
 357              	prvReadMessageFromBuffer:
 358              	.LFB80:
 854:..\FreeRTOS/stream_buffer.c **** size_t xOriginalTail, xReceivedLength, xNextMessageLength;
 359              		.loc 1 854 0
 360              		.cfi_startproc
 361              		@ args = 4, pretend = 0, frame = 8
 362              		@ frame_needed = 0, uses_anonymous_args = 0
 363              	.LVL50:
 364 0000 2DE9F043 		push	{r4, r5, r6, r7, r8, r9, lr}
 365              		.cfi_def_cfa_offset 28
 366              		.cfi_offset 4, -28
 367              		.cfi_offset 5, -24
 368              		.cfi_offset 6, -20
 369              		.cfi_offset 7, -16
 370              		.cfi_offset 8, -12
 371              		.cfi_offset 9, -8
 372              		.cfi_offset 14, -4
 373 0004 83B0     		sub	sp, sp, #12
 374              		.cfi_def_cfa_offset 40
 375 0006 0546     		mov	r5, r0
 376 0008 0F46     		mov	r7, r1
 377 000a 9046     		mov	r8, r2
 378 000c 1C46     		mov	r4, r3
 379 000e 0A9E     		ldr	r6, [sp, #40]
 857:..\FreeRTOS/stream_buffer.c **** 	{
 380              		.loc 1 857 0
 381 0010 76B1     		cbz	r6, .L24
 863:..\FreeRTOS/stream_buffer.c **** 		( void ) prvReadBytesFromBuffer( pxStreamBuffer, ( uint8_t * ) &xNextMessageLength, xBytesToStore
 382              		.loc 1 863 0
 383 0012 D0F80090 		ldr	r9, [r0]
 384              	.LVL51:
 864:..\FreeRTOS/stream_buffer.c **** 
 385              		.loc 1 864 0
 386 0016 3246     		mov	r2, r6
 387              	.LVL52:
 388 0018 01A9     		add	r1, sp, #4
 389              	.LVL53:
 390 001a FFF7FEFF 		bl	prvReadBytesFromBuffer
ARM GAS  C:\Users\Tri94\AppData\Local\Temp\ccHaJcja.s 			page 29


 391              	.LVL54:
 868:..\FreeRTOS/stream_buffer.c **** 
 392              		.loc 1 868 0
 393 001e A41B     		subs	r4, r4, r6
 394              	.LVL55:
 872:..\FreeRTOS/stream_buffer.c **** 		{
 395              		.loc 1 872 0
 396 0020 019B     		ldr	r3, [sp, #4]
 397 0022 4345     		cmp	r3, r8
 398 0024 05D9     		bls	.L25
 877:..\FreeRTOS/stream_buffer.c **** 			xNextMessageLength = 0;
 399              		.loc 1 877 0
 400 0026 C5F80090 		str	r9, [r5]
 878:..\FreeRTOS/stream_buffer.c **** 		}
 401              		.loc 1 878 0
 402 002a 0023     		movs	r3, #0
 403 002c 0193     		str	r3, [sp, #4]
 404 002e 00E0     		b	.L25
 405              	.LVL56:
 406              	.L24:
 889:..\FreeRTOS/stream_buffer.c **** 	}
 407              		.loc 1 889 0
 408 0030 0192     		str	r2, [sp, #4]
 409              	.LVL57:
 410              	.L25:
 893:..\FreeRTOS/stream_buffer.c **** 
 411              		.loc 1 893 0
 412 0032 2346     		mov	r3, r4
 413 0034 019A     		ldr	r2, [sp, #4]
 414 0036 3946     		mov	r1, r7
 415 0038 2846     		mov	r0, r5
 416 003a FFF7FEFF 		bl	prvReadBytesFromBuffer
 417              	.LVL58:
 896:..\FreeRTOS/stream_buffer.c **** /*-----------------------------------------------------------*/
 418              		.loc 1 896 0
 419 003e 03B0     		add	sp, sp, #12
 420              		.cfi_def_cfa_offset 28
 421              		@ sp needed
 422 0040 BDE8F083 		pop	{r4, r5, r6, r7, r8, r9, pc}
 423              		.cfi_endproc
 424              	.LFE80:
 425              		.size	prvReadMessageFromBuffer, .-prvReadMessageFromBuffer
 426              		.section	.text.xStreamBufferGenericCreate,"ax",%progbits
 427              		.align	2
 428              		.global	xStreamBufferGenericCreate
 429              		.thumb
 430              		.thumb_func
 431              		.type	xStreamBufferGenericCreate, %function
 432              	xStreamBufferGenericCreate:
 433              	.LFB69:
 217:..\FreeRTOS/stream_buffer.c **** 	uint8_t *pucAllocatedMemory;
 434              		.loc 1 217 0
 435              		.cfi_startproc
 436              		@ args = 0, pretend = 0, frame = 0
 437              		@ frame_needed = 0, uses_anonymous_args = 0
 438              	.LVL59:
 439 0000 F0B5     		push	{r4, r5, r6, r7, lr}
ARM GAS  C:\Users\Tri94\AppData\Local\Temp\ccHaJcja.s 			page 30


 440              		.cfi_def_cfa_offset 20
 441              		.cfi_offset 4, -20
 442              		.cfi_offset 5, -16
 443              		.cfi_offset 6, -12
 444              		.cfi_offset 7, -8
 445              		.cfi_offset 14, -4
 446 0002 83B0     		sub	sp, sp, #12
 447              		.cfi_def_cfa_offset 32
 448 0004 1746     		mov	r7, r2
 229:..\FreeRTOS/stream_buffer.c **** 		{
 449              		.loc 1 229 0
 450 0006 0D46     		mov	r5, r1
 451 0008 01B9     		cbnz	r1, .L28
 231:..\FreeRTOS/stream_buffer.c **** 		}
 452              		.loc 1 231 0
 453 000a 0125     		movs	r5, #1
 454              	.L28:
 455              	.LVL60:
 242:..\FreeRTOS/stream_buffer.c **** 		pucAllocatedMemory = ( uint8_t * ) pvPortMalloc( xBufferSizeBytes + sizeof( StreamBuffer_t ) ); /
 456              		.loc 1 242 0
 457 000c 461C     		adds	r6, r0, #1
 458              	.LVL61:
 243:..\FreeRTOS/stream_buffer.c **** 
 459              		.loc 1 243 0
 460 000e 2130     		adds	r0, r0, #33
 461 0010 FFF7FEFF 		bl	pvPortMalloc
 462              	.LVL62:
 245:..\FreeRTOS/stream_buffer.c **** 		{
 463              		.loc 1 245 0
 464 0014 0446     		mov	r4, r0
 465 0016 30B1     		cbz	r0, .L29
 247:..\FreeRTOS/stream_buffer.c **** 										   pucAllocatedMemory + sizeof( StreamBuffer_t ),  /* Storage area follows. */ /*lint !e9
 466              		.loc 1 247 0
 467 0018 0097     		str	r7, [sp]
 468 001a 2B46     		mov	r3, r5
 469 001c 3246     		mov	r2, r6
 470 001e 00F12001 		add	r1, r0, #32
 471 0022 FFF7FEFF 		bl	prvInitialiseNewStreamBuffer
 472              	.LVL63:
 473              	.L29:
 261:..\FreeRTOS/stream_buffer.c **** 
 474              		.loc 1 261 0
 475 0026 2046     		mov	r0, r4
 476 0028 03B0     		add	sp, sp, #12
 477              		.cfi_def_cfa_offset 20
 478              		@ sp needed
 479 002a F0BD     		pop	{r4, r5, r6, r7, pc}
 480              		.cfi_endproc
 481              	.LFE69:
 482              		.size	xStreamBufferGenericCreate, .-xStreamBufferGenericCreate
 483              		.section	.text.vStreamBufferDelete,"ax",%progbits
 484              		.align	2
 485              		.global	vStreamBufferDelete
 486              		.thumb
 487              		.thumb_func
 488              		.type	vStreamBufferDelete, %function
 489              	vStreamBufferDelete:
ARM GAS  C:\Users\Tri94\AppData\Local\Temp\ccHaJcja.s 			page 31


 490              	.LFB70:
 333:..\FreeRTOS/stream_buffer.c **** StreamBuffer_t * pxStreamBuffer = ( StreamBuffer_t * ) xStreamBuffer; /*lint !e9087 !e9079 Safe cas
 491              		.loc 1 333 0
 492              		.cfi_startproc
 493              		@ args = 0, pretend = 0, frame = 0
 494              		@ frame_needed = 0, uses_anonymous_args = 0
 495              	.LVL64:
 496 0000 08B5     		push	{r3, lr}
 497              		.cfi_def_cfa_offset 8
 498              		.cfi_offset 3, -8
 499              		.cfi_offset 14, -4
 500              	.LVL65:
 340:..\FreeRTOS/stream_buffer.c **** 	{
 501              		.loc 1 340 0
 502 0002 037F     		ldrb	r3, [r0, #28]	@ zero_extendqisi2
 503 0004 13F0020F 		tst	r3, #2
 504 0008 02D1     		bne	.L33
 346:..\FreeRTOS/stream_buffer.c **** 		}
 505              		.loc 1 346 0
 506 000a FFF7FEFF 		bl	vPortFree
 507              	.LVL66:
 508 000e 08BD     		pop	{r3, pc}
 509              	.LVL67:
 510              	.L33:
 360:..\FreeRTOS/stream_buffer.c **** 	}
 511              		.loc 1 360 0
 512 0010 2022     		movs	r2, #32
 513 0012 0021     		movs	r1, #0
 514 0014 FFF7FEFF 		bl	memset
 515              	.LVL68:
 516 0018 08BD     		pop	{r3, pc}
 517              		.cfi_endproc
 518              	.LFE70:
 519              		.size	vStreamBufferDelete, .-vStreamBufferDelete
 520 001a 00BF     		.section	.text.xStreamBufferReset,"ax",%progbits
 521              		.align	2
 522              		.global	xStreamBufferReset
 523              		.thumb
 524              		.thumb_func
 525              		.type	xStreamBufferReset, %function
 526              	xStreamBufferReset:
 527              	.LFB71:
 366:..\FreeRTOS/stream_buffer.c **** StreamBuffer_t * const pxStreamBuffer = ( StreamBuffer_t * ) xStreamBuffer; /*lint !e9087 !e9079 Sa
 528              		.loc 1 366 0
 529              		.cfi_startproc
 530              		@ args = 0, pretend = 0, frame = 0
 531              		@ frame_needed = 0, uses_anonymous_args = 0
 532              	.LVL69:
 385:..\FreeRTOS/stream_buffer.c **** 	{
 533              		.loc 1 385 0
 534 0000 0369     		ldr	r3, [r0, #16]
 535 0002 93B9     		cbnz	r3, .L39
 387:..\FreeRTOS/stream_buffer.c **** 		{
 536              		.loc 1 387 0
 537 0004 4369     		ldr	r3, [r0, #20]
 538 0006 93B9     		cbnz	r3, .L40
 366:..\FreeRTOS/stream_buffer.c **** StreamBuffer_t * const pxStreamBuffer = ( StreamBuffer_t * ) xStreamBuffer; /*lint !e9087 !e9079 Sa
ARM GAS  C:\Users\Tri94\AppData\Local\Temp\ccHaJcja.s 			page 32


 539              		.loc 1 366 0
 540 0008 00B5     		push	{lr}
 541              		.cfi_def_cfa_offset 4
 542              		.cfi_offset 14, -4
 543 000a 83B0     		sub	sp, sp, #12
 544              		.cfi_def_cfa_offset 16
 389:..\FreeRTOS/stream_buffer.c **** 			{
 545              		.loc 1 389 0
 546 000c 037F     		ldrb	r3, [r0, #28]	@ zero_extendqisi2
 547 000e 13F0010F 		tst	r3, #1
 548 0012 01D0     		beq	.L41
 391:..\FreeRTOS/stream_buffer.c **** 			}
 549              		.loc 1 391 0
 550 0014 0123     		movs	r3, #1
 551 0016 00E0     		b	.L38
 552              	.L41:
 395:..\FreeRTOS/stream_buffer.c **** 			}
 553              		.loc 1 395 0
 554 0018 0023     		movs	r3, #0
 555              	.L38:
 556              	.LVL70:
 398:..\FreeRTOS/stream_buffer.c **** 										  pxStreamBuffer->pucBuffer,
 557              		.loc 1 398 0
 558 001a 0093     		str	r3, [sp]
 559 001c C368     		ldr	r3, [r0, #12]
 560              	.LVL71:
 561 001e 8268     		ldr	r2, [r0, #8]
 562 0020 8169     		ldr	r1, [r0, #24]
 563 0022 FFF7FEFF 		bl	prvInitialiseNewStreamBuffer
 564              	.LVL72:
 403:..\FreeRTOS/stream_buffer.c **** 
 565              		.loc 1 403 0
 566 0026 0120     		movs	r0, #1
 567 0028 03E0     		b	.L37
 568              	.LVL73:
 569              	.L39:
 570              		.cfi_def_cfa_offset 0
 571              		.cfi_restore 14
 368:..\FreeRTOS/stream_buffer.c **** 
 572              		.loc 1 368 0
 573 002a 0020     		movs	r0, #0
 574              	.LVL74:
 575 002c 7047     		bx	lr
 576              	.LVL75:
 577              	.L40:
 578 002e 0020     		movs	r0, #0
 579              	.LVL76:
 580 0030 7047     		bx	lr
 581              	.LVL77:
 582              	.L37:
 583              		.cfi_def_cfa_offset 16
 584              		.cfi_offset 14, -4
 416:..\FreeRTOS/stream_buffer.c **** /*-----------------------------------------------------------*/
 585              		.loc 1 416 0
 586 0032 03B0     		add	sp, sp, #12
 587              		.cfi_def_cfa_offset 4
 588              		@ sp needed
ARM GAS  C:\Users\Tri94\AppData\Local\Temp\ccHaJcja.s 			page 33


 589 0034 5DF804FB 		ldr	pc, [sp], #4
 590              		.cfi_endproc
 591              	.LFE71:
 592              		.size	xStreamBufferReset, .-xStreamBufferReset
 593              		.section	.text.xStreamBufferSetTriggerLevel,"ax",%progbits
 594              		.align	2
 595              		.global	xStreamBufferSetTriggerLevel
 596              		.thumb
 597              		.thumb_func
 598              		.type	xStreamBufferSetTriggerLevel, %function
 599              	xStreamBufferSetTriggerLevel:
 600              	.LFB72:
 420:..\FreeRTOS/stream_buffer.c **** StreamBuffer_t * const pxStreamBuffer = ( StreamBuffer_t * ) xStreamBuffer; /*lint !e9087 !e9079 Sa
 601              		.loc 1 420 0
 602              		.cfi_startproc
 603              		@ args = 0, pretend = 0, frame = 0
 604              		@ frame_needed = 0, uses_anonymous_args = 0
 605              		@ link register save eliminated.
 606              	.LVL78:
 427:..\FreeRTOS/stream_buffer.c **** 	{
 607              		.loc 1 427 0
 608 0000 0B46     		mov	r3, r1
 609 0002 01B9     		cbnz	r1, .L45
 429:..\FreeRTOS/stream_buffer.c **** 	}
 610              		.loc 1 429 0
 611 0004 0123     		movs	r3, #1
 612              	.L45:
 613              	.LVL79:
 434:..\FreeRTOS/stream_buffer.c **** 	{
 614              		.loc 1 434 0
 615 0006 8268     		ldr	r2, [r0, #8]
 616 0008 9342     		cmp	r3, r2
 617 000a 02D8     		bhi	.L48
 436:..\FreeRTOS/stream_buffer.c **** 		xReturn = pdPASS;
 618              		.loc 1 436 0
 619 000c C360     		str	r3, [r0, #12]
 620              	.LVL80:
 437:..\FreeRTOS/stream_buffer.c **** 	}
 621              		.loc 1 437 0
 622 000e 0120     		movs	r0, #1
 623              	.LVL81:
 624 0010 7047     		bx	lr
 625              	.LVL82:
 626              	.L48:
 441:..\FreeRTOS/stream_buffer.c **** 	}
 627              		.loc 1 441 0
 628 0012 0020     		movs	r0, #0
 629              	.LVL83:
 445:..\FreeRTOS/stream_buffer.c **** /*-----------------------------------------------------------*/
 630              		.loc 1 445 0
 631 0014 7047     		bx	lr
 632              		.cfi_endproc
 633              	.LFE72:
 634              		.size	xStreamBufferSetTriggerLevel, .-xStreamBufferSetTriggerLevel
 635 0016 00BF     		.section	.text.xStreamBufferSpacesAvailable,"ax",%progbits
 636              		.align	2
 637              		.global	xStreamBufferSpacesAvailable
ARM GAS  C:\Users\Tri94\AppData\Local\Temp\ccHaJcja.s 			page 34


 638              		.thumb
 639              		.thumb_func
 640              		.type	xStreamBufferSpacesAvailable, %function
 641              	xStreamBufferSpacesAvailable:
 642              	.LFB73:
 449:..\FreeRTOS/stream_buffer.c **** const StreamBuffer_t * const pxStreamBuffer = ( StreamBuffer_t * ) xStreamBuffer; /*lint !e9087 !e9
 643              		.loc 1 449 0
 644              		.cfi_startproc
 645              		@ args = 0, pretend = 0, frame = 0
 646              		@ frame_needed = 0, uses_anonymous_args = 0
 647              		@ link register save eliminated.
 648              	.LVL84:
 455:..\FreeRTOS/stream_buffer.c **** 	xSpace -= pxStreamBuffer->xHead;
 649              		.loc 1 455 0
 650 0000 8268     		ldr	r2, [r0, #8]
 651 0002 0368     		ldr	r3, [r0]
 652 0004 1344     		add	r3, r3, r2
 653              	.LVL85:
 456:..\FreeRTOS/stream_buffer.c **** 	xSpace -= ( size_t ) 1;
 654              		.loc 1 456 0
 655 0006 4068     		ldr	r0, [r0, #4]
 656              	.LVL86:
 657 0008 181A     		subs	r0, r3, r0
 658              	.LVL87:
 457:..\FreeRTOS/stream_buffer.c **** 
 659              		.loc 1 457 0
 660 000a 0138     		subs	r0, r0, #1
 661              	.LVL88:
 459:..\FreeRTOS/stream_buffer.c **** 	{
 662              		.loc 1 459 0
 663 000c 8242     		cmp	r2, r0
 664 000e 00D8     		bhi	.L50
 461:..\FreeRTOS/stream_buffer.c **** 	}
 665              		.loc 1 461 0
 666 0010 801A     		subs	r0, r0, r2
 667              	.LVL89:
 668              	.L50:
 469:..\FreeRTOS/stream_buffer.c **** /*-----------------------------------------------------------*/
 669              		.loc 1 469 0
 670 0012 7047     		bx	lr
 671              		.cfi_endproc
 672              	.LFE73:
 673              		.size	xStreamBufferSpacesAvailable, .-xStreamBufferSpacesAvailable
 674              		.section	.text.xStreamBufferBytesAvailable,"ax",%progbits
 675              		.align	2
 676              		.global	xStreamBufferBytesAvailable
 677              		.thumb
 678              		.thumb_func
 679              		.type	xStreamBufferBytesAvailable, %function
 680              	xStreamBufferBytesAvailable:
 681              	.LFB74:
 473:..\FreeRTOS/stream_buffer.c **** const StreamBuffer_t * const pxStreamBuffer = ( StreamBuffer_t * ) xStreamBuffer; /*lint !e9087 !e9
 682              		.loc 1 473 0
 683              		.cfi_startproc
 684              		@ args = 0, pretend = 0, frame = 0
 685              		@ frame_needed = 0, uses_anonymous_args = 0
 686              	.LVL90:
ARM GAS  C:\Users\Tri94\AppData\Local\Temp\ccHaJcja.s 			page 35


 687 0000 08B5     		push	{r3, lr}
 688              		.cfi_def_cfa_offset 8
 689              		.cfi_offset 3, -8
 690              		.cfi_offset 14, -4
 691              	.LVL91:
 479:..\FreeRTOS/stream_buffer.c **** 	return xReturn;
 692              		.loc 1 479 0
 693 0002 FFF7FEFF 		bl	prvBytesInBuffer
 694              	.LVL92:
 481:..\FreeRTOS/stream_buffer.c **** /*-----------------------------------------------------------*/
 695              		.loc 1 481 0
 696 0006 08BD     		pop	{r3, pc}
 697              		.cfi_endproc
 698              	.LFE74:
 699              		.size	xStreamBufferBytesAvailable, .-xStreamBufferBytesAvailable
 700              		.section	.text.xStreamBufferSend,"ax",%progbits
 701              		.align	2
 702              		.global	xStreamBufferSend
 703              		.thumb
 704              		.thumb_func
 705              		.type	xStreamBufferSend, %function
 706              	xStreamBufferSend:
 707              	.LFB75:
 488:..\FreeRTOS/stream_buffer.c **** StreamBuffer_t * const pxStreamBuffer = ( StreamBuffer_t * ) xStreamBuffer; /*lint !e9087 !e9079 Sa
 708              		.loc 1 488 0
 709              		.cfi_startproc
 710              		@ args = 0, pretend = 0, frame = 16
 711              		@ frame_needed = 0, uses_anonymous_args = 0
 712              	.LVL93:
 713 0000 2DE9F043 		push	{r4, r5, r6, r7, r8, r9, lr}
 714              		.cfi_def_cfa_offset 28
 715              		.cfi_offset 4, -28
 716              		.cfi_offset 5, -24
 717              		.cfi_offset 6, -20
 718              		.cfi_offset 7, -16
 719              		.cfi_offset 8, -12
 720              		.cfi_offset 9, -8
 721              		.cfi_offset 14, -4
 722 0004 87B0     		sub	sp, sp, #28
 723              		.cfi_def_cfa_offset 56
 724 0006 0446     		mov	r4, r0
 725 0008 8946     		mov	r9, r1
 726 000a 9046     		mov	r8, r2
 727 000c 0393     		str	r3, [sp, #12]
 728              	.LVL94:
 501:..\FreeRTOS/stream_buffer.c **** 	{
 729              		.loc 1 501 0
 730 000e 037F     		ldrb	r3, [r0, #28]	@ zero_extendqisi2
 731              	.LVL95:
 732 0010 13F0010F 		tst	r3, #1
 733 0014 01D0     		beq	.L61
 503:..\FreeRTOS/stream_buffer.c **** 	}
 734              		.loc 1 503 0
 735 0016 171D     		adds	r7, r2, #4
 736              	.LVL96:
 737 0018 00E0     		b	.L54
 738              	.LVL97:
ARM GAS  C:\Users\Tri94\AppData\Local\Temp\ccHaJcja.s 			page 36


 739              	.L61:
 491:..\FreeRTOS/stream_buffer.c **** TimeOut_t xTimeOut;
 740              		.loc 1 491 0
 741 001a 1746     		mov	r7, r2
 742              	.LVL98:
 743              	.L54:
 510:..\FreeRTOS/stream_buffer.c **** 	{
 744              		.loc 1 510 0
 745 001c 039B     		ldr	r3, [sp, #12]
 746 001e 3BB3     		cbz	r3, .L62
 512:..\FreeRTOS/stream_buffer.c **** 
 747              		.loc 1 512 0
 748 0020 04A8     		add	r0, sp, #16
 749              	.LVL99:
 750 0022 FFF7FEFF 		bl	vTaskSetTimeOutState
 751              	.LVL100:
 752              	.L57:
 518:..\FreeRTOS/stream_buffer.c **** 			{
 753              		.loc 1 518 0
 754 0026 FFF7FEFF 		bl	vPortEnterCritical
 755              	.LVL101:
 520:..\FreeRTOS/stream_buffer.c **** 
 756              		.loc 1 520 0
 757 002a 2046     		mov	r0, r4
 758 002c FFF7FEFF 		bl	xStreamBufferSpacesAvailable
 759              	.LVL102:
 760 0030 0646     		mov	r6, r0
 761              	.LVL103:
 522:..\FreeRTOS/stream_buffer.c **** 				{
 762              		.loc 1 522 0
 763 0032 8742     		cmp	r7, r0
 764 0034 19D9     		bls	.L56
 525:..\FreeRTOS/stream_buffer.c **** 
 765              		.loc 1 525 0
 766 0036 0020     		movs	r0, #0
 767              	.LVL104:
 768 0038 FFF7FEFF 		bl	xTaskNotifyStateClear
 769              	.LVL105:
 529:..\FreeRTOS/stream_buffer.c **** 				}
 770              		.loc 1 529 0
 771 003c FFF7FEFF 		bl	xTaskGetCurrentTaskHandle
 772              	.LVL106:
 773 0040 6061     		str	r0, [r4, #20]
 537:..\FreeRTOS/stream_buffer.c **** 
 774              		.loc 1 537 0
 775 0042 FFF7FEFF 		bl	vPortExitCritical
 776              	.LVL107:
 540:..\FreeRTOS/stream_buffer.c **** 			pxStreamBuffer->xTaskWaitingToSend = NULL;
 777              		.loc 1 540 0
 778 0046 06AD     		add	r5, sp, #24
 779 0048 55F80C3D 		ldr	r3, [r5, #-12]!
 780 004c 0022     		movs	r2, #0
 781 004e 4FF0FF31 		mov	r1, #-1
 782 0052 1046     		mov	r0, r2
 783 0054 FFF7FEFF 		bl	xTaskNotifyWait
 784              	.LVL108:
 541:..\FreeRTOS/stream_buffer.c **** 
ARM GAS  C:\Users\Tri94\AppData\Local\Temp\ccHaJcja.s 			page 37


 785              		.loc 1 541 0
 786 0058 0023     		movs	r3, #0
 787 005a 6361     		str	r3, [r4, #20]
 543:..\FreeRTOS/stream_buffer.c **** 	}
 788              		.loc 1 543 0
 789 005c 2946     		mov	r1, r5
 790 005e 04A8     		add	r0, sp, #16
 791 0060 FFF7FEFF 		bl	xTaskCheckForTimeOut
 792              	.LVL109:
 793 0064 0028     		cmp	r0, #0
 794 0066 DED0     		beq	.L57
 795 0068 03E0     		b	.L55
 796              	.LVL110:
 797              	.L56:
 533:..\FreeRTOS/stream_buffer.c **** 					break;
 798              		.loc 1 533 0
 799 006a FFF7FEFF 		bl	vPortExitCritical
 800              	.LVL111:
 534:..\FreeRTOS/stream_buffer.c **** 				}
 801              		.loc 1 534 0
 802 006e 00E0     		b	.L55
 803              	.LVL112:
 804              	.L62:
 490:..\FreeRTOS/stream_buffer.c **** size_t xRequiredSpace = xDataLengthBytes;
 805              		.loc 1 490 0
 806 0070 0026     		movs	r6, #0
 807              	.LVL113:
 808              	.L55:
 550:..\FreeRTOS/stream_buffer.c **** 	{
 809              		.loc 1 550 0
 810 0072 1EB9     		cbnz	r6, .L58
 552:..\FreeRTOS/stream_buffer.c **** 	}
 811              		.loc 1 552 0
 812 0074 2046     		mov	r0, r4
 813 0076 FFF7FEFF 		bl	xStreamBufferSpacesAvailable
 814              	.LVL114:
 815 007a 0646     		mov	r6, r0
 816              	.LVL115:
 817              	.L58:
 559:..\FreeRTOS/stream_buffer.c **** 
 818              		.loc 1 559 0
 819 007c 0097     		str	r7, [sp]
 820 007e 3346     		mov	r3, r6
 821 0080 4246     		mov	r2, r8
 822 0082 4946     		mov	r1, r9
 823 0084 2046     		mov	r0, r4
 824 0086 FFF7FEFF 		bl	prvWriteMessageToBuffer
 825              	.LVL116:
 561:..\FreeRTOS/stream_buffer.c **** 	{
 826              		.loc 1 561 0
 827 008a 0546     		mov	r5, r0
 828 008c 98B1     		cbz	r0, .L59
 566:..\FreeRTOS/stream_buffer.c **** 		{
 829              		.loc 1 566 0
 830 008e 2046     		mov	r0, r4
 831              	.LVL117:
 832 0090 FFF7FEFF 		bl	prvBytesInBuffer
ARM GAS  C:\Users\Tri94\AppData\Local\Temp\ccHaJcja.s 			page 38


 833              	.LVL118:
 834 0094 E368     		ldr	r3, [r4, #12]
 835 0096 9842     		cmp	r0, r3
 836 0098 0DD3     		bcc	.L59
 568:..\FreeRTOS/stream_buffer.c **** 		}
 837              		.loc 1 568 0
 838 009a FFF7FEFF 		bl	vTaskSuspendAll
 839              	.LVL119:
 840 009e 2369     		ldr	r3, [r4, #16]
 841 00a0 3BB1     		cbz	r3, .L60
 568:..\FreeRTOS/stream_buffer.c **** 		}
 842              		.loc 1 568 0 is_stmt 0 discriminator 1
 843 00a2 2069     		ldr	r0, [r4, #16]
 844 00a4 0023     		movs	r3, #0
 845 00a6 1A46     		mov	r2, r3
 846 00a8 1946     		mov	r1, r3
 847 00aa FFF7FEFF 		bl	xTaskGenericNotify
 848              	.LVL120:
 849 00ae 0023     		movs	r3, #0
 850 00b0 2361     		str	r3, [r4, #16]
 851              	.L60:
 568:..\FreeRTOS/stream_buffer.c **** 		}
 852              		.loc 1 568 0 discriminator 3
 853 00b2 FFF7FEFF 		bl	xTaskResumeAll
 854              	.LVL121:
 855              	.L59:
 582:..\FreeRTOS/stream_buffer.c **** /*-----------------------------------------------------------*/
 856              		.loc 1 582 0 is_stmt 1
 857 00b6 2846     		mov	r0, r5
 858 00b8 07B0     		add	sp, sp, #28
 859              		.cfi_def_cfa_offset 28
 860              		@ sp needed
 861 00ba BDE8F083 		pop	{r4, r5, r6, r7, r8, r9, pc}
 862              		.cfi_endproc
 863              	.LFE75:
 864              		.size	xStreamBufferSend, .-xStreamBufferSend
 865 00be 00BF     		.section	.text.xStreamBufferSendFromISR,"ax",%progbits
 866              		.align	2
 867              		.global	xStreamBufferSendFromISR
 868              		.thumb
 869              		.thumb_func
 870              		.type	xStreamBufferSendFromISR, %function
 871              	xStreamBufferSendFromISR:
 872              	.LFB76:
 589:..\FreeRTOS/stream_buffer.c **** StreamBuffer_t * const pxStreamBuffer = ( StreamBuffer_t * ) xStreamBuffer; /*lint !e9087 !e9079 Sa
 873              		.loc 1 589 0
 874              		.cfi_startproc
 875              		@ args = 0, pretend = 0, frame = 0
 876              		@ frame_needed = 0, uses_anonymous_args = 0
 877              	.LVL122:
 878 0000 2DE9F041 		push	{r4, r5, r6, r7, r8, lr}
 879              		.cfi_def_cfa_offset 24
 880              		.cfi_offset 4, -24
 881              		.cfi_offset 5, -20
 882              		.cfi_offset 6, -16
 883              		.cfi_offset 7, -12
 884              		.cfi_offset 8, -8
ARM GAS  C:\Users\Tri94\AppData\Local\Temp\ccHaJcja.s 			page 39


 885              		.cfi_offset 14, -4
 886 0004 82B0     		sub	sp, sp, #8
 887              		.cfi_def_cfa_offset 32
 888 0006 0446     		mov	r4, r0
 889 0008 0E46     		mov	r6, r1
 890 000a 1546     		mov	r5, r2
 891 000c 9846     		mov	r8, r3
 892              	.LVL123:
 601:..\FreeRTOS/stream_buffer.c **** 	{
 893              		.loc 1 601 0
 894 000e 037F     		ldrb	r3, [r0, #28]	@ zero_extendqisi2
 895              	.LVL124:
 896 0010 13F0010F 		tst	r3, #1
 897 0014 01D0     		beq	.L68
 603:..\FreeRTOS/stream_buffer.c **** 	}
 898              		.loc 1 603 0
 899 0016 171D     		adds	r7, r2, #4
 900              	.LVL125:
 901 0018 00E0     		b	.L65
 902              	.LVL126:
 903              	.L68:
 592:..\FreeRTOS/stream_buffer.c **** 
 904              		.loc 1 592 0
 905 001a 1746     		mov	r7, r2
 906              	.LVL127:
 907              	.L65:
 610:..\FreeRTOS/stream_buffer.c **** 	xReturn = prvWriteMessageToBuffer( pxStreamBuffer, pvTxData, xDataLengthBytes, xSpace, xRequiredSp
 908              		.loc 1 610 0
 909 001c 2046     		mov	r0, r4
 910              	.LVL128:
 911 001e FFF7FEFF 		bl	xStreamBufferSpacesAvailable
 912              	.LVL129:
 611:..\FreeRTOS/stream_buffer.c **** 
 913              		.loc 1 611 0
 914 0022 0097     		str	r7, [sp]
 915 0024 0346     		mov	r3, r0
 916 0026 2A46     		mov	r2, r5
 917 0028 3146     		mov	r1, r6
 918 002a 2046     		mov	r0, r4
 919              	.LVL130:
 920 002c FFF7FEFF 		bl	prvWriteMessageToBuffer
 921              	.LVL131:
 613:..\FreeRTOS/stream_buffer.c **** 	{
 922              		.loc 1 613 0
 923 0030 0546     		mov	r5, r0
 924              	.LVL132:
 925 0032 E8B1     		cbz	r0, .L66
 616:..\FreeRTOS/stream_buffer.c **** 		{
 926              		.loc 1 616 0
 927 0034 2046     		mov	r0, r4
 928              	.LVL133:
 929 0036 FFF7FEFF 		bl	prvBytesInBuffer
 930              	.LVL134:
 931 003a E368     		ldr	r3, [r4, #12]
 932 003c 9842     		cmp	r0, r3
 933 003e 17D3     		bcc	.L66
 934              	.LBB20:
ARM GAS  C:\Users\Tri94\AppData\Local\Temp\ccHaJcja.s 			page 40


 935              	.LBB21:
 936              	.LBB22:
 937              		.file 2 "..\\FreeRTOS\\portable\\GCC\\ARM_CM3/portmacro.h"
   1:..\FreeRTOS\portable\GCC\ARM_CM3/portmacro.h **** /*
   2:..\FreeRTOS\portable\GCC\ARM_CM3/portmacro.h ****  * FreeRTOS Kernel V10.0.0
   3:..\FreeRTOS\portable\GCC\ARM_CM3/portmacro.h ****  * Copyright (C) 2017 Amazon.com, Inc. or its affiliates.  All Rights Reserved.
   4:..\FreeRTOS\portable\GCC\ARM_CM3/portmacro.h ****  *
   5:..\FreeRTOS\portable\GCC\ARM_CM3/portmacro.h ****  * Permission is hereby granted, free of charge, to any person obtaining a copy of
   6:..\FreeRTOS\portable\GCC\ARM_CM3/portmacro.h ****  * this software and associated documentation files (the "Software"), to deal in
   7:..\FreeRTOS\portable\GCC\ARM_CM3/portmacro.h ****  * the Software without restriction, including without limitation the rights to
   8:..\FreeRTOS\portable\GCC\ARM_CM3/portmacro.h ****  * use, copy, modify, merge, publish, distribute, sublicense, and/or sell copies of
   9:..\FreeRTOS\portable\GCC\ARM_CM3/portmacro.h ****  * the Software, and to permit persons to whom the Software is furnished to do so,
  10:..\FreeRTOS\portable\GCC\ARM_CM3/portmacro.h ****  * subject to the following conditions:
  11:..\FreeRTOS\portable\GCC\ARM_CM3/portmacro.h ****  *
  12:..\FreeRTOS\portable\GCC\ARM_CM3/portmacro.h ****  * The above copyright notice and this permission notice shall be included in all
  13:..\FreeRTOS\portable\GCC\ARM_CM3/portmacro.h ****  * copies or substantial portions of the Software. If you wish to use our Amazon
  14:..\FreeRTOS\portable\GCC\ARM_CM3/portmacro.h ****  * FreeRTOS name, please do so in a fair use way that does not cause confusion.
  15:..\FreeRTOS\portable\GCC\ARM_CM3/portmacro.h ****  *
  16:..\FreeRTOS\portable\GCC\ARM_CM3/portmacro.h ****  * THE SOFTWARE IS PROVIDED "AS IS", WITHOUT WARRANTY OF ANY KIND, EXPRESS OR
  17:..\FreeRTOS\portable\GCC\ARM_CM3/portmacro.h ****  * IMPLIED, INCLUDING BUT NOT LIMITED TO THE WARRANTIES OF MERCHANTABILITY, FITNESS
  18:..\FreeRTOS\portable\GCC\ARM_CM3/portmacro.h ****  * FOR A PARTICULAR PURPOSE AND NONINFRINGEMENT. IN NO EVENT SHALL THE AUTHORS OR
  19:..\FreeRTOS\portable\GCC\ARM_CM3/portmacro.h ****  * COPYRIGHT HOLDERS BE LIABLE FOR ANY CLAIM, DAMAGES OR OTHER LIABILITY, WHETHER
  20:..\FreeRTOS\portable\GCC\ARM_CM3/portmacro.h ****  * IN AN ACTION OF CONTRACT, TORT OR OTHERWISE, ARISING FROM, OUT OF OR IN
  21:..\FreeRTOS\portable\GCC\ARM_CM3/portmacro.h ****  * CONNECTION WITH THE SOFTWARE OR THE USE OR OTHER DEALINGS IN THE SOFTWARE.
  22:..\FreeRTOS\portable\GCC\ARM_CM3/portmacro.h ****  *
  23:..\FreeRTOS\portable\GCC\ARM_CM3/portmacro.h ****  * http://www.FreeRTOS.org
  24:..\FreeRTOS\portable\GCC\ARM_CM3/portmacro.h ****  * http://aws.amazon.com/freertos
  25:..\FreeRTOS\portable\GCC\ARM_CM3/portmacro.h ****  *
  26:..\FreeRTOS\portable\GCC\ARM_CM3/portmacro.h ****  * 1 tab == 4 spaces!
  27:..\FreeRTOS\portable\GCC\ARM_CM3/portmacro.h ****  */
  28:..\FreeRTOS\portable\GCC\ARM_CM3/portmacro.h **** #include <stdio.h>
  29:..\FreeRTOS\portable\GCC\ARM_CM3/portmacro.h **** #include <stdlib.h>
  30:..\FreeRTOS\portable\GCC\ARM_CM3/portmacro.h **** #include <stdint.h>
  31:..\FreeRTOS\portable\GCC\ARM_CM3/portmacro.h **** #include <stdbool.h>
  32:..\FreeRTOS\portable\GCC\ARM_CM3/portmacro.h **** #include "projdefs.h"
  33:..\FreeRTOS\portable\GCC\ARM_CM3/portmacro.h **** 
  34:..\FreeRTOS\portable\GCC\ARM_CM3/portmacro.h **** 
  35:..\FreeRTOS\portable\GCC\ARM_CM3/portmacro.h **** #ifndef PORTMACRO_H
  36:..\FreeRTOS\portable\GCC\ARM_CM3/portmacro.h **** #define PORTMACRO_H
  37:..\FreeRTOS\portable\GCC\ARM_CM3/portmacro.h **** 
  38:..\FreeRTOS\portable\GCC\ARM_CM3/portmacro.h **** #ifdef __cplusplus
  39:..\FreeRTOS\portable\GCC\ARM_CM3/portmacro.h **** extern "C" {
  40:..\FreeRTOS\portable\GCC\ARM_CM3/portmacro.h **** #endif
  41:..\FreeRTOS\portable\GCC\ARM_CM3/portmacro.h **** 
  42:..\FreeRTOS\portable\GCC\ARM_CM3/portmacro.h **** /*-----------------------------------------------------------
  43:..\FreeRTOS\portable\GCC\ARM_CM3/portmacro.h ****  * Port specific definitions.
  44:..\FreeRTOS\portable\GCC\ARM_CM3/portmacro.h ****  *
  45:..\FreeRTOS\portable\GCC\ARM_CM3/portmacro.h ****  * The settings in this file configure FreeRTOS correctly for the
  46:..\FreeRTOS\portable\GCC\ARM_CM3/portmacro.h ****  * given hardware and compiler.
  47:..\FreeRTOS\portable\GCC\ARM_CM3/portmacro.h ****  *
  48:..\FreeRTOS\portable\GCC\ARM_CM3/portmacro.h ****  * These settings should not be altered.
  49:..\FreeRTOS\portable\GCC\ARM_CM3/portmacro.h ****  *-----------------------------------------------------------
  50:..\FreeRTOS\portable\GCC\ARM_CM3/portmacro.h ****  */
  51:..\FreeRTOS\portable\GCC\ARM_CM3/portmacro.h **** 
  52:..\FreeRTOS\portable\GCC\ARM_CM3/portmacro.h **** 
  53:..\FreeRTOS\portable\GCC\ARM_CM3/portmacro.h **** // Added by Airs
  54:..\FreeRTOS\portable\GCC\ARM_CM3/portmacro.h **** #define portALIGNMENT_ASSERT_pxCurrentTCB ( void )
ARM GAS  C:\Users\Tri94\AppData\Local\Temp\ccHaJcja.s 			page 41


  55:..\FreeRTOS\portable\GCC\ARM_CM3/portmacro.h **** 
  56:..\FreeRTOS\portable\GCC\ARM_CM3/portmacro.h **** 
  57:..\FreeRTOS\portable\GCC\ARM_CM3/portmacro.h **** /* Type definitions. */
  58:..\FreeRTOS\portable\GCC\ARM_CM3/portmacro.h **** #define portCHAR		char
  59:..\FreeRTOS\portable\GCC\ARM_CM3/portmacro.h **** #define portFLOAT		float
  60:..\FreeRTOS\portable\GCC\ARM_CM3/portmacro.h **** #define portDOUBLE		double
  61:..\FreeRTOS\portable\GCC\ARM_CM3/portmacro.h **** #define portLONG		long
  62:..\FreeRTOS\portable\GCC\ARM_CM3/portmacro.h **** #define portSHORT		short
  63:..\FreeRTOS\portable\GCC\ARM_CM3/portmacro.h **** #define portSTACK_TYPE	uint32_t
  64:..\FreeRTOS\portable\GCC\ARM_CM3/portmacro.h **** #define portBASE_TYPE	long
  65:..\FreeRTOS\portable\GCC\ARM_CM3/portmacro.h **** 
  66:..\FreeRTOS\portable\GCC\ARM_CM3/portmacro.h **** typedef portSTACK_TYPE StackType_t;
  67:..\FreeRTOS\portable\GCC\ARM_CM3/portmacro.h **** typedef long BaseType_t;
  68:..\FreeRTOS\portable\GCC\ARM_CM3/portmacro.h **** typedef unsigned long UBaseType_t;
  69:..\FreeRTOS\portable\GCC\ARM_CM3/portmacro.h **** 
  70:..\FreeRTOS\portable\GCC\ARM_CM3/portmacro.h **** #if( configUSE_16_BIT_TICKS == 1 )
  71:..\FreeRTOS\portable\GCC\ARM_CM3/portmacro.h **** 	typedef uint16_t TickType_t;
  72:..\FreeRTOS\portable\GCC\ARM_CM3/portmacro.h **** 	#define portMAX_DELAY ( TickType_t ) 0xffff
  73:..\FreeRTOS\portable\GCC\ARM_CM3/portmacro.h **** #else
  74:..\FreeRTOS\portable\GCC\ARM_CM3/portmacro.h **** 	typedef uint32_t TickType_t;
  75:..\FreeRTOS\portable\GCC\ARM_CM3/portmacro.h **** 	#define portMAX_DELAY ( TickType_t ) 0xffffffffUL
  76:..\FreeRTOS\portable\GCC\ARM_CM3/portmacro.h **** 
  77:..\FreeRTOS\portable\GCC\ARM_CM3/portmacro.h **** 	/* 32-bit tick type on a 32-bit architecture, so reads of the tick count do
  78:..\FreeRTOS\portable\GCC\ARM_CM3/portmacro.h **** 	not need to be guarded with a critical section. */
  79:..\FreeRTOS\portable\GCC\ARM_CM3/portmacro.h **** 	#define portTICK_TYPE_IS_ATOMIC 1
  80:..\FreeRTOS\portable\GCC\ARM_CM3/portmacro.h **** #endif
  81:..\FreeRTOS\portable\GCC\ARM_CM3/portmacro.h **** /*-----------------------------------------------------------*/
  82:..\FreeRTOS\portable\GCC\ARM_CM3/portmacro.h **** 
  83:..\FreeRTOS\portable\GCC\ARM_CM3/portmacro.h **** /* Architecture specifics. */
  84:..\FreeRTOS\portable\GCC\ARM_CM3/portmacro.h **** #define portSTACK_GROWTH			( -1 )
  85:..\FreeRTOS\portable\GCC\ARM_CM3/portmacro.h **** #define portTICK_PERIOD_MS			( ( TickType_t ) 1000 / configTICK_RATE_HZ )
  86:..\FreeRTOS\portable\GCC\ARM_CM3/portmacro.h **** #define portBYTE_ALIGNMENT			8
  87:..\FreeRTOS\portable\GCC\ARM_CM3/portmacro.h **** /*-----------------------------------------------------------*/
  88:..\FreeRTOS\portable\GCC\ARM_CM3/portmacro.h **** 
  89:..\FreeRTOS\portable\GCC\ARM_CM3/portmacro.h **** /* Scheduler utilities. */
  90:..\FreeRTOS\portable\GCC\ARM_CM3/portmacro.h **** #define portYIELD() 															\
  91:..\FreeRTOS\portable\GCC\ARM_CM3/portmacro.h **** {																				\
  92:..\FreeRTOS\portable\GCC\ARM_CM3/portmacro.h **** 	/* Set a PendSV to request a context switch. */								\
  93:..\FreeRTOS\portable\GCC\ARM_CM3/portmacro.h **** 	portNVIC_INT_CTRL_REG = portNVIC_PENDSVSET_BIT;								\
  94:..\FreeRTOS\portable\GCC\ARM_CM3/portmacro.h **** 																				\
  95:..\FreeRTOS\portable\GCC\ARM_CM3/portmacro.h **** 	/* Barriers are normally not required but do ensure the code is completely	\
  96:..\FreeRTOS\portable\GCC\ARM_CM3/portmacro.h **** 	within the specified behaviour for the architecture. */						\
  97:..\FreeRTOS\portable\GCC\ARM_CM3/portmacro.h **** 	__asm volatile( "dsb" ::: "memory" );										\
  98:..\FreeRTOS\portable\GCC\ARM_CM3/portmacro.h **** 	__asm volatile( "isb" );													\
  99:..\FreeRTOS\portable\GCC\ARM_CM3/portmacro.h **** }
 100:..\FreeRTOS\portable\GCC\ARM_CM3/portmacro.h **** 
 101:..\FreeRTOS\portable\GCC\ARM_CM3/portmacro.h **** #define portNVIC_INT_CTRL_REG		( * ( ( volatile uint32_t * ) 0xe000ed04 ) )
 102:..\FreeRTOS\portable\GCC\ARM_CM3/portmacro.h **** #define portNVIC_PENDSVSET_BIT		( 1UL << 28UL )
 103:..\FreeRTOS\portable\GCC\ARM_CM3/portmacro.h **** #define portEND_SWITCHING_ISR( xSwitchRequired ) if( xSwitchRequired != pdFALSE ) portYIELD()
 104:..\FreeRTOS\portable\GCC\ARM_CM3/portmacro.h **** #define portYIELD_FROM_ISR( x ) portEND_SWITCHING_ISR( x )
 105:..\FreeRTOS\portable\GCC\ARM_CM3/portmacro.h **** /*-----------------------------------------------------------*/
 106:..\FreeRTOS\portable\GCC\ARM_CM3/portmacro.h **** 
 107:..\FreeRTOS\portable\GCC\ARM_CM3/portmacro.h **** /* Critical section management. */
 108:..\FreeRTOS\portable\GCC\ARM_CM3/portmacro.h **** extern void vPortEnterCritical( void );
 109:..\FreeRTOS\portable\GCC\ARM_CM3/portmacro.h **** extern void vPortExitCritical( void );
 110:..\FreeRTOS\portable\GCC\ARM_CM3/portmacro.h **** #define portSET_INTERRUPT_MASK_FROM_ISR()		ulPortRaiseBASEPRI()
 111:..\FreeRTOS\portable\GCC\ARM_CM3/portmacro.h **** #define portCLEAR_INTERRUPT_MASK_FROM_ISR(x)	vPortSetBASEPRI(x)
ARM GAS  C:\Users\Tri94\AppData\Local\Temp\ccHaJcja.s 			page 42


 112:..\FreeRTOS\portable\GCC\ARM_CM3/portmacro.h **** #define portDISABLE_INTERRUPTS()				vPortRaiseBASEPRI()
 113:..\FreeRTOS\portable\GCC\ARM_CM3/portmacro.h **** #define portENABLE_INTERRUPTS()					vPortSetBASEPRI(0)
 114:..\FreeRTOS\portable\GCC\ARM_CM3/portmacro.h **** #define portENTER_CRITICAL()					vPortEnterCritical()
 115:..\FreeRTOS\portable\GCC\ARM_CM3/portmacro.h **** #define portEXIT_CRITICAL()						vPortExitCritical()
 116:..\FreeRTOS\portable\GCC\ARM_CM3/portmacro.h **** 
 117:..\FreeRTOS\portable\GCC\ARM_CM3/portmacro.h **** /*-----------------------------------------------------------*/
 118:..\FreeRTOS\portable\GCC\ARM_CM3/portmacro.h **** 
 119:..\FreeRTOS\portable\GCC\ARM_CM3/portmacro.h **** /* Task function macros as described on the FreeRTOS.org WEB site.  These are
 120:..\FreeRTOS\portable\GCC\ARM_CM3/portmacro.h **** not necessary for to use this port.  They are defined so the common demo files
 121:..\FreeRTOS\portable\GCC\ARM_CM3/portmacro.h **** (which build with all the ports) will build. */
 122:..\FreeRTOS\portable\GCC\ARM_CM3/portmacro.h **** #define portTASK_FUNCTION_PROTO( vFunction, pvParameters ) void vFunction( void *pvParameters )
 123:..\FreeRTOS\portable\GCC\ARM_CM3/portmacro.h **** #define portTASK_FUNCTION( vFunction, pvParameters ) void vFunction( void *pvParameters )
 124:..\FreeRTOS\portable\GCC\ARM_CM3/portmacro.h **** /*-----------------------------------------------------------*/
 125:..\FreeRTOS\portable\GCC\ARM_CM3/portmacro.h **** 
 126:..\FreeRTOS\portable\GCC\ARM_CM3/portmacro.h **** /* Tickless idle/low power functionality. */
 127:..\FreeRTOS\portable\GCC\ARM_CM3/portmacro.h **** #ifndef portSUPPRESS_TICKS_AND_SLEEP
 128:..\FreeRTOS\portable\GCC\ARM_CM3/portmacro.h **** 	extern void vPortSuppressTicksAndSleep( TickType_t xExpectedIdleTime );
 129:..\FreeRTOS\portable\GCC\ARM_CM3/portmacro.h **** 	#define portSUPPRESS_TICKS_AND_SLEEP( xExpectedIdleTime ) vPortSuppressTicksAndSleep( xExpectedIdl
 130:..\FreeRTOS\portable\GCC\ARM_CM3/portmacro.h **** #endif
 131:..\FreeRTOS\portable\GCC\ARM_CM3/portmacro.h **** /*-----------------------------------------------------------*/
 132:..\FreeRTOS\portable\GCC\ARM_CM3/portmacro.h **** 
 133:..\FreeRTOS\portable\GCC\ARM_CM3/portmacro.h **** /* Architecture specific optimisations. */
 134:..\FreeRTOS\portable\GCC\ARM_CM3/portmacro.h **** #ifndef configUSE_PORT_OPTIMISED_TASK_SELECTION
 135:..\FreeRTOS\portable\GCC\ARM_CM3/portmacro.h **** 	#define configUSE_PORT_OPTIMISED_TASK_SELECTION 1
 136:..\FreeRTOS\portable\GCC\ARM_CM3/portmacro.h **** #endif
 137:..\FreeRTOS\portable\GCC\ARM_CM3/portmacro.h **** 
 138:..\FreeRTOS\portable\GCC\ARM_CM3/portmacro.h **** #if configUSE_PORT_OPTIMISED_TASK_SELECTION == 1
 139:..\FreeRTOS\portable\GCC\ARM_CM3/portmacro.h **** 
 140:..\FreeRTOS\portable\GCC\ARM_CM3/portmacro.h **** 	/* Generic helper function. */
 141:..\FreeRTOS\portable\GCC\ARM_CM3/portmacro.h **** 	__attribute__( ( always_inline ) ) static inline uint8_t ucPortCountLeadingZeros( uint32_t ulBitma
 142:..\FreeRTOS\portable\GCC\ARM_CM3/portmacro.h **** 	{
 143:..\FreeRTOS\portable\GCC\ARM_CM3/portmacro.h **** 	uint8_t ucReturn;
 144:..\FreeRTOS\portable\GCC\ARM_CM3/portmacro.h **** 
 145:..\FreeRTOS\portable\GCC\ARM_CM3/portmacro.h **** 		__asm volatile ( "clz %0, %1" : "=r" ( ucReturn ) : "r" ( ulBitmap ) : "memory" );
 146:..\FreeRTOS\portable\GCC\ARM_CM3/portmacro.h **** 		return ucReturn;
 147:..\FreeRTOS\portable\GCC\ARM_CM3/portmacro.h **** 	}
 148:..\FreeRTOS\portable\GCC\ARM_CM3/portmacro.h **** 
 149:..\FreeRTOS\portable\GCC\ARM_CM3/portmacro.h **** 	/* Check the configuration. */
 150:..\FreeRTOS\portable\GCC\ARM_CM3/portmacro.h **** 	#if( configMAX_PRIORITIES > 32 )
 151:..\FreeRTOS\portable\GCC\ARM_CM3/portmacro.h **** 		#error configUSE_PORT_OPTIMISED_TASK_SELECTION can only be set to 1 when configMAX_PRIORITIES is 
 152:..\FreeRTOS\portable\GCC\ARM_CM3/portmacro.h **** 	#endif
 153:..\FreeRTOS\portable\GCC\ARM_CM3/portmacro.h **** 
 154:..\FreeRTOS\portable\GCC\ARM_CM3/portmacro.h **** 	/* Store/clear the ready priorities in a bit map. */
 155:..\FreeRTOS\portable\GCC\ARM_CM3/portmacro.h **** 	#define portRECORD_READY_PRIORITY( uxPriority, uxReadyPriorities ) ( uxReadyPriorities ) |= ( 1UL 
 156:..\FreeRTOS\portable\GCC\ARM_CM3/portmacro.h **** 	#define portRESET_READY_PRIORITY( uxPriority, uxReadyPriorities ) ( uxReadyPriorities ) &= ~( 1UL 
 157:..\FreeRTOS\portable\GCC\ARM_CM3/portmacro.h **** 
 158:..\FreeRTOS\portable\GCC\ARM_CM3/portmacro.h **** 	/*-----------------------------------------------------------*/
 159:..\FreeRTOS\portable\GCC\ARM_CM3/portmacro.h **** 
 160:..\FreeRTOS\portable\GCC\ARM_CM3/portmacro.h **** 	#define portGET_HIGHEST_PRIORITY( uxTopPriority, uxReadyPriorities ) uxTopPriority = ( 31UL - ( ui
 161:..\FreeRTOS\portable\GCC\ARM_CM3/portmacro.h **** 
 162:..\FreeRTOS\portable\GCC\ARM_CM3/portmacro.h **** #endif /* configUSE_PORT_OPTIMISED_TASK_SELECTION */
 163:..\FreeRTOS\portable\GCC\ARM_CM3/portmacro.h **** 
 164:..\FreeRTOS\portable\GCC\ARM_CM3/portmacro.h **** /*-----------------------------------------------------------*/
 165:..\FreeRTOS\portable\GCC\ARM_CM3/portmacro.h **** 
 166:..\FreeRTOS\portable\GCC\ARM_CM3/portmacro.h **** #ifdef configASSERT
 167:..\FreeRTOS\portable\GCC\ARM_CM3/portmacro.h **** 	void vPortValidateInterruptPriority( void );
 168:..\FreeRTOS\portable\GCC\ARM_CM3/portmacro.h **** 	#define portASSERT_IF_INTERRUPT_PRIORITY_INVALID() 	vPortValidateInterruptPriority()
ARM GAS  C:\Users\Tri94\AppData\Local\Temp\ccHaJcja.s 			page 43


 169:..\FreeRTOS\portable\GCC\ARM_CM3/portmacro.h **** #endif
 170:..\FreeRTOS\portable\GCC\ARM_CM3/portmacro.h **** 
 171:..\FreeRTOS\portable\GCC\ARM_CM3/portmacro.h **** /* portNOP() is not required by this port. */
 172:..\FreeRTOS\portable\GCC\ARM_CM3/portmacro.h **** #define portNOP()
 173:..\FreeRTOS\portable\GCC\ARM_CM3/portmacro.h **** 
 174:..\FreeRTOS\portable\GCC\ARM_CM3/portmacro.h **** #define portINLINE	__inline
 175:..\FreeRTOS\portable\GCC\ARM_CM3/portmacro.h **** 
 176:..\FreeRTOS\portable\GCC\ARM_CM3/portmacro.h **** #ifndef portFORCE_INLINE
 177:..\FreeRTOS\portable\GCC\ARM_CM3/portmacro.h **** 	#define portFORCE_INLINE inline __attribute__(( always_inline))
 178:..\FreeRTOS\portable\GCC\ARM_CM3/portmacro.h **** #endif
 179:..\FreeRTOS\portable\GCC\ARM_CM3/portmacro.h **** 
 180:..\FreeRTOS\portable\GCC\ARM_CM3/portmacro.h **** portFORCE_INLINE static BaseType_t xPortIsInsideInterrupt( void )
 181:..\FreeRTOS\portable\GCC\ARM_CM3/portmacro.h **** {
 182:..\FreeRTOS\portable\GCC\ARM_CM3/portmacro.h **** uint32_t ulCurrentInterrupt;
 183:..\FreeRTOS\portable\GCC\ARM_CM3/portmacro.h **** BaseType_t xReturn;
 184:..\FreeRTOS\portable\GCC\ARM_CM3/portmacro.h **** 
 185:..\FreeRTOS\portable\GCC\ARM_CM3/portmacro.h **** 	/* Obtain the number of the currently executing interrupt. */
 186:..\FreeRTOS\portable\GCC\ARM_CM3/portmacro.h **** 	__asm volatile( "mrs %0, ipsr" : "=r"( ulCurrentInterrupt ) :: "memory" );
 187:..\FreeRTOS\portable\GCC\ARM_CM3/portmacro.h **** 
 188:..\FreeRTOS\portable\GCC\ARM_CM3/portmacro.h **** 	if( ulCurrentInterrupt == 0 )
 189:..\FreeRTOS\portable\GCC\ARM_CM3/portmacro.h **** 	{
 190:..\FreeRTOS\portable\GCC\ARM_CM3/portmacro.h **** 		xReturn = pdFALSE;
 191:..\FreeRTOS\portable\GCC\ARM_CM3/portmacro.h **** 	}
 192:..\FreeRTOS\portable\GCC\ARM_CM3/portmacro.h **** 	else
 193:..\FreeRTOS\portable\GCC\ARM_CM3/portmacro.h **** 	{
 194:..\FreeRTOS\portable\GCC\ARM_CM3/portmacro.h **** 		xReturn = pdTRUE;
 195:..\FreeRTOS\portable\GCC\ARM_CM3/portmacro.h **** 	}
 196:..\FreeRTOS\portable\GCC\ARM_CM3/portmacro.h **** 
 197:..\FreeRTOS\portable\GCC\ARM_CM3/portmacro.h **** 	return xReturn;
 198:..\FreeRTOS\portable\GCC\ARM_CM3/portmacro.h **** }
 199:..\FreeRTOS\portable\GCC\ARM_CM3/portmacro.h **** 
 200:..\FreeRTOS\portable\GCC\ARM_CM3/portmacro.h **** /*-----------------------------------------------------------*/
 201:..\FreeRTOS\portable\GCC\ARM_CM3/portmacro.h **** 
 202:..\FreeRTOS\portable\GCC\ARM_CM3/portmacro.h **** portFORCE_INLINE static void vPortRaiseBASEPRI( void )
 203:..\FreeRTOS\portable\GCC\ARM_CM3/portmacro.h **** {
 204:..\FreeRTOS\portable\GCC\ARM_CM3/portmacro.h **** uint32_t ulNewBASEPRI;
 205:..\FreeRTOS\portable\GCC\ARM_CM3/portmacro.h **** 
 206:..\FreeRTOS\portable\GCC\ARM_CM3/portmacro.h **** 	__asm volatile
 207:..\FreeRTOS\portable\GCC\ARM_CM3/portmacro.h **** 	(
 208:..\FreeRTOS\portable\GCC\ARM_CM3/portmacro.h **** 		"	mov %0, %1												\n" \
 209:..\FreeRTOS\portable\GCC\ARM_CM3/portmacro.h **** 		"	msr basepri, %0											\n" \
 210:..\FreeRTOS\portable\GCC\ARM_CM3/portmacro.h **** 		"	isb														\n" \
 211:..\FreeRTOS\portable\GCC\ARM_CM3/portmacro.h **** 		"	dsb														\n" \
 212:..\FreeRTOS\portable\GCC\ARM_CM3/portmacro.h **** 		:"=r" (ulNewBASEPRI) : "i" ( configMAX_SYSCALL_INTERRUPT_PRIORITY ) : "memory"
 213:..\FreeRTOS\portable\GCC\ARM_CM3/portmacro.h **** 	);
 214:..\FreeRTOS\portable\GCC\ARM_CM3/portmacro.h **** }
 215:..\FreeRTOS\portable\GCC\ARM_CM3/portmacro.h **** 
 216:..\FreeRTOS\portable\GCC\ARM_CM3/portmacro.h **** /*-----------------------------------------------------------*/
 217:..\FreeRTOS\portable\GCC\ARM_CM3/portmacro.h **** 
 218:..\FreeRTOS\portable\GCC\ARM_CM3/portmacro.h **** portFORCE_INLINE static uint32_t ulPortRaiseBASEPRI( void )
 219:..\FreeRTOS\portable\GCC\ARM_CM3/portmacro.h **** {
 220:..\FreeRTOS\portable\GCC\ARM_CM3/portmacro.h **** uint32_t ulOriginalBASEPRI, ulNewBASEPRI;
 221:..\FreeRTOS\portable\GCC\ARM_CM3/portmacro.h **** 
 222:..\FreeRTOS\portable\GCC\ARM_CM3/portmacro.h **** 	__asm volatile
 938              		.loc 2 222 0
 939              		.syntax unified
 940              	@ 222 "..\FreeRTOS\portable\GCC\ARM_CM3/portmacro.h" 1
ARM GAS  C:\Users\Tri94\AppData\Local\Temp\ccHaJcja.s 			page 44


 941 0040 EFF31186 			mrs r6, basepri											
 942 0044 4FF0A003 		mov r3, #160												
 943 0048 83F31188 		msr basepri, r3											
 944 004c BFF36F8F 		isb														
 945 0050 BFF34F8F 		dsb														
 946              	
 947              	@ 0 "" 2
 948              	.LVL135:
 949              		.thumb
 950              		.syntax unified
 951              	.LBE22:
 952              	.LBE21:
 618:..\FreeRTOS/stream_buffer.c **** 		}
 953              		.loc 1 618 0
 954 0054 2369     		ldr	r3, [r4, #16]
 955 0056 4BB1     		cbz	r3, .L67
 618:..\FreeRTOS/stream_buffer.c **** 		}
 956              		.loc 1 618 0 is_stmt 0 discriminator 1
 957 0058 2069     		ldr	r0, [r4, #16]
 958 005a CDF80080 		str	r8, [sp]
 959 005e 0023     		movs	r3, #0
 960 0060 1A46     		mov	r2, r3
 961 0062 1946     		mov	r1, r3
 962 0064 FFF7FEFF 		bl	xTaskGenericNotifyFromISR
 963              	.LVL136:
 964 0068 0023     		movs	r3, #0
 965 006a 2361     		str	r3, [r4, #16]
 966              	.L67:
 967              	.LVL137:
 968              	.LBB23:
 969              	.LBB24:
 223:..\FreeRTOS\portable\GCC\ARM_CM3/portmacro.h **** 	(
 224:..\FreeRTOS\portable\GCC\ARM_CM3/portmacro.h **** 		"	mrs %0, basepri											\n" \
 225:..\FreeRTOS\portable\GCC\ARM_CM3/portmacro.h **** 		"	mov %1, %2												\n" \
 226:..\FreeRTOS\portable\GCC\ARM_CM3/portmacro.h **** 		"	msr basepri, %1											\n" \
 227:..\FreeRTOS\portable\GCC\ARM_CM3/portmacro.h **** 		"	isb														\n" \
 228:..\FreeRTOS\portable\GCC\ARM_CM3/portmacro.h **** 		"	dsb														\n" \
 229:..\FreeRTOS\portable\GCC\ARM_CM3/portmacro.h **** 		:"=r" (ulOriginalBASEPRI), "=r" (ulNewBASEPRI) : "i" ( configMAX_SYSCALL_INTERRUPT_PRIORITY ) : "
 230:..\FreeRTOS\portable\GCC\ARM_CM3/portmacro.h **** 	);
 231:..\FreeRTOS\portable\GCC\ARM_CM3/portmacro.h **** 
 232:..\FreeRTOS\portable\GCC\ARM_CM3/portmacro.h **** 	/* This return will not be reached but is necessary to prevent compiler
 233:..\FreeRTOS\portable\GCC\ARM_CM3/portmacro.h **** 	warnings. */
 234:..\FreeRTOS\portable\GCC\ARM_CM3/portmacro.h **** 	return ulOriginalBASEPRI;
 235:..\FreeRTOS\portable\GCC\ARM_CM3/portmacro.h **** }
 236:..\FreeRTOS\portable\GCC\ARM_CM3/portmacro.h **** /*-----------------------------------------------------------*/
 237:..\FreeRTOS\portable\GCC\ARM_CM3/portmacro.h **** 
 238:..\FreeRTOS\portable\GCC\ARM_CM3/portmacro.h **** portFORCE_INLINE static void vPortSetBASEPRI( uint32_t ulNewMaskValue )
 239:..\FreeRTOS\portable\GCC\ARM_CM3/portmacro.h **** {
 240:..\FreeRTOS\portable\GCC\ARM_CM3/portmacro.h **** 	__asm volatile
 970              		.loc 2 240 0 is_stmt 1 discriminator 3
 971              		.syntax unified
 972              	@ 240 "..\FreeRTOS\portable\GCC\ARM_CM3/portmacro.h" 1
 973 006c 86F31188 			msr basepri, r6	
 974              	@ 0 "" 2
 975              	.LVL138:
 976              		.thumb
 977              		.syntax unified
ARM GAS  C:\Users\Tri94\AppData\Local\Temp\ccHaJcja.s 			page 45


 978              	.L66:
 979              	.LBE24:
 980              	.LBE23:
 981              	.LBE20:
 633:..\FreeRTOS/stream_buffer.c **** /*-----------------------------------------------------------*/
 982              		.loc 1 633 0
 983 0070 2846     		mov	r0, r5
 984 0072 02B0     		add	sp, sp, #8
 985              		.cfi_def_cfa_offset 24
 986              		@ sp needed
 987 0074 BDE8F081 		pop	{r4, r5, r6, r7, r8, pc}
 988              		.cfi_endproc
 989              	.LFE76:
 990              		.size	xStreamBufferSendFromISR, .-xStreamBufferSendFromISR
 991              		.section	.text.xStreamBufferReceive,"ax",%progbits
 992              		.align	2
 993              		.global	xStreamBufferReceive
 994              		.thumb
 995              		.thumb_func
 996              		.type	xStreamBufferReceive, %function
 997              	xStreamBufferReceive:
 998              	.LFB78:
 692:..\FreeRTOS/stream_buffer.c **** StreamBuffer_t * const pxStreamBuffer = ( StreamBuffer_t * ) xStreamBuffer; /*lint !e9087 !e9079 Sa
 999              		.loc 1 692 0
 1000              		.cfi_startproc
 1001              		@ args = 0, pretend = 0, frame = 0
 1002              		@ frame_needed = 0, uses_anonymous_args = 0
 1003              	.LVL139:
 1004 0000 2DE9F043 		push	{r4, r5, r6, r7, r8, r9, lr}
 1005              		.cfi_def_cfa_offset 28
 1006              		.cfi_offset 4, -28
 1007              		.cfi_offset 5, -24
 1008              		.cfi_offset 6, -20
 1009              		.cfi_offset 7, -16
 1010              		.cfi_offset 8, -12
 1011              		.cfi_offset 9, -8
 1012              		.cfi_offset 14, -4
 1013 0004 83B0     		sub	sp, sp, #12
 1014              		.cfi_def_cfa_offset 40
 1015 0006 0446     		mov	r4, r0
 1016 0008 8846     		mov	r8, r1
 1017 000a 9146     		mov	r9, r2
 1018 000c 1F46     		mov	r7, r3
 1019              	.LVL140:
 704:..\FreeRTOS/stream_buffer.c **** 	{
 1020              		.loc 1 704 0
 1021 000e 037F     		ldrb	r3, [r0, #28]	@ zero_extendqisi2
 1022              	.LVL141:
 1023 0010 13F0010F 		tst	r3, #1
 1024 0014 01D0     		beq	.L77
 706:..\FreeRTOS/stream_buffer.c **** 	}
 1025              		.loc 1 706 0
 1026 0016 0426     		movs	r6, #4
 1027 0018 00E0     		b	.L71
 1028              	.L77:
 710:..\FreeRTOS/stream_buffer.c **** 	}
 1029              		.loc 1 710 0
ARM GAS  C:\Users\Tri94\AppData\Local\Temp\ccHaJcja.s 			page 46


 1030 001a 0026     		movs	r6, #0
 1031              	.L71:
 1032              	.LVL142:
 713:..\FreeRTOS/stream_buffer.c **** 	{
 1033              		.loc 1 713 0
 1034 001c FFB1     		cbz	r7, .L72
 717:..\FreeRTOS/stream_buffer.c **** 		{
 1035              		.loc 1 717 0
 1036 001e FFF7FEFF 		bl	vPortEnterCritical
 1037              	.LVL143:
 719:..\FreeRTOS/stream_buffer.c **** 
 1038              		.loc 1 719 0
 1039 0022 2046     		mov	r0, r4
 1040 0024 FFF7FEFF 		bl	prvBytesInBuffer
 1041              	.LVL144:
 1042 0028 0546     		mov	r5, r0
 1043              	.LVL145:
 726:..\FreeRTOS/stream_buffer.c **** 			{
 1044              		.loc 1 726 0
 1045 002a 8642     		cmp	r6, r0
 1046 002c 05D3     		bcc	.L73
 729:..\FreeRTOS/stream_buffer.c **** 
 1047              		.loc 1 729 0
 1048 002e 0020     		movs	r0, #0
 1049              	.LVL146:
 1050 0030 FFF7FEFF 		bl	xTaskNotifyStateClear
 1051              	.LVL147:
 733:..\FreeRTOS/stream_buffer.c **** 			}
 1052              		.loc 1 733 0
 1053 0034 FFF7FEFF 		bl	xTaskGetCurrentTaskHandle
 1054              	.LVL148:
 1055 0038 2061     		str	r0, [r4, #16]
 1056              	.L73:
 740:..\FreeRTOS/stream_buffer.c **** 
 1057              		.loc 1 740 0
 1058 003a FFF7FEFF 		bl	vPortExitCritical
 1059              	.LVL149:
 742:..\FreeRTOS/stream_buffer.c **** 		{
 1060              		.loc 1 742 0
 1061 003e AE42     		cmp	r6, r5
 1062 0040 11D3     		bcc	.L74
 746:..\FreeRTOS/stream_buffer.c **** 			pxStreamBuffer->xTaskWaitingToReceive = NULL;
 1063              		.loc 1 746 0
 1064 0042 3B46     		mov	r3, r7
 1065 0044 0022     		movs	r2, #0
 1066 0046 4FF0FF31 		mov	r1, #-1
 1067 004a 1046     		mov	r0, r2
 1068 004c FFF7FEFF 		bl	xTaskNotifyWait
 1069              	.LVL150:
 747:..\FreeRTOS/stream_buffer.c **** 
 1070              		.loc 1 747 0
 1071 0050 0023     		movs	r3, #0
 1072 0052 2361     		str	r3, [r4, #16]
 750:..\FreeRTOS/stream_buffer.c **** 		}
 1073              		.loc 1 750 0
 1074 0054 2046     		mov	r0, r4
 1075 0056 FFF7FEFF 		bl	prvBytesInBuffer
ARM GAS  C:\Users\Tri94\AppData\Local\Temp\ccHaJcja.s 			page 47


 1076              	.LVL151:
 1077 005a 0546     		mov	r5, r0
 1078              	.LVL152:
 1079 005c 03E0     		b	.L74
 1080              	.LVL153:
 1081              	.L72:
 759:..\FreeRTOS/stream_buffer.c **** 	}
 1082              		.loc 1 759 0
 1083 005e 2046     		mov	r0, r4
 1084              	.LVL154:
 1085 0060 FFF7FEFF 		bl	prvBytesInBuffer
 1086              	.LVL155:
 1087 0064 0546     		mov	r5, r0
 1088              	.LVL156:
 1089              	.L74:
 767:..\FreeRTOS/stream_buffer.c **** 	{
 1090              		.loc 1 767 0
 1091 0066 B542     		cmp	r5, r6
 1092 0068 17D9     		bls	.L78
 769:..\FreeRTOS/stream_buffer.c **** 
 1093              		.loc 1 769 0
 1094 006a 0096     		str	r6, [sp]
 1095 006c 2B46     		mov	r3, r5
 1096 006e 4A46     		mov	r2, r9
 1097 0070 4146     		mov	r1, r8
 1098 0072 2046     		mov	r0, r4
 1099 0074 FFF7FEFF 		bl	prvReadMessageFromBuffer
 1100              	.LVL157:
 772:..\FreeRTOS/stream_buffer.c **** 		{
 1101              		.loc 1 772 0
 1102 0078 0546     		mov	r5, r0
 1103              	.LVL158:
 1104 007a 78B1     		cbz	r0, .L75
 775:..\FreeRTOS/stream_buffer.c **** 		}
 1105              		.loc 1 775 0
 1106 007c FFF7FEFF 		bl	vTaskSuspendAll
 1107              	.LVL159:
 1108 0080 6369     		ldr	r3, [r4, #20]
 1109 0082 3BB1     		cbz	r3, .L76
 775:..\FreeRTOS/stream_buffer.c **** 		}
 1110              		.loc 1 775 0 is_stmt 0 discriminator 1
 1111 0084 6069     		ldr	r0, [r4, #20]
 1112 0086 0023     		movs	r3, #0
 1113 0088 1A46     		mov	r2, r3
 1114 008a 1946     		mov	r1, r3
 1115 008c FFF7FEFF 		bl	xTaskGenericNotify
 1116              	.LVL160:
 1117 0090 0023     		movs	r3, #0
 1118 0092 6361     		str	r3, [r4, #20]
 1119              	.L76:
 775:..\FreeRTOS/stream_buffer.c **** 		}
 1120              		.loc 1 775 0 discriminator 3
 1121 0094 FFF7FEFF 		bl	xTaskResumeAll
 1122              	.LVL161:
 1123 0098 00E0     		b	.L75
 1124              	.LVL162:
 1125              	.L78:
ARM GAS  C:\Users\Tri94\AppData\Local\Temp\ccHaJcja.s 			page 48


 694:..\FreeRTOS/stream_buffer.c **** 
 1126              		.loc 1 694 0 is_stmt 1
 1127 009a 0025     		movs	r5, #0
 1128              	.LVL163:
 1129              	.L75:
 789:..\FreeRTOS/stream_buffer.c **** /*-----------------------------------------------------------*/
 1130              		.loc 1 789 0
 1131 009c 2846     		mov	r0, r5
 1132 009e 03B0     		add	sp, sp, #12
 1133              		.cfi_def_cfa_offset 28
 1134              		@ sp needed
 1135 00a0 BDE8F083 		pop	{r4, r5, r6, r7, r8, r9, pc}
 1136              		.cfi_endproc
 1137              	.LFE78:
 1138              		.size	xStreamBufferReceive, .-xStreamBufferReceive
 1139              		.section	.text.xStreamBufferReceiveFromISR,"ax",%progbits
 1140              		.align	2
 1141              		.global	xStreamBufferReceiveFromISR
 1142              		.thumb
 1143              		.thumb_func
 1144              		.type	xStreamBufferReceiveFromISR, %function
 1145              	xStreamBufferReceiveFromISR:
 1146              	.LFB79:
 796:..\FreeRTOS/stream_buffer.c **** StreamBuffer_t * const pxStreamBuffer = ( StreamBuffer_t * ) xStreamBuffer; /*lint !e9087 !e9079 Sa
 1147              		.loc 1 796 0
 1148              		.cfi_startproc
 1149              		@ args = 0, pretend = 0, frame = 0
 1150              		@ frame_needed = 0, uses_anonymous_args = 0
 1151              	.LVL164:
 1152 0000 2DE9F041 		push	{r4, r5, r6, r7, r8, lr}
 1153              		.cfi_def_cfa_offset 24
 1154              		.cfi_offset 4, -24
 1155              		.cfi_offset 5, -20
 1156              		.cfi_offset 6, -16
 1157              		.cfi_offset 7, -12
 1158              		.cfi_offset 8, -8
 1159              		.cfi_offset 14, -4
 1160 0004 82B0     		sub	sp, sp, #8
 1161              		.cfi_def_cfa_offset 32
 1162 0006 0446     		mov	r4, r0
 1163 0008 0E46     		mov	r6, r1
 1164 000a 1746     		mov	r7, r2
 1165 000c 9846     		mov	r8, r3
 1166              	.LVL165:
 808:..\FreeRTOS/stream_buffer.c **** 	{
 1167              		.loc 1 808 0
 1168 000e 037F     		ldrb	r3, [r0, #28]	@ zero_extendqisi2
 1169              	.LVL166:
 1170 0010 13F0010F 		tst	r3, #1
 1171 0014 01D0     		beq	.L84
 810:..\FreeRTOS/stream_buffer.c **** 	}
 1172              		.loc 1 810 0
 1173 0016 0425     		movs	r5, #4
 1174 0018 00E0     		b	.L81
 1175              	.L84:
 814:..\FreeRTOS/stream_buffer.c **** 	}
 1176              		.loc 1 814 0
ARM GAS  C:\Users\Tri94\AppData\Local\Temp\ccHaJcja.s 			page 49


 1177 001a 0025     		movs	r5, #0
 1178              	.L81:
 1179              	.LVL167:
 817:..\FreeRTOS/stream_buffer.c **** 
 1180              		.loc 1 817 0
 1181 001c 2046     		mov	r0, r4
 1182              	.LVL168:
 1183 001e FFF7FEFF 		bl	prvBytesInBuffer
 1184              	.LVL169:
 824:..\FreeRTOS/stream_buffer.c **** 	{
 1185              		.loc 1 824 0
 1186 0022 8542     		cmp	r5, r0
 1187 0024 21D2     		bcs	.L85
 826:..\FreeRTOS/stream_buffer.c **** 
 1188              		.loc 1 826 0
 1189 0026 0095     		str	r5, [sp]
 1190 0028 0346     		mov	r3, r0
 1191 002a 3A46     		mov	r2, r7
 1192 002c 3146     		mov	r1, r6
 1193 002e 2046     		mov	r0, r4
 1194              	.LVL170:
 1195 0030 FFF7FEFF 		bl	prvReadMessageFromBuffer
 1196              	.LVL171:
 829:..\FreeRTOS/stream_buffer.c **** 		{
 1197              		.loc 1 829 0
 1198 0034 0546     		mov	r5, r0
 1199              	.LVL172:
 1200 0036 C8B1     		cbz	r0, .L82
 1201              	.LBB25:
 1202              	.LBB26:
 1203              	.LBB27:
 222:..\FreeRTOS\portable\GCC\ARM_CM3/portmacro.h **** 	(
 1204              		.loc 2 222 0
 1205              		.syntax unified
 1206              	@ 222 "..\FreeRTOS\portable\GCC\ARM_CM3/portmacro.h" 1
 1207 0038 EFF31186 			mrs r6, basepri											
 1208 003c 4FF0A003 		mov r3, #160												
 1209 0040 83F31188 		msr basepri, r3											
 1210 0044 BFF36F8F 		isb														
 1211 0048 BFF34F8F 		dsb														
 1212              	
 1213              	@ 0 "" 2
 1214              	.LVL173:
 1215              		.thumb
 1216              		.syntax unified
 1217              	.LBE27:
 1218              	.LBE26:
 831:..\FreeRTOS/stream_buffer.c **** 		}
 1219              		.loc 1 831 0
 1220 004c 6369     		ldr	r3, [r4, #20]
 1221 004e 4BB1     		cbz	r3, .L83
 831:..\FreeRTOS/stream_buffer.c **** 		}
 1222              		.loc 1 831 0 is_stmt 0 discriminator 1
 1223 0050 6069     		ldr	r0, [r4, #20]
 1224              	.LVL174:
 1225 0052 CDF80080 		str	r8, [sp]
 1226 0056 0023     		movs	r3, #0
ARM GAS  C:\Users\Tri94\AppData\Local\Temp\ccHaJcja.s 			page 50


 1227 0058 1A46     		mov	r2, r3
 1228 005a 1946     		mov	r1, r3
 1229 005c FFF7FEFF 		bl	xTaskGenericNotifyFromISR
 1230              	.LVL175:
 1231 0060 0023     		movs	r3, #0
 1232 0062 6361     		str	r3, [r4, #20]
 1233              	.L83:
 1234              	.LVL176:
 1235              	.LBB28:
 1236              	.LBB29:
 1237              		.loc 2 240 0 is_stmt 1 discriminator 3
 1238              		.syntax unified
 1239              	@ 240 "..\FreeRTOS\portable\GCC\ARM_CM3/portmacro.h" 1
 1240 0064 86F31188 			msr basepri, r6	
 1241              	@ 0 "" 2
 1242              		.thumb
 1243              		.syntax unified
 1244 0068 00E0     		b	.L82
 1245              	.LVL177:
 1246              	.L85:
 1247              	.LBE29:
 1248              	.LBE28:
 1249              	.LBE25:
 798:..\FreeRTOS/stream_buffer.c **** 
 1250              		.loc 1 798 0
 1251 006a 0025     		movs	r5, #0
 1252              	.LVL178:
 1253              	.L82:
 846:..\FreeRTOS/stream_buffer.c **** /*-----------------------------------------------------------*/
 1254              		.loc 1 846 0
 1255 006c 2846     		mov	r0, r5
 1256 006e 02B0     		add	sp, sp, #8
 1257              		.cfi_def_cfa_offset 24
 1258              		@ sp needed
 1259 0070 BDE8F081 		pop	{r4, r5, r6, r7, r8, pc}
 1260              		.cfi_endproc
 1261              	.LFE79:
 1262              		.size	xStreamBufferReceiveFromISR, .-xStreamBufferReceiveFromISR
 1263              		.section	.text.xStreamBufferIsEmpty,"ax",%progbits
 1264              		.align	2
 1265              		.global	xStreamBufferIsEmpty
 1266              		.thumb
 1267              		.thumb_func
 1268              		.type	xStreamBufferIsEmpty, %function
 1269              	xStreamBufferIsEmpty:
 1270              	.LFB81:
 900:..\FreeRTOS/stream_buffer.c **** const StreamBuffer_t * const pxStreamBuffer = ( StreamBuffer_t * ) xStreamBuffer; /*lint !e9087 !e9
 1271              		.loc 1 900 0
 1272              		.cfi_startproc
 1273              		@ args = 0, pretend = 0, frame = 0
 1274              		@ frame_needed = 0, uses_anonymous_args = 0
 1275              		@ link register save eliminated.
 1276              	.LVL179:
 908:..\FreeRTOS/stream_buffer.c **** 	if( pxStreamBuffer->xHead == xTail )
 1277              		.loc 1 908 0
 1278 0000 0268     		ldr	r2, [r0]
 1279              	.LVL180:
ARM GAS  C:\Users\Tri94\AppData\Local\Temp\ccHaJcja.s 			page 51


 909:..\FreeRTOS/stream_buffer.c **** 	{
 1280              		.loc 1 909 0
 1281 0002 4368     		ldr	r3, [r0, #4]
 1282 0004 9A42     		cmp	r2, r3
 1283 0006 01D1     		bne	.L89
 911:..\FreeRTOS/stream_buffer.c **** 	}
 1284              		.loc 1 911 0
 1285 0008 0120     		movs	r0, #1
 1286              	.LVL181:
 1287 000a 7047     		bx	lr
 1288              	.LVL182:
 1289              	.L89:
 915:..\FreeRTOS/stream_buffer.c **** 	}
 1290              		.loc 1 915 0
 1291 000c 0020     		movs	r0, #0
 1292              	.LVL183:
 919:..\FreeRTOS/stream_buffer.c **** /*-----------------------------------------------------------*/
 1293              		.loc 1 919 0
 1294 000e 7047     		bx	lr
 1295              		.cfi_endproc
 1296              	.LFE81:
 1297              		.size	xStreamBufferIsEmpty, .-xStreamBufferIsEmpty
 1298              		.section	.text.xStreamBufferIsFull,"ax",%progbits
 1299              		.align	2
 1300              		.global	xStreamBufferIsFull
 1301              		.thumb
 1302              		.thumb_func
 1303              		.type	xStreamBufferIsFull, %function
 1304              	xStreamBufferIsFull:
 1305              	.LFB82:
 923:..\FreeRTOS/stream_buffer.c **** BaseType_t xReturn;
 1306              		.loc 1 923 0
 1307              		.cfi_startproc
 1308              		@ args = 0, pretend = 0, frame = 0
 1309              		@ frame_needed = 0, uses_anonymous_args = 0
 1310              	.LVL184:
 1311 0000 10B5     		push	{r4, lr}
 1312              		.cfi_def_cfa_offset 8
 1313              		.cfi_offset 4, -8
 1314              		.cfi_offset 14, -4
 1315              	.LVL185:
 934:..\FreeRTOS/stream_buffer.c **** 	{
 1316              		.loc 1 934 0
 1317 0002 037F     		ldrb	r3, [r0, #28]	@ zero_extendqisi2
 1318 0004 13F0010F 		tst	r3, #1
 1319 0008 01D0     		beq	.L93
 936:..\FreeRTOS/stream_buffer.c **** 	}
 1320              		.loc 1 936 0
 1321 000a 0424     		movs	r4, #4
 1322 000c 00E0     		b	.L91
 1323              	.L93:
 940:..\FreeRTOS/stream_buffer.c **** 	}
 1324              		.loc 1 940 0
 1325 000e 0024     		movs	r4, #0
 1326              	.L91:
 1327              	.LVL186:
 944:..\FreeRTOS/stream_buffer.c **** 	{
ARM GAS  C:\Users\Tri94\AppData\Local\Temp\ccHaJcja.s 			page 52


 1328              		.loc 1 944 0
 1329 0010 FFF7FEFF 		bl	xStreamBufferSpacesAvailable
 1330              	.LVL187:
 1331 0014 8442     		cmp	r4, r0
 1332 0016 01D3     		bcc	.L94
 946:..\FreeRTOS/stream_buffer.c **** 	}
 1333              		.loc 1 946 0
 1334 0018 0120     		movs	r0, #1
 1335 001a 10BD     		pop	{r4, pc}
 1336              	.LVL188:
 1337              	.L94:
 950:..\FreeRTOS/stream_buffer.c **** 	}
 1338              		.loc 1 950 0
 1339 001c 0020     		movs	r0, #0
 1340              	.LVL189:
 954:..\FreeRTOS/stream_buffer.c **** /*-----------------------------------------------------------*/
 1341              		.loc 1 954 0
 1342 001e 10BD     		pop	{r4, pc}
 1343              		.cfi_endproc
 1344              	.LFE82:
 1345              		.size	xStreamBufferIsFull, .-xStreamBufferIsFull
 1346              		.section	.text.xStreamBufferSendCompletedFromISR,"ax",%progbits
 1347              		.align	2
 1348              		.global	xStreamBufferSendCompletedFromISR
 1349              		.thumb
 1350              		.thumb_func
 1351              		.type	xStreamBufferSendCompletedFromISR, %function
 1352              	xStreamBufferSendCompletedFromISR:
 1353              	.LFB83:
 958:..\FreeRTOS/stream_buffer.c **** StreamBuffer_t * const pxStreamBuffer = ( StreamBuffer_t * ) xStreamBuffer; /*lint !e9087 !e9079 Sa
 1354              		.loc 1 958 0
 1355              		.cfi_startproc
 1356              		@ args = 0, pretend = 0, frame = 0
 1357              		@ frame_needed = 0, uses_anonymous_args = 0
 1358              	.LVL190:
 1359 0000 30B5     		push	{r4, r5, lr}
 1360              		.cfi_def_cfa_offset 12
 1361              		.cfi_offset 4, -12
 1362              		.cfi_offset 5, -8
 1363              		.cfi_offset 14, -4
 1364 0002 83B0     		sub	sp, sp, #12
 1365              		.cfi_def_cfa_offset 24
 1366              	.LVL191:
 1367              	.LBB30:
 1368              	.LBB31:
 222:..\FreeRTOS\portable\GCC\ARM_CM3/portmacro.h **** 	(
 1369              		.loc 2 222 0
 1370              		.syntax unified
 1371              	@ 222 "..\FreeRTOS\portable\GCC\ARM_CM3/portmacro.h" 1
 1372 0004 EFF31185 			mrs r5, basepri											
 1373 0008 4FF0A003 		mov r3, #160												
 1374 000c 83F31188 		msr basepri, r3											
 1375 0010 BFF36F8F 		isb														
 1376 0014 BFF34F8F 		dsb														
 1377              	
 1378              	@ 0 "" 2
 1379              		.thumb
ARM GAS  C:\Users\Tri94\AppData\Local\Temp\ccHaJcja.s 			page 53


 1380              		.syntax unified
 1381              	.LBE31:
 1382              	.LBE30:
 967:..\FreeRTOS/stream_buffer.c **** 		{
 1383              		.loc 1 967 0
 1384 0018 0369     		ldr	r3, [r0, #16]
 1385 001a 5BB1     		cbz	r3, .L98
 1386 001c 0446     		mov	r4, r0
 969:..\FreeRTOS/stream_buffer.c **** 										 ( uint32_t ) 0,
 1387              		.loc 1 969 0
 1388 001e 0069     		ldr	r0, [r0, #16]
 1389              	.LVL192:
 1390 0020 0091     		str	r1, [sp]
 1391 0022 0023     		movs	r3, #0
 1392 0024 1A46     		mov	r2, r3
 1393 0026 1946     		mov	r1, r3
 1394              	.LVL193:
 1395 0028 FFF7FEFF 		bl	xTaskGenericNotifyFromISR
 1396              	.LVL194:
 973:..\FreeRTOS/stream_buffer.c **** 			xReturn = pdTRUE;
 1397              		.loc 1 973 0
 1398 002c 0023     		movs	r3, #0
 1399 002e 2361     		str	r3, [r4, #16]
 1400              	.LVL195:
 974:..\FreeRTOS/stream_buffer.c **** 		}
 1401              		.loc 1 974 0
 1402 0030 0120     		movs	r0, #1
 1403 0032 00E0     		b	.L97
 1404              	.LVL196:
 1405              	.L98:
 978:..\FreeRTOS/stream_buffer.c **** 		}
 1406              		.loc 1 978 0
 1407 0034 0020     		movs	r0, #0
 1408              	.LVL197:
 1409              	.L97:
 1410              	.LBB32:
 1411              	.LBB33:
 1412              		.loc 2 240 0
 1413              		.syntax unified
 1414              	@ 240 "..\FreeRTOS\portable\GCC\ARM_CM3/portmacro.h" 1
 1415 0036 85F31188 			msr basepri, r5	
 1416              	@ 0 "" 2
 1417              	.LVL198:
 1418              		.thumb
 1419              		.syntax unified
 1420              	.LBE33:
 1421              	.LBE32:
 984:..\FreeRTOS/stream_buffer.c **** /*-----------------------------------------------------------*/
 1422              		.loc 1 984 0
 1423 003a 03B0     		add	sp, sp, #12
 1424              		.cfi_def_cfa_offset 12
 1425              		@ sp needed
 1426 003c 30BD     		pop	{r4, r5, pc}
 1427              		.cfi_endproc
 1428              	.LFE83:
 1429              		.size	xStreamBufferSendCompletedFromISR, .-xStreamBufferSendCompletedFromISR
 1430 003e 00BF     		.section	.text.xStreamBufferReceiveCompletedFromISR,"ax",%progbits
ARM GAS  C:\Users\Tri94\AppData\Local\Temp\ccHaJcja.s 			page 54


 1431              		.align	2
 1432              		.global	xStreamBufferReceiveCompletedFromISR
 1433              		.thumb
 1434              		.thumb_func
 1435              		.type	xStreamBufferReceiveCompletedFromISR, %function
 1436              	xStreamBufferReceiveCompletedFromISR:
 1437              	.LFB84:
 988:..\FreeRTOS/stream_buffer.c **** StreamBuffer_t * const pxStreamBuffer = ( StreamBuffer_t * ) xStreamBuffer; /*lint !e9087 !e9079 Sa
 1438              		.loc 1 988 0
 1439              		.cfi_startproc
 1440              		@ args = 0, pretend = 0, frame = 0
 1441              		@ frame_needed = 0, uses_anonymous_args = 0
 1442              	.LVL199:
 1443 0000 30B5     		push	{r4, r5, lr}
 1444              		.cfi_def_cfa_offset 12
 1445              		.cfi_offset 4, -12
 1446              		.cfi_offset 5, -8
 1447              		.cfi_offset 14, -4
 1448 0002 83B0     		sub	sp, sp, #12
 1449              		.cfi_def_cfa_offset 24
 1450              	.LVL200:
 1451              	.LBB34:
 1452              	.LBB35:
 222:..\FreeRTOS\portable\GCC\ARM_CM3/portmacro.h **** 	(
 1453              		.loc 2 222 0
 1454              		.syntax unified
 1455              	@ 222 "..\FreeRTOS\portable\GCC\ARM_CM3/portmacro.h" 1
 1456 0004 EFF31185 			mrs r5, basepri											
 1457 0008 4FF0A003 		mov r3, #160												
 1458 000c 83F31188 		msr basepri, r3											
 1459 0010 BFF36F8F 		isb														
 1460 0014 BFF34F8F 		dsb														
 1461              	
 1462              	@ 0 "" 2
 1463              		.thumb
 1464              		.syntax unified
 1465              	.LBE35:
 1466              	.LBE34:
 997:..\FreeRTOS/stream_buffer.c **** 		{
 1467              		.loc 1 997 0
 1468 0018 4369     		ldr	r3, [r0, #20]
 1469 001a 5BB1     		cbz	r3, .L102
 1470 001c 0446     		mov	r4, r0
 999:..\FreeRTOS/stream_buffer.c **** 										 ( uint32_t ) 0,
 1471              		.loc 1 999 0
 1472 001e 4069     		ldr	r0, [r0, #20]
 1473              	.LVL201:
 1474 0020 0091     		str	r1, [sp]
 1475 0022 0023     		movs	r3, #0
 1476 0024 1A46     		mov	r2, r3
 1477 0026 1946     		mov	r1, r3
 1478              	.LVL202:
 1479 0028 FFF7FEFF 		bl	xTaskGenericNotifyFromISR
 1480              	.LVL203:
1003:..\FreeRTOS/stream_buffer.c **** 			xReturn = pdTRUE;
 1481              		.loc 1 1003 0
 1482 002c 0023     		movs	r3, #0
ARM GAS  C:\Users\Tri94\AppData\Local\Temp\ccHaJcja.s 			page 55


 1483 002e 6361     		str	r3, [r4, #20]
 1484              	.LVL204:
1004:..\FreeRTOS/stream_buffer.c **** 		}
 1485              		.loc 1 1004 0
 1486 0030 0120     		movs	r0, #1
 1487 0032 00E0     		b	.L101
 1488              	.LVL205:
 1489              	.L102:
1008:..\FreeRTOS/stream_buffer.c **** 		}
 1490              		.loc 1 1008 0
 1491 0034 0020     		movs	r0, #0
 1492              	.LVL206:
 1493              	.L101:
 1494              	.LBB36:
 1495              	.LBB37:
 1496              		.loc 2 240 0
 1497              		.syntax unified
 1498              	@ 240 "..\FreeRTOS\portable\GCC\ARM_CM3/portmacro.h" 1
 1499 0036 85F31188 			msr basepri, r5	
 1500              	@ 0 "" 2
 1501              	.LVL207:
 1502              		.thumb
 1503              		.syntax unified
 1504              	.LBE37:
 1505              	.LBE36:
1014:..\FreeRTOS/stream_buffer.c **** /*-----------------------------------------------------------*/
 1506              		.loc 1 1014 0
 1507 003a 03B0     		add	sp, sp, #12
 1508              		.cfi_def_cfa_offset 12
 1509              		@ sp needed
 1510 003c 30BD     		pop	{r4, r5, pc}
 1511              		.cfi_endproc
 1512              	.LFE84:
 1513              		.size	xStreamBufferReceiveCompletedFromISR, .-xStreamBufferReceiveCompletedFromISR
 1514 003e 00BF     		.text
 1515              	.Letext0:
 1516              		.file 3 "c:\\program files (x86)\\cypress\\psoc creator\\4.2\\psoc creator\\import\\gnu\\arm\\5.4.
 1517              		.file 4 "c:\\program files (x86)\\cypress\\psoc creator\\4.2\\psoc creator\\import\\gnu\\arm\\5.4.
 1518              		.file 5 "c:\\program files (x86)\\cypress\\psoc creator\\4.2\\psoc creator\\import\\gnu\\arm\\5.4.
 1519              		.file 6 "..\\FreeRTOS\\include/task.h"
 1520              		.file 7 "..\\FreeRTOS\\include/stream_buffer.h"
 1521              		.file 8 "..\\FreeRTOS\\include/portable.h"
 1522              		.file 9 "Generated_Source\\PSoC5/core_cm3.h"
 1523              		.section	.debug_info,"",%progbits
 1524              	.Ldebug_info0:
 1525 0000 90110000 		.4byte	0x1190
 1526 0004 0400     		.2byte	0x4
 1527 0006 00000000 		.4byte	.Ldebug_abbrev0
 1528 000a 04       		.byte	0x4
 1529 000b 01       		.uleb128 0x1
 1530 000c F8060000 		.4byte	.LASF109
 1531 0010 0C       		.byte	0xc
 1532 0011 C1060000 		.4byte	.LASF110
 1533 0015 30040000 		.4byte	.LASF111
 1534 0019 00000000 		.4byte	.Ldebug_ranges0+0
 1535 001d 00000000 		.4byte	0
 1536 0021 00000000 		.4byte	.Ldebug_line0
ARM GAS  C:\Users\Tri94\AppData\Local\Temp\ccHaJcja.s 			page 56


 1537 0025 02       		.uleb128 0x2
 1538 0026 01       		.byte	0x1
 1539 0027 06       		.byte	0x6
 1540 0028 A8030000 		.4byte	.LASF0
 1541 002c 03       		.uleb128 0x3
 1542 002d C1020000 		.4byte	.LASF4
 1543 0031 03       		.byte	0x3
 1544 0032 1D       		.byte	0x1d
 1545 0033 37000000 		.4byte	0x37
 1546 0037 02       		.uleb128 0x2
 1547 0038 01       		.byte	0x1
 1548 0039 08       		.byte	0x8
 1549 003a 37030000 		.4byte	.LASF1
 1550 003e 02       		.uleb128 0x2
 1551 003f 02       		.byte	0x2
 1552 0040 05       		.byte	0x5
 1553 0041 A8000000 		.4byte	.LASF2
 1554 0045 02       		.uleb128 0x2
 1555 0046 02       		.byte	0x2
 1556 0047 07       		.byte	0x7
 1557 0048 B4040000 		.4byte	.LASF3
 1558 004c 03       		.uleb128 0x3
 1559 004d 3E060000 		.4byte	.LASF5
 1560 0051 03       		.byte	0x3
 1561 0052 3F       		.byte	0x3f
 1562 0053 57000000 		.4byte	0x57
 1563 0057 02       		.uleb128 0x2
 1564 0058 04       		.byte	0x4
 1565 0059 05       		.byte	0x5
 1566 005a 95020000 		.4byte	.LASF6
 1567 005e 03       		.uleb128 0x3
 1568 005f 55010000 		.4byte	.LASF7
 1569 0063 03       		.byte	0x3
 1570 0064 41       		.byte	0x41
 1571 0065 69000000 		.4byte	0x69
 1572 0069 02       		.uleb128 0x2
 1573 006a 04       		.byte	0x4
 1574 006b 07       		.byte	0x7
 1575 006c 7E050000 		.4byte	.LASF8
 1576 0070 02       		.uleb128 0x2
 1577 0071 08       		.byte	0x8
 1578 0072 05       		.byte	0x5
 1579 0073 41020000 		.4byte	.LASF9
 1580 0077 02       		.uleb128 0x2
 1581 0078 08       		.byte	0x8
 1582 0079 07       		.byte	0x7
 1583 007a D1030000 		.4byte	.LASF10
 1584 007e 04       		.uleb128 0x4
 1585 007f 04       		.byte	0x4
 1586 0080 05       		.byte	0x5
 1587 0081 696E7400 		.ascii	"int\000"
 1588 0085 02       		.uleb128 0x2
 1589 0086 04       		.byte	0x4
 1590 0087 07       		.byte	0x7
 1591 0088 23040000 		.4byte	.LASF11
 1592 008c 03       		.uleb128 0x3
 1593 008d 70060000 		.4byte	.LASF12
ARM GAS  C:\Users\Tri94\AppData\Local\Temp\ccHaJcja.s 			page 57


 1594 0091 04       		.byte	0x4
 1595 0092 18       		.byte	0x18
 1596 0093 2C000000 		.4byte	0x2c
 1597 0097 03       		.uleb128 0x3
 1598 0098 06050000 		.4byte	.LASF13
 1599 009c 04       		.byte	0x4
 1600 009d 2C       		.byte	0x2c
 1601 009e 4C000000 		.4byte	0x4c
 1602 00a2 03       		.uleb128 0x3
 1603 00a3 01040000 		.4byte	.LASF14
 1604 00a7 04       		.byte	0x4
 1605 00a8 30       		.byte	0x30
 1606 00a9 5E000000 		.4byte	0x5e
 1607 00ad 03       		.uleb128 0x3
 1608 00ae B2000000 		.4byte	.LASF15
 1609 00b2 05       		.byte	0x5
 1610 00b3 D8       		.byte	0xd8
 1611 00b4 85000000 		.4byte	0x85
 1612 00b8 02       		.uleb128 0x2
 1613 00b9 08       		.byte	0x8
 1614 00ba 04       		.byte	0x4
 1615 00bb 23030000 		.4byte	.LASF16
 1616 00bf 02       		.uleb128 0x2
 1617 00c0 04       		.byte	0x4
 1618 00c1 07       		.byte	0x7
 1619 00c2 D6000000 		.4byte	.LASF17
 1620 00c6 05       		.uleb128 0x5
 1621 00c7 04       		.byte	0x4
 1622 00c8 02       		.uleb128 0x2
 1623 00c9 01       		.byte	0x1
 1624 00ca 08       		.byte	0x8
 1625 00cb EA040000 		.4byte	.LASF18
 1626 00cf 02       		.uleb128 0x2
 1627 00d0 04       		.byte	0x4
 1628 00d1 04       		.byte	0x4
 1629 00d2 1E020000 		.4byte	.LASF19
 1630 00d6 02       		.uleb128 0x2
 1631 00d7 08       		.byte	0x8
 1632 00d8 04       		.byte	0x4
 1633 00d9 9E040000 		.4byte	.LASF20
 1634 00dd 06       		.uleb128 0x6
 1635 00de 04       		.byte	0x4
 1636 00df E3000000 		.4byte	0xe3
 1637 00e3 07       		.uleb128 0x7
 1638 00e4 03       		.uleb128 0x3
 1639 00e5 6E040000 		.4byte	.LASF21
 1640 00e9 02       		.byte	0x2
 1641 00ea 43       		.byte	0x43
 1642 00eb 57000000 		.4byte	0x57
 1643 00ef 03       		.uleb128 0x3
 1644 00f0 AB050000 		.4byte	.LASF22
 1645 00f4 02       		.byte	0x2
 1646 00f5 44       		.byte	0x44
 1647 00f6 69000000 		.4byte	0x69
 1648 00fa 03       		.uleb128 0x3
 1649 00fb 93040000 		.4byte	.LASF23
 1650 00ff 02       		.byte	0x2
ARM GAS  C:\Users\Tri94\AppData\Local\Temp\ccHaJcja.s 			page 58


 1651 0100 4A       		.byte	0x4a
 1652 0101 A2000000 		.4byte	0xa2
 1653 0105 06       		.uleb128 0x6
 1654 0106 04       		.byte	0x4
 1655 0107 8C000000 		.4byte	0x8c
 1656 010b 03       		.uleb128 0x3
 1657 010c F6000000 		.4byte	.LASF24
 1658 0110 06       		.byte	0x6
 1659 0111 43       		.byte	0x43
 1660 0112 C6000000 		.4byte	0xc6
 1661 0116 08       		.uleb128 0x8
 1662 0117 01       		.byte	0x1
 1663 0118 37000000 		.4byte	0x37
 1664 011c 06       		.byte	0x6
 1665 011d 58       		.byte	0x58
 1666 011e 41010000 		.4byte	0x141
 1667 0122 09       		.uleb128 0x9
 1668 0123 32000000 		.4byte	.LASF25
 1669 0127 00       		.byte	0
 1670 0128 09       		.uleb128 0x9
 1671 0129 07020000 		.4byte	.LASF26
 1672 012d 01       		.byte	0x1
 1673 012e 09       		.uleb128 0x9
 1674 012f EA070000 		.4byte	.LASF27
 1675 0133 02       		.byte	0x2
 1676 0134 09       		.uleb128 0x9
 1677 0135 EF040000 		.4byte	.LASF28
 1678 0139 03       		.byte	0x3
 1679 013a 09       		.uleb128 0x9
 1680 013b 0E060000 		.4byte	.LASF29
 1681 013f 04       		.byte	0x4
 1682 0140 00       		.byte	0
 1683 0141 0A       		.uleb128 0xa
 1684 0142 7F000000 		.4byte	.LASF34
 1685 0146 08       		.byte	0x8
 1686 0147 06       		.byte	0x6
 1687 0148 63       		.byte	0x63
 1688 0149 66010000 		.4byte	0x166
 1689 014d 0B       		.uleb128 0xb
 1690 014e 66030000 		.4byte	.LASF30
 1691 0152 06       		.byte	0x6
 1692 0153 65       		.byte	0x65
 1693 0154 E4000000 		.4byte	0xe4
 1694 0158 00       		.byte	0
 1695 0159 0B       		.uleb128 0xb
 1696 015a 45030000 		.4byte	.LASF31
 1697 015e 06       		.byte	0x6
 1698 015f 66       		.byte	0x66
 1699 0160 FA000000 		.4byte	0xfa
 1700 0164 04       		.byte	0x4
 1701 0165 00       		.byte	0
 1702 0166 03       		.uleb128 0x3
 1703 0167 9E000000 		.4byte	.LASF32
 1704 016b 06       		.byte	0x6
 1705 016c 67       		.byte	0x67
 1706 016d 41010000 		.4byte	0x141
 1707 0171 03       		.uleb128 0x3
ARM GAS  C:\Users\Tri94\AppData\Local\Temp\ccHaJcja.s 			page 59


 1708 0172 5B060000 		.4byte	.LASF33
 1709 0176 07       		.byte	0x7
 1710 0177 3D       		.byte	0x3d
 1711 0178 C6000000 		.4byte	0xc6
 1712 017c 0A       		.uleb128 0xa
 1713 017d 55050000 		.4byte	.LASF35
 1714 0181 20       		.byte	0x20
 1715 0182 01       		.byte	0x1
 1716 0183 8A       		.byte	0x8a
 1717 0184 E9010000 		.4byte	0x1e9
 1718 0188 0B       		.uleb128 0xb
 1719 0189 CD050000 		.4byte	.LASF36
 1720 018d 01       		.byte	0x1
 1721 018e 8C       		.byte	0x8c
 1722 018f E9010000 		.4byte	0x1e9
 1723 0193 00       		.byte	0
 1724 0194 0B       		.uleb128 0xb
 1725 0195 BB060000 		.4byte	.LASF37
 1726 0199 01       		.byte	0x1
 1727 019a 8D       		.byte	0x8d
 1728 019b E9010000 		.4byte	0x1e9
 1729 019f 04       		.byte	0x4
 1730 01a0 0B       		.uleb128 0xb
 1731 01a1 2F030000 		.4byte	.LASF38
 1732 01a5 01       		.byte	0x1
 1733 01a6 8E       		.byte	0x8e
 1734 01a7 AD000000 		.4byte	0xad
 1735 01ab 08       		.byte	0x8
 1736 01ac 0B       		.uleb128 0xb
 1737 01ad 42050000 		.4byte	.LASF39
 1738 01b1 01       		.byte	0x1
 1739 01b2 8F       		.byte	0x8f
 1740 01b3 AD000000 		.4byte	0xad
 1741 01b7 0C       		.byte	0xc
 1742 01b8 0B       		.uleb128 0xb
 1743 01b9 92030000 		.4byte	.LASF40
 1744 01bd 01       		.byte	0x1
 1745 01be 90       		.byte	0x90
 1746 01bf EE010000 		.4byte	0x1ee
 1747 01c3 10       		.byte	0x10
 1748 01c4 0B       		.uleb128 0xb
 1749 01c5 48060000 		.4byte	.LASF41
 1750 01c9 01       		.byte	0x1
 1751 01ca 91       		.byte	0x91
 1752 01cb EE010000 		.4byte	0x1ee
 1753 01cf 14       		.byte	0x14
 1754 01d0 0B       		.uleb128 0xb
 1755 01d1 71010000 		.4byte	.LASF42
 1756 01d5 01       		.byte	0x1
 1757 01d6 92       		.byte	0x92
 1758 01d7 05010000 		.4byte	0x105
 1759 01db 18       		.byte	0x18
 1760 01dc 0B       		.uleb128 0xb
 1761 01dd 79040000 		.4byte	.LASF43
 1762 01e1 01       		.byte	0x1
 1763 01e2 93       		.byte	0x93
 1764 01e3 8C000000 		.4byte	0x8c
ARM GAS  C:\Users\Tri94\AppData\Local\Temp\ccHaJcja.s 			page 60


 1765 01e7 1C       		.byte	0x1c
 1766 01e8 00       		.byte	0
 1767 01e9 0C       		.uleb128 0xc
 1768 01ea AD000000 		.4byte	0xad
 1769 01ee 0C       		.uleb128 0xc
 1770 01ef 0B010000 		.4byte	0x10b
 1771 01f3 03       		.uleb128 0x3
 1772 01f4 F5070000 		.4byte	.LASF44
 1773 01f8 01       		.byte	0x1
 1774 01f9 98       		.byte	0x98
 1775 01fa 7C010000 		.4byte	0x17c
 1776 01fe 0D       		.uleb128 0xd
 1777 01ff F4010000 		.4byte	.LASF112
 1778 0203 02       		.byte	0x2
 1779 0204 DA       		.byte	0xda
 1780 0205 A2000000 		.4byte	0xa2
 1781 0209 03       		.byte	0x3
 1782 020a 25020000 		.4byte	0x225
 1783 020e 0E       		.uleb128 0xe
 1784 020f 20000000 		.4byte	.LASF45
 1785 0213 02       		.byte	0x2
 1786 0214 DC       		.byte	0xdc
 1787 0215 A2000000 		.4byte	0xa2
 1788 0219 0E       		.uleb128 0xe
 1789 021a 57000000 		.4byte	.LASF46
 1790 021e 02       		.byte	0x2
 1791 021f DC       		.byte	0xdc
 1792 0220 A2000000 		.4byte	0xa2
 1793 0224 00       		.byte	0
 1794 0225 0F       		.uleb128 0xf
 1795 0226 DA040000 		.4byte	.LASF113
 1796 022a 02       		.byte	0x2
 1797 022b EE       		.byte	0xee
 1798 022c 03       		.byte	0x3
 1799 022d 3D020000 		.4byte	0x23d
 1800 0231 10       		.uleb128 0x10
 1801 0232 F5050000 		.4byte	.LASF114
 1802 0236 02       		.byte	0x2
 1803 0237 EE       		.byte	0xee
 1804 0238 A2000000 		.4byte	0xa2
 1805 023c 00       		.byte	0
 1806 023d 11       		.uleb128 0x11
 1807 023e 31050000 		.4byte	.LASF50
 1808 0242 01       		.byte	0x1
 1809 0243 5E04     		.2byte	0x45e
 1810 0245 AD000000 		.4byte	0xad
 1811 0249 00000000 		.4byte	.LFB87
 1812 024d 12000000 		.4byte	.LFE87-.LFB87
 1813 0251 01       		.uleb128 0x1
 1814 0252 9C       		.byte	0x9c
 1815 0253 78020000 		.4byte	0x278
 1816 0257 12       		.uleb128 0x12
 1817 0258 F3020000 		.4byte	.LASF47
 1818 025c 01       		.byte	0x1
 1819 025d 5E04     		.2byte	0x45e
 1820 025f 83020000 		.4byte	0x283
 1821 0263 00000000 		.4byte	.LLST0
ARM GAS  C:\Users\Tri94\AppData\Local\Temp\ccHaJcja.s 			page 61


 1822 0267 13       		.uleb128 0x13
 1823 0268 64000000 		.4byte	.LASF53
 1824 026c 01       		.byte	0x1
 1825 026d 6104     		.2byte	0x461
 1826 026f AD000000 		.4byte	0xad
 1827 0273 21000000 		.4byte	.LLST1
 1828 0277 00       		.byte	0
 1829 0278 06       		.uleb128 0x6
 1830 0279 04       		.byte	0x4
 1831 027a 7E020000 		.4byte	0x27e
 1832 027e 14       		.uleb128 0x14
 1833 027f F3010000 		.4byte	0x1f3
 1834 0283 14       		.uleb128 0x14
 1835 0284 78020000 		.4byte	0x278
 1836 0288 15       		.uleb128 0x15
 1837 0289 B9000000 		.4byte	.LASF115
 1838 028d 01       		.byte	0x1
 1839 028e 7204     		.2byte	0x472
 1840 0290 00000000 		.4byte	.LFB88
 1841 0294 26000000 		.4byte	.LFE88-.LFB88
 1842 0298 01       		.uleb128 0x1
 1843 0299 9C       		.byte	0x9c
 1844 029a 09030000 		.4byte	0x309
 1845 029e 12       		.uleb128 0x12
 1846 029f F3020000 		.4byte	.LASF47
 1847 02a3 01       		.byte	0x1
 1848 02a4 7204     		.2byte	0x472
 1849 02a6 0F030000 		.4byte	0x30f
 1850 02aa 3F000000 		.4byte	.LLST2
 1851 02ae 12       		.uleb128 0x12
 1852 02af 71010000 		.4byte	.LASF42
 1853 02b3 01       		.byte	0x1
 1854 02b4 7304     		.2byte	0x473
 1855 02b6 14030000 		.4byte	0x314
 1856 02ba 5D000000 		.4byte	.LLST3
 1857 02be 12       		.uleb128 0x12
 1858 02bf 55030000 		.4byte	.LASF48
 1859 02c3 01       		.byte	0x1
 1860 02c4 7404     		.2byte	0x474
 1861 02c6 AD000000 		.4byte	0xad
 1862 02ca 7B000000 		.4byte	.LLST4
 1863 02ce 12       		.uleb128 0x12
 1864 02cf 42050000 		.4byte	.LASF39
 1865 02d3 01       		.byte	0x1
 1866 02d4 7504     		.2byte	0x475
 1867 02d6 AD000000 		.4byte	0xad
 1868 02da 99000000 		.4byte	.LLST5
 1869 02de 16       		.uleb128 0x16
 1870 02df 0E050000 		.4byte	.LASF49
 1871 02e3 01       		.byte	0x1
 1872 02e4 7604     		.2byte	0x476
 1873 02e6 E4000000 		.4byte	0xe4
 1874 02ea 02       		.uleb128 0x2
 1875 02eb 91       		.byte	0x91
 1876 02ec 00       		.sleb128 0
 1877 02ed 17       		.uleb128 0x17
 1878 02ee 12000000 		.4byte	.LVL8
ARM GAS  C:\Users\Tri94\AppData\Local\Temp\ccHaJcja.s 			page 62


 1879 02f2 E9100000 		.4byte	0x10e9
 1880 02f6 18       		.uleb128 0x18
 1881 02f7 01       		.uleb128 0x1
 1882 02f8 50       		.byte	0x50
 1883 02f9 02       		.uleb128 0x2
 1884 02fa 74       		.byte	0x74
 1885 02fb 00       		.sleb128 0
 1886 02fc 18       		.uleb128 0x18
 1887 02fd 01       		.uleb128 0x1
 1888 02fe 51       		.byte	0x51
 1889 02ff 01       		.uleb128 0x1
 1890 0300 30       		.byte	0x30
 1891 0301 18       		.uleb128 0x18
 1892 0302 01       		.uleb128 0x1
 1893 0303 52       		.byte	0x52
 1894 0304 02       		.uleb128 0x2
 1895 0305 08       		.byte	0x8
 1896 0306 20       		.byte	0x20
 1897 0307 00       		.byte	0
 1898 0308 00       		.byte	0
 1899 0309 06       		.uleb128 0x6
 1900 030a 04       		.byte	0x4
 1901 030b F3010000 		.4byte	0x1f3
 1902 030f 14       		.uleb128 0x14
 1903 0310 09030000 		.4byte	0x309
 1904 0314 14       		.uleb128 0x14
 1905 0315 05010000 		.4byte	0x105
 1906 0319 11       		.uleb128 0x11
 1907 031a B7050000 		.4byte	.LASF51
 1908 031e 01       		.byte	0x1
 1909 031f F903     		.2byte	0x3f9
 1910 0321 AD000000 		.4byte	0xad
 1911 0325 00000000 		.4byte	.LFB85
 1912 0329 42000000 		.4byte	.LFE85-.LFB85
 1913 032d 01       		.uleb128 0x1
 1914 032e 9C       		.byte	0x9c
 1915 032f B8030000 		.4byte	0x3b8
 1916 0333 12       		.uleb128 0x12
 1917 0334 F3020000 		.4byte	.LASF47
 1918 0338 01       		.byte	0x1
 1919 0339 F903     		.2byte	0x3f9
 1920 033b 0F030000 		.4byte	0x30f
 1921 033f B7000000 		.4byte	.LLST6
 1922 0343 12       		.uleb128 0x12
 1923 0344 A0070000 		.4byte	.LASF52
 1924 0348 01       		.byte	0x1
 1925 0349 F903     		.2byte	0x3f9
 1926 034b B8030000 		.4byte	0x3b8
 1927 034f D5000000 		.4byte	.LLST7
 1928 0353 12       		.uleb128 0x12
 1929 0354 64000000 		.4byte	.LASF53
 1930 0358 01       		.byte	0x1
 1931 0359 F903     		.2byte	0x3f9
 1932 035b AD000000 		.4byte	0xad
 1933 035f F3000000 		.4byte	.LLST8
 1934 0363 13       		.uleb128 0x13
 1935 0364 4B010000 		.4byte	.LASF54
ARM GAS  C:\Users\Tri94\AppData\Local\Temp\ccHaJcja.s 			page 63


 1936 0368 01       		.byte	0x1
 1937 0369 FB03     		.2byte	0x3fb
 1938 036b AD000000 		.4byte	0xad
 1939 036f 11010000 		.4byte	.LLST9
 1940 0373 19       		.uleb128 0x19
 1941 0374 95010000 		.4byte	.LASF55
 1942 0378 01       		.byte	0x1
 1943 0379 FB03     		.2byte	0x3fb
 1944 037b AD000000 		.4byte	0xad
 1945 037f 01       		.uleb128 0x1
 1946 0380 55       		.byte	0x55
 1947 0381 1A       		.uleb128 0x1a
 1948 0382 20000000 		.4byte	.LVL14
 1949 0386 F2100000 		.4byte	0x10f2
 1950 038a 9B030000 		.4byte	0x39b
 1951 038e 18       		.uleb128 0x18
 1952 038f 01       		.uleb128 0x1
 1953 0390 51       		.byte	0x51
 1954 0391 02       		.uleb128 0x2
 1955 0392 78       		.byte	0x78
 1956 0393 00       		.sleb128 0
 1957 0394 18       		.uleb128 0x18
 1958 0395 01       		.uleb128 0x1
 1959 0396 52       		.byte	0x52
 1960 0397 02       		.uleb128 0x2
 1961 0398 75       		.byte	0x75
 1962 0399 00       		.sleb128 0
 1963 039a 00       		.byte	0
 1964 039b 17       		.uleb128 0x17
 1965 039c 30000000 		.4byte	.LVL15
 1966 03a0 F2100000 		.4byte	0x10f2
 1967 03a4 18       		.uleb128 0x18
 1968 03a5 01       		.uleb128 0x1
 1969 03a6 51       		.byte	0x51
 1970 03a7 05       		.uleb128 0x5
 1971 03a8 78       		.byte	0x78
 1972 03a9 00       		.sleb128 0
 1973 03aa 75       		.byte	0x75
 1974 03ab 00       		.sleb128 0
 1975 03ac 22       		.byte	0x22
 1976 03ad 18       		.uleb128 0x18
 1977 03ae 01       		.uleb128 0x1
 1978 03af 52       		.byte	0x52
 1979 03b0 05       		.uleb128 0x5
 1980 03b1 77       		.byte	0x77
 1981 03b2 00       		.sleb128 0
 1982 03b3 75       		.byte	0x75
 1983 03b4 00       		.sleb128 0
 1984 03b5 1C       		.byte	0x1c
 1985 03b6 00       		.byte	0
 1986 03b7 00       		.byte	0
 1987 03b8 06       		.uleb128 0x6
 1988 03b9 04       		.byte	0x4
 1989 03ba BE030000 		.4byte	0x3be
 1990 03be 14       		.uleb128 0x14
 1991 03bf 8C000000 		.4byte	0x8c
 1992 03c3 11       		.uleb128 0x11
ARM GAS  C:\Users\Tri94\AppData\Local\Temp\ccHaJcja.s 			page 64


 1993 03c4 02030000 		.4byte	.LASF56
 1994 03c8 01       		.byte	0x1
 1995 03c9 7C02     		.2byte	0x27c
 1996 03cb AD000000 		.4byte	0xad
 1997 03cf 00000000 		.4byte	.LFB77
 1998 03d3 52000000 		.4byte	.LFE77-.LFB77
 1999 03d7 01       		.uleb128 0x1
 2000 03d8 9C       		.byte	0x9c
 2001 03d9 7C040000 		.4byte	0x47c
 2002 03dd 12       		.uleb128 0x12
 2003 03de F3020000 		.4byte	.LASF47
 2004 03e2 01       		.byte	0x1
 2005 03e3 7C02     		.2byte	0x27c
 2006 03e5 0F030000 		.4byte	0x30f
 2007 03e9 2F010000 		.4byte	.LLST10
 2008 03ed 12       		.uleb128 0x12
 2009 03ee C4070000 		.4byte	.LASF57
 2010 03f2 01       		.byte	0x1
 2011 03f3 7D02     		.2byte	0x27d
 2012 03f5 DD000000 		.4byte	0xdd
 2013 03f9 63010000 		.4byte	.LLST11
 2014 03fd 12       		.uleb128 0x12
 2015 03fe 60010000 		.4byte	.LASF58
 2016 0402 01       		.byte	0x1
 2017 0403 7E02     		.2byte	0x27e
 2018 0405 AD000000 		.4byte	0xad
 2019 0409 97010000 		.4byte	.LLST12
 2020 040d 12       		.uleb128 0x12
 2021 040e 64050000 		.4byte	.LASF59
 2022 0412 01       		.byte	0x1
 2023 0413 7F02     		.2byte	0x27f
 2024 0415 AD000000 		.4byte	0xad
 2025 0419 F2010000 		.4byte	.LLST13
 2026 041d 16       		.uleb128 0x16
 2027 041e 4F020000 		.4byte	.LASF60
 2028 0422 01       		.byte	0x1
 2029 0423 8002     		.2byte	0x280
 2030 0425 AD000000 		.4byte	0xad
 2031 0429 02       		.uleb128 0x2
 2032 042a 91       		.byte	0x91
 2033 042b 00       		.sleb128 0
 2034 042c 13       		.uleb128 0x13
 2035 042d 00000000 		.4byte	.LASF61
 2036 0431 01       		.byte	0x1
 2037 0432 8202     		.2byte	0x282
 2038 0434 E4000000 		.4byte	0xe4
 2039 0438 69020000 		.4byte	.LLST14
 2040 043c 13       		.uleb128 0x13
 2041 043d 8F060000 		.4byte	.LASF62
 2042 0441 01       		.byte	0x1
 2043 0442 8302     		.2byte	0x283
 2044 0444 AD000000 		.4byte	0xad
 2045 0448 9F020000 		.4byte	.LLST15
 2046 044c 1A       		.uleb128 0x1a
 2047 044d 34000000 		.4byte	.LVL29
 2048 0451 19030000 		.4byte	0x319
 2049 0455 65040000 		.4byte	0x465
ARM GAS  C:\Users\Tri94\AppData\Local\Temp\ccHaJcja.s 			page 65


 2050 0459 18       		.uleb128 0x18
 2051 045a 01       		.uleb128 0x1
 2052 045b 51       		.byte	0x51
 2053 045c 02       		.uleb128 0x2
 2054 045d 91       		.byte	0x91
 2055 045e 6C       		.sleb128 -20
 2056 045f 18       		.uleb128 0x18
 2057 0460 01       		.uleb128 0x1
 2058 0461 52       		.byte	0x52
 2059 0462 01       		.uleb128 0x1
 2060 0463 34       		.byte	0x34
 2061 0464 00       		.byte	0
 2062 0465 17       		.uleb128 0x17
 2063 0466 4A000000 		.4byte	.LVL34
 2064 046a 19030000 		.4byte	0x319
 2065 046e 18       		.uleb128 0x18
 2066 046f 01       		.uleb128 0x1
 2067 0470 50       		.byte	0x50
 2068 0471 02       		.uleb128 0x2
 2069 0472 74       		.byte	0x74
 2070 0473 00       		.sleb128 0
 2071 0474 18       		.uleb128 0x18
 2072 0475 01       		.uleb128 0x1
 2073 0476 51       		.byte	0x51
 2074 0477 02       		.uleb128 0x2
 2075 0478 75       		.byte	0x75
 2076 0479 00       		.sleb128 0
 2077 047a 00       		.byte	0
 2078 047b 00       		.byte	0
 2079 047c 11       		.uleb128 0x11
 2080 047d DF000000 		.4byte	.LASF63
 2081 0481 01       		.byte	0x1
 2082 0482 2704     		.2byte	0x427
 2083 0484 AD000000 		.4byte	0xad
 2084 0488 00000000 		.4byte	.LFB86
 2085 048c 4C000000 		.4byte	.LFE86-.LFB86
 2086 0490 01       		.uleb128 0x1
 2087 0491 9C       		.byte	0x9c
 2088 0492 3D050000 		.4byte	0x53d
 2089 0496 12       		.uleb128 0x12
 2090 0497 F3020000 		.4byte	.LASF47
 2091 049b 01       		.byte	0x1
 2092 049c 2704     		.2byte	0x427
 2093 049e 09030000 		.4byte	0x309
 2094 04a2 BD020000 		.4byte	.LLST16
 2095 04a6 12       		.uleb128 0x12
 2096 04a7 A0070000 		.4byte	.LASF52
 2097 04ab 01       		.byte	0x1
 2098 04ac 2704     		.2byte	0x427
 2099 04ae 05010000 		.4byte	0x105
 2100 04b2 E9020000 		.4byte	.LLST17
 2101 04b6 12       		.uleb128 0x12
 2102 04b7 EA010000 		.4byte	.LASF64
 2103 04bb 01       		.byte	0x1
 2104 04bc 2704     		.2byte	0x427
 2105 04be AD000000 		.4byte	0xad
 2106 04c2 15030000 		.4byte	.LLST18
ARM GAS  C:\Users\Tri94\AppData\Local\Temp\ccHaJcja.s 			page 66


 2107 04c6 12       		.uleb128 0x12
 2108 04c7 28010000 		.4byte	.LASF65
 2109 04cb 01       		.byte	0x1
 2110 04cc 2704     		.2byte	0x427
 2111 04ce AD000000 		.4byte	0xad
 2112 04d2 36030000 		.4byte	.LLST19
 2113 04d6 13       		.uleb128 0x13
 2114 04d7 64000000 		.4byte	.LASF53
 2115 04db 01       		.byte	0x1
 2116 04dc 2904     		.2byte	0x429
 2117 04de AD000000 		.4byte	0xad
 2118 04e2 57030000 		.4byte	.LLST20
 2119 04e6 13       		.uleb128 0x13
 2120 04e7 95010000 		.4byte	.LASF55
 2121 04eb 01       		.byte	0x1
 2122 04ec 2904     		.2byte	0x429
 2123 04ee AD000000 		.4byte	0xad
 2124 04f2 75030000 		.4byte	.LLST21
 2125 04f6 13       		.uleb128 0x13
 2126 04f7 B1060000 		.4byte	.LASF66
 2127 04fb 01       		.byte	0x1
 2128 04fc 2904     		.2byte	0x429
 2129 04fe AD000000 		.4byte	0xad
 2130 0502 88030000 		.4byte	.LLST22
 2131 0506 1A       		.uleb128 0x1a
 2132 0507 2A000000 		.4byte	.LVL45
 2133 050b F2100000 		.4byte	0x10f2
 2134 050f 20050000 		.4byte	0x520
 2135 0513 18       		.uleb128 0x18
 2136 0514 01       		.uleb128 0x1
 2137 0515 50       		.byte	0x50
 2138 0516 02       		.uleb128 0x2
 2139 0517 78       		.byte	0x78
 2140 0518 00       		.sleb128 0
 2141 0519 18       		.uleb128 0x18
 2142 051a 01       		.uleb128 0x1
 2143 051b 52       		.byte	0x52
 2144 051c 02       		.uleb128 0x2
 2145 051d 77       		.byte	0x77
 2146 051e 00       		.sleb128 0
 2147 051f 00       		.byte	0
 2148 0520 17       		.uleb128 0x17
 2149 0521 3A000000 		.4byte	.LVL46
 2150 0525 F2100000 		.4byte	0x10f2
 2151 0529 18       		.uleb128 0x18
 2152 052a 01       		.uleb128 0x1
 2153 052b 50       		.byte	0x50
 2154 052c 05       		.uleb128 0x5
 2155 052d 78       		.byte	0x78
 2156 052e 00       		.sleb128 0
 2157 052f 77       		.byte	0x77
 2158 0530 00       		.sleb128 0
 2159 0531 22       		.byte	0x22
 2160 0532 18       		.uleb128 0x18
 2161 0533 01       		.uleb128 0x1
 2162 0534 52       		.byte	0x52
 2163 0535 05       		.uleb128 0x5
ARM GAS  C:\Users\Tri94\AppData\Local\Temp\ccHaJcja.s 			page 67


 2164 0536 74       		.byte	0x74
 2165 0537 00       		.sleb128 0
 2166 0538 77       		.byte	0x77
 2167 0539 00       		.sleb128 0
 2168 053a 1C       		.byte	0x1c
 2169 053b 00       		.byte	0
 2170 053c 00       		.byte	0
 2171 053d 11       		.uleb128 0x11
 2172 053e E8030000 		.4byte	.LASF67
 2173 0542 01       		.byte	0x1
 2174 0543 5103     		.2byte	0x351
 2175 0545 AD000000 		.4byte	0xad
 2176 0549 00000000 		.4byte	.LFB80
 2177 054d 44000000 		.4byte	.LFE80-.LFB80
 2178 0551 01       		.uleb128 0x1
 2179 0552 9C       		.byte	0x9c
 2180 0553 16060000 		.4byte	0x616
 2181 0557 12       		.uleb128 0x12
 2182 0558 F3020000 		.4byte	.LASF47
 2183 055c 01       		.byte	0x1
 2184 055d 5103     		.2byte	0x351
 2185 055f 09030000 		.4byte	0x309
 2186 0563 9B030000 		.4byte	.LLST23
 2187 0567 12       		.uleb128 0x12
 2188 0568 1A030000 		.4byte	.LASF68
 2189 056c 01       		.byte	0x1
 2190 056d 5203     		.2byte	0x352
 2191 056f C6000000 		.4byte	0xc6
 2192 0573 CF030000 		.4byte	.LLST24
 2193 0577 12       		.uleb128 0x12
 2194 0578 0D000000 		.4byte	.LASF69
 2195 057c 01       		.byte	0x1
 2196 057d 5303     		.2byte	0x353
 2197 057f AD000000 		.4byte	0xad
 2198 0583 03040000 		.4byte	.LLST25
 2199 0587 12       		.uleb128 0x12
 2200 0588 28010000 		.4byte	.LASF65
 2201 058c 01       		.byte	0x1
 2202 058d 5403     		.2byte	0x354
 2203 058f AD000000 		.4byte	0xad
 2204 0593 37040000 		.4byte	.LLST26
 2205 0597 16       		.uleb128 0x16
 2206 0598 90050000 		.4byte	.LASF70
 2207 059c 01       		.byte	0x1
 2208 059d 5503     		.2byte	0x355
 2209 059f AD000000 		.4byte	0xad
 2210 05a3 02       		.uleb128 0x2
 2211 05a4 91       		.byte	0x91
 2212 05a5 00       		.sleb128 0
 2213 05a6 13       		.uleb128 0x13
 2214 05a7 DD060000 		.4byte	.LASF71
 2215 05ab 01       		.byte	0x1
 2216 05ac 5703     		.2byte	0x357
 2217 05ae AD000000 		.4byte	0xad
 2218 05b2 6B040000 		.4byte	.LLST27
 2219 05b6 19       		.uleb128 0x19
 2220 05b7 DA010000 		.4byte	.LASF72
ARM GAS  C:\Users\Tri94\AppData\Local\Temp\ccHaJcja.s 			page 68


 2221 05bb 01       		.byte	0x1
 2222 05bc 5703     		.2byte	0x357
 2223 05be AD000000 		.4byte	0xad
 2224 05c2 01       		.uleb128 0x1
 2225 05c3 50       		.byte	0x50
 2226 05c4 19       		.uleb128 0x19
 2227 05c5 38010000 		.4byte	.LASF73
 2228 05c9 01       		.byte	0x1
 2229 05ca 5703     		.2byte	0x357
 2230 05cc AD000000 		.4byte	0xad
 2231 05d0 02       		.uleb128 0x2
 2232 05d1 91       		.byte	0x91
 2233 05d2 5C       		.sleb128 -36
 2234 05d3 1A       		.uleb128 0x1a
 2235 05d4 1E000000 		.4byte	.LVL54
 2236 05d8 7C040000 		.4byte	0x47c
 2237 05dc F9050000 		.4byte	0x5f9
 2238 05e0 18       		.uleb128 0x18
 2239 05e1 01       		.uleb128 0x1
 2240 05e2 50       		.byte	0x50
 2241 05e3 02       		.uleb128 0x2
 2242 05e4 75       		.byte	0x75
 2243 05e5 00       		.sleb128 0
 2244 05e6 18       		.uleb128 0x18
 2245 05e7 01       		.uleb128 0x1
 2246 05e8 51       		.byte	0x51
 2247 05e9 02       		.uleb128 0x2
 2248 05ea 91       		.byte	0x91
 2249 05eb 5C       		.sleb128 -36
 2250 05ec 18       		.uleb128 0x18
 2251 05ed 01       		.uleb128 0x1
 2252 05ee 52       		.byte	0x52
 2253 05ef 02       		.uleb128 0x2
 2254 05f0 76       		.byte	0x76
 2255 05f1 00       		.sleb128 0
 2256 05f2 18       		.uleb128 0x18
 2257 05f3 01       		.uleb128 0x1
 2258 05f4 53       		.byte	0x53
 2259 05f5 02       		.uleb128 0x2
 2260 05f6 74       		.byte	0x74
 2261 05f7 00       		.sleb128 0
 2262 05f8 00       		.byte	0
 2263 05f9 17       		.uleb128 0x17
 2264 05fa 3E000000 		.4byte	.LVL58
 2265 05fe 7C040000 		.4byte	0x47c
 2266 0602 18       		.uleb128 0x18
 2267 0603 01       		.uleb128 0x1
 2268 0604 50       		.byte	0x50
 2269 0605 02       		.uleb128 0x2
 2270 0606 75       		.byte	0x75
 2271 0607 00       		.sleb128 0
 2272 0608 18       		.uleb128 0x18
 2273 0609 01       		.uleb128 0x1
 2274 060a 51       		.byte	0x51
 2275 060b 02       		.uleb128 0x2
 2276 060c 77       		.byte	0x77
 2277 060d 00       		.sleb128 0
ARM GAS  C:\Users\Tri94\AppData\Local\Temp\ccHaJcja.s 			page 69


 2278 060e 18       		.uleb128 0x18
 2279 060f 01       		.uleb128 0x1
 2280 0610 53       		.byte	0x53
 2281 0611 02       		.uleb128 0x2
 2282 0612 74       		.byte	0x74
 2283 0613 00       		.sleb128 0
 2284 0614 00       		.byte	0
 2285 0615 00       		.byte	0
 2286 0616 1B       		.uleb128 0x1b
 2287 0617 3C000000 		.4byte	.LASF76
 2288 061b 01       		.byte	0x1
 2289 061c D8       		.byte	0xd8
 2290 061d 71010000 		.4byte	0x171
 2291 0621 00000000 		.4byte	.LFB69
 2292 0625 2C000000 		.4byte	.LFE69-.LFB69
 2293 0629 01       		.uleb128 0x1
 2294 062a 9C       		.byte	0x9c
 2295 062b A9060000 		.4byte	0x6a9
 2296 062f 1C       		.uleb128 0x1c
 2297 0630 55030000 		.4byte	.LASF48
 2298 0634 01       		.byte	0x1
 2299 0635 D8       		.byte	0xd8
 2300 0636 AD000000 		.4byte	0xad
 2301 063a 7E040000 		.4byte	.LLST28
 2302 063e 1C       		.uleb128 0x1c
 2303 063f 42050000 		.4byte	.LASF39
 2304 0643 01       		.byte	0x1
 2305 0644 D8       		.byte	0xd8
 2306 0645 AD000000 		.4byte	0xad
 2307 0649 9C040000 		.4byte	.LLST29
 2308 064d 1C       		.uleb128 0x1c
 2309 064e 0E050000 		.4byte	.LASF49
 2310 0652 01       		.byte	0x1
 2311 0653 D8       		.byte	0xd8
 2312 0654 E4000000 		.4byte	0xe4
 2313 0658 BA040000 		.4byte	.LLST30
 2314 065c 1D       		.uleb128 0x1d
 2315 065d E0020000 		.4byte	.LASF74
 2316 0661 01       		.byte	0x1
 2317 0662 DA       		.byte	0xda
 2318 0663 05010000 		.4byte	0x105
 2319 0667 D8040000 		.4byte	.LLST31
 2320 066b 1A       		.uleb128 0x1a
 2321 066c 14000000 		.4byte	.LVL62
 2322 0670 FB100000 		.4byte	0x10fb
 2323 0674 7F060000 		.4byte	0x67f
 2324 0678 18       		.uleb128 0x18
 2325 0679 01       		.uleb128 0x1
 2326 067a 50       		.byte	0x50
 2327 067b 02       		.uleb128 0x2
 2328 067c 76       		.byte	0x76
 2329 067d 20       		.sleb128 32
 2330 067e 00       		.byte	0
 2331 067f 17       		.uleb128 0x17
 2332 0680 26000000 		.4byte	.LVL63
 2333 0684 88020000 		.4byte	0x288
 2334 0688 18       		.uleb128 0x18
ARM GAS  C:\Users\Tri94\AppData\Local\Temp\ccHaJcja.s 			page 70


 2335 0689 01       		.uleb128 0x1
 2336 068a 50       		.byte	0x50
 2337 068b 02       		.uleb128 0x2
 2338 068c 74       		.byte	0x74
 2339 068d 00       		.sleb128 0
 2340 068e 18       		.uleb128 0x18
 2341 068f 01       		.uleb128 0x1
 2342 0690 51       		.byte	0x51
 2343 0691 02       		.uleb128 0x2
 2344 0692 74       		.byte	0x74
 2345 0693 20       		.sleb128 32
 2346 0694 18       		.uleb128 0x18
 2347 0695 01       		.uleb128 0x1
 2348 0696 52       		.byte	0x52
 2349 0697 02       		.uleb128 0x2
 2350 0698 76       		.byte	0x76
 2351 0699 00       		.sleb128 0
 2352 069a 18       		.uleb128 0x18
 2353 069b 01       		.uleb128 0x1
 2354 069c 53       		.byte	0x53
 2355 069d 02       		.uleb128 0x2
 2356 069e 75       		.byte	0x75
 2357 069f 00       		.sleb128 0
 2358 06a0 18       		.uleb128 0x18
 2359 06a1 02       		.uleb128 0x2
 2360 06a2 7D       		.byte	0x7d
 2361 06a3 00       		.sleb128 0
 2362 06a4 02       		.uleb128 0x2
 2363 06a5 77       		.byte	0x77
 2364 06a6 00       		.sleb128 0
 2365 06a7 00       		.byte	0
 2366 06a8 00       		.byte	0
 2367 06a9 1E       		.uleb128 0x1e
 2368 06aa 6B000000 		.4byte	.LASF116
 2369 06ae 01       		.byte	0x1
 2370 06af 4C01     		.2byte	0x14c
 2371 06b1 00000000 		.4byte	.LFB70
 2372 06b5 1A000000 		.4byte	.LFE70-.LFB70
 2373 06b9 01       		.uleb128 0x1
 2374 06ba 9C       		.byte	0x9c
 2375 06bb 0A070000 		.4byte	0x70a
 2376 06bf 12       		.uleb128 0x12
 2377 06c0 10020000 		.4byte	.LASF75
 2378 06c4 01       		.byte	0x1
 2379 06c5 4C01     		.2byte	0x14c
 2380 06c7 71010000 		.4byte	0x171
 2381 06cb F6040000 		.4byte	.LLST32
 2382 06cf 13       		.uleb128 0x13
 2383 06d0 F3020000 		.4byte	.LASF47
 2384 06d4 01       		.byte	0x1
 2385 06d5 4E01     		.2byte	0x14e
 2386 06d7 09030000 		.4byte	0x309
 2387 06db 30050000 		.4byte	.LLST33
 2388 06df 1A       		.uleb128 0x1a
 2389 06e0 0E000000 		.4byte	.LVL66
 2390 06e4 06110000 		.4byte	0x1106
 2391 06e8 F4060000 		.4byte	0x6f4
ARM GAS  C:\Users\Tri94\AppData\Local\Temp\ccHaJcja.s 			page 71


 2392 06ec 18       		.uleb128 0x18
 2393 06ed 01       		.uleb128 0x1
 2394 06ee 50       		.byte	0x50
 2395 06ef 03       		.uleb128 0x3
 2396 06f0 F3       		.byte	0xf3
 2397 06f1 01       		.uleb128 0x1
 2398 06f2 50       		.byte	0x50
 2399 06f3 00       		.byte	0
 2400 06f4 17       		.uleb128 0x17
 2401 06f5 18000000 		.4byte	.LVL68
 2402 06f9 E9100000 		.4byte	0x10e9
 2403 06fd 18       		.uleb128 0x18
 2404 06fe 01       		.uleb128 0x1
 2405 06ff 51       		.byte	0x51
 2406 0700 01       		.uleb128 0x1
 2407 0701 30       		.byte	0x30
 2408 0702 18       		.uleb128 0x18
 2409 0703 01       		.uleb128 0x1
 2410 0704 52       		.byte	0x52
 2411 0705 02       		.uleb128 0x2
 2412 0706 08       		.byte	0x8
 2413 0707 20       		.byte	0x20
 2414 0708 00       		.byte	0
 2415 0709 00       		.byte	0
 2416 070a 1F       		.uleb128 0x1f
 2417 070b 6B050000 		.4byte	.LASF77
 2418 070f 01       		.byte	0x1
 2419 0710 6D01     		.2byte	0x16d
 2420 0712 E4000000 		.4byte	0xe4
 2421 0716 00000000 		.4byte	.LFB71
 2422 071a 38000000 		.4byte	.LFE71-.LFB71
 2423 071e 01       		.uleb128 0x1
 2424 071f 9C       		.byte	0x9c
 2425 0720 76070000 		.4byte	0x776
 2426 0724 12       		.uleb128 0x12
 2427 0725 10020000 		.4byte	.LASF75
 2428 0729 01       		.byte	0x1
 2429 072a 6D01     		.2byte	0x16d
 2430 072c 71010000 		.4byte	0x171
 2431 0730 6A050000 		.4byte	.LLST34
 2432 0734 13       		.uleb128 0x13
 2433 0735 F3020000 		.4byte	.LASF47
 2434 0739 01       		.byte	0x1
 2435 073a 6F01     		.2byte	0x16f
 2436 073c 0F030000 		.4byte	0x30f
 2437 0740 BD050000 		.4byte	.LLST35
 2438 0744 13       		.uleb128 0x13
 2439 0745 8F060000 		.4byte	.LASF62
 2440 0749 01       		.byte	0x1
 2441 074a 7001     		.2byte	0x170
 2442 074c E4000000 		.4byte	0xe4
 2443 0750 10060000 		.4byte	.LLST36
 2444 0754 13       		.uleb128 0x13
 2445 0755 0E050000 		.4byte	.LASF49
 2446 0759 01       		.byte	0x1
 2447 075a 7001     		.2byte	0x170
 2448 075c E4000000 		.4byte	0xe4
ARM GAS  C:\Users\Tri94\AppData\Local\Temp\ccHaJcja.s 			page 72


 2449 0760 47060000 		.4byte	.LLST37
 2450 0764 17       		.uleb128 0x17
 2451 0765 26000000 		.4byte	.LVL72
 2452 0769 88020000 		.4byte	0x288
 2453 076d 18       		.uleb128 0x18
 2454 076e 01       		.uleb128 0x1
 2455 076f 50       		.byte	0x50
 2456 0770 03       		.uleb128 0x3
 2457 0771 F3       		.byte	0xf3
 2458 0772 01       		.uleb128 0x1
 2459 0773 50       		.byte	0x50
 2460 0774 00       		.byte	0
 2461 0775 00       		.byte	0
 2462 0776 1F       		.uleb128 0x1f
 2463 0777 75030000 		.4byte	.LASF78
 2464 077b 01       		.byte	0x1
 2465 077c A301     		.2byte	0x1a3
 2466 077e E4000000 		.4byte	0xe4
 2467 0782 00000000 		.4byte	.LFB72
 2468 0786 16000000 		.4byte	.LFE72-.LFB72
 2469 078a 01       		.uleb128 0x1
 2470 078b 9C       		.byte	0x9c
 2471 078c D1070000 		.4byte	0x7d1
 2472 0790 12       		.uleb128 0x12
 2473 0791 10020000 		.4byte	.LASF75
 2474 0795 01       		.byte	0x1
 2475 0796 A301     		.2byte	0x1a3
 2476 0798 71010000 		.4byte	0x171
 2477 079c 66060000 		.4byte	.LLST38
 2478 07a0 12       		.uleb128 0x12
 2479 07a1 9E020000 		.4byte	.LASF79
 2480 07a5 01       		.byte	0x1
 2481 07a6 A301     		.2byte	0x1a3
 2482 07a8 AD000000 		.4byte	0xad
 2483 07ac A0060000 		.4byte	.LLST39
 2484 07b0 13       		.uleb128 0x13
 2485 07b1 F3020000 		.4byte	.LASF47
 2486 07b5 01       		.byte	0x1
 2487 07b6 A501     		.2byte	0x1a5
 2488 07b8 0F030000 		.4byte	0x30f
 2489 07bc BE060000 		.4byte	.LLST40
 2490 07c0 13       		.uleb128 0x13
 2491 07c1 8F060000 		.4byte	.LASF62
 2492 07c5 01       		.byte	0x1
 2493 07c6 A601     		.2byte	0x1a6
 2494 07c8 E4000000 		.4byte	0xe4
 2495 07cc F8060000 		.4byte	.LLST41
 2496 07d0 00       		.byte	0
 2497 07d1 1F       		.uleb128 0x1f
 2498 07d2 B4030000 		.4byte	.LASF80
 2499 07d6 01       		.byte	0x1
 2500 07d7 C001     		.2byte	0x1c0
 2501 07d9 AD000000 		.4byte	0xad
 2502 07dd 00000000 		.4byte	.LFB73
 2503 07e1 14000000 		.4byte	.LFE73-.LFB73
 2504 07e5 01       		.uleb128 0x1
 2505 07e6 9C       		.byte	0x9c
ARM GAS  C:\Users\Tri94\AppData\Local\Temp\ccHaJcja.s 			page 73


 2506 07e7 1C080000 		.4byte	0x81c
 2507 07eb 12       		.uleb128 0x12
 2508 07ec 10020000 		.4byte	.LASF75
 2509 07f0 01       		.byte	0x1
 2510 07f1 C001     		.2byte	0x1c0
 2511 07f3 71010000 		.4byte	0x171
 2512 07f7 17070000 		.4byte	.LLST42
 2513 07fb 13       		.uleb128 0x13
 2514 07fc F3020000 		.4byte	.LASF47
 2515 0800 01       		.byte	0x1
 2516 0801 C201     		.2byte	0x1c2
 2517 0803 83020000 		.4byte	0x283
 2518 0807 38070000 		.4byte	.LLST43
 2519 080b 13       		.uleb128 0x13
 2520 080c 64050000 		.4byte	.LASF59
 2521 0810 01       		.byte	0x1
 2522 0811 C301     		.2byte	0x1c3
 2523 0813 AD000000 		.4byte	0xad
 2524 0817 59070000 		.4byte	.LLST44
 2525 081b 00       		.byte	0
 2526 081c 1F       		.uleb128 0x1f
 2527 081d A8070000 		.4byte	.LASF81
 2528 0821 01       		.byte	0x1
 2529 0822 D801     		.2byte	0x1d8
 2530 0824 AD000000 		.4byte	0xad
 2531 0828 00000000 		.4byte	.LFB74
 2532 082c 08000000 		.4byte	.LFE74-.LFB74
 2533 0830 01       		.uleb128 0x1
 2534 0831 9C       		.byte	0x9c
 2535 0832 76080000 		.4byte	0x876
 2536 0836 12       		.uleb128 0x12
 2537 0837 10020000 		.4byte	.LASF75
 2538 083b 01       		.byte	0x1
 2539 083c D801     		.2byte	0x1d8
 2540 083e 71010000 		.4byte	0x171
 2541 0842 77070000 		.4byte	.LLST45
 2542 0846 13       		.uleb128 0x13
 2543 0847 F3020000 		.4byte	.LASF47
 2544 084b 01       		.byte	0x1
 2545 084c DA01     		.2byte	0x1da
 2546 084e 83020000 		.4byte	0x283
 2547 0852 98070000 		.4byte	.LLST46
 2548 0856 19       		.uleb128 0x19
 2549 0857 8F060000 		.4byte	.LASF62
 2550 085b 01       		.byte	0x1
 2551 085c DB01     		.2byte	0x1db
 2552 085e AD000000 		.4byte	0xad
 2553 0862 01       		.uleb128 0x1
 2554 0863 50       		.byte	0x50
 2555 0864 17       		.uleb128 0x17
 2556 0865 06000000 		.4byte	.LVL92
 2557 0869 3D020000 		.4byte	0x23d
 2558 086d 18       		.uleb128 0x18
 2559 086e 01       		.uleb128 0x1
 2560 086f 50       		.byte	0x50
 2561 0870 03       		.uleb128 0x3
 2562 0871 F3       		.byte	0xf3
ARM GAS  C:\Users\Tri94\AppData\Local\Temp\ccHaJcja.s 			page 74


 2563 0872 01       		.uleb128 0x1
 2564 0873 50       		.byte	0x50
 2565 0874 00       		.byte	0
 2566 0875 00       		.byte	0
 2567 0876 1F       		.uleb128 0x1f
 2568 0877 81040000 		.4byte	.LASF82
 2569 087b 01       		.byte	0x1
 2570 087c E401     		.2byte	0x1e4
 2571 087e AD000000 		.4byte	0xad
 2572 0882 00000000 		.4byte	.LFB75
 2573 0886 BE000000 		.4byte	.LFE75-.LFB75
 2574 088a 01       		.uleb128 0x1
 2575 088b 9C       		.byte	0x9c
 2576 088c 3B0A0000 		.4byte	0xa3b
 2577 0890 12       		.uleb128 0x12
 2578 0891 10020000 		.4byte	.LASF75
 2579 0895 01       		.byte	0x1
 2580 0896 E401     		.2byte	0x1e4
 2581 0898 71010000 		.4byte	0x171
 2582 089c B9070000 		.4byte	.LLST47
 2583 08a0 12       		.uleb128 0x12
 2584 08a1 C4070000 		.4byte	.LASF57
 2585 08a5 01       		.byte	0x1
 2586 08a6 E501     		.2byte	0x1e5
 2587 08a8 DD000000 		.4byte	0xdd
 2588 08ac ED070000 		.4byte	.LLST48
 2589 08b0 12       		.uleb128 0x12
 2590 08b1 60010000 		.4byte	.LASF58
 2591 08b5 01       		.byte	0x1
 2592 08b6 E601     		.2byte	0x1e6
 2593 08b8 AD000000 		.4byte	0xad
 2594 08bc 21080000 		.4byte	.LLST49
 2595 08c0 12       		.uleb128 0x12
 2596 08c1 34020000 		.4byte	.LASF83
 2597 08c5 01       		.byte	0x1
 2598 08c6 E701     		.2byte	0x1e7
 2599 08c8 FA000000 		.4byte	0xfa
 2600 08cc 55080000 		.4byte	.LLST50
 2601 08d0 13       		.uleb128 0x13
 2602 08d1 F3020000 		.4byte	.LASF47
 2603 08d5 01       		.byte	0x1
 2604 08d6 E901     		.2byte	0x1e9
 2605 08d8 0F030000 		.4byte	0x30f
 2606 08dc 74080000 		.4byte	.LLST51
 2607 08e0 13       		.uleb128 0x13
 2608 08e1 8F060000 		.4byte	.LASF62
 2609 08e5 01       		.byte	0x1
 2610 08e6 EA01     		.2byte	0x1ea
 2611 08e8 AD000000 		.4byte	0xad
 2612 08ec A8080000 		.4byte	.LLST52
 2613 08f0 13       		.uleb128 0x13
 2614 08f1 64050000 		.4byte	.LASF59
 2615 08f5 01       		.byte	0x1
 2616 08f6 EA01     		.2byte	0x1ea
 2617 08f8 AD000000 		.4byte	0xad
 2618 08fc C6080000 		.4byte	.LLST53
 2619 0900 13       		.uleb128 0x13
ARM GAS  C:\Users\Tri94\AppData\Local\Temp\ccHaJcja.s 			page 75


 2620 0901 4F020000 		.4byte	.LASF60
 2621 0905 01       		.byte	0x1
 2622 0906 EB01     		.2byte	0x1eb
 2623 0908 AD000000 		.4byte	0xad
 2624 090c 1D090000 		.4byte	.LLST54
 2625 0910 19       		.uleb128 0x19
 2626 0911 A2010000 		.4byte	.LASF84
 2627 0915 01       		.byte	0x1
 2628 0916 EC01     		.2byte	0x1ec
 2629 0918 66010000 		.4byte	0x166
 2630 091c 02       		.uleb128 0x2
 2631 091d 91       		.byte	0x91
 2632 091e 58       		.sleb128 -40
 2633 091f 1A       		.uleb128 0x1a
 2634 0920 26000000 		.4byte	.LVL100
 2635 0924 11110000 		.4byte	0x1111
 2636 0928 33090000 		.4byte	0x933
 2637 092c 18       		.uleb128 0x18
 2638 092d 01       		.uleb128 0x1
 2639 092e 50       		.byte	0x50
 2640 092f 02       		.uleb128 0x2
 2641 0930 91       		.byte	0x91
 2642 0931 58       		.sleb128 -40
 2643 0932 00       		.byte	0
 2644 0933 20       		.uleb128 0x20
 2645 0934 2A000000 		.4byte	.LVL101
 2646 0938 1D110000 		.4byte	0x111d
 2647 093c 1A       		.uleb128 0x1a
 2648 093d 30000000 		.4byte	.LVL102
 2649 0941 D1070000 		.4byte	0x7d1
 2650 0945 50090000 		.4byte	0x950
 2651 0949 18       		.uleb128 0x18
 2652 094a 01       		.uleb128 0x1
 2653 094b 50       		.byte	0x50
 2654 094c 02       		.uleb128 0x2
 2655 094d 74       		.byte	0x74
 2656 094e 00       		.sleb128 0
 2657 094f 00       		.byte	0
 2658 0950 1A       		.uleb128 0x1a
 2659 0951 3C000000 		.4byte	.LVL105
 2660 0955 28110000 		.4byte	0x1128
 2661 0959 63090000 		.4byte	0x963
 2662 095d 18       		.uleb128 0x18
 2663 095e 01       		.uleb128 0x1
 2664 095f 50       		.byte	0x50
 2665 0960 01       		.uleb128 0x1
 2666 0961 30       		.byte	0x30
 2667 0962 00       		.byte	0
 2668 0963 20       		.uleb128 0x20
 2669 0964 40000000 		.4byte	.LVL106
 2670 0968 34110000 		.4byte	0x1134
 2671 096c 20       		.uleb128 0x20
 2672 096d 46000000 		.4byte	.LVL107
 2673 0971 40110000 		.4byte	0x1140
 2674 0975 1A       		.uleb128 0x1a
 2675 0976 58000000 		.4byte	.LVL108
 2676 097a 4B110000 		.4byte	0x114b
ARM GAS  C:\Users\Tri94\AppData\Local\Temp\ccHaJcja.s 			page 76


 2677 097e 93090000 		.4byte	0x993
 2678 0982 18       		.uleb128 0x18
 2679 0983 01       		.uleb128 0x1
 2680 0984 50       		.byte	0x50
 2681 0985 01       		.uleb128 0x1
 2682 0986 30       		.byte	0x30
 2683 0987 18       		.uleb128 0x18
 2684 0988 01       		.uleb128 0x1
 2685 0989 51       		.byte	0x51
 2686 098a 02       		.uleb128 0x2
 2687 098b 09       		.byte	0x9
 2688 098c FF       		.byte	0xff
 2689 098d 18       		.uleb128 0x18
 2690 098e 01       		.uleb128 0x1
 2691 098f 52       		.byte	0x52
 2692 0990 01       		.uleb128 0x1
 2693 0991 30       		.byte	0x30
 2694 0992 00       		.byte	0
 2695 0993 1A       		.uleb128 0x1a
 2696 0994 64000000 		.4byte	.LVL109
 2697 0998 57110000 		.4byte	0x1157
 2698 099c AD090000 		.4byte	0x9ad
 2699 09a0 18       		.uleb128 0x18
 2700 09a1 01       		.uleb128 0x1
 2701 09a2 50       		.byte	0x50
 2702 09a3 02       		.uleb128 0x2
 2703 09a4 91       		.byte	0x91
 2704 09a5 58       		.sleb128 -40
 2705 09a6 18       		.uleb128 0x18
 2706 09a7 01       		.uleb128 0x1
 2707 09a8 51       		.byte	0x51
 2708 09a9 02       		.uleb128 0x2
 2709 09aa 75       		.byte	0x75
 2710 09ab 00       		.sleb128 0
 2711 09ac 00       		.byte	0
 2712 09ad 20       		.uleb128 0x20
 2713 09ae 6E000000 		.4byte	.LVL111
 2714 09b2 40110000 		.4byte	0x1140
 2715 09b6 1A       		.uleb128 0x1a
 2716 09b7 7A000000 		.4byte	.LVL114
 2717 09bb D1070000 		.4byte	0x7d1
 2718 09bf CA090000 		.4byte	0x9ca
 2719 09c3 18       		.uleb128 0x18
 2720 09c4 01       		.uleb128 0x1
 2721 09c5 50       		.byte	0x50
 2722 09c6 02       		.uleb128 0x2
 2723 09c7 74       		.byte	0x74
 2724 09c8 00       		.sleb128 0
 2725 09c9 00       		.byte	0
 2726 09ca 1A       		.uleb128 0x1a
 2727 09cb 8A000000 		.4byte	.LVL116
 2728 09cf C3030000 		.4byte	0x3c3
 2729 09d3 F7090000 		.4byte	0x9f7
 2730 09d7 18       		.uleb128 0x18
 2731 09d8 01       		.uleb128 0x1
 2732 09d9 50       		.byte	0x50
 2733 09da 02       		.uleb128 0x2
ARM GAS  C:\Users\Tri94\AppData\Local\Temp\ccHaJcja.s 			page 77


 2734 09db 74       		.byte	0x74
 2735 09dc 00       		.sleb128 0
 2736 09dd 18       		.uleb128 0x18
 2737 09de 01       		.uleb128 0x1
 2738 09df 51       		.byte	0x51
 2739 09e0 02       		.uleb128 0x2
 2740 09e1 79       		.byte	0x79
 2741 09e2 00       		.sleb128 0
 2742 09e3 18       		.uleb128 0x18
 2743 09e4 01       		.uleb128 0x1
 2744 09e5 52       		.byte	0x52
 2745 09e6 02       		.uleb128 0x2
 2746 09e7 78       		.byte	0x78
 2747 09e8 00       		.sleb128 0
 2748 09e9 18       		.uleb128 0x18
 2749 09ea 01       		.uleb128 0x1
 2750 09eb 53       		.byte	0x53
 2751 09ec 02       		.uleb128 0x2
 2752 09ed 76       		.byte	0x76
 2753 09ee 00       		.sleb128 0
 2754 09ef 18       		.uleb128 0x18
 2755 09f0 02       		.uleb128 0x2
 2756 09f1 7D       		.byte	0x7d
 2757 09f2 00       		.sleb128 0
 2758 09f3 02       		.uleb128 0x2
 2759 09f4 77       		.byte	0x77
 2760 09f5 00       		.sleb128 0
 2761 09f6 00       		.byte	0
 2762 09f7 1A       		.uleb128 0x1a
 2763 09f8 94000000 		.4byte	.LVL118
 2764 09fc 3D020000 		.4byte	0x23d
 2765 0a00 0B0A0000 		.4byte	0xa0b
 2766 0a04 18       		.uleb128 0x18
 2767 0a05 01       		.uleb128 0x1
 2768 0a06 50       		.byte	0x50
 2769 0a07 02       		.uleb128 0x2
 2770 0a08 74       		.byte	0x74
 2771 0a09 00       		.sleb128 0
 2772 0a0a 00       		.byte	0
 2773 0a0b 20       		.uleb128 0x20
 2774 0a0c 9E000000 		.4byte	.LVL119
 2775 0a10 63110000 		.4byte	0x1163
 2776 0a14 1A       		.uleb128 0x1a
 2777 0a15 AE000000 		.4byte	.LVL120
 2778 0a19 6F110000 		.4byte	0x116f
 2779 0a1d 310A0000 		.4byte	0xa31
 2780 0a21 18       		.uleb128 0x18
 2781 0a22 01       		.uleb128 0x1
 2782 0a23 51       		.byte	0x51
 2783 0a24 01       		.uleb128 0x1
 2784 0a25 30       		.byte	0x30
 2785 0a26 18       		.uleb128 0x18
 2786 0a27 01       		.uleb128 0x1
 2787 0a28 52       		.byte	0x52
 2788 0a29 01       		.uleb128 0x1
 2789 0a2a 30       		.byte	0x30
 2790 0a2b 18       		.uleb128 0x18
ARM GAS  C:\Users\Tri94\AppData\Local\Temp\ccHaJcja.s 			page 78


 2791 0a2c 01       		.uleb128 0x1
 2792 0a2d 53       		.byte	0x53
 2793 0a2e 01       		.uleb128 0x1
 2794 0a2f 30       		.byte	0x30
 2795 0a30 00       		.byte	0
 2796 0a31 20       		.uleb128 0x20
 2797 0a32 B6000000 		.4byte	.LVL121
 2798 0a36 7B110000 		.4byte	0x117b
 2799 0a3a 00       		.byte	0
 2800 0a3b 1F       		.uleb128 0x1f
 2801 0a3c 0A040000 		.4byte	.LASF85
 2802 0a40 01       		.byte	0x1
 2803 0a41 4902     		.2byte	0x249
 2804 0a43 AD000000 		.4byte	0xad
 2805 0a47 00000000 		.4byte	.LFB76
 2806 0a4b 78000000 		.4byte	.LFE76-.LFB76
 2807 0a4f 01       		.uleb128 0x1
 2808 0a50 9C       		.byte	0x9c
 2809 0a51 A20B0000 		.4byte	0xba2
 2810 0a55 12       		.uleb128 0x12
 2811 0a56 10020000 		.4byte	.LASF75
 2812 0a5a 01       		.byte	0x1
 2813 0a5b 4902     		.2byte	0x249
 2814 0a5d 71010000 		.4byte	0x171
 2815 0a61 51090000 		.4byte	.LLST55
 2816 0a65 12       		.uleb128 0x12
 2817 0a66 C4070000 		.4byte	.LASF57
 2818 0a6a 01       		.byte	0x1
 2819 0a6b 4A02     		.2byte	0x24a
 2820 0a6d DD000000 		.4byte	0xdd
 2821 0a71 6F090000 		.4byte	.LLST56
 2822 0a75 12       		.uleb128 0x12
 2823 0a76 60010000 		.4byte	.LASF58
 2824 0a7a 01       		.byte	0x1
 2825 0a7b 4B02     		.2byte	0x24b
 2826 0a7d AD000000 		.4byte	0xad
 2827 0a81 9B090000 		.4byte	.LLST57
 2828 0a85 12       		.uleb128 0x12
 2829 0a86 97060000 		.4byte	.LASF86
 2830 0a8a 01       		.byte	0x1
 2831 0a8b 4C02     		.2byte	0x24c
 2832 0a8d A80B0000 		.4byte	0xba8
 2833 0a91 C7090000 		.4byte	.LLST58
 2834 0a95 13       		.uleb128 0x13
 2835 0a96 F3020000 		.4byte	.LASF47
 2836 0a9a 01       		.byte	0x1
 2837 0a9b 4E02     		.2byte	0x24e
 2838 0a9d 0F030000 		.4byte	0x30f
 2839 0aa1 E5090000 		.4byte	.LLST59
 2840 0aa5 13       		.uleb128 0x13
 2841 0aa6 8F060000 		.4byte	.LASF62
 2842 0aaa 01       		.byte	0x1
 2843 0aab 4F02     		.2byte	0x24f
 2844 0aad AD000000 		.4byte	0xad
 2845 0ab1 030A0000 		.4byte	.LLST60
 2846 0ab5 13       		.uleb128 0x13
 2847 0ab6 64050000 		.4byte	.LASF59
ARM GAS  C:\Users\Tri94\AppData\Local\Temp\ccHaJcja.s 			page 79


 2848 0aba 01       		.byte	0x1
 2849 0abb 4F02     		.2byte	0x24f
 2850 0abd AD000000 		.4byte	0xad
 2851 0ac1 210A0000 		.4byte	.LLST61
 2852 0ac5 13       		.uleb128 0x13
 2853 0ac6 4F020000 		.4byte	.LASF60
 2854 0aca 01       		.byte	0x1
 2855 0acb 5002     		.2byte	0x250
 2856 0acd AD000000 		.4byte	0xad
 2857 0ad1 3F0A0000 		.4byte	.LLST62
 2858 0ad5 21       		.uleb128 0x21
 2859 0ad6 40000000 		.4byte	.LBB20
 2860 0ada 30000000 		.4byte	.LBE20-.LBB20
 2861 0ade 560B0000 		.4byte	0xb56
 2862 0ae2 22       		.uleb128 0x22
 2863 0ae3 78060000 		.4byte	.LASF87
 2864 0ae7 01       		.byte	0x1
 2865 0ae8 6A02     		.2byte	0x26a
 2866 0aea EF000000 		.4byte	0xef
 2867 0aee 23       		.uleb128 0x23
 2868 0aef FE010000 		.4byte	0x1fe
 2869 0af3 40000000 		.4byte	.LBB21
 2870 0af7 14000000 		.4byte	.LBE21-.LBB21
 2871 0afb 01       		.byte	0x1
 2872 0afc 6A02     		.2byte	0x26a
 2873 0afe 170B0000 		.4byte	0xb17
 2874 0b02 24       		.uleb128 0x24
 2875 0b03 40000000 		.4byte	.LBB22
 2876 0b07 14000000 		.4byte	.LBE22-.LBB22
 2877 0b0b 25       		.uleb128 0x25
 2878 0b0c 0E020000 		.4byte	0x20e
 2879 0b10 25       		.uleb128 0x25
 2880 0b11 19020000 		.4byte	0x219
 2881 0b15 00       		.byte	0
 2882 0b16 00       		.byte	0
 2883 0b17 23       		.uleb128 0x23
 2884 0b18 25020000 		.4byte	0x225
 2885 0b1c 6C000000 		.4byte	.LBB23
 2886 0b20 04000000 		.4byte	.LBE23-.LBB23
 2887 0b24 01       		.byte	0x1
 2888 0b25 6A02     		.2byte	0x26a
 2889 0b27 350B0000 		.4byte	0xb35
 2890 0b2b 26       		.uleb128 0x26
 2891 0b2c 31020000 		.4byte	0x231
 2892 0b30 730A0000 		.4byte	.LLST63
 2893 0b34 00       		.byte	0
 2894 0b35 17       		.uleb128 0x17
 2895 0b36 68000000 		.4byte	.LVL136
 2896 0b3a 87110000 		.4byte	0x1187
 2897 0b3e 18       		.uleb128 0x18
 2898 0b3f 01       		.uleb128 0x1
 2899 0b40 51       		.byte	0x51
 2900 0b41 01       		.uleb128 0x1
 2901 0b42 30       		.byte	0x30
 2902 0b43 18       		.uleb128 0x18
 2903 0b44 01       		.uleb128 0x1
 2904 0b45 52       		.byte	0x52
ARM GAS  C:\Users\Tri94\AppData\Local\Temp\ccHaJcja.s 			page 80


 2905 0b46 01       		.uleb128 0x1
 2906 0b47 30       		.byte	0x30
 2907 0b48 18       		.uleb128 0x18
 2908 0b49 01       		.uleb128 0x1
 2909 0b4a 53       		.byte	0x53
 2910 0b4b 01       		.uleb128 0x1
 2911 0b4c 30       		.byte	0x30
 2912 0b4d 18       		.uleb128 0x18
 2913 0b4e 02       		.uleb128 0x2
 2914 0b4f 7D       		.byte	0x7d
 2915 0b50 00       		.sleb128 0
 2916 0b51 02       		.uleb128 0x2
 2917 0b52 78       		.byte	0x78
 2918 0b53 00       		.sleb128 0
 2919 0b54 00       		.byte	0
 2920 0b55 00       		.byte	0
 2921 0b56 1A       		.uleb128 0x1a
 2922 0b57 22000000 		.4byte	.LVL129
 2923 0b5b D1070000 		.4byte	0x7d1
 2924 0b5f 6A0B0000 		.4byte	0xb6a
 2925 0b63 18       		.uleb128 0x18
 2926 0b64 01       		.uleb128 0x1
 2927 0b65 50       		.byte	0x50
 2928 0b66 02       		.uleb128 0x2
 2929 0b67 74       		.byte	0x74
 2930 0b68 00       		.sleb128 0
 2931 0b69 00       		.byte	0
 2932 0b6a 1A       		.uleb128 0x1a
 2933 0b6b 30000000 		.4byte	.LVL131
 2934 0b6f C3030000 		.4byte	0x3c3
 2935 0b73 910B0000 		.4byte	0xb91
 2936 0b77 18       		.uleb128 0x18
 2937 0b78 01       		.uleb128 0x1
 2938 0b79 50       		.byte	0x50
 2939 0b7a 02       		.uleb128 0x2
 2940 0b7b 74       		.byte	0x74
 2941 0b7c 00       		.sleb128 0
 2942 0b7d 18       		.uleb128 0x18
 2943 0b7e 01       		.uleb128 0x1
 2944 0b7f 51       		.byte	0x51
 2945 0b80 02       		.uleb128 0x2
 2946 0b81 76       		.byte	0x76
 2947 0b82 00       		.sleb128 0
 2948 0b83 18       		.uleb128 0x18
 2949 0b84 01       		.uleb128 0x1
 2950 0b85 52       		.byte	0x52
 2951 0b86 02       		.uleb128 0x2
 2952 0b87 75       		.byte	0x75
 2953 0b88 00       		.sleb128 0
 2954 0b89 18       		.uleb128 0x18
 2955 0b8a 02       		.uleb128 0x2
 2956 0b8b 7D       		.byte	0x7d
 2957 0b8c 00       		.sleb128 0
 2958 0b8d 02       		.uleb128 0x2
 2959 0b8e 77       		.byte	0x77
 2960 0b8f 00       		.sleb128 0
 2961 0b90 00       		.byte	0
ARM GAS  C:\Users\Tri94\AppData\Local\Temp\ccHaJcja.s 			page 81


 2962 0b91 17       		.uleb128 0x17
 2963 0b92 3A000000 		.4byte	.LVL134
 2964 0b96 3D020000 		.4byte	0x23d
 2965 0b9a 18       		.uleb128 0x18
 2966 0b9b 01       		.uleb128 0x1
 2967 0b9c 50       		.byte	0x50
 2968 0b9d 02       		.uleb128 0x2
 2969 0b9e 74       		.byte	0x74
 2970 0b9f 00       		.sleb128 0
 2971 0ba0 00       		.byte	0
 2972 0ba1 00       		.byte	0
 2973 0ba2 06       		.uleb128 0x6
 2974 0ba3 04       		.byte	0x4
 2975 0ba4 E4000000 		.4byte	0xe4
 2976 0ba8 14       		.uleb128 0x14
 2977 0ba9 A20B0000 		.4byte	0xba2
 2978 0bad 1F       		.uleb128 0x1f
 2979 0bae 89000000 		.4byte	.LASF88
 2980 0bb2 01       		.byte	0x1
 2981 0bb3 B002     		.2byte	0x2b0
 2982 0bb5 AD000000 		.4byte	0xad
 2983 0bb9 00000000 		.4byte	.LFB78
 2984 0bbd A4000000 		.4byte	.LFE78-.LFB78
 2985 0bc1 01       		.uleb128 0x1
 2986 0bc2 9C       		.byte	0x9c
 2987 0bc3 300D0000 		.4byte	0xd30
 2988 0bc7 12       		.uleb128 0x12
 2989 0bc8 10020000 		.4byte	.LASF75
 2990 0bcc 01       		.byte	0x1
 2991 0bcd B002     		.2byte	0x2b0
 2992 0bcf 71010000 		.4byte	0x171
 2993 0bd3 860A0000 		.4byte	.LLST64
 2994 0bd7 12       		.uleb128 0x12
 2995 0bd8 1A030000 		.4byte	.LASF68
 2996 0bdc 01       		.byte	0x1
 2997 0bdd B102     		.2byte	0x2b1
 2998 0bdf C6000000 		.4byte	0xc6
 2999 0be3 BA0A0000 		.4byte	.LLST65
 3000 0be7 12       		.uleb128 0x12
 3001 0be8 0D000000 		.4byte	.LASF69
 3002 0bec 01       		.byte	0x1
 3003 0bed B202     		.2byte	0x2b2
 3004 0bef AD000000 		.4byte	0xad
 3005 0bf3 EE0A0000 		.4byte	.LLST66
 3006 0bf7 12       		.uleb128 0x12
 3007 0bf8 34020000 		.4byte	.LASF83
 3008 0bfc 01       		.byte	0x1
 3009 0bfd B302     		.2byte	0x2b3
 3010 0bff FA000000 		.4byte	0xfa
 3011 0c03 220B0000 		.4byte	.LLST67
 3012 0c07 13       		.uleb128 0x13
 3013 0c08 F3020000 		.4byte	.LASF47
 3014 0c0c 01       		.byte	0x1
 3015 0c0d B502     		.2byte	0x2b5
 3016 0c0f 0F030000 		.4byte	0x30f
 3017 0c13 400B0000 		.4byte	.LLST68
 3018 0c17 13       		.uleb128 0x13
ARM GAS  C:\Users\Tri94\AppData\Local\Temp\ccHaJcja.s 			page 82


 3019 0c18 DA010000 		.4byte	.LASF72
 3020 0c1c 01       		.byte	0x1
 3021 0c1d B602     		.2byte	0x2b6
 3022 0c1f AD000000 		.4byte	0xad
 3023 0c23 740B0000 		.4byte	.LLST69
 3024 0c27 13       		.uleb128 0x13
 3025 0c28 28010000 		.4byte	.LASF65
 3026 0c2c 01       		.byte	0x1
 3027 0c2d B602     		.2byte	0x2b6
 3028 0c2f AD000000 		.4byte	0xad
 3029 0c33 B50B0000 		.4byte	.LLST70
 3030 0c37 19       		.uleb128 0x19
 3031 0c38 90050000 		.4byte	.LASF70
 3032 0c3c 01       		.byte	0x1
 3033 0c3d B602     		.2byte	0x2b6
 3034 0c3f AD000000 		.4byte	0xad
 3035 0c43 01       		.uleb128 0x1
 3036 0c44 56       		.byte	0x56
 3037 0c45 20       		.uleb128 0x20
 3038 0c46 22000000 		.4byte	.LVL143
 3039 0c4a 1D110000 		.4byte	0x111d
 3040 0c4e 1A       		.uleb128 0x1a
 3041 0c4f 28000000 		.4byte	.LVL144
 3042 0c53 3D020000 		.4byte	0x23d
 3043 0c57 620C0000 		.4byte	0xc62
 3044 0c5b 18       		.uleb128 0x18
 3045 0c5c 01       		.uleb128 0x1
 3046 0c5d 50       		.byte	0x50
 3047 0c5e 02       		.uleb128 0x2
 3048 0c5f 74       		.byte	0x74
 3049 0c60 00       		.sleb128 0
 3050 0c61 00       		.byte	0
 3051 0c62 1A       		.uleb128 0x1a
 3052 0c63 34000000 		.4byte	.LVL147
 3053 0c67 28110000 		.4byte	0x1128
 3054 0c6b 750C0000 		.4byte	0xc75
 3055 0c6f 18       		.uleb128 0x18
 3056 0c70 01       		.uleb128 0x1
 3057 0c71 50       		.byte	0x50
 3058 0c72 01       		.uleb128 0x1
 3059 0c73 30       		.byte	0x30
 3060 0c74 00       		.byte	0
 3061 0c75 20       		.uleb128 0x20
 3062 0c76 38000000 		.4byte	.LVL148
 3063 0c7a 34110000 		.4byte	0x1134
 3064 0c7e 20       		.uleb128 0x20
 3065 0c7f 3E000000 		.4byte	.LVL149
 3066 0c83 40110000 		.4byte	0x1140
 3067 0c87 1A       		.uleb128 0x1a
 3068 0c88 50000000 		.4byte	.LVL150
 3069 0c8c 4B110000 		.4byte	0x114b
 3070 0c90 AB0C0000 		.4byte	0xcab
 3071 0c94 18       		.uleb128 0x18
 3072 0c95 01       		.uleb128 0x1
 3073 0c96 50       		.byte	0x50
 3074 0c97 01       		.uleb128 0x1
 3075 0c98 30       		.byte	0x30
ARM GAS  C:\Users\Tri94\AppData\Local\Temp\ccHaJcja.s 			page 83


 3076 0c99 18       		.uleb128 0x18
 3077 0c9a 01       		.uleb128 0x1
 3078 0c9b 51       		.byte	0x51
 3079 0c9c 02       		.uleb128 0x2
 3080 0c9d 09       		.byte	0x9
 3081 0c9e FF       		.byte	0xff
 3082 0c9f 18       		.uleb128 0x18
 3083 0ca0 01       		.uleb128 0x1
 3084 0ca1 52       		.byte	0x52
 3085 0ca2 01       		.uleb128 0x1
 3086 0ca3 30       		.byte	0x30
 3087 0ca4 18       		.uleb128 0x18
 3088 0ca5 01       		.uleb128 0x1
 3089 0ca6 53       		.byte	0x53
 3090 0ca7 02       		.uleb128 0x2
 3091 0ca8 77       		.byte	0x77
 3092 0ca9 00       		.sleb128 0
 3093 0caa 00       		.byte	0
 3094 0cab 1A       		.uleb128 0x1a
 3095 0cac 5A000000 		.4byte	.LVL151
 3096 0cb0 3D020000 		.4byte	0x23d
 3097 0cb4 BF0C0000 		.4byte	0xcbf
 3098 0cb8 18       		.uleb128 0x18
 3099 0cb9 01       		.uleb128 0x1
 3100 0cba 50       		.byte	0x50
 3101 0cbb 02       		.uleb128 0x2
 3102 0cbc 74       		.byte	0x74
 3103 0cbd 00       		.sleb128 0
 3104 0cbe 00       		.byte	0
 3105 0cbf 1A       		.uleb128 0x1a
 3106 0cc0 64000000 		.4byte	.LVL155
 3107 0cc4 3D020000 		.4byte	0x23d
 3108 0cc8 D30C0000 		.4byte	0xcd3
 3109 0ccc 18       		.uleb128 0x18
 3110 0ccd 01       		.uleb128 0x1
 3111 0cce 50       		.byte	0x50
 3112 0ccf 02       		.uleb128 0x2
 3113 0cd0 74       		.byte	0x74
 3114 0cd1 00       		.sleb128 0
 3115 0cd2 00       		.byte	0
 3116 0cd3 1A       		.uleb128 0x1a
 3117 0cd4 78000000 		.4byte	.LVL157
 3118 0cd8 3D050000 		.4byte	0x53d
 3119 0cdc 000D0000 		.4byte	0xd00
 3120 0ce0 18       		.uleb128 0x18
 3121 0ce1 01       		.uleb128 0x1
 3122 0ce2 50       		.byte	0x50
 3123 0ce3 02       		.uleb128 0x2
 3124 0ce4 74       		.byte	0x74
 3125 0ce5 00       		.sleb128 0
 3126 0ce6 18       		.uleb128 0x18
 3127 0ce7 01       		.uleb128 0x1
 3128 0ce8 51       		.byte	0x51
 3129 0ce9 02       		.uleb128 0x2
 3130 0cea 78       		.byte	0x78
 3131 0ceb 00       		.sleb128 0
 3132 0cec 18       		.uleb128 0x18
ARM GAS  C:\Users\Tri94\AppData\Local\Temp\ccHaJcja.s 			page 84


 3133 0ced 01       		.uleb128 0x1
 3134 0cee 52       		.byte	0x52
 3135 0cef 02       		.uleb128 0x2
 3136 0cf0 79       		.byte	0x79
 3137 0cf1 00       		.sleb128 0
 3138 0cf2 18       		.uleb128 0x18
 3139 0cf3 01       		.uleb128 0x1
 3140 0cf4 53       		.byte	0x53
 3141 0cf5 02       		.uleb128 0x2
 3142 0cf6 75       		.byte	0x75
 3143 0cf7 00       		.sleb128 0
 3144 0cf8 18       		.uleb128 0x18
 3145 0cf9 02       		.uleb128 0x2
 3146 0cfa 7D       		.byte	0x7d
 3147 0cfb 00       		.sleb128 0
 3148 0cfc 02       		.uleb128 0x2
 3149 0cfd 76       		.byte	0x76
 3150 0cfe 00       		.sleb128 0
 3151 0cff 00       		.byte	0
 3152 0d00 20       		.uleb128 0x20
 3153 0d01 80000000 		.4byte	.LVL159
 3154 0d05 63110000 		.4byte	0x1163
 3155 0d09 1A       		.uleb128 0x1a
 3156 0d0a 90000000 		.4byte	.LVL160
 3157 0d0e 6F110000 		.4byte	0x116f
 3158 0d12 260D0000 		.4byte	0xd26
 3159 0d16 18       		.uleb128 0x18
 3160 0d17 01       		.uleb128 0x1
 3161 0d18 51       		.byte	0x51
 3162 0d19 01       		.uleb128 0x1
 3163 0d1a 30       		.byte	0x30
 3164 0d1b 18       		.uleb128 0x18
 3165 0d1c 01       		.uleb128 0x1
 3166 0d1d 52       		.byte	0x52
 3167 0d1e 01       		.uleb128 0x1
 3168 0d1f 30       		.byte	0x30
 3169 0d20 18       		.uleb128 0x18
 3170 0d21 01       		.uleb128 0x1
 3171 0d22 53       		.byte	0x53
 3172 0d23 01       		.uleb128 0x1
 3173 0d24 30       		.byte	0x30
 3174 0d25 00       		.byte	0
 3175 0d26 20       		.uleb128 0x20
 3176 0d27 98000000 		.4byte	.LVL161
 3177 0d2b 7B110000 		.4byte	0x117b
 3178 0d2f 00       		.byte	0
 3179 0d30 1F       		.uleb128 0x1f
 3180 0d31 5E020000 		.4byte	.LASF89
 3181 0d35 01       		.byte	0x1
 3182 0d36 1803     		.2byte	0x318
 3183 0d38 AD000000 		.4byte	0xad
 3184 0d3c 00000000 		.4byte	.LFB79
 3185 0d40 74000000 		.4byte	.LFE79-.LFB79
 3186 0d44 01       		.uleb128 0x1
 3187 0d45 9C       		.byte	0x9c
 3188 0d46 830E0000 		.4byte	0xe83
 3189 0d4a 12       		.uleb128 0x12
ARM GAS  C:\Users\Tri94\AppData\Local\Temp\ccHaJcja.s 			page 85


 3190 0d4b 10020000 		.4byte	.LASF75
 3191 0d4f 01       		.byte	0x1
 3192 0d50 1803     		.2byte	0x318
 3193 0d52 71010000 		.4byte	0x171
 3194 0d56 F40B0000 		.4byte	.LLST71
 3195 0d5a 12       		.uleb128 0x12
 3196 0d5b 1A030000 		.4byte	.LASF68
 3197 0d5f 01       		.byte	0x1
 3198 0d60 1903     		.2byte	0x319
 3199 0d62 C6000000 		.4byte	0xc6
 3200 0d66 120C0000 		.4byte	.LLST72
 3201 0d6a 12       		.uleb128 0x12
 3202 0d6b 0D000000 		.4byte	.LASF69
 3203 0d6f 01       		.byte	0x1
 3204 0d70 1A03     		.2byte	0x31a
 3205 0d72 AD000000 		.4byte	0xad
 3206 0d76 570C0000 		.4byte	.LLST73
 3207 0d7a 12       		.uleb128 0x12
 3208 0d7b 97060000 		.4byte	.LASF86
 3209 0d7f 01       		.byte	0x1
 3210 0d80 1B03     		.2byte	0x31b
 3211 0d82 A80B0000 		.4byte	0xba8
 3212 0d86 750C0000 		.4byte	.LLST74
 3213 0d8a 13       		.uleb128 0x13
 3214 0d8b F3020000 		.4byte	.LASF47
 3215 0d8f 01       		.byte	0x1
 3216 0d90 1D03     		.2byte	0x31d
 3217 0d92 0F030000 		.4byte	0x30f
 3218 0d96 930C0000 		.4byte	.LLST75
 3219 0d9a 13       		.uleb128 0x13
 3220 0d9b DA010000 		.4byte	.LASF72
 3221 0d9f 01       		.byte	0x1
 3222 0da0 1E03     		.2byte	0x31e
 3223 0da2 AD000000 		.4byte	0xad
 3224 0da6 B10C0000 		.4byte	.LLST76
 3225 0daa 13       		.uleb128 0x13
 3226 0dab 28010000 		.4byte	.LASF65
 3227 0daf 01       		.byte	0x1
 3228 0db0 1E03     		.2byte	0x31e
 3229 0db2 AD000000 		.4byte	0xad
 3230 0db6 F20C0000 		.4byte	.LLST77
 3231 0dba 13       		.uleb128 0x13
 3232 0dbb 90050000 		.4byte	.LASF70
 3233 0dbf 01       		.byte	0x1
 3234 0dc0 1E03     		.2byte	0x31e
 3235 0dc2 AD000000 		.4byte	0xad
 3236 0dc6 1B0D0000 		.4byte	.LLST78
 3237 0dca 21       		.uleb128 0x21
 3238 0dcb 38000000 		.4byte	.LBB25
 3239 0dcf 32000000 		.4byte	.LBE25-.LBB25
 3240 0dd3 4B0E0000 		.4byte	0xe4b
 3241 0dd7 22       		.uleb128 0x22
 3242 0dd8 78060000 		.4byte	.LASF87
 3243 0ddc 01       		.byte	0x1
 3244 0ddd 3F03     		.2byte	0x33f
 3245 0ddf EF000000 		.4byte	0xef
 3246 0de3 23       		.uleb128 0x23
ARM GAS  C:\Users\Tri94\AppData\Local\Temp\ccHaJcja.s 			page 86


 3247 0de4 FE010000 		.4byte	0x1fe
 3248 0de8 38000000 		.4byte	.LBB26
 3249 0dec 14000000 		.4byte	.LBE26-.LBB26
 3250 0df0 01       		.byte	0x1
 3251 0df1 3F03     		.2byte	0x33f
 3252 0df3 0C0E0000 		.4byte	0xe0c
 3253 0df7 24       		.uleb128 0x24
 3254 0df8 38000000 		.4byte	.LBB27
 3255 0dfc 14000000 		.4byte	.LBE27-.LBB27
 3256 0e00 25       		.uleb128 0x25
 3257 0e01 0E020000 		.4byte	0x20e
 3258 0e05 25       		.uleb128 0x25
 3259 0e06 19020000 		.4byte	0x219
 3260 0e0a 00       		.byte	0
 3261 0e0b 00       		.byte	0
 3262 0e0c 23       		.uleb128 0x23
 3263 0e0d 25020000 		.4byte	0x225
 3264 0e11 64000000 		.4byte	.LBB28
 3265 0e15 06000000 		.4byte	.LBE28-.LBB28
 3266 0e19 01       		.byte	0x1
 3267 0e1a 3F03     		.2byte	0x33f
 3268 0e1c 2A0E0000 		.4byte	0xe2a
 3269 0e20 26       		.uleb128 0x26
 3270 0e21 31020000 		.4byte	0x231
 3271 0e25 390D0000 		.4byte	.LLST79
 3272 0e29 00       		.byte	0
 3273 0e2a 17       		.uleb128 0x17
 3274 0e2b 60000000 		.4byte	.LVL175
 3275 0e2f 87110000 		.4byte	0x1187
 3276 0e33 18       		.uleb128 0x18
 3277 0e34 01       		.uleb128 0x1
 3278 0e35 51       		.byte	0x51
 3279 0e36 01       		.uleb128 0x1
 3280 0e37 30       		.byte	0x30
 3281 0e38 18       		.uleb128 0x18
 3282 0e39 01       		.uleb128 0x1
 3283 0e3a 52       		.byte	0x52
 3284 0e3b 01       		.uleb128 0x1
 3285 0e3c 30       		.byte	0x30
 3286 0e3d 18       		.uleb128 0x18
 3287 0e3e 01       		.uleb128 0x1
 3288 0e3f 53       		.byte	0x53
 3289 0e40 01       		.uleb128 0x1
 3290 0e41 30       		.byte	0x30
 3291 0e42 18       		.uleb128 0x18
 3292 0e43 02       		.uleb128 0x2
 3293 0e44 7D       		.byte	0x7d
 3294 0e45 00       		.sleb128 0
 3295 0e46 02       		.uleb128 0x2
 3296 0e47 78       		.byte	0x78
 3297 0e48 00       		.sleb128 0
 3298 0e49 00       		.byte	0
 3299 0e4a 00       		.byte	0
 3300 0e4b 1A       		.uleb128 0x1a
 3301 0e4c 22000000 		.4byte	.LVL169
 3302 0e50 3D020000 		.4byte	0x23d
 3303 0e54 5F0E0000 		.4byte	0xe5f
ARM GAS  C:\Users\Tri94\AppData\Local\Temp\ccHaJcja.s 			page 87


 3304 0e58 18       		.uleb128 0x18
 3305 0e59 01       		.uleb128 0x1
 3306 0e5a 50       		.byte	0x50
 3307 0e5b 02       		.uleb128 0x2
 3308 0e5c 74       		.byte	0x74
 3309 0e5d 00       		.sleb128 0
 3310 0e5e 00       		.byte	0
 3311 0e5f 17       		.uleb128 0x17
 3312 0e60 34000000 		.4byte	.LVL171
 3313 0e64 3D050000 		.4byte	0x53d
 3314 0e68 18       		.uleb128 0x18
 3315 0e69 01       		.uleb128 0x1
 3316 0e6a 50       		.byte	0x50
 3317 0e6b 02       		.uleb128 0x2
 3318 0e6c 74       		.byte	0x74
 3319 0e6d 00       		.sleb128 0
 3320 0e6e 18       		.uleb128 0x18
 3321 0e6f 01       		.uleb128 0x1
 3322 0e70 51       		.byte	0x51
 3323 0e71 02       		.uleb128 0x2
 3324 0e72 76       		.byte	0x76
 3325 0e73 00       		.sleb128 0
 3326 0e74 18       		.uleb128 0x18
 3327 0e75 01       		.uleb128 0x1
 3328 0e76 52       		.byte	0x52
 3329 0e77 02       		.uleb128 0x2
 3330 0e78 77       		.byte	0x77
 3331 0e79 00       		.sleb128 0
 3332 0e7a 18       		.uleb128 0x18
 3333 0e7b 02       		.uleb128 0x2
 3334 0e7c 7D       		.byte	0x7d
 3335 0e7d 00       		.sleb128 0
 3336 0e7e 02       		.uleb128 0x2
 3337 0e7f 75       		.byte	0x75
 3338 0e80 00       		.sleb128 0
 3339 0e81 00       		.byte	0
 3340 0e82 00       		.byte	0
 3341 0e83 1F       		.uleb128 0x1f
 3342 0e84 AC020000 		.4byte	.LASF90
 3343 0e88 01       		.byte	0x1
 3344 0e89 8303     		.2byte	0x383
 3345 0e8b E4000000 		.4byte	0xe4
 3346 0e8f 00000000 		.4byte	.LFB81
 3347 0e93 10000000 		.4byte	.LFE81-.LFB81
 3348 0e97 01       		.uleb128 0x1
 3349 0e98 9C       		.byte	0x9c
 3350 0e99 DA0E0000 		.4byte	0xeda
 3351 0e9d 12       		.uleb128 0x12
 3352 0e9e 10020000 		.4byte	.LASF75
 3353 0ea2 01       		.byte	0x1
 3354 0ea3 8303     		.2byte	0x383
 3355 0ea5 71010000 		.4byte	0x171
 3356 0ea9 4C0D0000 		.4byte	.LLST80
 3357 0ead 13       		.uleb128 0x13
 3358 0eae F3020000 		.4byte	.LASF47
 3359 0eb2 01       		.byte	0x1
 3360 0eb3 8503     		.2byte	0x385
ARM GAS  C:\Users\Tri94\AppData\Local\Temp\ccHaJcja.s 			page 88


 3361 0eb5 83020000 		.4byte	0x283
 3362 0eb9 860D0000 		.4byte	.LLST81
 3363 0ebd 19       		.uleb128 0x19
 3364 0ebe 8F060000 		.4byte	.LASF62
 3365 0ec2 01       		.byte	0x1
 3366 0ec3 8603     		.2byte	0x386
 3367 0ec5 E4000000 		.4byte	0xe4
 3368 0ec9 01       		.uleb128 0x1
 3369 0eca 50       		.byte	0x50
 3370 0ecb 19       		.uleb128 0x19
 3371 0ecc CD050000 		.4byte	.LASF36
 3372 0ed0 01       		.byte	0x1
 3373 0ed1 8703     		.2byte	0x387
 3374 0ed3 AD000000 		.4byte	0xad
 3375 0ed7 01       		.uleb128 0x1
 3376 0ed8 52       		.byte	0x52
 3377 0ed9 00       		.byte	0
 3378 0eda 1F       		.uleb128 0x1f
 3379 0edb 81020000 		.4byte	.LASF91
 3380 0edf 01       		.byte	0x1
 3381 0ee0 9A03     		.2byte	0x39a
 3382 0ee2 E4000000 		.4byte	0xe4
 3383 0ee6 00000000 		.4byte	.LFB82
 3384 0eea 20000000 		.4byte	.LFE82-.LFB82
 3385 0eee 01       		.uleb128 0x1
 3386 0eef 9C       		.byte	0x9c
 3387 0ef0 3A0F0000 		.4byte	0xf3a
 3388 0ef4 12       		.uleb128 0x12
 3389 0ef5 10020000 		.4byte	.LASF75
 3390 0ef9 01       		.byte	0x1
 3391 0efa 9A03     		.2byte	0x39a
 3392 0efc 71010000 		.4byte	0x171
 3393 0f00 C00D0000 		.4byte	.LLST82
 3394 0f04 19       		.uleb128 0x19
 3395 0f05 8F060000 		.4byte	.LASF62
 3396 0f09 01       		.byte	0x1
 3397 0f0a 9C03     		.2byte	0x39c
 3398 0f0c E4000000 		.4byte	0xe4
 3399 0f10 01       		.uleb128 0x1
 3400 0f11 50       		.byte	0x50
 3401 0f12 19       		.uleb128 0x19
 3402 0f13 90050000 		.4byte	.LASF70
 3403 0f17 01       		.byte	0x1
 3404 0f18 9D03     		.2byte	0x39d
 3405 0f1a AD000000 		.4byte	0xad
 3406 0f1e 01       		.uleb128 0x1
 3407 0f1f 54       		.byte	0x54
 3408 0f20 13       		.uleb128 0x13
 3409 0f21 F3020000 		.4byte	.LASF47
 3410 0f25 01       		.byte	0x1
 3411 0f26 9E03     		.2byte	0x39e
 3412 0f28 83020000 		.4byte	0x283
 3413 0f2c E10D0000 		.4byte	.LLST83
 3414 0f30 20       		.uleb128 0x20
 3415 0f31 14000000 		.4byte	.LVL187
 3416 0f35 D1070000 		.4byte	0x7d1
 3417 0f39 00       		.byte	0
ARM GAS  C:\Users\Tri94\AppData\Local\Temp\ccHaJcja.s 			page 89


 3418 0f3a 1F       		.uleb128 0x1f
 3419 0f3b D3050000 		.4byte	.LASF92
 3420 0f3f 01       		.byte	0x1
 3421 0f40 BD03     		.2byte	0x3bd
 3422 0f42 E4000000 		.4byte	0xe4
 3423 0f46 00000000 		.4byte	.LFB83
 3424 0f4a 3E000000 		.4byte	.LFE83-.LFB83
 3425 0f4e 01       		.uleb128 0x1
 3426 0f4f 9C       		.byte	0x9c
 3427 0f50 09100000 		.4byte	0x1009
 3428 0f54 12       		.uleb128 0x12
 3429 0f55 10020000 		.4byte	.LASF75
 3430 0f59 01       		.byte	0x1
 3431 0f5a BD03     		.2byte	0x3bd
 3432 0f5c 71010000 		.4byte	0x171
 3433 0f60 020E0000 		.4byte	.LLST84
 3434 0f64 12       		.uleb128 0x12
 3435 0f65 97060000 		.4byte	.LASF86
 3436 0f69 01       		.byte	0x1
 3437 0f6a BD03     		.2byte	0x3bd
 3438 0f6c A20B0000 		.4byte	0xba2
 3439 0f70 390E0000 		.4byte	.LLST85
 3440 0f74 13       		.uleb128 0x13
 3441 0f75 F3020000 		.4byte	.LASF47
 3442 0f79 01       		.byte	0x1
 3443 0f7a BF03     		.2byte	0x3bf
 3444 0f7c 0F030000 		.4byte	0x30f
 3445 0f80 7F0E0000 		.4byte	.LLST86
 3446 0f84 13       		.uleb128 0x13
 3447 0f85 8F060000 		.4byte	.LASF62
 3448 0f89 01       		.byte	0x1
 3449 0f8a C003     		.2byte	0x3c0
 3450 0f8c E4000000 		.4byte	0xe4
 3451 0f90 B60E0000 		.4byte	.LLST87
 3452 0f94 22       		.uleb128 0x22
 3453 0f95 78060000 		.4byte	.LASF87
 3454 0f99 01       		.byte	0x1
 3455 0f9a C103     		.2byte	0x3c1
 3456 0f9c EF000000 		.4byte	0xef
 3457 0fa0 23       		.uleb128 0x23
 3458 0fa1 FE010000 		.4byte	0x1fe
 3459 0fa5 04000000 		.4byte	.LBB30
 3460 0fa9 14000000 		.4byte	.LBE30-.LBB30
 3461 0fad 01       		.byte	0x1
 3462 0fae C503     		.2byte	0x3c5
 3463 0fb0 C90F0000 		.4byte	0xfc9
 3464 0fb4 24       		.uleb128 0x24
 3465 0fb5 04000000 		.4byte	.LBB31
 3466 0fb9 14000000 		.4byte	.LBE31-.LBB31
 3467 0fbd 25       		.uleb128 0x25
 3468 0fbe 0E020000 		.4byte	0x20e
 3469 0fc2 25       		.uleb128 0x25
 3470 0fc3 19020000 		.4byte	0x219
 3471 0fc7 00       		.byte	0
 3472 0fc8 00       		.byte	0
 3473 0fc9 23       		.uleb128 0x23
 3474 0fca 25020000 		.4byte	0x225
ARM GAS  C:\Users\Tri94\AppData\Local\Temp\ccHaJcja.s 			page 90


 3475 0fce 36000000 		.4byte	.LBB32
 3476 0fd2 04000000 		.4byte	.LBE32-.LBB32
 3477 0fd6 01       		.byte	0x1
 3478 0fd7 D503     		.2byte	0x3d5
 3479 0fd9 E70F0000 		.4byte	0xfe7
 3480 0fdd 26       		.uleb128 0x26
 3481 0fde 31020000 		.4byte	0x231
 3482 0fe2 D50E0000 		.4byte	.LLST88
 3483 0fe6 00       		.byte	0
 3484 0fe7 17       		.uleb128 0x17
 3485 0fe8 2C000000 		.4byte	.LVL194
 3486 0fec 87110000 		.4byte	0x1187
 3487 0ff0 18       		.uleb128 0x18
 3488 0ff1 01       		.uleb128 0x1
 3489 0ff2 51       		.byte	0x51
 3490 0ff3 01       		.uleb128 0x1
 3491 0ff4 30       		.byte	0x30
 3492 0ff5 18       		.uleb128 0x18
 3493 0ff6 01       		.uleb128 0x1
 3494 0ff7 52       		.byte	0x52
 3495 0ff8 01       		.uleb128 0x1
 3496 0ff9 30       		.byte	0x30
 3497 0ffa 18       		.uleb128 0x18
 3498 0ffb 01       		.uleb128 0x1
 3499 0ffc 53       		.byte	0x53
 3500 0ffd 01       		.uleb128 0x1
 3501 0ffe 30       		.byte	0x30
 3502 0fff 18       		.uleb128 0x18
 3503 1000 02       		.uleb128 0x2
 3504 1001 7D       		.byte	0x7d
 3505 1002 00       		.sleb128 0
 3506 1003 03       		.uleb128 0x3
 3507 1004 F3       		.byte	0xf3
 3508 1005 01       		.uleb128 0x1
 3509 1006 51       		.byte	0x51
 3510 1007 00       		.byte	0
 3511 1008 00       		.byte	0
 3512 1009 1F       		.uleb128 0x1f
 3513 100a 03010000 		.4byte	.LASF93
 3514 100e 01       		.byte	0x1
 3515 100f DB03     		.2byte	0x3db
 3516 1011 E4000000 		.4byte	0xe4
 3517 1015 00000000 		.4byte	.LFB84
 3518 1019 3E000000 		.4byte	.LFE84-.LFB84
 3519 101d 01       		.uleb128 0x1
 3520 101e 9C       		.byte	0x9c
 3521 101f D8100000 		.4byte	0x10d8
 3522 1023 12       		.uleb128 0x12
 3523 1024 10020000 		.4byte	.LASF75
 3524 1028 01       		.byte	0x1
 3525 1029 DB03     		.2byte	0x3db
 3526 102b 71010000 		.4byte	0x171
 3527 102f E80E0000 		.4byte	.LLST89
 3528 1033 12       		.uleb128 0x12
 3529 1034 97060000 		.4byte	.LASF86
 3530 1038 01       		.byte	0x1
 3531 1039 DB03     		.2byte	0x3db
ARM GAS  C:\Users\Tri94\AppData\Local\Temp\ccHaJcja.s 			page 91


 3532 103b A20B0000 		.4byte	0xba2
 3533 103f 1F0F0000 		.4byte	.LLST90
 3534 1043 13       		.uleb128 0x13
 3535 1044 F3020000 		.4byte	.LASF47
 3536 1048 01       		.byte	0x1
 3537 1049 DD03     		.2byte	0x3dd
 3538 104b 0F030000 		.4byte	0x30f
 3539 104f 650F0000 		.4byte	.LLST91
 3540 1053 13       		.uleb128 0x13
 3541 1054 8F060000 		.4byte	.LASF62
 3542 1058 01       		.byte	0x1
 3543 1059 DE03     		.2byte	0x3de
 3544 105b E4000000 		.4byte	0xe4
 3545 105f 9C0F0000 		.4byte	.LLST92
 3546 1063 22       		.uleb128 0x22
 3547 1064 78060000 		.4byte	.LASF87
 3548 1068 01       		.byte	0x1
 3549 1069 DF03     		.2byte	0x3df
 3550 106b EF000000 		.4byte	0xef
 3551 106f 23       		.uleb128 0x23
 3552 1070 FE010000 		.4byte	0x1fe
 3553 1074 04000000 		.4byte	.LBB34
 3554 1078 14000000 		.4byte	.LBE34-.LBB34
 3555 107c 01       		.byte	0x1
 3556 107d E303     		.2byte	0x3e3
 3557 107f 98100000 		.4byte	0x1098
 3558 1083 24       		.uleb128 0x24
 3559 1084 04000000 		.4byte	.LBB35
 3560 1088 14000000 		.4byte	.LBE35-.LBB35
 3561 108c 25       		.uleb128 0x25
 3562 108d 0E020000 		.4byte	0x20e
 3563 1091 25       		.uleb128 0x25
 3564 1092 19020000 		.4byte	0x219
 3565 1096 00       		.byte	0
 3566 1097 00       		.byte	0
 3567 1098 23       		.uleb128 0x23
 3568 1099 25020000 		.4byte	0x225
 3569 109d 36000000 		.4byte	.LBB36
 3570 10a1 04000000 		.4byte	.LBE36-.LBB36
 3571 10a5 01       		.byte	0x1
 3572 10a6 F303     		.2byte	0x3f3
 3573 10a8 B6100000 		.4byte	0x10b6
 3574 10ac 26       		.uleb128 0x26
 3575 10ad 31020000 		.4byte	0x231
 3576 10b1 BB0F0000 		.4byte	.LLST93
 3577 10b5 00       		.byte	0
 3578 10b6 17       		.uleb128 0x17
 3579 10b7 2C000000 		.4byte	.LVL203
 3580 10bb 87110000 		.4byte	0x1187
 3581 10bf 18       		.uleb128 0x18
 3582 10c0 01       		.uleb128 0x1
 3583 10c1 51       		.byte	0x51
 3584 10c2 01       		.uleb128 0x1
 3585 10c3 30       		.byte	0x30
 3586 10c4 18       		.uleb128 0x18
 3587 10c5 01       		.uleb128 0x1
 3588 10c6 52       		.byte	0x52
ARM GAS  C:\Users\Tri94\AppData\Local\Temp\ccHaJcja.s 			page 92


 3589 10c7 01       		.uleb128 0x1
 3590 10c8 30       		.byte	0x30
 3591 10c9 18       		.uleb128 0x18
 3592 10ca 01       		.uleb128 0x1
 3593 10cb 53       		.byte	0x53
 3594 10cc 01       		.uleb128 0x1
 3595 10cd 30       		.byte	0x30
 3596 10ce 18       		.uleb128 0x18
 3597 10cf 02       		.uleb128 0x2
 3598 10d0 7D       		.byte	0x7d
 3599 10d1 00       		.sleb128 0
 3600 10d2 03       		.uleb128 0x3
 3601 10d3 F3       		.byte	0xf3
 3602 10d4 01       		.uleb128 0x1
 3603 10d5 51       		.byte	0x51
 3604 10d6 00       		.byte	0
 3605 10d7 00       		.byte	0
 3606 10d8 27       		.uleb128 0x27
 3607 10d9 EB060000 		.4byte	.LASF117
 3608 10dd 09       		.byte	0x9
 3609 10de 1207     		.2byte	0x712
 3610 10e0 E4100000 		.4byte	0x10e4
 3611 10e4 0C       		.uleb128 0xc
 3612 10e5 97000000 		.4byte	0x97
 3613 10e9 28       		.uleb128 0x28
 3614 10ea 7A020000 		.4byte	.LASF94
 3615 10ee 7A020000 		.4byte	.LASF94
 3616 10f2 28       		.uleb128 0x28
 3617 10f3 C0010000 		.4byte	.LASF95
 3618 10f7 C0010000 		.4byte	.LASF95
 3619 10fb 29       		.uleb128 0x29
 3620 10fc CD070000 		.4byte	.LASF96
 3621 1100 CD070000 		.4byte	.LASF96
 3622 1104 08       		.byte	0x8
 3623 1105 82       		.byte	0x82
 3624 1106 29       		.uleb128 0x29
 3625 1107 04060000 		.4byte	.LASF97
 3626 110b 04060000 		.4byte	.LASF97
 3627 110f 08       		.byte	0x8
 3628 1110 83       		.byte	0x83
 3629 1111 2A       		.uleb128 0x2a
 3630 1112 AB010000 		.4byte	.LASF98
 3631 1116 AB010000 		.4byte	.LASF98
 3632 111a 06       		.byte	0x6
 3633 111b C608     		.2byte	0x8c6
 3634 111d 29       		.uleb128 0x29
 3635 111e C7040000 		.4byte	.LASF99
 3636 1122 C7040000 		.4byte	.LASF99
 3637 1126 02       		.byte	0x2
 3638 1127 6C       		.byte	0x6c
 3639 1128 2A       		.uleb128 0x2a
 3640 1129 28060000 		.4byte	.LASF100
 3641 112d 28060000 		.4byte	.LASF100
 3642 1131 06       		.byte	0x6
 3643 1132 4D08     		.2byte	0x84d
 3644 1134 2A       		.uleb128 0x2a
 3645 1135 86070000 		.4byte	.LASF101
ARM GAS  C:\Users\Tri94\AppData\Local\Temp\ccHaJcja.s 			page 93


 3646 1139 86070000 		.4byte	.LASF101
 3647 113d 06       		.byte	0x6
 3648 113e C108     		.2byte	0x8c1
 3649 1140 29       		.uleb128 0x29
 3650 1141 1F050000 		.4byte	.LASF102
 3651 1145 1F050000 		.4byte	.LASF102
 3652 1149 02       		.byte	0x2
 3653 114a 6D       		.byte	0x6d
 3654 114b 2A       		.uleb128 0x2a
 3655 114c 24020000 		.4byte	.LASF103
 3656 1150 24020000 		.4byte	.LASF103
 3657 1154 06       		.byte	0x6
 3658 1155 9307     		.2byte	0x793
 3659 1157 2A       		.uleb128 0x2a
 3660 1158 CB020000 		.4byte	.LASF104
 3661 115c CB020000 		.4byte	.LASF104
 3662 1160 06       		.byte	0x6
 3663 1161 CC08     		.2byte	0x8cc
 3664 1163 2A       		.uleb128 0x2a
 3665 1164 DA070000 		.4byte	.LASF105
 3666 1168 DA070000 		.4byte	.LASF105
 3667 116c 06       		.byte	0x6
 3668 116d FF04     		.2byte	0x4ff
 3669 116f 2A       		.uleb128 0x2a
 3670 1170 C7010000 		.4byte	.LASF106
 3671 1174 C7010000 		.4byte	.LASF106
 3672 1178 06       		.byte	0x6
 3673 1179 EB06     		.2byte	0x6eb
 3674 117b 2A       		.uleb128 0x2a
 3675 117c A5040000 		.4byte	.LASF107
 3676 1180 A5040000 		.4byte	.LASF107
 3677 1184 06       		.byte	0x6
 3678 1185 3505     		.2byte	0x535
 3679 1187 2A       		.uleb128 0x2a
 3680 1188 7B010000 		.4byte	.LASF108
 3681 118c 7B010000 		.4byte	.LASF108
 3682 1190 06       		.byte	0x6
 3683 1191 4607     		.2byte	0x746
 3684 1193 00       		.byte	0
 3685              		.section	.debug_abbrev,"",%progbits
 3686              	.Ldebug_abbrev0:
 3687 0000 01       		.uleb128 0x1
 3688 0001 11       		.uleb128 0x11
 3689 0002 01       		.byte	0x1
 3690 0003 25       		.uleb128 0x25
 3691 0004 0E       		.uleb128 0xe
 3692 0005 13       		.uleb128 0x13
 3693 0006 0B       		.uleb128 0xb
 3694 0007 03       		.uleb128 0x3
 3695 0008 0E       		.uleb128 0xe
 3696 0009 1B       		.uleb128 0x1b
 3697 000a 0E       		.uleb128 0xe
 3698 000b 55       		.uleb128 0x55
 3699 000c 17       		.uleb128 0x17
 3700 000d 11       		.uleb128 0x11
 3701 000e 01       		.uleb128 0x1
 3702 000f 10       		.uleb128 0x10
ARM GAS  C:\Users\Tri94\AppData\Local\Temp\ccHaJcja.s 			page 94


 3703 0010 17       		.uleb128 0x17
 3704 0011 00       		.byte	0
 3705 0012 00       		.byte	0
 3706 0013 02       		.uleb128 0x2
 3707 0014 24       		.uleb128 0x24
 3708 0015 00       		.byte	0
 3709 0016 0B       		.uleb128 0xb
 3710 0017 0B       		.uleb128 0xb
 3711 0018 3E       		.uleb128 0x3e
 3712 0019 0B       		.uleb128 0xb
 3713 001a 03       		.uleb128 0x3
 3714 001b 0E       		.uleb128 0xe
 3715 001c 00       		.byte	0
 3716 001d 00       		.byte	0
 3717 001e 03       		.uleb128 0x3
 3718 001f 16       		.uleb128 0x16
 3719 0020 00       		.byte	0
 3720 0021 03       		.uleb128 0x3
 3721 0022 0E       		.uleb128 0xe
 3722 0023 3A       		.uleb128 0x3a
 3723 0024 0B       		.uleb128 0xb
 3724 0025 3B       		.uleb128 0x3b
 3725 0026 0B       		.uleb128 0xb
 3726 0027 49       		.uleb128 0x49
 3727 0028 13       		.uleb128 0x13
 3728 0029 00       		.byte	0
 3729 002a 00       		.byte	0
 3730 002b 04       		.uleb128 0x4
 3731 002c 24       		.uleb128 0x24
 3732 002d 00       		.byte	0
 3733 002e 0B       		.uleb128 0xb
 3734 002f 0B       		.uleb128 0xb
 3735 0030 3E       		.uleb128 0x3e
 3736 0031 0B       		.uleb128 0xb
 3737 0032 03       		.uleb128 0x3
 3738 0033 08       		.uleb128 0x8
 3739 0034 00       		.byte	0
 3740 0035 00       		.byte	0
 3741 0036 05       		.uleb128 0x5
 3742 0037 0F       		.uleb128 0xf
 3743 0038 00       		.byte	0
 3744 0039 0B       		.uleb128 0xb
 3745 003a 0B       		.uleb128 0xb
 3746 003b 00       		.byte	0
 3747 003c 00       		.byte	0
 3748 003d 06       		.uleb128 0x6
 3749 003e 0F       		.uleb128 0xf
 3750 003f 00       		.byte	0
 3751 0040 0B       		.uleb128 0xb
 3752 0041 0B       		.uleb128 0xb
 3753 0042 49       		.uleb128 0x49
 3754 0043 13       		.uleb128 0x13
 3755 0044 00       		.byte	0
 3756 0045 00       		.byte	0
 3757 0046 07       		.uleb128 0x7
 3758 0047 26       		.uleb128 0x26
 3759 0048 00       		.byte	0
ARM GAS  C:\Users\Tri94\AppData\Local\Temp\ccHaJcja.s 			page 95


 3760 0049 00       		.byte	0
 3761 004a 00       		.byte	0
 3762 004b 08       		.uleb128 0x8
 3763 004c 04       		.uleb128 0x4
 3764 004d 01       		.byte	0x1
 3765 004e 0B       		.uleb128 0xb
 3766 004f 0B       		.uleb128 0xb
 3767 0050 49       		.uleb128 0x49
 3768 0051 13       		.uleb128 0x13
 3769 0052 3A       		.uleb128 0x3a
 3770 0053 0B       		.uleb128 0xb
 3771 0054 3B       		.uleb128 0x3b
 3772 0055 0B       		.uleb128 0xb
 3773 0056 01       		.uleb128 0x1
 3774 0057 13       		.uleb128 0x13
 3775 0058 00       		.byte	0
 3776 0059 00       		.byte	0
 3777 005a 09       		.uleb128 0x9
 3778 005b 28       		.uleb128 0x28
 3779 005c 00       		.byte	0
 3780 005d 03       		.uleb128 0x3
 3781 005e 0E       		.uleb128 0xe
 3782 005f 1C       		.uleb128 0x1c
 3783 0060 0B       		.uleb128 0xb
 3784 0061 00       		.byte	0
 3785 0062 00       		.byte	0
 3786 0063 0A       		.uleb128 0xa
 3787 0064 13       		.uleb128 0x13
 3788 0065 01       		.byte	0x1
 3789 0066 03       		.uleb128 0x3
 3790 0067 0E       		.uleb128 0xe
 3791 0068 0B       		.uleb128 0xb
 3792 0069 0B       		.uleb128 0xb
 3793 006a 3A       		.uleb128 0x3a
 3794 006b 0B       		.uleb128 0xb
 3795 006c 3B       		.uleb128 0x3b
 3796 006d 0B       		.uleb128 0xb
 3797 006e 01       		.uleb128 0x1
 3798 006f 13       		.uleb128 0x13
 3799 0070 00       		.byte	0
 3800 0071 00       		.byte	0
 3801 0072 0B       		.uleb128 0xb
 3802 0073 0D       		.uleb128 0xd
 3803 0074 00       		.byte	0
 3804 0075 03       		.uleb128 0x3
 3805 0076 0E       		.uleb128 0xe
 3806 0077 3A       		.uleb128 0x3a
 3807 0078 0B       		.uleb128 0xb
 3808 0079 3B       		.uleb128 0x3b
 3809 007a 0B       		.uleb128 0xb
 3810 007b 49       		.uleb128 0x49
 3811 007c 13       		.uleb128 0x13
 3812 007d 38       		.uleb128 0x38
 3813 007e 0B       		.uleb128 0xb
 3814 007f 00       		.byte	0
 3815 0080 00       		.byte	0
 3816 0081 0C       		.uleb128 0xc
ARM GAS  C:\Users\Tri94\AppData\Local\Temp\ccHaJcja.s 			page 96


 3817 0082 35       		.uleb128 0x35
 3818 0083 00       		.byte	0
 3819 0084 49       		.uleb128 0x49
 3820 0085 13       		.uleb128 0x13
 3821 0086 00       		.byte	0
 3822 0087 00       		.byte	0
 3823 0088 0D       		.uleb128 0xd
 3824 0089 2E       		.uleb128 0x2e
 3825 008a 01       		.byte	0x1
 3826 008b 03       		.uleb128 0x3
 3827 008c 0E       		.uleb128 0xe
 3828 008d 3A       		.uleb128 0x3a
 3829 008e 0B       		.uleb128 0xb
 3830 008f 3B       		.uleb128 0x3b
 3831 0090 0B       		.uleb128 0xb
 3832 0091 27       		.uleb128 0x27
 3833 0092 19       		.uleb128 0x19
 3834 0093 49       		.uleb128 0x49
 3835 0094 13       		.uleb128 0x13
 3836 0095 20       		.uleb128 0x20
 3837 0096 0B       		.uleb128 0xb
 3838 0097 01       		.uleb128 0x1
 3839 0098 13       		.uleb128 0x13
 3840 0099 00       		.byte	0
 3841 009a 00       		.byte	0
 3842 009b 0E       		.uleb128 0xe
 3843 009c 34       		.uleb128 0x34
 3844 009d 00       		.byte	0
 3845 009e 03       		.uleb128 0x3
 3846 009f 0E       		.uleb128 0xe
 3847 00a0 3A       		.uleb128 0x3a
 3848 00a1 0B       		.uleb128 0xb
 3849 00a2 3B       		.uleb128 0x3b
 3850 00a3 0B       		.uleb128 0xb
 3851 00a4 49       		.uleb128 0x49
 3852 00a5 13       		.uleb128 0x13
 3853 00a6 00       		.byte	0
 3854 00a7 00       		.byte	0
 3855 00a8 0F       		.uleb128 0xf
 3856 00a9 2E       		.uleb128 0x2e
 3857 00aa 01       		.byte	0x1
 3858 00ab 03       		.uleb128 0x3
 3859 00ac 0E       		.uleb128 0xe
 3860 00ad 3A       		.uleb128 0x3a
 3861 00ae 0B       		.uleb128 0xb
 3862 00af 3B       		.uleb128 0x3b
 3863 00b0 0B       		.uleb128 0xb
 3864 00b1 27       		.uleb128 0x27
 3865 00b2 19       		.uleb128 0x19
 3866 00b3 20       		.uleb128 0x20
 3867 00b4 0B       		.uleb128 0xb
 3868 00b5 01       		.uleb128 0x1
 3869 00b6 13       		.uleb128 0x13
 3870 00b7 00       		.byte	0
 3871 00b8 00       		.byte	0
 3872 00b9 10       		.uleb128 0x10
 3873 00ba 05       		.uleb128 0x5
ARM GAS  C:\Users\Tri94\AppData\Local\Temp\ccHaJcja.s 			page 97


 3874 00bb 00       		.byte	0
 3875 00bc 03       		.uleb128 0x3
 3876 00bd 0E       		.uleb128 0xe
 3877 00be 3A       		.uleb128 0x3a
 3878 00bf 0B       		.uleb128 0xb
 3879 00c0 3B       		.uleb128 0x3b
 3880 00c1 0B       		.uleb128 0xb
 3881 00c2 49       		.uleb128 0x49
 3882 00c3 13       		.uleb128 0x13
 3883 00c4 00       		.byte	0
 3884 00c5 00       		.byte	0
 3885 00c6 11       		.uleb128 0x11
 3886 00c7 2E       		.uleb128 0x2e
 3887 00c8 01       		.byte	0x1
 3888 00c9 03       		.uleb128 0x3
 3889 00ca 0E       		.uleb128 0xe
 3890 00cb 3A       		.uleb128 0x3a
 3891 00cc 0B       		.uleb128 0xb
 3892 00cd 3B       		.uleb128 0x3b
 3893 00ce 05       		.uleb128 0x5
 3894 00cf 27       		.uleb128 0x27
 3895 00d0 19       		.uleb128 0x19
 3896 00d1 49       		.uleb128 0x49
 3897 00d2 13       		.uleb128 0x13
 3898 00d3 11       		.uleb128 0x11
 3899 00d4 01       		.uleb128 0x1
 3900 00d5 12       		.uleb128 0x12
 3901 00d6 06       		.uleb128 0x6
 3902 00d7 40       		.uleb128 0x40
 3903 00d8 18       		.uleb128 0x18
 3904 00d9 9742     		.uleb128 0x2117
 3905 00db 19       		.uleb128 0x19
 3906 00dc 01       		.uleb128 0x1
 3907 00dd 13       		.uleb128 0x13
 3908 00de 00       		.byte	0
 3909 00df 00       		.byte	0
 3910 00e0 12       		.uleb128 0x12
 3911 00e1 05       		.uleb128 0x5
 3912 00e2 00       		.byte	0
 3913 00e3 03       		.uleb128 0x3
 3914 00e4 0E       		.uleb128 0xe
 3915 00e5 3A       		.uleb128 0x3a
 3916 00e6 0B       		.uleb128 0xb
 3917 00e7 3B       		.uleb128 0x3b
 3918 00e8 05       		.uleb128 0x5
 3919 00e9 49       		.uleb128 0x49
 3920 00ea 13       		.uleb128 0x13
 3921 00eb 02       		.uleb128 0x2
 3922 00ec 17       		.uleb128 0x17
 3923 00ed 00       		.byte	0
 3924 00ee 00       		.byte	0
 3925 00ef 13       		.uleb128 0x13
 3926 00f0 34       		.uleb128 0x34
 3927 00f1 00       		.byte	0
 3928 00f2 03       		.uleb128 0x3
 3929 00f3 0E       		.uleb128 0xe
 3930 00f4 3A       		.uleb128 0x3a
ARM GAS  C:\Users\Tri94\AppData\Local\Temp\ccHaJcja.s 			page 98


 3931 00f5 0B       		.uleb128 0xb
 3932 00f6 3B       		.uleb128 0x3b
 3933 00f7 05       		.uleb128 0x5
 3934 00f8 49       		.uleb128 0x49
 3935 00f9 13       		.uleb128 0x13
 3936 00fa 02       		.uleb128 0x2
 3937 00fb 17       		.uleb128 0x17
 3938 00fc 00       		.byte	0
 3939 00fd 00       		.byte	0
 3940 00fe 14       		.uleb128 0x14
 3941 00ff 26       		.uleb128 0x26
 3942 0100 00       		.byte	0
 3943 0101 49       		.uleb128 0x49
 3944 0102 13       		.uleb128 0x13
 3945 0103 00       		.byte	0
 3946 0104 00       		.byte	0
 3947 0105 15       		.uleb128 0x15
 3948 0106 2E       		.uleb128 0x2e
 3949 0107 01       		.byte	0x1
 3950 0108 03       		.uleb128 0x3
 3951 0109 0E       		.uleb128 0xe
 3952 010a 3A       		.uleb128 0x3a
 3953 010b 0B       		.uleb128 0xb
 3954 010c 3B       		.uleb128 0x3b
 3955 010d 05       		.uleb128 0x5
 3956 010e 27       		.uleb128 0x27
 3957 010f 19       		.uleb128 0x19
 3958 0110 11       		.uleb128 0x11
 3959 0111 01       		.uleb128 0x1
 3960 0112 12       		.uleb128 0x12
 3961 0113 06       		.uleb128 0x6
 3962 0114 40       		.uleb128 0x40
 3963 0115 18       		.uleb128 0x18
 3964 0116 9742     		.uleb128 0x2117
 3965 0118 19       		.uleb128 0x19
 3966 0119 01       		.uleb128 0x1
 3967 011a 13       		.uleb128 0x13
 3968 011b 00       		.byte	0
 3969 011c 00       		.byte	0
 3970 011d 16       		.uleb128 0x16
 3971 011e 05       		.uleb128 0x5
 3972 011f 00       		.byte	0
 3973 0120 03       		.uleb128 0x3
 3974 0121 0E       		.uleb128 0xe
 3975 0122 3A       		.uleb128 0x3a
 3976 0123 0B       		.uleb128 0xb
 3977 0124 3B       		.uleb128 0x3b
 3978 0125 05       		.uleb128 0x5
 3979 0126 49       		.uleb128 0x49
 3980 0127 13       		.uleb128 0x13
 3981 0128 02       		.uleb128 0x2
 3982 0129 18       		.uleb128 0x18
 3983 012a 00       		.byte	0
 3984 012b 00       		.byte	0
 3985 012c 17       		.uleb128 0x17
 3986 012d 898201   		.uleb128 0x4109
 3987 0130 01       		.byte	0x1
ARM GAS  C:\Users\Tri94\AppData\Local\Temp\ccHaJcja.s 			page 99


 3988 0131 11       		.uleb128 0x11
 3989 0132 01       		.uleb128 0x1
 3990 0133 31       		.uleb128 0x31
 3991 0134 13       		.uleb128 0x13
 3992 0135 00       		.byte	0
 3993 0136 00       		.byte	0
 3994 0137 18       		.uleb128 0x18
 3995 0138 8A8201   		.uleb128 0x410a
 3996 013b 00       		.byte	0
 3997 013c 02       		.uleb128 0x2
 3998 013d 18       		.uleb128 0x18
 3999 013e 9142     		.uleb128 0x2111
 4000 0140 18       		.uleb128 0x18
 4001 0141 00       		.byte	0
 4002 0142 00       		.byte	0
 4003 0143 19       		.uleb128 0x19
 4004 0144 34       		.uleb128 0x34
 4005 0145 00       		.byte	0
 4006 0146 03       		.uleb128 0x3
 4007 0147 0E       		.uleb128 0xe
 4008 0148 3A       		.uleb128 0x3a
 4009 0149 0B       		.uleb128 0xb
 4010 014a 3B       		.uleb128 0x3b
 4011 014b 05       		.uleb128 0x5
 4012 014c 49       		.uleb128 0x49
 4013 014d 13       		.uleb128 0x13
 4014 014e 02       		.uleb128 0x2
 4015 014f 18       		.uleb128 0x18
 4016 0150 00       		.byte	0
 4017 0151 00       		.byte	0
 4018 0152 1A       		.uleb128 0x1a
 4019 0153 898201   		.uleb128 0x4109
 4020 0156 01       		.byte	0x1
 4021 0157 11       		.uleb128 0x11
 4022 0158 01       		.uleb128 0x1
 4023 0159 31       		.uleb128 0x31
 4024 015a 13       		.uleb128 0x13
 4025 015b 01       		.uleb128 0x1
 4026 015c 13       		.uleb128 0x13
 4027 015d 00       		.byte	0
 4028 015e 00       		.byte	0
 4029 015f 1B       		.uleb128 0x1b
 4030 0160 2E       		.uleb128 0x2e
 4031 0161 01       		.byte	0x1
 4032 0162 3F       		.uleb128 0x3f
 4033 0163 19       		.uleb128 0x19
 4034 0164 03       		.uleb128 0x3
 4035 0165 0E       		.uleb128 0xe
 4036 0166 3A       		.uleb128 0x3a
 4037 0167 0B       		.uleb128 0xb
 4038 0168 3B       		.uleb128 0x3b
 4039 0169 0B       		.uleb128 0xb
 4040 016a 27       		.uleb128 0x27
 4041 016b 19       		.uleb128 0x19
 4042 016c 49       		.uleb128 0x49
 4043 016d 13       		.uleb128 0x13
 4044 016e 11       		.uleb128 0x11
ARM GAS  C:\Users\Tri94\AppData\Local\Temp\ccHaJcja.s 			page 100


 4045 016f 01       		.uleb128 0x1
 4046 0170 12       		.uleb128 0x12
 4047 0171 06       		.uleb128 0x6
 4048 0172 40       		.uleb128 0x40
 4049 0173 18       		.uleb128 0x18
 4050 0174 9742     		.uleb128 0x2117
 4051 0176 19       		.uleb128 0x19
 4052 0177 01       		.uleb128 0x1
 4053 0178 13       		.uleb128 0x13
 4054 0179 00       		.byte	0
 4055 017a 00       		.byte	0
 4056 017b 1C       		.uleb128 0x1c
 4057 017c 05       		.uleb128 0x5
 4058 017d 00       		.byte	0
 4059 017e 03       		.uleb128 0x3
 4060 017f 0E       		.uleb128 0xe
 4061 0180 3A       		.uleb128 0x3a
 4062 0181 0B       		.uleb128 0xb
 4063 0182 3B       		.uleb128 0x3b
 4064 0183 0B       		.uleb128 0xb
 4065 0184 49       		.uleb128 0x49
 4066 0185 13       		.uleb128 0x13
 4067 0186 02       		.uleb128 0x2
 4068 0187 17       		.uleb128 0x17
 4069 0188 00       		.byte	0
 4070 0189 00       		.byte	0
 4071 018a 1D       		.uleb128 0x1d
 4072 018b 34       		.uleb128 0x34
 4073 018c 00       		.byte	0
 4074 018d 03       		.uleb128 0x3
 4075 018e 0E       		.uleb128 0xe
 4076 018f 3A       		.uleb128 0x3a
 4077 0190 0B       		.uleb128 0xb
 4078 0191 3B       		.uleb128 0x3b
 4079 0192 0B       		.uleb128 0xb
 4080 0193 49       		.uleb128 0x49
 4081 0194 13       		.uleb128 0x13
 4082 0195 02       		.uleb128 0x2
 4083 0196 17       		.uleb128 0x17
 4084 0197 00       		.byte	0
 4085 0198 00       		.byte	0
 4086 0199 1E       		.uleb128 0x1e
 4087 019a 2E       		.uleb128 0x2e
 4088 019b 01       		.byte	0x1
 4089 019c 3F       		.uleb128 0x3f
 4090 019d 19       		.uleb128 0x19
 4091 019e 03       		.uleb128 0x3
 4092 019f 0E       		.uleb128 0xe
 4093 01a0 3A       		.uleb128 0x3a
 4094 01a1 0B       		.uleb128 0xb
 4095 01a2 3B       		.uleb128 0x3b
 4096 01a3 05       		.uleb128 0x5
 4097 01a4 27       		.uleb128 0x27
 4098 01a5 19       		.uleb128 0x19
 4099 01a6 11       		.uleb128 0x11
 4100 01a7 01       		.uleb128 0x1
 4101 01a8 12       		.uleb128 0x12
ARM GAS  C:\Users\Tri94\AppData\Local\Temp\ccHaJcja.s 			page 101


 4102 01a9 06       		.uleb128 0x6
 4103 01aa 40       		.uleb128 0x40
 4104 01ab 18       		.uleb128 0x18
 4105 01ac 9742     		.uleb128 0x2117
 4106 01ae 19       		.uleb128 0x19
 4107 01af 01       		.uleb128 0x1
 4108 01b0 13       		.uleb128 0x13
 4109 01b1 00       		.byte	0
 4110 01b2 00       		.byte	0
 4111 01b3 1F       		.uleb128 0x1f
 4112 01b4 2E       		.uleb128 0x2e
 4113 01b5 01       		.byte	0x1
 4114 01b6 3F       		.uleb128 0x3f
 4115 01b7 19       		.uleb128 0x19
 4116 01b8 03       		.uleb128 0x3
 4117 01b9 0E       		.uleb128 0xe
 4118 01ba 3A       		.uleb128 0x3a
 4119 01bb 0B       		.uleb128 0xb
 4120 01bc 3B       		.uleb128 0x3b
 4121 01bd 05       		.uleb128 0x5
 4122 01be 27       		.uleb128 0x27
 4123 01bf 19       		.uleb128 0x19
 4124 01c0 49       		.uleb128 0x49
 4125 01c1 13       		.uleb128 0x13
 4126 01c2 11       		.uleb128 0x11
 4127 01c3 01       		.uleb128 0x1
 4128 01c4 12       		.uleb128 0x12
 4129 01c5 06       		.uleb128 0x6
 4130 01c6 40       		.uleb128 0x40
 4131 01c7 18       		.uleb128 0x18
 4132 01c8 9742     		.uleb128 0x2117
 4133 01ca 19       		.uleb128 0x19
 4134 01cb 01       		.uleb128 0x1
 4135 01cc 13       		.uleb128 0x13
 4136 01cd 00       		.byte	0
 4137 01ce 00       		.byte	0
 4138 01cf 20       		.uleb128 0x20
 4139 01d0 898201   		.uleb128 0x4109
 4140 01d3 00       		.byte	0
 4141 01d4 11       		.uleb128 0x11
 4142 01d5 01       		.uleb128 0x1
 4143 01d6 31       		.uleb128 0x31
 4144 01d7 13       		.uleb128 0x13
 4145 01d8 00       		.byte	0
 4146 01d9 00       		.byte	0
 4147 01da 21       		.uleb128 0x21
 4148 01db 0B       		.uleb128 0xb
 4149 01dc 01       		.byte	0x1
 4150 01dd 11       		.uleb128 0x11
 4151 01de 01       		.uleb128 0x1
 4152 01df 12       		.uleb128 0x12
 4153 01e0 06       		.uleb128 0x6
 4154 01e1 01       		.uleb128 0x1
 4155 01e2 13       		.uleb128 0x13
 4156 01e3 00       		.byte	0
 4157 01e4 00       		.byte	0
 4158 01e5 22       		.uleb128 0x22
ARM GAS  C:\Users\Tri94\AppData\Local\Temp\ccHaJcja.s 			page 102


 4159 01e6 34       		.uleb128 0x34
 4160 01e7 00       		.byte	0
 4161 01e8 03       		.uleb128 0x3
 4162 01e9 0E       		.uleb128 0xe
 4163 01ea 3A       		.uleb128 0x3a
 4164 01eb 0B       		.uleb128 0xb
 4165 01ec 3B       		.uleb128 0x3b
 4166 01ed 05       		.uleb128 0x5
 4167 01ee 49       		.uleb128 0x49
 4168 01ef 13       		.uleb128 0x13
 4169 01f0 00       		.byte	0
 4170 01f1 00       		.byte	0
 4171 01f2 23       		.uleb128 0x23
 4172 01f3 1D       		.uleb128 0x1d
 4173 01f4 01       		.byte	0x1
 4174 01f5 31       		.uleb128 0x31
 4175 01f6 13       		.uleb128 0x13
 4176 01f7 11       		.uleb128 0x11
 4177 01f8 01       		.uleb128 0x1
 4178 01f9 12       		.uleb128 0x12
 4179 01fa 06       		.uleb128 0x6
 4180 01fb 58       		.uleb128 0x58
 4181 01fc 0B       		.uleb128 0xb
 4182 01fd 59       		.uleb128 0x59
 4183 01fe 05       		.uleb128 0x5
 4184 01ff 01       		.uleb128 0x1
 4185 0200 13       		.uleb128 0x13
 4186 0201 00       		.byte	0
 4187 0202 00       		.byte	0
 4188 0203 24       		.uleb128 0x24
 4189 0204 0B       		.uleb128 0xb
 4190 0205 01       		.byte	0x1
 4191 0206 11       		.uleb128 0x11
 4192 0207 01       		.uleb128 0x1
 4193 0208 12       		.uleb128 0x12
 4194 0209 06       		.uleb128 0x6
 4195 020a 00       		.byte	0
 4196 020b 00       		.byte	0
 4197 020c 25       		.uleb128 0x25
 4198 020d 34       		.uleb128 0x34
 4199 020e 00       		.byte	0
 4200 020f 31       		.uleb128 0x31
 4201 0210 13       		.uleb128 0x13
 4202 0211 00       		.byte	0
 4203 0212 00       		.byte	0
 4204 0213 26       		.uleb128 0x26
 4205 0214 05       		.uleb128 0x5
 4206 0215 00       		.byte	0
 4207 0216 31       		.uleb128 0x31
 4208 0217 13       		.uleb128 0x13
 4209 0218 02       		.uleb128 0x2
 4210 0219 17       		.uleb128 0x17
 4211 021a 00       		.byte	0
 4212 021b 00       		.byte	0
 4213 021c 27       		.uleb128 0x27
 4214 021d 34       		.uleb128 0x34
 4215 021e 00       		.byte	0
ARM GAS  C:\Users\Tri94\AppData\Local\Temp\ccHaJcja.s 			page 103


 4216 021f 03       		.uleb128 0x3
 4217 0220 0E       		.uleb128 0xe
 4218 0221 3A       		.uleb128 0x3a
 4219 0222 0B       		.uleb128 0xb
 4220 0223 3B       		.uleb128 0x3b
 4221 0224 05       		.uleb128 0x5
 4222 0225 49       		.uleb128 0x49
 4223 0226 13       		.uleb128 0x13
 4224 0227 3F       		.uleb128 0x3f
 4225 0228 19       		.uleb128 0x19
 4226 0229 3C       		.uleb128 0x3c
 4227 022a 19       		.uleb128 0x19
 4228 022b 00       		.byte	0
 4229 022c 00       		.byte	0
 4230 022d 28       		.uleb128 0x28
 4231 022e 2E       		.uleb128 0x2e
 4232 022f 00       		.byte	0
 4233 0230 3F       		.uleb128 0x3f
 4234 0231 19       		.uleb128 0x19
 4235 0232 3C       		.uleb128 0x3c
 4236 0233 19       		.uleb128 0x19
 4237 0234 6E       		.uleb128 0x6e
 4238 0235 0E       		.uleb128 0xe
 4239 0236 03       		.uleb128 0x3
 4240 0237 0E       		.uleb128 0xe
 4241 0238 00       		.byte	0
 4242 0239 00       		.byte	0
 4243 023a 29       		.uleb128 0x29
 4244 023b 2E       		.uleb128 0x2e
 4245 023c 00       		.byte	0
 4246 023d 3F       		.uleb128 0x3f
 4247 023e 19       		.uleb128 0x19
 4248 023f 3C       		.uleb128 0x3c
 4249 0240 19       		.uleb128 0x19
 4250 0241 6E       		.uleb128 0x6e
 4251 0242 0E       		.uleb128 0xe
 4252 0243 03       		.uleb128 0x3
 4253 0244 0E       		.uleb128 0xe
 4254 0245 3A       		.uleb128 0x3a
 4255 0246 0B       		.uleb128 0xb
 4256 0247 3B       		.uleb128 0x3b
 4257 0248 0B       		.uleb128 0xb
 4258 0249 00       		.byte	0
 4259 024a 00       		.byte	0
 4260 024b 2A       		.uleb128 0x2a
 4261 024c 2E       		.uleb128 0x2e
 4262 024d 00       		.byte	0
 4263 024e 3F       		.uleb128 0x3f
 4264 024f 19       		.uleb128 0x19
 4265 0250 3C       		.uleb128 0x3c
 4266 0251 19       		.uleb128 0x19
 4267 0252 6E       		.uleb128 0x6e
 4268 0253 0E       		.uleb128 0xe
 4269 0254 03       		.uleb128 0x3
 4270 0255 0E       		.uleb128 0xe
 4271 0256 3A       		.uleb128 0x3a
 4272 0257 0B       		.uleb128 0xb
ARM GAS  C:\Users\Tri94\AppData\Local\Temp\ccHaJcja.s 			page 104


 4273 0258 3B       		.uleb128 0x3b
 4274 0259 05       		.uleb128 0x5
 4275 025a 00       		.byte	0
 4276 025b 00       		.byte	0
 4277 025c 00       		.byte	0
 4278              		.section	.debug_loc,"",%progbits
 4279              	.Ldebug_loc0:
 4280              	.LLST0:
 4281 0000 00000000 		.4byte	.LVL0
 4282 0004 08000000 		.4byte	.LVL2
 4283 0008 0100     		.2byte	0x1
 4284 000a 50       		.byte	0x50
 4285 000b 08000000 		.4byte	.LVL2
 4286 000f 12000000 		.4byte	.LFE87
 4287 0013 0400     		.2byte	0x4
 4288 0015 F3       		.byte	0xf3
 4289 0016 01       		.uleb128 0x1
 4290 0017 50       		.byte	0x50
 4291 0018 9F       		.byte	0x9f
 4292 0019 00000000 		.4byte	0
 4293 001d 00000000 		.4byte	0
 4294              	.LLST1:
 4295 0021 06000000 		.4byte	.LVL1
 4296 0025 0A000000 		.4byte	.LVL3
 4297 0029 0100     		.2byte	0x1
 4298 002b 53       		.byte	0x53
 4299 002c 0A000000 		.4byte	.LVL3
 4300 0030 12000000 		.4byte	.LFE87
 4301 0034 0100     		.2byte	0x1
 4302 0036 50       		.byte	0x50
 4303 0037 00000000 		.4byte	0
 4304 003b 00000000 		.4byte	0
 4305              	.LLST2:
 4306 003f 00000000 		.4byte	.LVL5
 4307 0043 11000000 		.4byte	.LVL8-1
 4308 0047 0100     		.2byte	0x1
 4309 0049 50       		.byte	0x50
 4310 004a 11000000 		.4byte	.LVL8-1
 4311 004e 26000000 		.4byte	.LFE88
 4312 0052 0100     		.2byte	0x1
 4313 0054 54       		.byte	0x54
 4314 0055 00000000 		.4byte	0
 4315 0059 00000000 		.4byte	0
 4316              	.LLST3:
 4317 005d 00000000 		.4byte	.LVL5
 4318 0061 0E000000 		.4byte	.LVL7
 4319 0065 0100     		.2byte	0x1
 4320 0067 51       		.byte	0x51
 4321 0068 0E000000 		.4byte	.LVL7
 4322 006c 26000000 		.4byte	.LFE88
 4323 0070 0100     		.2byte	0x1
 4324 0072 55       		.byte	0x55
 4325 0073 00000000 		.4byte	0
 4326 0077 00000000 		.4byte	0
 4327              	.LLST4:
 4328 007b 00000000 		.4byte	.LVL5
 4329 007f 0C000000 		.4byte	.LVL6
ARM GAS  C:\Users\Tri94\AppData\Local\Temp\ccHaJcja.s 			page 105


 4330 0083 0100     		.2byte	0x1
 4331 0085 52       		.byte	0x52
 4332 0086 0C000000 		.4byte	.LVL6
 4333 008a 26000000 		.4byte	.LFE88
 4334 008e 0100     		.2byte	0x1
 4335 0090 57       		.byte	0x57
 4336 0091 00000000 		.4byte	0
 4337 0095 00000000 		.4byte	0
 4338              	.LLST5:
 4339 0099 00000000 		.4byte	.LVL5
 4340 009d 11000000 		.4byte	.LVL8-1
 4341 00a1 0100     		.2byte	0x1
 4342 00a3 53       		.byte	0x53
 4343 00a4 11000000 		.4byte	.LVL8-1
 4344 00a8 26000000 		.4byte	.LFE88
 4345 00ac 0100     		.2byte	0x1
 4346 00ae 56       		.byte	0x56
 4347 00af 00000000 		.4byte	0
 4348 00b3 00000000 		.4byte	0
 4349              	.LLST6:
 4350 00b7 00000000 		.4byte	.LVL9
 4351 00bb 18000000 		.4byte	.LVL12
 4352 00bf 0100     		.2byte	0x1
 4353 00c1 50       		.byte	0x50
 4354 00c2 18000000 		.4byte	.LVL12
 4355 00c6 42000000 		.4byte	.LFE85
 4356 00ca 0100     		.2byte	0x1
 4357 00cc 56       		.byte	0x56
 4358 00cd 00000000 		.4byte	0
 4359 00d1 00000000 		.4byte	0
 4360              	.LLST7:
 4361 00d5 00000000 		.4byte	.LVL9
 4362 00d9 1F000000 		.4byte	.LVL14-1
 4363 00dd 0100     		.2byte	0x1
 4364 00df 51       		.byte	0x51
 4365 00e0 1F000000 		.4byte	.LVL14-1
 4366 00e4 42000000 		.4byte	.LFE85
 4367 00e8 0100     		.2byte	0x1
 4368 00ea 58       		.byte	0x58
 4369 00eb 00000000 		.4byte	0
 4370 00ef 00000000 		.4byte	0
 4371              	.LLST8:
 4372 00f3 00000000 		.4byte	.LVL9
 4373 00f7 1A000000 		.4byte	.LVL13
 4374 00fb 0100     		.2byte	0x1
 4375 00fd 52       		.byte	0x52
 4376 00fe 1A000000 		.4byte	.LVL13
 4377 0102 42000000 		.4byte	.LFE85
 4378 0106 0100     		.2byte	0x1
 4379 0108 57       		.byte	0x57
 4380 0109 00000000 		.4byte	0
 4381 010d 00000000 		.4byte	0
 4382              	.LLST9:
 4383 0111 0C000000 		.4byte	.LVL10
 4384 0115 32000000 		.4byte	.LVL16
 4385 0119 0100     		.2byte	0x1
 4386 011b 54       		.byte	0x54
ARM GAS  C:\Users\Tri94\AppData\Local\Temp\ccHaJcja.s 			page 106


 4387 011c 32000000 		.4byte	.LVL16
 4388 0120 42000000 		.4byte	.LFE85
 4389 0124 0100     		.2byte	0x1
 4390 0126 53       		.byte	0x53
 4391 0127 00000000 		.4byte	0
 4392 012b 00000000 		.4byte	0
 4393              	.LLST10:
 4394 012f 00000000 		.4byte	.LVL18
 4395 0133 33000000 		.4byte	.LVL29-1
 4396 0137 0100     		.2byte	0x1
 4397 0139 50       		.byte	0x50
 4398 013a 33000000 		.4byte	.LVL29-1
 4399 013e 38000000 		.4byte	.LVL30
 4400 0142 0100     		.2byte	0x1
 4401 0144 54       		.byte	0x54
 4402 0145 38000000 		.4byte	.LVL30
 4403 0149 3E000000 		.4byte	.LVL33
 4404 014d 0100     		.2byte	0x1
 4405 014f 50       		.byte	0x50
 4406 0150 3E000000 		.4byte	.LVL33
 4407 0154 52000000 		.4byte	.LFE77
 4408 0158 0100     		.2byte	0x1
 4409 015a 54       		.byte	0x54
 4410 015b 00000000 		.4byte	0
 4411 015f 00000000 		.4byte	0
 4412              	.LLST11:
 4413 0163 00000000 		.4byte	.LVL18
 4414 0167 30000000 		.4byte	.LVL28
 4415 016b 0100     		.2byte	0x1
 4416 016d 51       		.byte	0x51
 4417 016e 30000000 		.4byte	.LVL28
 4418 0172 38000000 		.4byte	.LVL30
 4419 0176 0100     		.2byte	0x1
 4420 0178 55       		.byte	0x55
 4421 0179 38000000 		.4byte	.LVL30
 4422 017d 3E000000 		.4byte	.LVL33
 4423 0181 0100     		.2byte	0x1
 4424 0183 51       		.byte	0x51
 4425 0184 3E000000 		.4byte	.LVL33
 4426 0188 52000000 		.4byte	.LFE77
 4427 018c 0100     		.2byte	0x1
 4428 018e 55       		.byte	0x55
 4429 018f 00000000 		.4byte	0
 4430 0193 00000000 		.4byte	0
 4431              	.LLST12:
 4432 0197 00000000 		.4byte	.LVL18
 4433 019b 0E000000 		.4byte	.LVL19
 4434 019f 0100     		.2byte	0x1
 4435 01a1 52       		.byte	0x52
 4436 01a2 0E000000 		.4byte	.LVL19
 4437 01a6 20000000 		.4byte	.LVL23
 4438 01aa 0200     		.2byte	0x2
 4439 01ac 91       		.byte	0x91
 4440 01ad 6C       		.sleb128 -20
 4441 01ae 20000000 		.4byte	.LVL23
 4442 01b2 22000000 		.4byte	.LVL24
 4443 01b6 0100     		.2byte	0x1
ARM GAS  C:\Users\Tri94\AppData\Local\Temp\ccHaJcja.s 			page 107


 4444 01b8 53       		.byte	0x53
 4445 01b9 22000000 		.4byte	.LVL24
 4446 01bd 24000000 		.4byte	.LVL25
 4447 01c1 0400     		.2byte	0x4
 4448 01c3 F3       		.byte	0xf3
 4449 01c4 01       		.uleb128 0x1
 4450 01c5 52       		.byte	0x52
 4451 01c6 9F       		.byte	0x9f
 4452 01c7 24000000 		.4byte	.LVL25
 4453 01cb 38000000 		.4byte	.LVL30
 4454 01cf 0200     		.2byte	0x2
 4455 01d1 91       		.byte	0x91
 4456 01d2 6C       		.sleb128 -20
 4457 01d3 38000000 		.4byte	.LVL30
 4458 01d7 3C000000 		.4byte	.LVL32
 4459 01db 0100     		.2byte	0x1
 4460 01dd 52       		.byte	0x52
 4461 01de 3C000000 		.4byte	.LVL32
 4462 01e2 3E000000 		.4byte	.LVL33
 4463 01e6 0200     		.2byte	0x2
 4464 01e8 91       		.byte	0x91
 4465 01e9 6C       		.sleb128 -20
 4466 01ea 00000000 		.4byte	0
 4467 01ee 00000000 		.4byte	0
 4468              	.LLST13:
 4469 01f2 00000000 		.4byte	.LVL18
 4470 01f6 10000000 		.4byte	.LVL20
 4471 01fa 0100     		.2byte	0x1
 4472 01fc 53       		.byte	0x53
 4473 01fd 10000000 		.4byte	.LVL20
 4474 0201 1E000000 		.4byte	.LVL22
 4475 0205 0100     		.2byte	0x1
 4476 0207 52       		.byte	0x52
 4477 0208 1E000000 		.4byte	.LVL22
 4478 020c 24000000 		.4byte	.LVL25
 4479 0210 0400     		.2byte	0x4
 4480 0212 F3       		.byte	0xf3
 4481 0213 01       		.uleb128 0x1
 4482 0214 53       		.byte	0x53
 4483 0215 9F       		.byte	0x9f
 4484 0216 24000000 		.4byte	.LVL25
 4485 021a 2C000000 		.4byte	.LVL27
 4486 021e 0100     		.2byte	0x1
 4487 0220 52       		.byte	0x52
 4488 0221 2C000000 		.4byte	.LVL27
 4489 0225 38000000 		.4byte	.LVL30
 4490 0229 0400     		.2byte	0x4
 4491 022b F3       		.byte	0xf3
 4492 022c 01       		.uleb128 0x1
 4493 022d 53       		.byte	0x53
 4494 022e 9F       		.byte	0x9f
 4495 022f 38000000 		.4byte	.LVL30
 4496 0233 3A000000 		.4byte	.LVL31
 4497 0237 0100     		.2byte	0x1
 4498 0239 53       		.byte	0x53
 4499 023a 3A000000 		.4byte	.LVL31
 4500 023e 3C000000 		.4byte	.LVL32
ARM GAS  C:\Users\Tri94\AppData\Local\Temp\ccHaJcja.s 			page 108


 4501 0242 0400     		.2byte	0x4
 4502 0244 F3       		.byte	0xf3
 4503 0245 01       		.uleb128 0x1
 4504 0246 53       		.byte	0x53
 4505 0247 9F       		.byte	0x9f
 4506 0248 3C000000 		.4byte	.LVL32
 4507 024c 3E000000 		.4byte	.LVL33
 4508 0250 0100     		.2byte	0x1
 4509 0252 52       		.byte	0x52
 4510 0253 3E000000 		.4byte	.LVL33
 4511 0257 52000000 		.4byte	.LFE77
 4512 025b 0400     		.2byte	0x4
 4513 025d F3       		.byte	0xf3
 4514 025e 01       		.uleb128 0x1
 4515 025f 53       		.byte	0x53
 4516 0260 9F       		.byte	0x9f
 4517 0261 00000000 		.4byte	0
 4518 0265 00000000 		.4byte	0
 4519              	.LLST14:
 4520 0269 16000000 		.4byte	.LVL21
 4521 026d 24000000 		.4byte	.LVL25
 4522 0271 0200     		.2byte	0x2
 4523 0273 31       		.byte	0x31
 4524 0274 9F       		.byte	0x9f
 4525 0275 2A000000 		.4byte	.LVL26
 4526 0279 38000000 		.4byte	.LVL30
 4527 027d 0200     		.2byte	0x2
 4528 027f 31       		.byte	0x31
 4529 0280 9F       		.byte	0x9f
 4530 0281 3E000000 		.4byte	.LVL33
 4531 0285 49000000 		.4byte	.LVL34-1
 4532 0289 0100     		.2byte	0x1
 4533 028b 53       		.byte	0x53
 4534 028c 4C000000 		.4byte	.LVL35
 4535 0290 4E000000 		.4byte	.LVL36
 4536 0294 0100     		.2byte	0x1
 4537 0296 53       		.byte	0x53
 4538 0297 00000000 		.4byte	0
 4539 029b 00000000 		.4byte	0
 4540              	.LLST15:
 4541 029f 4A000000 		.4byte	.LVL34
 4542 02a3 4C000000 		.4byte	.LVL35
 4543 02a7 0100     		.2byte	0x1
 4544 02a9 50       		.byte	0x50
 4545 02aa 4E000000 		.4byte	.LVL36
 4546 02ae 52000000 		.4byte	.LFE77
 4547 02b2 0100     		.2byte	0x1
 4548 02b4 50       		.byte	0x50
 4549 02b5 00000000 		.4byte	0
 4550 02b9 00000000 		.4byte	0
 4551              	.LLST16:
 4552 02bd 00000000 		.4byte	.LVL37
 4553 02c1 26000000 		.4byte	.LVL44
 4554 02c5 0100     		.2byte	0x1
 4555 02c7 50       		.byte	0x50
 4556 02c8 26000000 		.4byte	.LVL44
 4557 02cc 46000000 		.4byte	.LVL49
ARM GAS  C:\Users\Tri94\AppData\Local\Temp\ccHaJcja.s 			page 109


 4558 02d0 0100     		.2byte	0x1
 4559 02d2 55       		.byte	0x55
 4560 02d3 46000000 		.4byte	.LVL49
 4561 02d7 4C000000 		.4byte	.LFE86
 4562 02db 0400     		.2byte	0x4
 4563 02dd F3       		.byte	0xf3
 4564 02de 01       		.uleb128 0x1
 4565 02df 50       		.byte	0x50
 4566 02e0 9F       		.byte	0x9f
 4567 02e1 00000000 		.4byte	0
 4568 02e5 00000000 		.4byte	0
 4569              	.LLST17:
 4570 02e9 00000000 		.4byte	.LVL37
 4571 02ed 20000000 		.4byte	.LVL42
 4572 02f1 0100     		.2byte	0x1
 4573 02f3 51       		.byte	0x51
 4574 02f4 20000000 		.4byte	.LVL42
 4575 02f8 46000000 		.4byte	.LVL49
 4576 02fc 0100     		.2byte	0x1
 4577 02fe 58       		.byte	0x58
 4578 02ff 46000000 		.4byte	.LVL49
 4579 0303 4C000000 		.4byte	.LFE86
 4580 0307 0400     		.2byte	0x4
 4581 0309 F3       		.byte	0xf3
 4582 030a 01       		.uleb128 0x1
 4583 030b 51       		.byte	0x51
 4584 030c 9F       		.byte	0x9f
 4585 030d 00000000 		.4byte	0
 4586 0311 00000000 		.4byte	0
 4587              	.LLST18:
 4588 0315 00000000 		.4byte	.LVL37
 4589 0319 0A000000 		.4byte	.LVL38
 4590 031d 0100     		.2byte	0x1
 4591 031f 52       		.byte	0x52
 4592 0320 0A000000 		.4byte	.LVL38
 4593 0324 4C000000 		.4byte	.LFE86
 4594 0328 0400     		.2byte	0x4
 4595 032a F3       		.byte	0xf3
 4596 032b 01       		.uleb128 0x1
 4597 032c 52       		.byte	0x52
 4598 032d 9F       		.byte	0x9f
 4599 032e 00000000 		.4byte	0
 4600 0332 00000000 		.4byte	0
 4601              	.LLST19:
 4602 0336 00000000 		.4byte	.LVL37
 4603 033a 29000000 		.4byte	.LVL45-1
 4604 033e 0100     		.2byte	0x1
 4605 0340 53       		.byte	0x53
 4606 0341 29000000 		.4byte	.LVL45-1
 4607 0345 4C000000 		.4byte	.LFE86
 4608 0349 0400     		.2byte	0x4
 4609 034b F3       		.byte	0xf3
 4610 034c 01       		.uleb128 0x1
 4611 034d 53       		.byte	0x53
 4612 034e 9F       		.byte	0x9f
 4613 034f 00000000 		.4byte	0
 4614 0353 00000000 		.4byte	0
ARM GAS  C:\Users\Tri94\AppData\Local\Temp\ccHaJcja.s 			page 110


 4615              	.LLST20:
 4616 0357 0C000000 		.4byte	.LVL39
 4617 035b 22000000 		.4byte	.LVL43
 4618 035f 0100     		.2byte	0x1
 4619 0361 52       		.byte	0x52
 4620 0362 22000000 		.4byte	.LVL43
 4621 0366 4C000000 		.4byte	.LFE86
 4622 036a 0100     		.2byte	0x1
 4623 036c 54       		.byte	0x54
 4624 036d 00000000 		.4byte	0
 4625 0371 00000000 		.4byte	0
 4626              	.LLST21:
 4627 0375 1E000000 		.4byte	.LVL41
 4628 0379 46000000 		.4byte	.LVL49
 4629 037d 0100     		.2byte	0x1
 4630 037f 57       		.byte	0x57
 4631 0380 00000000 		.4byte	0
 4632 0384 00000000 		.4byte	0
 4633              	.LLST22:
 4634 0388 14000000 		.4byte	.LVL40
 4635 038c 46000000 		.4byte	.LVL49
 4636 0390 0100     		.2byte	0x1
 4637 0392 56       		.byte	0x56
 4638 0393 00000000 		.4byte	0
 4639 0397 00000000 		.4byte	0
 4640              	.LLST23:
 4641 039b 00000000 		.4byte	.LVL50
 4642 039f 1D000000 		.4byte	.LVL54-1
 4643 03a3 0100     		.2byte	0x1
 4644 03a5 50       		.byte	0x50
 4645 03a6 1D000000 		.4byte	.LVL54-1
 4646 03aa 30000000 		.4byte	.LVL56
 4647 03ae 0100     		.2byte	0x1
 4648 03b0 55       		.byte	0x55
 4649 03b1 30000000 		.4byte	.LVL56
 4650 03b5 32000000 		.4byte	.LVL57
 4651 03b9 0100     		.2byte	0x1
 4652 03bb 50       		.byte	0x50
 4653 03bc 32000000 		.4byte	.LVL57
 4654 03c0 44000000 		.4byte	.LFE80
 4655 03c4 0100     		.2byte	0x1
 4656 03c6 55       		.byte	0x55
 4657 03c7 00000000 		.4byte	0
 4658 03cb 00000000 		.4byte	0
 4659              	.LLST24:
 4660 03cf 00000000 		.4byte	.LVL50
 4661 03d3 1A000000 		.4byte	.LVL53
 4662 03d7 0100     		.2byte	0x1
 4663 03d9 51       		.byte	0x51
 4664 03da 1A000000 		.4byte	.LVL53
 4665 03de 30000000 		.4byte	.LVL56
 4666 03e2 0100     		.2byte	0x1
 4667 03e4 57       		.byte	0x57
 4668 03e5 30000000 		.4byte	.LVL56
 4669 03e9 32000000 		.4byte	.LVL57
 4670 03ed 0100     		.2byte	0x1
 4671 03ef 51       		.byte	0x51
ARM GAS  C:\Users\Tri94\AppData\Local\Temp\ccHaJcja.s 			page 111


 4672 03f0 32000000 		.4byte	.LVL57
 4673 03f4 44000000 		.4byte	.LFE80
 4674 03f8 0100     		.2byte	0x1
 4675 03fa 57       		.byte	0x57
 4676 03fb 00000000 		.4byte	0
 4677 03ff 00000000 		.4byte	0
 4678              	.LLST25:
 4679 0403 00000000 		.4byte	.LVL50
 4680 0407 18000000 		.4byte	.LVL52
 4681 040b 0100     		.2byte	0x1
 4682 040d 52       		.byte	0x52
 4683 040e 18000000 		.4byte	.LVL52
 4684 0412 30000000 		.4byte	.LVL56
 4685 0416 0100     		.2byte	0x1
 4686 0418 58       		.byte	0x58
 4687 0419 30000000 		.4byte	.LVL56
 4688 041d 32000000 		.4byte	.LVL57
 4689 0421 0100     		.2byte	0x1
 4690 0423 52       		.byte	0x52
 4691 0424 32000000 		.4byte	.LVL57
 4692 0428 44000000 		.4byte	.LFE80
 4693 042c 0100     		.2byte	0x1
 4694 042e 58       		.byte	0x58
 4695 042f 00000000 		.4byte	0
 4696 0433 00000000 		.4byte	0
 4697              	.LLST26:
 4698 0437 00000000 		.4byte	.LVL50
 4699 043b 1D000000 		.4byte	.LVL54-1
 4700 043f 0100     		.2byte	0x1
 4701 0441 53       		.byte	0x53
 4702 0442 1D000000 		.4byte	.LVL54-1
 4703 0446 30000000 		.4byte	.LVL56
 4704 044a 0100     		.2byte	0x1
 4705 044c 54       		.byte	0x54
 4706 044d 30000000 		.4byte	.LVL56
 4707 0451 32000000 		.4byte	.LVL57
 4708 0455 0100     		.2byte	0x1
 4709 0457 53       		.byte	0x53
 4710 0458 32000000 		.4byte	.LVL57
 4711 045c 44000000 		.4byte	.LFE80
 4712 0460 0100     		.2byte	0x1
 4713 0462 54       		.byte	0x54
 4714 0463 00000000 		.4byte	0
 4715 0467 00000000 		.4byte	0
 4716              	.LLST27:
 4717 046b 16000000 		.4byte	.LVL51
 4718 046f 30000000 		.4byte	.LVL56
 4719 0473 0100     		.2byte	0x1
 4720 0475 59       		.byte	0x59
 4721 0476 00000000 		.4byte	0
 4722 047a 00000000 		.4byte	0
 4723              	.LLST28:
 4724 047e 00000000 		.4byte	.LVL59
 4725 0482 0E000000 		.4byte	.LVL61
 4726 0486 0100     		.2byte	0x1
 4727 0488 50       		.byte	0x50
 4728 0489 0E000000 		.4byte	.LVL61
ARM GAS  C:\Users\Tri94\AppData\Local\Temp\ccHaJcja.s 			page 112


 4729 048d 2C000000 		.4byte	.LFE69
 4730 0491 0100     		.2byte	0x1
 4731 0493 56       		.byte	0x56
 4732 0494 00000000 		.4byte	0
 4733 0498 00000000 		.4byte	0
 4734              	.LLST29:
 4735 049c 00000000 		.4byte	.LVL59
 4736 04a0 0C000000 		.4byte	.LVL60
 4737 04a4 0100     		.2byte	0x1
 4738 04a6 51       		.byte	0x51
 4739 04a7 0C000000 		.4byte	.LVL60
 4740 04ab 2C000000 		.4byte	.LFE69
 4741 04af 0100     		.2byte	0x1
 4742 04b1 55       		.byte	0x55
 4743 04b2 00000000 		.4byte	0
 4744 04b6 00000000 		.4byte	0
 4745              	.LLST30:
 4746 04ba 00000000 		.4byte	.LVL59
 4747 04be 13000000 		.4byte	.LVL62-1
 4748 04c2 0100     		.2byte	0x1
 4749 04c4 52       		.byte	0x52
 4750 04c5 13000000 		.4byte	.LVL62-1
 4751 04c9 2C000000 		.4byte	.LFE69
 4752 04cd 0100     		.2byte	0x1
 4753 04cf 57       		.byte	0x57
 4754 04d0 00000000 		.4byte	0
 4755 04d4 00000000 		.4byte	0
 4756              	.LLST31:
 4757 04d8 14000000 		.4byte	.LVL62
 4758 04dc 25000000 		.4byte	.LVL63-1
 4759 04e0 0100     		.2byte	0x1
 4760 04e2 50       		.byte	0x50
 4761 04e3 25000000 		.4byte	.LVL63-1
 4762 04e7 2C000000 		.4byte	.LFE69
 4763 04eb 0100     		.2byte	0x1
 4764 04ed 54       		.byte	0x54
 4765 04ee 00000000 		.4byte	0
 4766 04f2 00000000 		.4byte	0
 4767              	.LLST32:
 4768 04f6 00000000 		.4byte	.LVL64
 4769 04fa 0D000000 		.4byte	.LVL66-1
 4770 04fe 0100     		.2byte	0x1
 4771 0500 50       		.byte	0x50
 4772 0501 0D000000 		.4byte	.LVL66-1
 4773 0505 10000000 		.4byte	.LVL67
 4774 0509 0400     		.2byte	0x4
 4775 050b F3       		.byte	0xf3
 4776 050c 01       		.uleb128 0x1
 4777 050d 50       		.byte	0x50
 4778 050e 9F       		.byte	0x9f
 4779 050f 10000000 		.4byte	.LVL67
 4780 0513 17000000 		.4byte	.LVL68-1
 4781 0517 0100     		.2byte	0x1
 4782 0519 50       		.byte	0x50
 4783 051a 17000000 		.4byte	.LVL68-1
 4784 051e 1A000000 		.4byte	.LFE70
 4785 0522 0400     		.2byte	0x4
ARM GAS  C:\Users\Tri94\AppData\Local\Temp\ccHaJcja.s 			page 113


 4786 0524 F3       		.byte	0xf3
 4787 0525 01       		.uleb128 0x1
 4788 0526 50       		.byte	0x50
 4789 0527 9F       		.byte	0x9f
 4790 0528 00000000 		.4byte	0
 4791 052c 00000000 		.4byte	0
 4792              	.LLST33:
 4793 0530 02000000 		.4byte	.LVL65
 4794 0534 0D000000 		.4byte	.LVL66-1
 4795 0538 0100     		.2byte	0x1
 4796 053a 50       		.byte	0x50
 4797 053b 0D000000 		.4byte	.LVL66-1
 4798 053f 10000000 		.4byte	.LVL67
 4799 0543 0400     		.2byte	0x4
 4800 0545 F3       		.byte	0xf3
 4801 0546 01       		.uleb128 0x1
 4802 0547 50       		.byte	0x50
 4803 0548 9F       		.byte	0x9f
 4804 0549 10000000 		.4byte	.LVL67
 4805 054d 17000000 		.4byte	.LVL68-1
 4806 0551 0100     		.2byte	0x1
 4807 0553 50       		.byte	0x50
 4808 0554 17000000 		.4byte	.LVL68-1
 4809 0558 1A000000 		.4byte	.LFE70
 4810 055c 0400     		.2byte	0x4
 4811 055e F3       		.byte	0xf3
 4812 055f 01       		.uleb128 0x1
 4813 0560 50       		.byte	0x50
 4814 0561 9F       		.byte	0x9f
 4815 0562 00000000 		.4byte	0
 4816 0566 00000000 		.4byte	0
 4817              	.LLST34:
 4818 056a 00000000 		.4byte	.LVL69
 4819 056e 25000000 		.4byte	.LVL72-1
 4820 0572 0100     		.2byte	0x1
 4821 0574 50       		.byte	0x50
 4822 0575 25000000 		.4byte	.LVL72-1
 4823 0579 2A000000 		.4byte	.LVL73
 4824 057d 0400     		.2byte	0x4
 4825 057f F3       		.byte	0xf3
 4826 0580 01       		.uleb128 0x1
 4827 0581 50       		.byte	0x50
 4828 0582 9F       		.byte	0x9f
 4829 0583 2A000000 		.4byte	.LVL73
 4830 0587 2C000000 		.4byte	.LVL74
 4831 058b 0100     		.2byte	0x1
 4832 058d 50       		.byte	0x50
 4833 058e 2C000000 		.4byte	.LVL74
 4834 0592 2E000000 		.4byte	.LVL75
 4835 0596 0400     		.2byte	0x4
 4836 0598 F3       		.byte	0xf3
 4837 0599 01       		.uleb128 0x1
 4838 059a 50       		.byte	0x50
 4839 059b 9F       		.byte	0x9f
 4840 059c 2E000000 		.4byte	.LVL75
 4841 05a0 30000000 		.4byte	.LVL76
 4842 05a4 0100     		.2byte	0x1
ARM GAS  C:\Users\Tri94\AppData\Local\Temp\ccHaJcja.s 			page 114


 4843 05a6 50       		.byte	0x50
 4844 05a7 30000000 		.4byte	.LVL76
 4845 05ab 38000000 		.4byte	.LFE71
 4846 05af 0400     		.2byte	0x4
 4847 05b1 F3       		.byte	0xf3
 4848 05b2 01       		.uleb128 0x1
 4849 05b3 50       		.byte	0x50
 4850 05b4 9F       		.byte	0x9f
 4851 05b5 00000000 		.4byte	0
 4852 05b9 00000000 		.4byte	0
 4853              	.LLST35:
 4854 05bd 00000000 		.4byte	.LVL69
 4855 05c1 25000000 		.4byte	.LVL72-1
 4856 05c5 0100     		.2byte	0x1
 4857 05c7 50       		.byte	0x50
 4858 05c8 25000000 		.4byte	.LVL72-1
 4859 05cc 2A000000 		.4byte	.LVL73
 4860 05d0 0400     		.2byte	0x4
 4861 05d2 F3       		.byte	0xf3
 4862 05d3 01       		.uleb128 0x1
 4863 05d4 50       		.byte	0x50
 4864 05d5 9F       		.byte	0x9f
 4865 05d6 2A000000 		.4byte	.LVL73
 4866 05da 2C000000 		.4byte	.LVL74
 4867 05de 0100     		.2byte	0x1
 4868 05e0 50       		.byte	0x50
 4869 05e1 2C000000 		.4byte	.LVL74
 4870 05e5 2E000000 		.4byte	.LVL75
 4871 05e9 0400     		.2byte	0x4
 4872 05eb F3       		.byte	0xf3
 4873 05ec 01       		.uleb128 0x1
 4874 05ed 50       		.byte	0x50
 4875 05ee 9F       		.byte	0x9f
 4876 05ef 2E000000 		.4byte	.LVL75
 4877 05f3 30000000 		.4byte	.LVL76
 4878 05f7 0100     		.2byte	0x1
 4879 05f9 50       		.byte	0x50
 4880 05fa 30000000 		.4byte	.LVL76
 4881 05fe 38000000 		.4byte	.LFE71
 4882 0602 0400     		.2byte	0x4
 4883 0604 F3       		.byte	0xf3
 4884 0605 01       		.uleb128 0x1
 4885 0606 50       		.byte	0x50
 4886 0607 9F       		.byte	0x9f
 4887 0608 00000000 		.4byte	0
 4888 060c 00000000 		.4byte	0
 4889              	.LLST36:
 4890 0610 00000000 		.4byte	.LVL69
 4891 0614 26000000 		.4byte	.LVL72
 4892 0618 0200     		.2byte	0x2
 4893 061a 30       		.byte	0x30
 4894 061b 9F       		.byte	0x9f
 4895 061c 26000000 		.4byte	.LVL72
 4896 0620 2A000000 		.4byte	.LVL73
 4897 0624 0200     		.2byte	0x2
 4898 0626 31       		.byte	0x31
 4899 0627 9F       		.byte	0x9f
ARM GAS  C:\Users\Tri94\AppData\Local\Temp\ccHaJcja.s 			page 115


 4900 0628 2A000000 		.4byte	.LVL73
 4901 062c 32000000 		.4byte	.LVL77
 4902 0630 0200     		.2byte	0x2
 4903 0632 30       		.byte	0x30
 4904 0633 9F       		.byte	0x9f
 4905 0634 32000000 		.4byte	.LVL77
 4906 0638 38000000 		.4byte	.LFE71
 4907 063c 0100     		.2byte	0x1
 4908 063e 50       		.byte	0x50
 4909 063f 00000000 		.4byte	0
 4910 0643 00000000 		.4byte	0
 4911              	.LLST37:
 4912 0647 1A000000 		.4byte	.LVL70
 4913 064b 1E000000 		.4byte	.LVL71
 4914 064f 0100     		.2byte	0x1
 4915 0651 53       		.byte	0x53
 4916 0652 1E000000 		.4byte	.LVL71
 4917 0656 25000000 		.4byte	.LVL72-1
 4918 065a 0200     		.2byte	0x2
 4919 065c 7D       		.byte	0x7d
 4920 065d 00       		.sleb128 0
 4921 065e 00000000 		.4byte	0
 4922 0662 00000000 		.4byte	0
 4923              	.LLST38:
 4924 0666 00000000 		.4byte	.LVL78
 4925 066a 10000000 		.4byte	.LVL81
 4926 066e 0100     		.2byte	0x1
 4927 0670 50       		.byte	0x50
 4928 0671 10000000 		.4byte	.LVL81
 4929 0675 12000000 		.4byte	.LVL82
 4930 0679 0400     		.2byte	0x4
 4931 067b F3       		.byte	0xf3
 4932 067c 01       		.uleb128 0x1
 4933 067d 50       		.byte	0x50
 4934 067e 9F       		.byte	0x9f
 4935 067f 12000000 		.4byte	.LVL82
 4936 0683 14000000 		.4byte	.LVL83
 4937 0687 0100     		.2byte	0x1
 4938 0689 50       		.byte	0x50
 4939 068a 14000000 		.4byte	.LVL83
 4940 068e 16000000 		.4byte	.LFE72
 4941 0692 0400     		.2byte	0x4
 4942 0694 F3       		.byte	0xf3
 4943 0695 01       		.uleb128 0x1
 4944 0696 50       		.byte	0x50
 4945 0697 9F       		.byte	0x9f
 4946 0698 00000000 		.4byte	0
 4947 069c 00000000 		.4byte	0
 4948              	.LLST39:
 4949 06a0 00000000 		.4byte	.LVL78
 4950 06a4 06000000 		.4byte	.LVL79
 4951 06a8 0100     		.2byte	0x1
 4952 06aa 51       		.byte	0x51
 4953 06ab 06000000 		.4byte	.LVL79
 4954 06af 16000000 		.4byte	.LFE72
 4955 06b3 0100     		.2byte	0x1
 4956 06b5 53       		.byte	0x53
ARM GAS  C:\Users\Tri94\AppData\Local\Temp\ccHaJcja.s 			page 116


 4957 06b6 00000000 		.4byte	0
 4958 06ba 00000000 		.4byte	0
 4959              	.LLST40:
 4960 06be 00000000 		.4byte	.LVL78
 4961 06c2 10000000 		.4byte	.LVL81
 4962 06c6 0100     		.2byte	0x1
 4963 06c8 50       		.byte	0x50
 4964 06c9 10000000 		.4byte	.LVL81
 4965 06cd 12000000 		.4byte	.LVL82
 4966 06d1 0400     		.2byte	0x4
 4967 06d3 F3       		.byte	0xf3
 4968 06d4 01       		.uleb128 0x1
 4969 06d5 50       		.byte	0x50
 4970 06d6 9F       		.byte	0x9f
 4971 06d7 12000000 		.4byte	.LVL82
 4972 06db 14000000 		.4byte	.LVL83
 4973 06df 0100     		.2byte	0x1
 4974 06e1 50       		.byte	0x50
 4975 06e2 14000000 		.4byte	.LVL83
 4976 06e6 16000000 		.4byte	.LFE72
 4977 06ea 0400     		.2byte	0x4
 4978 06ec F3       		.byte	0xf3
 4979 06ed 01       		.uleb128 0x1
 4980 06ee 50       		.byte	0x50
 4981 06ef 9F       		.byte	0x9f
 4982 06f0 00000000 		.4byte	0
 4983 06f4 00000000 		.4byte	0
 4984              	.LLST41:
 4985 06f8 0E000000 		.4byte	.LVL80
 4986 06fc 12000000 		.4byte	.LVL82
 4987 0700 0200     		.2byte	0x2
 4988 0702 31       		.byte	0x31
 4989 0703 9F       		.byte	0x9f
 4990 0704 14000000 		.4byte	.LVL83
 4991 0708 16000000 		.4byte	.LFE72
 4992 070c 0100     		.2byte	0x1
 4993 070e 50       		.byte	0x50
 4994 070f 00000000 		.4byte	0
 4995 0713 00000000 		.4byte	0
 4996              	.LLST42:
 4997 0717 00000000 		.4byte	.LVL84
 4998 071b 08000000 		.4byte	.LVL86
 4999 071f 0100     		.2byte	0x1
 5000 0721 50       		.byte	0x50
 5001 0722 08000000 		.4byte	.LVL86
 5002 0726 14000000 		.4byte	.LFE73
 5003 072a 0400     		.2byte	0x4
 5004 072c F3       		.byte	0xf3
 5005 072d 01       		.uleb128 0x1
 5006 072e 50       		.byte	0x50
 5007 072f 9F       		.byte	0x9f
 5008 0730 00000000 		.4byte	0
 5009 0734 00000000 		.4byte	0
 5010              	.LLST43:
 5011 0738 00000000 		.4byte	.LVL84
 5012 073c 08000000 		.4byte	.LVL86
 5013 0740 0100     		.2byte	0x1
ARM GAS  C:\Users\Tri94\AppData\Local\Temp\ccHaJcja.s 			page 117


 5014 0742 50       		.byte	0x50
 5015 0743 08000000 		.4byte	.LVL86
 5016 0747 14000000 		.4byte	.LFE73
 5017 074b 0400     		.2byte	0x4
 5018 074d F3       		.byte	0xf3
 5019 074e 01       		.uleb128 0x1
 5020 074f 50       		.byte	0x50
 5021 0750 9F       		.byte	0x9f
 5022 0751 00000000 		.4byte	0
 5023 0755 00000000 		.4byte	0
 5024              	.LLST44:
 5025 0759 06000000 		.4byte	.LVL85
 5026 075d 0A000000 		.4byte	.LVL87
 5027 0761 0100     		.2byte	0x1
 5028 0763 53       		.byte	0x53
 5029 0764 0A000000 		.4byte	.LVL87
 5030 0768 14000000 		.4byte	.LFE73
 5031 076c 0100     		.2byte	0x1
 5032 076e 50       		.byte	0x50
 5033 076f 00000000 		.4byte	0
 5034 0773 00000000 		.4byte	0
 5035              	.LLST45:
 5036 0777 00000000 		.4byte	.LVL90
 5037 077b 05000000 		.4byte	.LVL92-1
 5038 077f 0100     		.2byte	0x1
 5039 0781 50       		.byte	0x50
 5040 0782 05000000 		.4byte	.LVL92-1
 5041 0786 08000000 		.4byte	.LFE74
 5042 078a 0400     		.2byte	0x4
 5043 078c F3       		.byte	0xf3
 5044 078d 01       		.uleb128 0x1
 5045 078e 50       		.byte	0x50
 5046 078f 9F       		.byte	0x9f
 5047 0790 00000000 		.4byte	0
 5048 0794 00000000 		.4byte	0
 5049              	.LLST46:
 5050 0798 02000000 		.4byte	.LVL91
 5051 079c 05000000 		.4byte	.LVL92-1
 5052 07a0 0100     		.2byte	0x1
 5053 07a2 50       		.byte	0x50
 5054 07a3 05000000 		.4byte	.LVL92-1
 5055 07a7 08000000 		.4byte	.LFE74
 5056 07ab 0400     		.2byte	0x4
 5057 07ad F3       		.byte	0xf3
 5058 07ae 01       		.uleb128 0x1
 5059 07af 50       		.byte	0x50
 5060 07b0 9F       		.byte	0x9f
 5061 07b1 00000000 		.4byte	0
 5062 07b5 00000000 		.4byte	0
 5063              	.LLST47:
 5064 07b9 00000000 		.4byte	.LVL93
 5065 07bd 22000000 		.4byte	.LVL99
 5066 07c1 0100     		.2byte	0x1
 5067 07c3 50       		.byte	0x50
 5068 07c4 22000000 		.4byte	.LVL99
 5069 07c8 70000000 		.4byte	.LVL112
 5070 07cc 0100     		.2byte	0x1
ARM GAS  C:\Users\Tri94\AppData\Local\Temp\ccHaJcja.s 			page 118


 5071 07ce 54       		.byte	0x54
 5072 07cf 70000000 		.4byte	.LVL112
 5073 07d3 72000000 		.4byte	.LVL113
 5074 07d7 0100     		.2byte	0x1
 5075 07d9 50       		.byte	0x50
 5076 07da 72000000 		.4byte	.LVL113
 5077 07de BE000000 		.4byte	.LFE75
 5078 07e2 0100     		.2byte	0x1
 5079 07e4 54       		.byte	0x54
 5080 07e5 00000000 		.4byte	0
 5081 07e9 00000000 		.4byte	0
 5082              	.LLST48:
 5083 07ed 00000000 		.4byte	.LVL93
 5084 07f1 25000000 		.4byte	.LVL100-1
 5085 07f5 0100     		.2byte	0x1
 5086 07f7 51       		.byte	0x51
 5087 07f8 25000000 		.4byte	.LVL100-1
 5088 07fc 70000000 		.4byte	.LVL112
 5089 0800 0100     		.2byte	0x1
 5090 0802 59       		.byte	0x59
 5091 0803 70000000 		.4byte	.LVL112
 5092 0807 72000000 		.4byte	.LVL113
 5093 080b 0100     		.2byte	0x1
 5094 080d 51       		.byte	0x51
 5095 080e 72000000 		.4byte	.LVL113
 5096 0812 BE000000 		.4byte	.LFE75
 5097 0816 0100     		.2byte	0x1
 5098 0818 59       		.byte	0x59
 5099 0819 00000000 		.4byte	0
 5100 081d 00000000 		.4byte	0
 5101              	.LLST49:
 5102 0821 00000000 		.4byte	.LVL93
 5103 0825 25000000 		.4byte	.LVL100-1
 5104 0829 0100     		.2byte	0x1
 5105 082b 52       		.byte	0x52
 5106 082c 25000000 		.4byte	.LVL100-1
 5107 0830 70000000 		.4byte	.LVL112
 5108 0834 0100     		.2byte	0x1
 5109 0836 58       		.byte	0x58
 5110 0837 70000000 		.4byte	.LVL112
 5111 083b 72000000 		.4byte	.LVL113
 5112 083f 0100     		.2byte	0x1
 5113 0841 52       		.byte	0x52
 5114 0842 72000000 		.4byte	.LVL113
 5115 0846 BE000000 		.4byte	.LFE75
 5116 084a 0100     		.2byte	0x1
 5117 084c 58       		.byte	0x58
 5118 084d 00000000 		.4byte	0
 5119 0851 00000000 		.4byte	0
 5120              	.LLST50:
 5121 0855 00000000 		.4byte	.LVL93
 5122 0859 10000000 		.4byte	.LVL95
 5123 085d 0100     		.2byte	0x1
 5124 085f 53       		.byte	0x53
 5125 0860 10000000 		.4byte	.LVL95
 5126 0864 BE000000 		.4byte	.LFE75
 5127 0868 0200     		.2byte	0x2
ARM GAS  C:\Users\Tri94\AppData\Local\Temp\ccHaJcja.s 			page 119


 5128 086a 91       		.byte	0x91
 5129 086b 54       		.sleb128 -44
 5130 086c 00000000 		.4byte	0
 5131 0870 00000000 		.4byte	0
 5132              	.LLST51:
 5133 0874 0E000000 		.4byte	.LVL94
 5134 0878 22000000 		.4byte	.LVL99
 5135 087c 0100     		.2byte	0x1
 5136 087e 50       		.byte	0x50
 5137 087f 22000000 		.4byte	.LVL99
 5138 0883 70000000 		.4byte	.LVL112
 5139 0887 0100     		.2byte	0x1
 5140 0889 54       		.byte	0x54
 5141 088a 70000000 		.4byte	.LVL112
 5142 088e 72000000 		.4byte	.LVL113
 5143 0892 0100     		.2byte	0x1
 5144 0894 50       		.byte	0x50
 5145 0895 72000000 		.4byte	.LVL113
 5146 0899 BE000000 		.4byte	.LFE75
 5147 089d 0100     		.2byte	0x1
 5148 089f 54       		.byte	0x54
 5149 08a0 00000000 		.4byte	0
 5150 08a4 00000000 		.4byte	0
 5151              	.LLST52:
 5152 08a8 8A000000 		.4byte	.LVL116
 5153 08ac 90000000 		.4byte	.LVL117
 5154 08b0 0100     		.2byte	0x1
 5155 08b2 50       		.byte	0x50
 5156 08b3 90000000 		.4byte	.LVL117
 5157 08b7 BE000000 		.4byte	.LFE75
 5158 08bb 0100     		.2byte	0x1
 5159 08bd 55       		.byte	0x55
 5160 08be 00000000 		.4byte	0
 5161 08c2 00000000 		.4byte	0
 5162              	.LLST53:
 5163 08c6 0E000000 		.4byte	.LVL94
 5164 08ca 26000000 		.4byte	.LVL100
 5165 08ce 0200     		.2byte	0x2
 5166 08d0 30       		.byte	0x30
 5167 08d1 9F       		.byte	0x9f
 5168 08d2 32000000 		.4byte	.LVL103
 5169 08d6 38000000 		.4byte	.LVL104
 5170 08da 0100     		.2byte	0x1
 5171 08dc 50       		.byte	0x50
 5172 08dd 38000000 		.4byte	.LVL104
 5173 08e1 6A000000 		.4byte	.LVL110
 5174 08e5 0100     		.2byte	0x1
 5175 08e7 56       		.byte	0x56
 5176 08e8 6A000000 		.4byte	.LVL110
 5177 08ec 6D000000 		.4byte	.LVL111-1
 5178 08f0 0100     		.2byte	0x1
 5179 08f2 50       		.byte	0x50
 5180 08f3 6D000000 		.4byte	.LVL111-1
 5181 08f7 70000000 		.4byte	.LVL112
 5182 08fb 0100     		.2byte	0x1
 5183 08fd 56       		.byte	0x56
 5184 08fe 70000000 		.4byte	.LVL112
ARM GAS  C:\Users\Tri94\AppData\Local\Temp\ccHaJcja.s 			page 120


 5185 0902 72000000 		.4byte	.LVL113
 5186 0906 0200     		.2byte	0x2
 5187 0908 30       		.byte	0x30
 5188 0909 9F       		.byte	0x9f
 5189 090a 72000000 		.4byte	.LVL113
 5190 090e BE000000 		.4byte	.LFE75
 5191 0912 0100     		.2byte	0x1
 5192 0914 56       		.byte	0x56
 5193 0915 00000000 		.4byte	0
 5194 0919 00000000 		.4byte	0
 5195              	.LLST54:
 5196 091d 0E000000 		.4byte	.LVL94
 5197 0921 18000000 		.4byte	.LVL96
 5198 0925 0100     		.2byte	0x1
 5199 0927 52       		.byte	0x52
 5200 0928 18000000 		.4byte	.LVL96
 5201 092c 1A000000 		.4byte	.LVL97
 5202 0930 0100     		.2byte	0x1
 5203 0932 57       		.byte	0x57
 5204 0933 1A000000 		.4byte	.LVL97
 5205 0937 1C000000 		.4byte	.LVL98
 5206 093b 0100     		.2byte	0x1
 5207 093d 52       		.byte	0x52
 5208 093e 1C000000 		.4byte	.LVL98
 5209 0942 BE000000 		.4byte	.LFE75
 5210 0946 0100     		.2byte	0x1
 5211 0948 57       		.byte	0x57
 5212 0949 00000000 		.4byte	0
 5213 094d 00000000 		.4byte	0
 5214              	.LLST55:
 5215 0951 00000000 		.4byte	.LVL122
 5216 0955 1E000000 		.4byte	.LVL128
 5217 0959 0100     		.2byte	0x1
 5218 095b 50       		.byte	0x50
 5219 095c 1E000000 		.4byte	.LVL128
 5220 0960 78000000 		.4byte	.LFE76
 5221 0964 0100     		.2byte	0x1
 5222 0966 54       		.byte	0x54
 5223 0967 00000000 		.4byte	0
 5224 096b 00000000 		.4byte	0
 5225              	.LLST56:
 5226 096f 00000000 		.4byte	.LVL122
 5227 0973 21000000 		.4byte	.LVL129-1
 5228 0977 0100     		.2byte	0x1
 5229 0979 51       		.byte	0x51
 5230 097a 21000000 		.4byte	.LVL129-1
 5231 097e 54000000 		.4byte	.LVL135
 5232 0982 0100     		.2byte	0x1
 5233 0984 56       		.byte	0x56
 5234 0985 54000000 		.4byte	.LVL135
 5235 0989 78000000 		.4byte	.LFE76
 5236 098d 0400     		.2byte	0x4
 5237 098f F3       		.byte	0xf3
 5238 0990 01       		.uleb128 0x1
 5239 0991 51       		.byte	0x51
 5240 0992 9F       		.byte	0x9f
 5241 0993 00000000 		.4byte	0
ARM GAS  C:\Users\Tri94\AppData\Local\Temp\ccHaJcja.s 			page 121


 5242 0997 00000000 		.4byte	0
 5243              	.LLST57:
 5244 099b 00000000 		.4byte	.LVL122
 5245 099f 21000000 		.4byte	.LVL129-1
 5246 09a3 0100     		.2byte	0x1
 5247 09a5 52       		.byte	0x52
 5248 09a6 21000000 		.4byte	.LVL129-1
 5249 09aa 32000000 		.4byte	.LVL132
 5250 09ae 0100     		.2byte	0x1
 5251 09b0 55       		.byte	0x55
 5252 09b1 32000000 		.4byte	.LVL132
 5253 09b5 78000000 		.4byte	.LFE76
 5254 09b9 0400     		.2byte	0x4
 5255 09bb F3       		.byte	0xf3
 5256 09bc 01       		.uleb128 0x1
 5257 09bd 52       		.byte	0x52
 5258 09be 9F       		.byte	0x9f
 5259 09bf 00000000 		.4byte	0
 5260 09c3 00000000 		.4byte	0
 5261              	.LLST58:
 5262 09c7 00000000 		.4byte	.LVL122
 5263 09cb 10000000 		.4byte	.LVL124
 5264 09cf 0100     		.2byte	0x1
 5265 09d1 53       		.byte	0x53
 5266 09d2 10000000 		.4byte	.LVL124
 5267 09d6 78000000 		.4byte	.LFE76
 5268 09da 0100     		.2byte	0x1
 5269 09dc 58       		.byte	0x58
 5270 09dd 00000000 		.4byte	0
 5271 09e1 00000000 		.4byte	0
 5272              	.LLST59:
 5273 09e5 0E000000 		.4byte	.LVL123
 5274 09e9 1E000000 		.4byte	.LVL128
 5275 09ed 0100     		.2byte	0x1
 5276 09ef 50       		.byte	0x50
 5277 09f0 1E000000 		.4byte	.LVL128
 5278 09f4 78000000 		.4byte	.LFE76
 5279 09f8 0100     		.2byte	0x1
 5280 09fa 54       		.byte	0x54
 5281 09fb 00000000 		.4byte	0
 5282 09ff 00000000 		.4byte	0
 5283              	.LLST60:
 5284 0a03 30000000 		.4byte	.LVL131
 5285 0a07 36000000 		.4byte	.LVL133
 5286 0a0b 0100     		.2byte	0x1
 5287 0a0d 50       		.byte	0x50
 5288 0a0e 36000000 		.4byte	.LVL133
 5289 0a12 78000000 		.4byte	.LFE76
 5290 0a16 0100     		.2byte	0x1
 5291 0a18 55       		.byte	0x55
 5292 0a19 00000000 		.4byte	0
 5293 0a1d 00000000 		.4byte	0
 5294              	.LLST61:
 5295 0a21 22000000 		.4byte	.LVL129
 5296 0a25 2C000000 		.4byte	.LVL130
 5297 0a29 0100     		.2byte	0x1
 5298 0a2b 50       		.byte	0x50
ARM GAS  C:\Users\Tri94\AppData\Local\Temp\ccHaJcja.s 			page 122


 5299 0a2c 2C000000 		.4byte	.LVL130
 5300 0a30 2F000000 		.4byte	.LVL131-1
 5301 0a34 0100     		.2byte	0x1
 5302 0a36 53       		.byte	0x53
 5303 0a37 00000000 		.4byte	0
 5304 0a3b 00000000 		.4byte	0
 5305              	.LLST62:
 5306 0a3f 0E000000 		.4byte	.LVL123
 5307 0a43 18000000 		.4byte	.LVL125
 5308 0a47 0100     		.2byte	0x1
 5309 0a49 52       		.byte	0x52
 5310 0a4a 18000000 		.4byte	.LVL125
 5311 0a4e 1A000000 		.4byte	.LVL126
 5312 0a52 0100     		.2byte	0x1
 5313 0a54 57       		.byte	0x57
 5314 0a55 1A000000 		.4byte	.LVL126
 5315 0a59 1C000000 		.4byte	.LVL127
 5316 0a5d 0100     		.2byte	0x1
 5317 0a5f 52       		.byte	0x52
 5318 0a60 1C000000 		.4byte	.LVL127
 5319 0a64 78000000 		.4byte	.LFE76
 5320 0a68 0100     		.2byte	0x1
 5321 0a6a 57       		.byte	0x57
 5322 0a6b 00000000 		.4byte	0
 5323 0a6f 00000000 		.4byte	0
 5324              	.LLST63:
 5325 0a73 6C000000 		.4byte	.LVL137
 5326 0a77 70000000 		.4byte	.LVL138
 5327 0a7b 0100     		.2byte	0x1
 5328 0a7d 56       		.byte	0x56
 5329 0a7e 00000000 		.4byte	0
 5330 0a82 00000000 		.4byte	0
 5331              	.LLST64:
 5332 0a86 00000000 		.4byte	.LVL139
 5333 0a8a 21000000 		.4byte	.LVL143-1
 5334 0a8e 0100     		.2byte	0x1
 5335 0a90 50       		.byte	0x50
 5336 0a91 21000000 		.4byte	.LVL143-1
 5337 0a95 5E000000 		.4byte	.LVL153
 5338 0a99 0100     		.2byte	0x1
 5339 0a9b 54       		.byte	0x54
 5340 0a9c 5E000000 		.4byte	.LVL153
 5341 0aa0 60000000 		.4byte	.LVL154
 5342 0aa4 0100     		.2byte	0x1
 5343 0aa6 50       		.byte	0x50
 5344 0aa7 60000000 		.4byte	.LVL154
 5345 0aab A4000000 		.4byte	.LFE78
 5346 0aaf 0100     		.2byte	0x1
 5347 0ab1 54       		.byte	0x54
 5348 0ab2 00000000 		.4byte	0
 5349 0ab6 00000000 		.4byte	0
 5350              	.LLST65:
 5351 0aba 00000000 		.4byte	.LVL139
 5352 0abe 21000000 		.4byte	.LVL143-1
 5353 0ac2 0100     		.2byte	0x1
 5354 0ac4 51       		.byte	0x51
 5355 0ac5 21000000 		.4byte	.LVL143-1
ARM GAS  C:\Users\Tri94\AppData\Local\Temp\ccHaJcja.s 			page 123


 5356 0ac9 5E000000 		.4byte	.LVL153
 5357 0acd 0100     		.2byte	0x1
 5358 0acf 58       		.byte	0x58
 5359 0ad0 5E000000 		.4byte	.LVL153
 5360 0ad4 63000000 		.4byte	.LVL155-1
 5361 0ad8 0100     		.2byte	0x1
 5362 0ada 51       		.byte	0x51
 5363 0adb 63000000 		.4byte	.LVL155-1
 5364 0adf A4000000 		.4byte	.LFE78
 5365 0ae3 0100     		.2byte	0x1
 5366 0ae5 58       		.byte	0x58
 5367 0ae6 00000000 		.4byte	0
 5368 0aea 00000000 		.4byte	0
 5369              	.LLST66:
 5370 0aee 00000000 		.4byte	.LVL139
 5371 0af2 21000000 		.4byte	.LVL143-1
 5372 0af6 0100     		.2byte	0x1
 5373 0af8 52       		.byte	0x52
 5374 0af9 21000000 		.4byte	.LVL143-1
 5375 0afd 5E000000 		.4byte	.LVL153
 5376 0b01 0100     		.2byte	0x1
 5377 0b03 59       		.byte	0x59
 5378 0b04 5E000000 		.4byte	.LVL153
 5379 0b08 63000000 		.4byte	.LVL155-1
 5380 0b0c 0100     		.2byte	0x1
 5381 0b0e 52       		.byte	0x52
 5382 0b0f 63000000 		.4byte	.LVL155-1
 5383 0b13 A4000000 		.4byte	.LFE78
 5384 0b17 0100     		.2byte	0x1
 5385 0b19 59       		.byte	0x59
 5386 0b1a 00000000 		.4byte	0
 5387 0b1e 00000000 		.4byte	0
 5388              	.LLST67:
 5389 0b22 00000000 		.4byte	.LVL139
 5390 0b26 10000000 		.4byte	.LVL141
 5391 0b2a 0100     		.2byte	0x1
 5392 0b2c 53       		.byte	0x53
 5393 0b2d 10000000 		.4byte	.LVL141
 5394 0b31 A4000000 		.4byte	.LFE78
 5395 0b35 0100     		.2byte	0x1
 5396 0b37 57       		.byte	0x57
 5397 0b38 00000000 		.4byte	0
 5398 0b3c 00000000 		.4byte	0
 5399              	.LLST68:
 5400 0b40 0E000000 		.4byte	.LVL140
 5401 0b44 21000000 		.4byte	.LVL143-1
 5402 0b48 0100     		.2byte	0x1
 5403 0b4a 50       		.byte	0x50
 5404 0b4b 21000000 		.4byte	.LVL143-1
 5405 0b4f 5E000000 		.4byte	.LVL153
 5406 0b53 0100     		.2byte	0x1
 5407 0b55 54       		.byte	0x54
 5408 0b56 5E000000 		.4byte	.LVL153
 5409 0b5a 60000000 		.4byte	.LVL154
 5410 0b5e 0100     		.2byte	0x1
 5411 0b60 50       		.byte	0x50
 5412 0b61 60000000 		.4byte	.LVL154
ARM GAS  C:\Users\Tri94\AppData\Local\Temp\ccHaJcja.s 			page 124


 5413 0b65 A4000000 		.4byte	.LFE78
 5414 0b69 0100     		.2byte	0x1
 5415 0b6b 54       		.byte	0x54
 5416 0b6c 00000000 		.4byte	0
 5417 0b70 00000000 		.4byte	0
 5418              	.LLST69:
 5419 0b74 0E000000 		.4byte	.LVL140
 5420 0b78 78000000 		.4byte	.LVL157
 5421 0b7c 0200     		.2byte	0x2
 5422 0b7e 30       		.byte	0x30
 5423 0b7f 9F       		.byte	0x9f
 5424 0b80 78000000 		.4byte	.LVL157
 5425 0b84 7F000000 		.4byte	.LVL159-1
 5426 0b88 0100     		.2byte	0x1
 5427 0b8a 50       		.byte	0x50
 5428 0b8b 7F000000 		.4byte	.LVL159-1
 5429 0b8f 9A000000 		.4byte	.LVL162
 5430 0b93 0100     		.2byte	0x1
 5431 0b95 55       		.byte	0x55
 5432 0b96 9A000000 		.4byte	.LVL162
 5433 0b9a 9C000000 		.4byte	.LVL163
 5434 0b9e 0200     		.2byte	0x2
 5435 0ba0 30       		.byte	0x30
 5436 0ba1 9F       		.byte	0x9f
 5437 0ba2 9C000000 		.4byte	.LVL163
 5438 0ba6 A4000000 		.4byte	.LFE78
 5439 0baa 0100     		.2byte	0x1
 5440 0bac 55       		.byte	0x55
 5441 0bad 00000000 		.4byte	0
 5442 0bb1 00000000 		.4byte	0
 5443              	.LLST70:
 5444 0bb5 2A000000 		.4byte	.LVL145
 5445 0bb9 30000000 		.4byte	.LVL146
 5446 0bbd 0100     		.2byte	0x1
 5447 0bbf 50       		.byte	0x50
 5448 0bc0 30000000 		.4byte	.LVL146
 5449 0bc4 5C000000 		.4byte	.LVL152
 5450 0bc8 0100     		.2byte	0x1
 5451 0bca 55       		.byte	0x55
 5452 0bcb 5C000000 		.4byte	.LVL152
 5453 0bcf 5E000000 		.4byte	.LVL153
 5454 0bd3 0100     		.2byte	0x1
 5455 0bd5 50       		.byte	0x50
 5456 0bd6 66000000 		.4byte	.LVL156
 5457 0bda 7A000000 		.4byte	.LVL158
 5458 0bde 0100     		.2byte	0x1
 5459 0be0 55       		.byte	0x55
 5460 0be1 9A000000 		.4byte	.LVL162
 5461 0be5 9C000000 		.4byte	.LVL163
 5462 0be9 0100     		.2byte	0x1
 5463 0beb 55       		.byte	0x55
 5464 0bec 00000000 		.4byte	0
 5465 0bf0 00000000 		.4byte	0
 5466              	.LLST71:
 5467 0bf4 00000000 		.4byte	.LVL164
 5468 0bf8 1E000000 		.4byte	.LVL168
 5469 0bfc 0100     		.2byte	0x1
ARM GAS  C:\Users\Tri94\AppData\Local\Temp\ccHaJcja.s 			page 125


 5470 0bfe 50       		.byte	0x50
 5471 0bff 1E000000 		.4byte	.LVL168
 5472 0c03 74000000 		.4byte	.LFE79
 5473 0c07 0100     		.2byte	0x1
 5474 0c09 54       		.byte	0x54
 5475 0c0a 00000000 		.4byte	0
 5476 0c0e 00000000 		.4byte	0
 5477              	.LLST72:
 5478 0c12 00000000 		.4byte	.LVL164
 5479 0c16 21000000 		.4byte	.LVL169-1
 5480 0c1a 0100     		.2byte	0x1
 5481 0c1c 51       		.byte	0x51
 5482 0c1d 21000000 		.4byte	.LVL169-1
 5483 0c21 4C000000 		.4byte	.LVL173
 5484 0c25 0100     		.2byte	0x1
 5485 0c27 56       		.byte	0x56
 5486 0c28 4C000000 		.4byte	.LVL173
 5487 0c2c 6A000000 		.4byte	.LVL177
 5488 0c30 0400     		.2byte	0x4
 5489 0c32 F3       		.byte	0xf3
 5490 0c33 01       		.uleb128 0x1
 5491 0c34 51       		.byte	0x51
 5492 0c35 9F       		.byte	0x9f
 5493 0c36 6A000000 		.4byte	.LVL177
 5494 0c3a 6C000000 		.4byte	.LVL178
 5495 0c3e 0100     		.2byte	0x1
 5496 0c40 56       		.byte	0x56
 5497 0c41 6C000000 		.4byte	.LVL178
 5498 0c45 74000000 		.4byte	.LFE79
 5499 0c49 0400     		.2byte	0x4
 5500 0c4b F3       		.byte	0xf3
 5501 0c4c 01       		.uleb128 0x1
 5502 0c4d 51       		.byte	0x51
 5503 0c4e 9F       		.byte	0x9f
 5504 0c4f 00000000 		.4byte	0
 5505 0c53 00000000 		.4byte	0
 5506              	.LLST73:
 5507 0c57 00000000 		.4byte	.LVL164
 5508 0c5b 21000000 		.4byte	.LVL169-1
 5509 0c5f 0100     		.2byte	0x1
 5510 0c61 52       		.byte	0x52
 5511 0c62 21000000 		.4byte	.LVL169-1
 5512 0c66 74000000 		.4byte	.LFE79
 5513 0c6a 0100     		.2byte	0x1
 5514 0c6c 57       		.byte	0x57
 5515 0c6d 00000000 		.4byte	0
 5516 0c71 00000000 		.4byte	0
 5517              	.LLST74:
 5518 0c75 00000000 		.4byte	.LVL164
 5519 0c79 10000000 		.4byte	.LVL166
 5520 0c7d 0100     		.2byte	0x1
 5521 0c7f 53       		.byte	0x53
 5522 0c80 10000000 		.4byte	.LVL166
 5523 0c84 74000000 		.4byte	.LFE79
 5524 0c88 0100     		.2byte	0x1
 5525 0c8a 58       		.byte	0x58
 5526 0c8b 00000000 		.4byte	0
ARM GAS  C:\Users\Tri94\AppData\Local\Temp\ccHaJcja.s 			page 126


 5527 0c8f 00000000 		.4byte	0
 5528              	.LLST75:
 5529 0c93 0E000000 		.4byte	.LVL165
 5530 0c97 1E000000 		.4byte	.LVL168
 5531 0c9b 0100     		.2byte	0x1
 5532 0c9d 50       		.byte	0x50
 5533 0c9e 1E000000 		.4byte	.LVL168
 5534 0ca2 74000000 		.4byte	.LFE79
 5535 0ca6 0100     		.2byte	0x1
 5536 0ca8 54       		.byte	0x54
 5537 0ca9 00000000 		.4byte	0
 5538 0cad 00000000 		.4byte	0
 5539              	.LLST76:
 5540 0cb1 0E000000 		.4byte	.LVL165
 5541 0cb5 34000000 		.4byte	.LVL171
 5542 0cb9 0200     		.2byte	0x2
 5543 0cbb 30       		.byte	0x30
 5544 0cbc 9F       		.byte	0x9f
 5545 0cbd 34000000 		.4byte	.LVL171
 5546 0cc1 52000000 		.4byte	.LVL174
 5547 0cc5 0100     		.2byte	0x1
 5548 0cc7 50       		.byte	0x50
 5549 0cc8 52000000 		.4byte	.LVL174
 5550 0ccc 6A000000 		.4byte	.LVL177
 5551 0cd0 0100     		.2byte	0x1
 5552 0cd2 55       		.byte	0x55
 5553 0cd3 6A000000 		.4byte	.LVL177
 5554 0cd7 6C000000 		.4byte	.LVL178
 5555 0cdb 0200     		.2byte	0x2
 5556 0cdd 30       		.byte	0x30
 5557 0cde 9F       		.byte	0x9f
 5558 0cdf 6C000000 		.4byte	.LVL178
 5559 0ce3 74000000 		.4byte	.LFE79
 5560 0ce7 0100     		.2byte	0x1
 5561 0ce9 55       		.byte	0x55
 5562 0cea 00000000 		.4byte	0
 5563 0cee 00000000 		.4byte	0
 5564              	.LLST77:
 5565 0cf2 22000000 		.4byte	.LVL169
 5566 0cf6 30000000 		.4byte	.LVL170
 5567 0cfa 0100     		.2byte	0x1
 5568 0cfc 50       		.byte	0x50
 5569 0cfd 30000000 		.4byte	.LVL170
 5570 0d01 33000000 		.4byte	.LVL171-1
 5571 0d05 0100     		.2byte	0x1
 5572 0d07 53       		.byte	0x53
 5573 0d08 6A000000 		.4byte	.LVL177
 5574 0d0c 6C000000 		.4byte	.LVL178
 5575 0d10 0100     		.2byte	0x1
 5576 0d12 50       		.byte	0x50
 5577 0d13 00000000 		.4byte	0
 5578 0d17 00000000 		.4byte	0
 5579              	.LLST78:
 5580 0d1b 1C000000 		.4byte	.LVL167
 5581 0d1f 36000000 		.4byte	.LVL172
 5582 0d23 0100     		.2byte	0x1
 5583 0d25 55       		.byte	0x55
ARM GAS  C:\Users\Tri94\AppData\Local\Temp\ccHaJcja.s 			page 127


 5584 0d26 6A000000 		.4byte	.LVL177
 5585 0d2a 6C000000 		.4byte	.LVL178
 5586 0d2e 0100     		.2byte	0x1
 5587 0d30 55       		.byte	0x55
 5588 0d31 00000000 		.4byte	0
 5589 0d35 00000000 		.4byte	0
 5590              	.LLST79:
 5591 0d39 64000000 		.4byte	.LVL176
 5592 0d3d 6A000000 		.4byte	.LVL177
 5593 0d41 0100     		.2byte	0x1
 5594 0d43 56       		.byte	0x56
 5595 0d44 00000000 		.4byte	0
 5596 0d48 00000000 		.4byte	0
 5597              	.LLST80:
 5598 0d4c 00000000 		.4byte	.LVL179
 5599 0d50 0A000000 		.4byte	.LVL181
 5600 0d54 0100     		.2byte	0x1
 5601 0d56 50       		.byte	0x50
 5602 0d57 0A000000 		.4byte	.LVL181
 5603 0d5b 0C000000 		.4byte	.LVL182
 5604 0d5f 0400     		.2byte	0x4
 5605 0d61 F3       		.byte	0xf3
 5606 0d62 01       		.uleb128 0x1
 5607 0d63 50       		.byte	0x50
 5608 0d64 9F       		.byte	0x9f
 5609 0d65 0C000000 		.4byte	.LVL182
 5610 0d69 0E000000 		.4byte	.LVL183
 5611 0d6d 0100     		.2byte	0x1
 5612 0d6f 50       		.byte	0x50
 5613 0d70 0E000000 		.4byte	.LVL183
 5614 0d74 10000000 		.4byte	.LFE81
 5615 0d78 0400     		.2byte	0x4
 5616 0d7a F3       		.byte	0xf3
 5617 0d7b 01       		.uleb128 0x1
 5618 0d7c 50       		.byte	0x50
 5619 0d7d 9F       		.byte	0x9f
 5620 0d7e 00000000 		.4byte	0
 5621 0d82 00000000 		.4byte	0
 5622              	.LLST81:
 5623 0d86 00000000 		.4byte	.LVL179
 5624 0d8a 0A000000 		.4byte	.LVL181
 5625 0d8e 0100     		.2byte	0x1
 5626 0d90 50       		.byte	0x50
 5627 0d91 0A000000 		.4byte	.LVL181
 5628 0d95 0C000000 		.4byte	.LVL182
 5629 0d99 0400     		.2byte	0x4
 5630 0d9b F3       		.byte	0xf3
 5631 0d9c 01       		.uleb128 0x1
 5632 0d9d 50       		.byte	0x50
 5633 0d9e 9F       		.byte	0x9f
 5634 0d9f 0C000000 		.4byte	.LVL182
 5635 0da3 0E000000 		.4byte	.LVL183
 5636 0da7 0100     		.2byte	0x1
 5637 0da9 50       		.byte	0x50
 5638 0daa 0E000000 		.4byte	.LVL183
 5639 0dae 10000000 		.4byte	.LFE81
 5640 0db2 0400     		.2byte	0x4
ARM GAS  C:\Users\Tri94\AppData\Local\Temp\ccHaJcja.s 			page 128


 5641 0db4 F3       		.byte	0xf3
 5642 0db5 01       		.uleb128 0x1
 5643 0db6 50       		.byte	0x50
 5644 0db7 9F       		.byte	0x9f
 5645 0db8 00000000 		.4byte	0
 5646 0dbc 00000000 		.4byte	0
 5647              	.LLST82:
 5648 0dc0 00000000 		.4byte	.LVL184
 5649 0dc4 13000000 		.4byte	.LVL187-1
 5650 0dc8 0100     		.2byte	0x1
 5651 0dca 50       		.byte	0x50
 5652 0dcb 13000000 		.4byte	.LVL187-1
 5653 0dcf 20000000 		.4byte	.LFE82
 5654 0dd3 0400     		.2byte	0x4
 5655 0dd5 F3       		.byte	0xf3
 5656 0dd6 01       		.uleb128 0x1
 5657 0dd7 50       		.byte	0x50
 5658 0dd8 9F       		.byte	0x9f
 5659 0dd9 00000000 		.4byte	0
 5660 0ddd 00000000 		.4byte	0
 5661              	.LLST83:
 5662 0de1 02000000 		.4byte	.LVL185
 5663 0de5 13000000 		.4byte	.LVL187-1
 5664 0de9 0100     		.2byte	0x1
 5665 0deb 50       		.byte	0x50
 5666 0dec 13000000 		.4byte	.LVL187-1
 5667 0df0 20000000 		.4byte	.LFE82
 5668 0df4 0400     		.2byte	0x4
 5669 0df6 F3       		.byte	0xf3
 5670 0df7 01       		.uleb128 0x1
 5671 0df8 50       		.byte	0x50
 5672 0df9 9F       		.byte	0x9f
 5673 0dfa 00000000 		.4byte	0
 5674 0dfe 00000000 		.4byte	0
 5675              	.LLST84:
 5676 0e02 00000000 		.4byte	.LVL190
 5677 0e06 20000000 		.4byte	.LVL192
 5678 0e0a 0100     		.2byte	0x1
 5679 0e0c 50       		.byte	0x50
 5680 0e0d 20000000 		.4byte	.LVL192
 5681 0e11 34000000 		.4byte	.LVL196
 5682 0e15 0100     		.2byte	0x1
 5683 0e17 54       		.byte	0x54
 5684 0e18 34000000 		.4byte	.LVL196
 5685 0e1c 36000000 		.4byte	.LVL197
 5686 0e20 0100     		.2byte	0x1
 5687 0e22 50       		.byte	0x50
 5688 0e23 36000000 		.4byte	.LVL197
 5689 0e27 3E000000 		.4byte	.LFE83
 5690 0e2b 0400     		.2byte	0x4
 5691 0e2d F3       		.byte	0xf3
 5692 0e2e 01       		.uleb128 0x1
 5693 0e2f 50       		.byte	0x50
 5694 0e30 9F       		.byte	0x9f
 5695 0e31 00000000 		.4byte	0
 5696 0e35 00000000 		.4byte	0
 5697              	.LLST85:
ARM GAS  C:\Users\Tri94\AppData\Local\Temp\ccHaJcja.s 			page 129


 5698 0e39 00000000 		.4byte	.LVL190
 5699 0e3d 28000000 		.4byte	.LVL193
 5700 0e41 0100     		.2byte	0x1
 5701 0e43 51       		.byte	0x51
 5702 0e44 28000000 		.4byte	.LVL193
 5703 0e48 2B000000 		.4byte	.LVL194-1
 5704 0e4c 0200     		.2byte	0x2
 5705 0e4e 7D       		.byte	0x7d
 5706 0e4f 00       		.sleb128 0
 5707 0e50 2B000000 		.4byte	.LVL194-1
 5708 0e54 34000000 		.4byte	.LVL196
 5709 0e58 0400     		.2byte	0x4
 5710 0e5a F3       		.byte	0xf3
 5711 0e5b 01       		.uleb128 0x1
 5712 0e5c 51       		.byte	0x51
 5713 0e5d 9F       		.byte	0x9f
 5714 0e5e 34000000 		.4byte	.LVL196
 5715 0e62 36000000 		.4byte	.LVL197
 5716 0e66 0100     		.2byte	0x1
 5717 0e68 51       		.byte	0x51
 5718 0e69 36000000 		.4byte	.LVL197
 5719 0e6d 3E000000 		.4byte	.LFE83
 5720 0e71 0400     		.2byte	0x4
 5721 0e73 F3       		.byte	0xf3
 5722 0e74 01       		.uleb128 0x1
 5723 0e75 51       		.byte	0x51
 5724 0e76 9F       		.byte	0x9f
 5725 0e77 00000000 		.4byte	0
 5726 0e7b 00000000 		.4byte	0
 5727              	.LLST86:
 5728 0e7f 04000000 		.4byte	.LVL191
 5729 0e83 20000000 		.4byte	.LVL192
 5730 0e87 0100     		.2byte	0x1
 5731 0e89 50       		.byte	0x50
 5732 0e8a 20000000 		.4byte	.LVL192
 5733 0e8e 34000000 		.4byte	.LVL196
 5734 0e92 0100     		.2byte	0x1
 5735 0e94 54       		.byte	0x54
 5736 0e95 34000000 		.4byte	.LVL196
 5737 0e99 36000000 		.4byte	.LVL197
 5738 0e9d 0100     		.2byte	0x1
 5739 0e9f 50       		.byte	0x50
 5740 0ea0 36000000 		.4byte	.LVL197
 5741 0ea4 3E000000 		.4byte	.LFE83
 5742 0ea8 0400     		.2byte	0x4
 5743 0eaa F3       		.byte	0xf3
 5744 0eab 01       		.uleb128 0x1
 5745 0eac 50       		.byte	0x50
 5746 0ead 9F       		.byte	0x9f
 5747 0eae 00000000 		.4byte	0
 5748 0eb2 00000000 		.4byte	0
 5749              	.LLST87:
 5750 0eb6 30000000 		.4byte	.LVL195
 5751 0eba 34000000 		.4byte	.LVL196
 5752 0ebe 0200     		.2byte	0x2
 5753 0ec0 31       		.byte	0x31
 5754 0ec1 9F       		.byte	0x9f
ARM GAS  C:\Users\Tri94\AppData\Local\Temp\ccHaJcja.s 			page 130


 5755 0ec2 36000000 		.4byte	.LVL197
 5756 0ec6 3E000000 		.4byte	.LFE83
 5757 0eca 0100     		.2byte	0x1
 5758 0ecc 50       		.byte	0x50
 5759 0ecd 00000000 		.4byte	0
 5760 0ed1 00000000 		.4byte	0
 5761              	.LLST88:
 5762 0ed5 36000000 		.4byte	.LVL197
 5763 0ed9 3A000000 		.4byte	.LVL198
 5764 0edd 0100     		.2byte	0x1
 5765 0edf 55       		.byte	0x55
 5766 0ee0 00000000 		.4byte	0
 5767 0ee4 00000000 		.4byte	0
 5768              	.LLST89:
 5769 0ee8 00000000 		.4byte	.LVL199
 5770 0eec 20000000 		.4byte	.LVL201
 5771 0ef0 0100     		.2byte	0x1
 5772 0ef2 50       		.byte	0x50
 5773 0ef3 20000000 		.4byte	.LVL201
 5774 0ef7 34000000 		.4byte	.LVL205
 5775 0efb 0100     		.2byte	0x1
 5776 0efd 54       		.byte	0x54
 5777 0efe 34000000 		.4byte	.LVL205
 5778 0f02 36000000 		.4byte	.LVL206
 5779 0f06 0100     		.2byte	0x1
 5780 0f08 50       		.byte	0x50
 5781 0f09 36000000 		.4byte	.LVL206
 5782 0f0d 3E000000 		.4byte	.LFE84
 5783 0f11 0400     		.2byte	0x4
 5784 0f13 F3       		.byte	0xf3
 5785 0f14 01       		.uleb128 0x1
 5786 0f15 50       		.byte	0x50
 5787 0f16 9F       		.byte	0x9f
 5788 0f17 00000000 		.4byte	0
 5789 0f1b 00000000 		.4byte	0
 5790              	.LLST90:
 5791 0f1f 00000000 		.4byte	.LVL199
 5792 0f23 28000000 		.4byte	.LVL202
 5793 0f27 0100     		.2byte	0x1
 5794 0f29 51       		.byte	0x51
 5795 0f2a 28000000 		.4byte	.LVL202
 5796 0f2e 2B000000 		.4byte	.LVL203-1
 5797 0f32 0200     		.2byte	0x2
 5798 0f34 7D       		.byte	0x7d
 5799 0f35 00       		.sleb128 0
 5800 0f36 2B000000 		.4byte	.LVL203-1
 5801 0f3a 34000000 		.4byte	.LVL205
 5802 0f3e 0400     		.2byte	0x4
 5803 0f40 F3       		.byte	0xf3
 5804 0f41 01       		.uleb128 0x1
 5805 0f42 51       		.byte	0x51
 5806 0f43 9F       		.byte	0x9f
 5807 0f44 34000000 		.4byte	.LVL205
 5808 0f48 36000000 		.4byte	.LVL206
 5809 0f4c 0100     		.2byte	0x1
 5810 0f4e 51       		.byte	0x51
 5811 0f4f 36000000 		.4byte	.LVL206
ARM GAS  C:\Users\Tri94\AppData\Local\Temp\ccHaJcja.s 			page 131


 5812 0f53 3E000000 		.4byte	.LFE84
 5813 0f57 0400     		.2byte	0x4
 5814 0f59 F3       		.byte	0xf3
 5815 0f5a 01       		.uleb128 0x1
 5816 0f5b 51       		.byte	0x51
 5817 0f5c 9F       		.byte	0x9f
 5818 0f5d 00000000 		.4byte	0
 5819 0f61 00000000 		.4byte	0
 5820              	.LLST91:
 5821 0f65 04000000 		.4byte	.LVL200
 5822 0f69 20000000 		.4byte	.LVL201
 5823 0f6d 0100     		.2byte	0x1
 5824 0f6f 50       		.byte	0x50
 5825 0f70 20000000 		.4byte	.LVL201
 5826 0f74 34000000 		.4byte	.LVL205
 5827 0f78 0100     		.2byte	0x1
 5828 0f7a 54       		.byte	0x54
 5829 0f7b 34000000 		.4byte	.LVL205
 5830 0f7f 36000000 		.4byte	.LVL206
 5831 0f83 0100     		.2byte	0x1
 5832 0f85 50       		.byte	0x50
 5833 0f86 36000000 		.4byte	.LVL206
 5834 0f8a 3E000000 		.4byte	.LFE84
 5835 0f8e 0400     		.2byte	0x4
 5836 0f90 F3       		.byte	0xf3
 5837 0f91 01       		.uleb128 0x1
 5838 0f92 50       		.byte	0x50
 5839 0f93 9F       		.byte	0x9f
 5840 0f94 00000000 		.4byte	0
 5841 0f98 00000000 		.4byte	0
 5842              	.LLST92:
 5843 0f9c 30000000 		.4byte	.LVL204
 5844 0fa0 34000000 		.4byte	.LVL205
 5845 0fa4 0200     		.2byte	0x2
 5846 0fa6 31       		.byte	0x31
 5847 0fa7 9F       		.byte	0x9f
 5848 0fa8 36000000 		.4byte	.LVL206
 5849 0fac 3E000000 		.4byte	.LFE84
 5850 0fb0 0100     		.2byte	0x1
 5851 0fb2 50       		.byte	0x50
 5852 0fb3 00000000 		.4byte	0
 5853 0fb7 00000000 		.4byte	0
 5854              	.LLST93:
 5855 0fbb 36000000 		.4byte	.LVL206
 5856 0fbf 3A000000 		.4byte	.LVL207
 5857 0fc3 0100     		.2byte	0x1
 5858 0fc5 55       		.byte	0x55
 5859 0fc6 00000000 		.4byte	0
 5860 0fca 00000000 		.4byte	0
 5861              		.section	.debug_aranges,"",%progbits
 5862 0000 B4000000 		.4byte	0xb4
 5863 0004 0200     		.2byte	0x2
 5864 0006 00000000 		.4byte	.Ldebug_info0
 5865 000a 04       		.byte	0x4
 5866 000b 00       		.byte	0
 5867 000c 0000     		.2byte	0
 5868 000e 0000     		.2byte	0
ARM GAS  C:\Users\Tri94\AppData\Local\Temp\ccHaJcja.s 			page 132


 5869 0010 00000000 		.4byte	.LFB87
 5870 0014 12000000 		.4byte	.LFE87-.LFB87
 5871 0018 00000000 		.4byte	.LFB88
 5872 001c 26000000 		.4byte	.LFE88-.LFB88
 5873 0020 00000000 		.4byte	.LFB85
 5874 0024 42000000 		.4byte	.LFE85-.LFB85
 5875 0028 00000000 		.4byte	.LFB77
 5876 002c 52000000 		.4byte	.LFE77-.LFB77
 5877 0030 00000000 		.4byte	.LFB86
 5878 0034 4C000000 		.4byte	.LFE86-.LFB86
 5879 0038 00000000 		.4byte	.LFB80
 5880 003c 44000000 		.4byte	.LFE80-.LFB80
 5881 0040 00000000 		.4byte	.LFB69
 5882 0044 2C000000 		.4byte	.LFE69-.LFB69
 5883 0048 00000000 		.4byte	.LFB70
 5884 004c 1A000000 		.4byte	.LFE70-.LFB70
 5885 0050 00000000 		.4byte	.LFB71
 5886 0054 38000000 		.4byte	.LFE71-.LFB71
 5887 0058 00000000 		.4byte	.LFB72
 5888 005c 16000000 		.4byte	.LFE72-.LFB72
 5889 0060 00000000 		.4byte	.LFB73
 5890 0064 14000000 		.4byte	.LFE73-.LFB73
 5891 0068 00000000 		.4byte	.LFB74
 5892 006c 08000000 		.4byte	.LFE74-.LFB74
 5893 0070 00000000 		.4byte	.LFB75
 5894 0074 BE000000 		.4byte	.LFE75-.LFB75
 5895 0078 00000000 		.4byte	.LFB76
 5896 007c 78000000 		.4byte	.LFE76-.LFB76
 5897 0080 00000000 		.4byte	.LFB78
 5898 0084 A4000000 		.4byte	.LFE78-.LFB78
 5899 0088 00000000 		.4byte	.LFB79
 5900 008c 74000000 		.4byte	.LFE79-.LFB79
 5901 0090 00000000 		.4byte	.LFB81
 5902 0094 10000000 		.4byte	.LFE81-.LFB81
 5903 0098 00000000 		.4byte	.LFB82
 5904 009c 20000000 		.4byte	.LFE82-.LFB82
 5905 00a0 00000000 		.4byte	.LFB83
 5906 00a4 3E000000 		.4byte	.LFE83-.LFB83
 5907 00a8 00000000 		.4byte	.LFB84
 5908 00ac 3E000000 		.4byte	.LFE84-.LFB84
 5909 00b0 00000000 		.4byte	0
 5910 00b4 00000000 		.4byte	0
 5911              		.section	.debug_ranges,"",%progbits
 5912              	.Ldebug_ranges0:
 5913 0000 00000000 		.4byte	.LFB87
 5914 0004 12000000 		.4byte	.LFE87
 5915 0008 00000000 		.4byte	.LFB88
 5916 000c 26000000 		.4byte	.LFE88
 5917 0010 00000000 		.4byte	.LFB85
 5918 0014 42000000 		.4byte	.LFE85
 5919 0018 00000000 		.4byte	.LFB77
 5920 001c 52000000 		.4byte	.LFE77
 5921 0020 00000000 		.4byte	.LFB86
 5922 0024 4C000000 		.4byte	.LFE86
 5923 0028 00000000 		.4byte	.LFB80
 5924 002c 44000000 		.4byte	.LFE80
 5925 0030 00000000 		.4byte	.LFB69
ARM GAS  C:\Users\Tri94\AppData\Local\Temp\ccHaJcja.s 			page 133


 5926 0034 2C000000 		.4byte	.LFE69
 5927 0038 00000000 		.4byte	.LFB70
 5928 003c 1A000000 		.4byte	.LFE70
 5929 0040 00000000 		.4byte	.LFB71
 5930 0044 38000000 		.4byte	.LFE71
 5931 0048 00000000 		.4byte	.LFB72
 5932 004c 16000000 		.4byte	.LFE72
 5933 0050 00000000 		.4byte	.LFB73
 5934 0054 14000000 		.4byte	.LFE73
 5935 0058 00000000 		.4byte	.LFB74
 5936 005c 08000000 		.4byte	.LFE74
 5937 0060 00000000 		.4byte	.LFB75
 5938 0064 BE000000 		.4byte	.LFE75
 5939 0068 00000000 		.4byte	.LFB76
 5940 006c 78000000 		.4byte	.LFE76
 5941 0070 00000000 		.4byte	.LFB78
 5942 0074 A4000000 		.4byte	.LFE78
 5943 0078 00000000 		.4byte	.LFB79
 5944 007c 74000000 		.4byte	.LFE79
 5945 0080 00000000 		.4byte	.LFB81
 5946 0084 10000000 		.4byte	.LFE81
 5947 0088 00000000 		.4byte	.LFB82
 5948 008c 20000000 		.4byte	.LFE82
 5949 0090 00000000 		.4byte	.LFB83
 5950 0094 3E000000 		.4byte	.LFE83
 5951 0098 00000000 		.4byte	.LFB84
 5952 009c 3E000000 		.4byte	.LFE84
 5953 00a0 00000000 		.4byte	0
 5954 00a4 00000000 		.4byte	0
 5955              		.section	.debug_line,"",%progbits
 5956              	.Ldebug_line0:
 5957 0000 04050000 		.section	.debug_str,"MS",%progbits,1
 5957      02004502 
 5957      00000201 
 5957      FB0E0D00 
 5957      01010101 
 5958              	.LASF61:
 5959 0000 7853686F 		.ascii	"xShouldWrite\000"
 5959      756C6457 
 5959      72697465 
 5959      00
 5960              	.LASF69:
 5961 000d 78427566 		.ascii	"xBufferLengthBytes\000"
 5961      6665724C 
 5961      656E6774 
 5961      68427974 
 5961      657300
 5962              	.LASF45:
 5963 0020 756C4F72 		.ascii	"ulOriginalBASEPRI\000"
 5963      6967696E 
 5963      616C4241 
 5963      53455052 
 5963      4900
 5964              	.LASF25:
 5965 0032 654E6F41 		.ascii	"eNoAction\000"
 5965      6374696F 
 5965      6E00
ARM GAS  C:\Users\Tri94\AppData\Local\Temp\ccHaJcja.s 			page 134


 5966              	.LASF76:
 5967 003c 78537472 		.ascii	"xStreamBufferGenericCreate\000"
 5967      65616D42 
 5967      75666665 
 5967      7247656E 
 5967      65726963 
 5968              	.LASF46:
 5969 0057 756C4E65 		.ascii	"ulNewBASEPRI\000"
 5969      77424153 
 5969      45505249 
 5969      00
 5970              	.LASF53:
 5971 0064 78436F75 		.ascii	"xCount\000"
 5971      6E7400
 5972              	.LASF116:
 5973 006b 76537472 		.ascii	"vStreamBufferDelete\000"
 5973      65616D42 
 5973      75666665 
 5973      7244656C 
 5973      65746500 
 5974              	.LASF34:
 5975 007f 7854494D 		.ascii	"xTIME_OUT\000"
 5975      455F4F55 
 5975      5400
 5976              	.LASF88:
 5977 0089 78537472 		.ascii	"xStreamBufferReceive\000"
 5977      65616D42 
 5977      75666665 
 5977      72526563 
 5977      65697665 
 5978              	.LASF32:
 5979 009e 54696D65 		.ascii	"TimeOut_t\000"
 5979      4F75745F 
 5979      7400
 5980              	.LASF2:
 5981 00a8 73686F72 		.ascii	"short int\000"
 5981      7420696E 
 5981      7400
 5982              	.LASF15:
 5983 00b2 73697A65 		.ascii	"size_t\000"
 5983      5F7400
 5984              	.LASF115:
 5985 00b9 70727649 		.ascii	"prvInitialiseNewStreamBuffer\000"
 5985      6E697469 
 5985      616C6973 
 5985      654E6577 
 5985      53747265 
 5986              	.LASF17:
 5987 00d6 73697A65 		.ascii	"sizetype\000"
 5987      74797065 
 5987      00
 5988              	.LASF63:
 5989 00df 70727652 		.ascii	"prvReadBytesFromBuffer\000"
 5989      65616442 
 5989      79746573 
 5989      46726F6D 
 5989      42756666 
ARM GAS  C:\Users\Tri94\AppData\Local\Temp\ccHaJcja.s 			page 135


 5990              	.LASF24:
 5991 00f6 5461736B 		.ascii	"TaskHandle_t\000"
 5991      48616E64 
 5991      6C655F74 
 5991      00
 5992              	.LASF93:
 5993 0103 78537472 		.ascii	"xStreamBufferReceiveCompletedFromISR\000"
 5993      65616D42 
 5993      75666665 
 5993      72526563 
 5993      65697665 
 5994              	.LASF65:
 5995 0128 78427974 		.ascii	"xBytesAvailable\000"
 5995      65734176 
 5995      61696C61 
 5995      626C6500 
 5996              	.LASF73:
 5997 0138 784E6578 		.ascii	"xNextMessageLength\000"
 5997      744D6573 
 5997      73616765 
 5997      4C656E67 
 5997      746800
 5998              	.LASF54:
 5999 014b 784E6578 		.ascii	"xNextHead\000"
 5999      74486561 
 5999      6400
 6000              	.LASF7:
 6001 0155 5F5F7569 		.ascii	"__uint32_t\000"
 6001      6E743332 
 6001      5F7400
 6002              	.LASF58:
 6003 0160 78446174 		.ascii	"xDataLengthBytes\000"
 6003      614C656E 
 6003      67746842 
 6003      79746573 
 6003      00
 6004              	.LASF42:
 6005 0171 70756342 		.ascii	"pucBuffer\000"
 6005      75666665 
 6005      7200
 6006              	.LASF108:
 6007 017b 78546173 		.ascii	"xTaskGenericNotifyFromISR\000"
 6007      6B47656E 
 6007      65726963 
 6007      4E6F7469 
 6007      66794672 
 6008              	.LASF55:
 6009 0195 78466972 		.ascii	"xFirstLength\000"
 6009      73744C65 
 6009      6E677468 
 6009      00
 6010              	.LASF84:
 6011 01a2 7854696D 		.ascii	"xTimeOut\000"
 6011      654F7574 
 6011      00
 6012              	.LASF98:
 6013 01ab 76546173 		.ascii	"vTaskSetTimeOutState\000"
ARM GAS  C:\Users\Tri94\AppData\Local\Temp\ccHaJcja.s 			page 136


 6013      6B536574 
 6013      54696D65 
 6013      4F757453 
 6013      74617465 
 6014              	.LASF95:
 6015 01c0 6D656D63 		.ascii	"memcpy\000"
 6015      707900
 6016              	.LASF106:
 6017 01c7 78546173 		.ascii	"xTaskGenericNotify\000"
 6017      6B47656E 
 6017      65726963 
 6017      4E6F7469 
 6017      667900
 6018              	.LASF72:
 6019 01da 78526563 		.ascii	"xReceivedLength\000"
 6019      65697665 
 6019      644C656E 
 6019      67746800 
 6020              	.LASF64:
 6021 01ea 784D6178 		.ascii	"xMaxCount\000"
 6021      436F756E 
 6021      7400
 6022              	.LASF112:
 6023 01f4 756C506F 		.ascii	"ulPortRaiseBASEPRI\000"
 6023      72745261 
 6023      69736542 
 6023      41534550 
 6023      524900
 6024              	.LASF26:
 6025 0207 65536574 		.ascii	"eSetBits\000"
 6025      42697473 
 6025      00
 6026              	.LASF75:
 6027 0210 78537472 		.ascii	"xStreamBuffer\000"
 6027      65616D42 
 6027      75666665 
 6027      7200
 6028              	.LASF19:
 6029 021e 666C6F61 		.ascii	"float\000"
 6029      7400
 6030              	.LASF103:
 6031 0224 78546173 		.ascii	"xTaskNotifyWait\000"
 6031      6B4E6F74 
 6031      69667957 
 6031      61697400 
 6032              	.LASF83:
 6033 0234 78546963 		.ascii	"xTicksToWait\000"
 6033      6B73546F 
 6033      57616974 
 6033      00
 6034              	.LASF9:
 6035 0241 6C6F6E67 		.ascii	"long long int\000"
 6035      206C6F6E 
 6035      6720696E 
 6035      7400
 6036              	.LASF60:
 6037 024f 78526571 		.ascii	"xRequiredSpace\000"
ARM GAS  C:\Users\Tri94\AppData\Local\Temp\ccHaJcja.s 			page 137


 6037      75697265 
 6037      64537061 
 6037      636500
 6038              	.LASF89:
 6039 025e 78537472 		.ascii	"xStreamBufferReceiveFromISR\000"
 6039      65616D42 
 6039      75666665 
 6039      72526563 
 6039      65697665 
 6040              	.LASF94:
 6041 027a 6D656D73 		.ascii	"memset\000"
 6041      657400
 6042              	.LASF91:
 6043 0281 78537472 		.ascii	"xStreamBufferIsFull\000"
 6043      65616D42 
 6043      75666665 
 6043      72497346 
 6043      756C6C00 
 6044              	.LASF6:
 6045 0295 6C6F6E67 		.ascii	"long int\000"
 6045      20696E74 
 6045      00
 6046              	.LASF79:
 6047 029e 78547269 		.ascii	"xTriggerLevel\000"
 6047      67676572 
 6047      4C657665 
 6047      6C00
 6048              	.LASF90:
 6049 02ac 78537472 		.ascii	"xStreamBufferIsEmpty\000"
 6049      65616D42 
 6049      75666665 
 6049      72497345 
 6049      6D707479 
 6050              	.LASF4:
 6051 02c1 5F5F7569 		.ascii	"__uint8_t\000"
 6051      6E74385F 
 6051      7400
 6052              	.LASF104:
 6053 02cb 78546173 		.ascii	"xTaskCheckForTimeOut\000"
 6053      6B436865 
 6053      636B466F 
 6053      7254696D 
 6053      654F7574 
 6054              	.LASF74:
 6055 02e0 70756341 		.ascii	"pucAllocatedMemory\000"
 6055      6C6C6F63 
 6055      61746564 
 6055      4D656D6F 
 6055      727900
 6056              	.LASF47:
 6057 02f3 70785374 		.ascii	"pxStreamBuffer\000"
 6057      7265616D 
 6057      42756666 
 6057      657200
 6058              	.LASF56:
 6059 0302 70727657 		.ascii	"prvWriteMessageToBuffer\000"
 6059      72697465 
ARM GAS  C:\Users\Tri94\AppData\Local\Temp\ccHaJcja.s 			page 138


 6059      4D657373 
 6059      61676554 
 6059      6F427566 
 6060              	.LASF68:
 6061 031a 70765278 		.ascii	"pvRxData\000"
 6061      44617461 
 6061      00
 6062              	.LASF16:
 6063 0323 6C6F6E67 		.ascii	"long double\000"
 6063      20646F75 
 6063      626C6500 
 6064              	.LASF38:
 6065 032f 784C656E 		.ascii	"xLength\000"
 6065      67746800 
 6066              	.LASF1:
 6067 0337 756E7369 		.ascii	"unsigned char\000"
 6067      676E6564 
 6067      20636861 
 6067      7200
 6068              	.LASF31:
 6069 0345 7854696D 		.ascii	"xTimeOnEntering\000"
 6069      654F6E45 
 6069      6E746572 
 6069      696E6700 
 6070              	.LASF48:
 6071 0355 78427566 		.ascii	"xBufferSizeBytes\000"
 6071      66657253 
 6071      697A6542 
 6071      79746573 
 6071      00
 6072              	.LASF30:
 6073 0366 784F7665 		.ascii	"xOverflowCount\000"
 6073      72666C6F 
 6073      77436F75 
 6073      6E7400
 6074              	.LASF78:
 6075 0375 78537472 		.ascii	"xStreamBufferSetTriggerLevel\000"
 6075      65616D42 
 6075      75666665 
 6075      72536574 
 6075      54726967 
 6076              	.LASF40:
 6077 0392 78546173 		.ascii	"xTaskWaitingToReceive\000"
 6077      6B576169 
 6077      74696E67 
 6077      546F5265 
 6077      63656976 
 6078              	.LASF0:
 6079 03a8 7369676E 		.ascii	"signed char\000"
 6079      65642063 
 6079      68617200 
 6080              	.LASF80:
 6081 03b4 78537472 		.ascii	"xStreamBufferSpacesAvailable\000"
 6081      65616D42 
 6081      75666665 
 6081      72537061 
 6081      63657341 
ARM GAS  C:\Users\Tri94\AppData\Local\Temp\ccHaJcja.s 			page 139


 6082              	.LASF10:
 6083 03d1 6C6F6E67 		.ascii	"long long unsigned int\000"
 6083      206C6F6E 
 6083      6720756E 
 6083      7369676E 
 6083      65642069 
 6084              	.LASF67:
 6085 03e8 70727652 		.ascii	"prvReadMessageFromBuffer\000"
 6085      6561644D 
 6085      65737361 
 6085      67654672 
 6085      6F6D4275 
 6086              	.LASF14:
 6087 0401 75696E74 		.ascii	"uint32_t\000"
 6087      33325F74 
 6087      00
 6088              	.LASF85:
 6089 040a 78537472 		.ascii	"xStreamBufferSendFromISR\000"
 6089      65616D42 
 6089      75666665 
 6089      7253656E 
 6089      6446726F 
 6090              	.LASF11:
 6091 0423 756E7369 		.ascii	"unsigned int\000"
 6091      676E6564 
 6091      20696E74 
 6091      00
 6092              	.LASF111:
 6093 0430 433A5C55 		.ascii	"C:\\Users\\Tri94\\Documents\\PSoC Creator\\EE4450\\"
 6093      73657273 
 6093      5C547269 
 6093      39345C44 
 6093      6F63756D 
 6094 045d 52544F53 		.ascii	"RTOS_Mutex.cydsn\000"
 6094      5F4D7574 
 6094      65782E63 
 6094      7964736E 
 6094      00
 6095              	.LASF21:
 6096 046e 42617365 		.ascii	"BaseType_t\000"
 6096      54797065 
 6096      5F7400
 6097              	.LASF43:
 6098 0479 7563466C 		.ascii	"ucFlags\000"
 6098      61677300 
 6099              	.LASF82:
 6100 0481 78537472 		.ascii	"xStreamBufferSend\000"
 6100      65616D42 
 6100      75666665 
 6100      7253656E 
 6100      6400
 6101              	.LASF23:
 6102 0493 5469636B 		.ascii	"TickType_t\000"
 6102      54797065 
 6102      5F7400
 6103              	.LASF20:
 6104 049e 646F7562 		.ascii	"double\000"
ARM GAS  C:\Users\Tri94\AppData\Local\Temp\ccHaJcja.s 			page 140


 6104      6C6500
 6105              	.LASF107:
 6106 04a5 78546173 		.ascii	"xTaskResumeAll\000"
 6106      6B526573 
 6106      756D6541 
 6106      6C6C00
 6107              	.LASF3:
 6108 04b4 73686F72 		.ascii	"short unsigned int\000"
 6108      7420756E 
 6108      7369676E 
 6108      65642069 
 6108      6E7400
 6109              	.LASF99:
 6110 04c7 76506F72 		.ascii	"vPortEnterCritical\000"
 6110      74456E74 
 6110      65724372 
 6110      69746963 
 6110      616C00
 6111              	.LASF113:
 6112 04da 76506F72 		.ascii	"vPortSetBASEPRI\000"
 6112      74536574 
 6112      42415345 
 6112      50524900 
 6113              	.LASF18:
 6114 04ea 63686172 		.ascii	"char\000"
 6114      00
 6115              	.LASF28:
 6116 04ef 65536574 		.ascii	"eSetValueWithOverwrite\000"
 6116      56616C75 
 6116      65576974 
 6116      684F7665 
 6116      72777269 
 6117              	.LASF13:
 6118 0506 696E7433 		.ascii	"int32_t\000"
 6118      325F7400 
 6119              	.LASF49:
 6120 050e 7849734D 		.ascii	"xIsMessageBuffer\000"
 6120      65737361 
 6120      67654275 
 6120      66666572 
 6120      00
 6121              	.LASF102:
 6122 051f 76506F72 		.ascii	"vPortExitCritical\000"
 6122      74457869 
 6122      74437269 
 6122      74696361 
 6122      6C00
 6123              	.LASF50:
 6124 0531 70727642 		.ascii	"prvBytesInBuffer\000"
 6124      79746573 
 6124      496E4275 
 6124      66666572 
 6124      00
 6125              	.LASF39:
 6126 0542 78547269 		.ascii	"xTriggerLevelBytes\000"
 6126      67676572 
 6126      4C657665 
ARM GAS  C:\Users\Tri94\AppData\Local\Temp\ccHaJcja.s 			page 141


 6126      6C427974 
 6126      657300
 6127              	.LASF35:
 6128 0555 78535452 		.ascii	"xSTREAM_BUFFER\000"
 6128      45414D5F 
 6128      42554646 
 6128      455200
 6129              	.LASF59:
 6130 0564 78537061 		.ascii	"xSpace\000"
 6130      636500
 6131              	.LASF77:
 6132 056b 78537472 		.ascii	"xStreamBufferReset\000"
 6132      65616D42 
 6132      75666665 
 6132      72526573 
 6132      657400
 6133              	.LASF8:
 6134 057e 6C6F6E67 		.ascii	"long unsigned int\000"
 6134      20756E73 
 6134      69676E65 
 6134      6420696E 
 6134      7400
 6135              	.LASF70:
 6136 0590 78427974 		.ascii	"xBytesToStoreMessageLength\000"
 6136      6573546F 
 6136      53746F72 
 6136      654D6573 
 6136      73616765 
 6137              	.LASF22:
 6138 05ab 55426173 		.ascii	"UBaseType_t\000"
 6138      65547970 
 6138      655F7400 
 6139              	.LASF51:
 6140 05b7 70727657 		.ascii	"prvWriteBytesToBuffer\000"
 6140      72697465 
 6140      42797465 
 6140      73546F42 
 6140      75666665 
 6141              	.LASF36:
 6142 05cd 78546169 		.ascii	"xTail\000"
 6142      6C00
 6143              	.LASF92:
 6144 05d3 78537472 		.ascii	"xStreamBufferSendCompletedFromISR\000"
 6144      65616D42 
 6144      75666665 
 6144      7253656E 
 6144      64436F6D 
 6145              	.LASF114:
 6146 05f5 756C4E65 		.ascii	"ulNewMaskValue\000"
 6146      774D6173 
 6146      6B56616C 
 6146      756500
 6147              	.LASF97:
 6148 0604 76506F72 		.ascii	"vPortFree\000"
 6148      74467265 
 6148      6500
 6149              	.LASF29:
ARM GAS  C:\Users\Tri94\AppData\Local\Temp\ccHaJcja.s 			page 142


 6150 060e 65536574 		.ascii	"eSetValueWithoutOverwrite\000"
 6150      56616C75 
 6150      65576974 
 6150      686F7574 
 6150      4F766572 
 6151              	.LASF100:
 6152 0628 78546173 		.ascii	"xTaskNotifyStateClear\000"
 6152      6B4E6F74 
 6152      69667953 
 6152      74617465 
 6152      436C6561 
 6153              	.LASF5:
 6154 063e 5F5F696E 		.ascii	"__int32_t\000"
 6154      7433325F 
 6154      7400
 6155              	.LASF41:
 6156 0648 78546173 		.ascii	"xTaskWaitingToSend\000"
 6156      6B576169 
 6156      74696E67 
 6156      546F5365 
 6156      6E6400
 6157              	.LASF33:
 6158 065b 53747265 		.ascii	"StreamBufferHandle_t\000"
 6158      616D4275 
 6158      66666572 
 6158      48616E64 
 6158      6C655F74 
 6159              	.LASF12:
 6160 0670 75696E74 		.ascii	"uint8_t\000"
 6160      385F7400 
 6161              	.LASF87:
 6162 0678 75785361 		.ascii	"uxSavedInterruptStatus\000"
 6162      76656449 
 6162      6E746572 
 6162      72757074 
 6162      53746174 
 6163              	.LASF62:
 6164 068f 78526574 		.ascii	"xReturn\000"
 6164      75726E00 
 6165              	.LASF86:
 6166 0697 70784869 		.ascii	"pxHigherPriorityTaskWoken\000"
 6166      67686572 
 6166      5072696F 
 6166      72697479 
 6166      5461736B 
 6167              	.LASF66:
 6168 06b1 784E6578 		.ascii	"xNextTail\000"
 6168      74546169 
 6168      6C00
 6169              	.LASF37:
 6170 06bb 78486561 		.ascii	"xHead\000"
 6170      6400
 6171              	.LASF110:
 6172 06c1 2E2E5C46 		.ascii	"..\\FreeRTOS\\stream_buffer.c\000"
 6172      72656552 
 6172      544F535C 
 6172      73747265 
ARM GAS  C:\Users\Tri94\AppData\Local\Temp\ccHaJcja.s 			page 143


 6172      616D5F62 
 6173              	.LASF71:
 6174 06dd 784F7269 		.ascii	"xOriginalTail\000"
 6174      67696E61 
 6174      6C546169 
 6174      6C00
 6175              	.LASF117:
 6176 06eb 49544D5F 		.ascii	"ITM_RxBuffer\000"
 6176      52784275 
 6176      66666572 
 6176      00
 6177              	.LASF109:
 6178 06f8 474E5520 		.ascii	"GNU C11 5.4.1 20160609 (release) [ARM/embedded-5-br"
 6178      43313120 
 6178      352E342E 
 6178      31203230 
 6178      31363036 
 6179 072b 616E6368 		.ascii	"anch revision 237715] -mcpu=cortex-m3 -mthumb -g -O"
 6179      20726576 
 6179      6973696F 
 6179      6E203233 
 6179      37373135 
 6180 075e 67202D66 		.ascii	"g -ffunction-sections -ffat-lto-objects\000"
 6180      66756E63 
 6180      74696F6E 
 6180      2D736563 
 6180      74696F6E 
 6181              	.LASF101:
 6182 0786 78546173 		.ascii	"xTaskGetCurrentTaskHandle\000"
 6182      6B476574 
 6182      43757272 
 6182      656E7454 
 6182      61736B48 
 6183              	.LASF52:
 6184 07a0 70756344 		.ascii	"pucData\000"
 6184      61746100 
 6185              	.LASF81:
 6186 07a8 78537472 		.ascii	"xStreamBufferBytesAvailable\000"
 6186      65616D42 
 6186      75666665 
 6186      72427974 
 6186      65734176 
 6187              	.LASF57:
 6188 07c4 70765478 		.ascii	"pvTxData\000"
 6188      44617461 
 6188      00
 6189              	.LASF96:
 6190 07cd 7076506F 		.ascii	"pvPortMalloc\000"
 6190      72744D61 
 6190      6C6C6F63 
 6190      00
 6191              	.LASF105:
 6192 07da 76546173 		.ascii	"vTaskSuspendAll\000"
 6192      6B537573 
 6192      70656E64 
 6192      416C6C00 
 6193              	.LASF27:
ARM GAS  C:\Users\Tri94\AppData\Local\Temp\ccHaJcja.s 			page 144


 6194 07ea 65496E63 		.ascii	"eIncrement\000"
 6194      72656D65 
 6194      6E7400
 6195              	.LASF44:
 6196 07f5 53747265 		.ascii	"StreamBuffer_t\000"
 6196      616D4275 
 6196      66666572 
 6196      5F7400
 6197              		.ident	"GCC: (GNU Tools for ARM Embedded Processors) 5.4.1 20160609 (release) [ARM/embedded-5-bran
