ARM GAS  C:\Users\Tri94\AppData\Local\Temp\ccHaJcja.s 			page 1


   1              		.syntax unified
   2              		.cpu cortex-m3
   3              		.fpu softvfp
   4              		.eabi_attribute 20, 1
   5              		.eabi_attribute 21, 1
   6              		.eabi_attribute 23, 3
   7              		.eabi_attribute 24, 1
   8              		.eabi_attribute 25, 1
   9              		.eabi_attribute 26, 1
  10              		.eabi_attribute 30, 1
  11              		.eabi_attribute 34, 1
  12              		.eabi_attribute 18, 4
  13              		.thumb
  14              		.syntax unified
  15              		.file	"stream_buffer.c"
  16              		.text
  17              	.Ltext0:
  18              		.cfi_sections	.debug_frame
  19              		.section	.text.prvBytesInBuffer,"ax",%progbits
  20              		.align	2
  21              		.thumb
  22              		.thumb_func
  23              		.type	prvBytesInBuffer, %function
  24              	prvBytesInBuffer:
  25              	.LFB87:
  26              		.file 1 "..\\FreeRTOS\\stream_buffer.c"
   1:..\FreeRTOS/stream_buffer.c **** /*
   2:..\FreeRTOS/stream_buffer.c ****  * FreeRTOS Kernel V10.0.0
   3:..\FreeRTOS/stream_buffer.c ****  * Copyright (C) 2017 Amazon.com, Inc. or its affiliates.  All Rights Reserved.
   4:..\FreeRTOS/stream_buffer.c ****  *
   5:..\FreeRTOS/stream_buffer.c ****  * Permission is hereby granted, free of charge, to any person obtaining a copy of
   6:..\FreeRTOS/stream_buffer.c ****  * this software and associated documentation files (the "Software"), to deal in
   7:..\FreeRTOS/stream_buffer.c ****  * the Software without restriction, including without limitation the rights to
   8:..\FreeRTOS/stream_buffer.c ****  * use, copy, modify, merge, publish, distribute, sublicense, and/or sell copies of
   9:..\FreeRTOS/stream_buffer.c ****  * the Software, and to permit persons to whom the Software is furnished to do so,
  10:..\FreeRTOS/stream_buffer.c ****  * subject to the following conditions:
  11:..\FreeRTOS/stream_buffer.c ****  *
  12:..\FreeRTOS/stream_buffer.c ****  * The above copyright notice and this permission notice shall be included in all
  13:..\FreeRTOS/stream_buffer.c ****  * copies or substantial portions of the Software. If you wish to use our Amazon
  14:..\FreeRTOS/stream_buffer.c ****  * FreeRTOS name, please do so in a fair use way that does not cause confusion.
  15:..\FreeRTOS/stream_buffer.c ****  *
  16:..\FreeRTOS/stream_buffer.c ****  * THE SOFTWARE IS PROVIDED "AS IS", WITHOUT WARRANTY OF ANY KIND, EXPRESS OR
  17:..\FreeRTOS/stream_buffer.c ****  * IMPLIED, INCLUDING BUT NOT LIMITED TO THE WARRANTIES OF MERCHANTABILITY, FITNESS
  18:..\FreeRTOS/stream_buffer.c ****  * FOR A PARTICULAR PURPOSE AND NONINFRINGEMENT. IN NO EVENT SHALL THE AUTHORS OR
  19:..\FreeRTOS/stream_buffer.c ****  * COPYRIGHT HOLDERS BE LIABLE FOR ANY CLAIM, DAMAGES OR OTHER LIABILITY, WHETHER
  20:..\FreeRTOS/stream_buffer.c ****  * IN AN ACTION OF CONTRACT, TORT OR OTHERWISE, ARISING FROM, OUT OF OR IN
  21:..\FreeRTOS/stream_buffer.c ****  * CONNECTION WITH THE SOFTWARE OR THE USE OR OTHER DEALINGS IN THE SOFTWARE.
  22:..\FreeRTOS/stream_buffer.c ****  *
  23:..\FreeRTOS/stream_buffer.c ****  * http://www.FreeRTOS.org
  24:..\FreeRTOS/stream_buffer.c ****  * http://aws.amazon.com/freertos
  25:..\FreeRTOS/stream_buffer.c ****  *
  26:..\FreeRTOS/stream_buffer.c ****  * 1 tab == 4 spaces!
  27:..\FreeRTOS/stream_buffer.c ****  */
  28:..\FreeRTOS/stream_buffer.c **** 
  29:..\FreeRTOS/stream_buffer.c **** /* Standard includes. */
  30:..\FreeRTOS/stream_buffer.c **** #include <stdint.h>
  31:..\FreeRTOS/stream_buffer.c **** #include <string.h>
ARM GAS  C:\Users\Tri94\AppData\Local\Temp\ccHaJcja.s 			page 2


  32:..\FreeRTOS/stream_buffer.c **** 
  33:..\FreeRTOS/stream_buffer.c **** /* Defining MPU_WRAPPERS_INCLUDED_FROM_API_FILE prevents task.h from redefining
  34:..\FreeRTOS/stream_buffer.c **** all the API functions to use the MPU wrappers.  That should only be done when
  35:..\FreeRTOS/stream_buffer.c **** task.h is included from an application file. */
  36:..\FreeRTOS/stream_buffer.c **** #define MPU_WRAPPERS_INCLUDED_FROM_API_FILE
  37:..\FreeRTOS/stream_buffer.c **** 
  38:..\FreeRTOS/stream_buffer.c **** /* FreeRTOS includes. */
  39:..\FreeRTOS/stream_buffer.c **** #include "FreeRTOS.h"
  40:..\FreeRTOS/stream_buffer.c **** #include "task.h"
  41:..\FreeRTOS/stream_buffer.c **** #include "stream_buffer.h"
  42:..\FreeRTOS/stream_buffer.c **** 
  43:..\FreeRTOS/stream_buffer.c **** /* Lint e961 and e750 are suppressed as a MISRA exception justified because the
  44:..\FreeRTOS/stream_buffer.c **** MPU ports require MPU_WRAPPERS_INCLUDED_FROM_API_FILE to be defined for the
  45:..\FreeRTOS/stream_buffer.c **** header files above, but not in this file, in order to generate the correct
  46:..\FreeRTOS/stream_buffer.c **** privileged Vs unprivileged linkage and placement. */
  47:..\FreeRTOS/stream_buffer.c **** #undef MPU_WRAPPERS_INCLUDED_FROM_API_FILE /*lint !e961 !e750. */
  48:..\FreeRTOS/stream_buffer.c **** 
  49:..\FreeRTOS/stream_buffer.c **** /* If the user has not provided application specific Rx notification macros,
  50:..\FreeRTOS/stream_buffer.c **** or #defined the notification macros away, them provide default implementations
  51:..\FreeRTOS/stream_buffer.c **** that uses task notifications. */
  52:..\FreeRTOS/stream_buffer.c **** /*lint -save -e9026 Function like macros allowed and needed here so they can be overidden. */
  53:..\FreeRTOS/stream_buffer.c **** #ifndef sbRECEIVE_COMPLETED
  54:..\FreeRTOS/stream_buffer.c **** 	#define sbRECEIVE_COMPLETED( pxStreamBuffer )										\
  55:..\FreeRTOS/stream_buffer.c **** 		vTaskSuspendAll();																\
  56:..\FreeRTOS/stream_buffer.c **** 		{																				\
  57:..\FreeRTOS/stream_buffer.c **** 			if( ( pxStreamBuffer )->xTaskWaitingToSend != NULL )						\
  58:..\FreeRTOS/stream_buffer.c **** 			{																			\
  59:..\FreeRTOS/stream_buffer.c **** 				( void ) xTaskNotify( ( pxStreamBuffer )->xTaskWaitingToSend,			\
  60:..\FreeRTOS/stream_buffer.c **** 									  ( uint32_t ) 0,									\
  61:..\FreeRTOS/stream_buffer.c **** 									  eNoAction );										\
  62:..\FreeRTOS/stream_buffer.c **** 				( pxStreamBuffer )->xTaskWaitingToSend = NULL;							\
  63:..\FreeRTOS/stream_buffer.c **** 			}																			\
  64:..\FreeRTOS/stream_buffer.c **** 		}																				\
  65:..\FreeRTOS/stream_buffer.c **** 		( void ) xTaskResumeAll();
  66:..\FreeRTOS/stream_buffer.c **** #endif /* sbRECEIVE_COMPLETED */
  67:..\FreeRTOS/stream_buffer.c **** 
  68:..\FreeRTOS/stream_buffer.c **** #ifndef sbRECEIVE_COMPLETED_FROM_ISR
  69:..\FreeRTOS/stream_buffer.c **** 	#define sbRECEIVE_COMPLETED_FROM_ISR( pxStreamBuffer,								\
  70:..\FreeRTOS/stream_buffer.c **** 										  pxHigherPriorityTaskWoken )					\
  71:..\FreeRTOS/stream_buffer.c **** 	{																					\
  72:..\FreeRTOS/stream_buffer.c **** 	UBaseType_t uxSavedInterruptStatus;													\
  73:..\FreeRTOS/stream_buffer.c **** 																						\
  74:..\FreeRTOS/stream_buffer.c **** 		uxSavedInterruptStatus = ( UBaseType_t ) portSET_INTERRUPT_MASK_FROM_ISR();		\
  75:..\FreeRTOS/stream_buffer.c **** 		{																				\
  76:..\FreeRTOS/stream_buffer.c **** 			if( ( pxStreamBuffer )->xTaskWaitingToSend != NULL )						\
  77:..\FreeRTOS/stream_buffer.c **** 			{																			\
  78:..\FreeRTOS/stream_buffer.c **** 				( void ) xTaskNotifyFromISR( ( pxStreamBuffer )->xTaskWaitingToSend,	\
  79:..\FreeRTOS/stream_buffer.c **** 											 ( uint32_t ) 0,							\
  80:..\FreeRTOS/stream_buffer.c **** 											 eNoAction,									\
  81:..\FreeRTOS/stream_buffer.c **** 											 pxHigherPriorityTaskWoken );				\
  82:..\FreeRTOS/stream_buffer.c **** 				( pxStreamBuffer )->xTaskWaitingToSend = NULL;							\
  83:..\FreeRTOS/stream_buffer.c **** 			}																			\
  84:..\FreeRTOS/stream_buffer.c **** 		}																				\
  85:..\FreeRTOS/stream_buffer.c **** 		portCLEAR_INTERRUPT_MASK_FROM_ISR( uxSavedInterruptStatus );					\
  86:..\FreeRTOS/stream_buffer.c **** 	}
  87:..\FreeRTOS/stream_buffer.c **** #endif /* sbRECEIVE_COMPLETED_FROM_ISR */
  88:..\FreeRTOS/stream_buffer.c **** 
ARM GAS  C:\Users\Tri94\AppData\Local\Temp\ccHaJcja.s 			page 3


  89:..\FreeRTOS/stream_buffer.c **** /* If the user has not provided an application specific Tx notification macro,
  90:..\FreeRTOS/stream_buffer.c **** or #defined the notification macro away, them provide a default implementation
  91:..\FreeRTOS/stream_buffer.c **** that uses task notifications. */
  92:..\FreeRTOS/stream_buffer.c **** #ifndef sbSEND_COMPLETED
  93:..\FreeRTOS/stream_buffer.c **** 	#define sbSEND_COMPLETED( pxStreamBuffer )											\
  94:..\FreeRTOS/stream_buffer.c **** 		vTaskSuspendAll();																\
  95:..\FreeRTOS/stream_buffer.c **** 		{																				\
  96:..\FreeRTOS/stream_buffer.c **** 			if( ( pxStreamBuffer )->xTaskWaitingToReceive != NULL )						\
  97:..\FreeRTOS/stream_buffer.c **** 			{																			\
  98:..\FreeRTOS/stream_buffer.c **** 				( void ) xTaskNotify( ( pxStreamBuffer )->xTaskWaitingToReceive,		\
  99:..\FreeRTOS/stream_buffer.c **** 									  ( uint32_t ) 0,									\
 100:..\FreeRTOS/stream_buffer.c **** 									  eNoAction );										\
 101:..\FreeRTOS/stream_buffer.c **** 				( pxStreamBuffer )->xTaskWaitingToReceive = NULL;						\
 102:..\FreeRTOS/stream_buffer.c **** 			}																			\
 103:..\FreeRTOS/stream_buffer.c **** 		}																				\
 104:..\FreeRTOS/stream_buffer.c **** 		( void ) xTaskResumeAll();
 105:..\FreeRTOS/stream_buffer.c **** #endif /* sbSEND_COMPLETED */
 106:..\FreeRTOS/stream_buffer.c **** 
 107:..\FreeRTOS/stream_buffer.c **** #ifndef sbSEND_COMPLETE_FROM_ISR
 108:..\FreeRTOS/stream_buffer.c **** 	#define sbSEND_COMPLETE_FROM_ISR( pxStreamBuffer, pxHigherPriorityTaskWoken )		\
 109:..\FreeRTOS/stream_buffer.c **** 	{																					\
 110:..\FreeRTOS/stream_buffer.c **** 	UBaseType_t uxSavedInterruptStatus;													\
 111:..\FreeRTOS/stream_buffer.c **** 																						\
 112:..\FreeRTOS/stream_buffer.c **** 		uxSavedInterruptStatus = ( UBaseType_t ) portSET_INTERRUPT_MASK_FROM_ISR();		\
 113:..\FreeRTOS/stream_buffer.c **** 		{																				\
 114:..\FreeRTOS/stream_buffer.c **** 			if( ( pxStreamBuffer )->xTaskWaitingToReceive != NULL )						\
 115:..\FreeRTOS/stream_buffer.c **** 			{																			\
 116:..\FreeRTOS/stream_buffer.c **** 				( void ) xTaskNotifyFromISR( ( pxStreamBuffer )->xTaskWaitingToReceive,	\
 117:..\FreeRTOS/stream_buffer.c **** 											 ( uint32_t ) 0,							\
 118:..\FreeRTOS/stream_buffer.c **** 											 eNoAction,									\
 119:..\FreeRTOS/stream_buffer.c **** 											 pxHigherPriorityTaskWoken );				\
 120:..\FreeRTOS/stream_buffer.c **** 				( pxStreamBuffer )->xTaskWaitingToReceive = NULL;						\
 121:..\FreeRTOS/stream_buffer.c **** 			}																			\
 122:..\FreeRTOS/stream_buffer.c **** 		}																				\
 123:..\FreeRTOS/stream_buffer.c **** 		portCLEAR_INTERRUPT_MASK_FROM_ISR( uxSavedInterruptStatus );					\
 124:..\FreeRTOS/stream_buffer.c **** 	}
 125:..\FreeRTOS/stream_buffer.c **** #endif /* sbSEND_COMPLETE_FROM_ISR */
 126:..\FreeRTOS/stream_buffer.c **** /*lint -restore (9026) */
 127:..\FreeRTOS/stream_buffer.c **** 
 128:..\FreeRTOS/stream_buffer.c **** /* The number of bytes used to hold the length of a message in the buffer. */
 129:..\FreeRTOS/stream_buffer.c **** #define sbBYTES_TO_STORE_MESSAGE_LENGTH ( sizeof( size_t ) )
 130:..\FreeRTOS/stream_buffer.c **** 
 131:..\FreeRTOS/stream_buffer.c **** /* Bits stored in the ucFlags field of the stream buffer. */
 132:..\FreeRTOS/stream_buffer.c **** #define sbFLAGS_IS_MESSAGE_BUFFER		( ( uint8_t ) 1 ) /* Set if the stream buffer was created as a m
 133:..\FreeRTOS/stream_buffer.c **** #define sbFLAGS_IS_STATICALLY_ALLOCATED ( ( uint8_t ) 2 ) /* Set if the stream buffer was created u
 134:..\FreeRTOS/stream_buffer.c **** 
 135:..\FreeRTOS/stream_buffer.c **** /*-----------------------------------------------------------*/
 136:..\FreeRTOS/stream_buffer.c **** 
 137:..\FreeRTOS/stream_buffer.c **** /* Structure that hold state information on the buffer. */
 138:..\FreeRTOS/stream_buffer.c **** typedef struct xSTREAM_BUFFER /*lint !e9058 Style convention uses tag. */
 139:..\FreeRTOS/stream_buffer.c **** {
 140:..\FreeRTOS/stream_buffer.c **** 	volatile size_t xTail;				/* Index to the next item to read within the buffer. */
 141:..\FreeRTOS/stream_buffer.c **** 	volatile size_t xHead;				/* Index to the next item to write within the buffer. */
 142:..\FreeRTOS/stream_buffer.c **** 	size_t xLength;						/* The length of the buffer pointed to by pucBuffer. */
 143:..\FreeRTOS/stream_buffer.c **** 	size_t xTriggerLevelBytes;			/* The number of bytes that must be in the stream buffer before a tas
 144:..\FreeRTOS/stream_buffer.c **** 	volatile TaskHandle_t xTaskWaitingToReceive; /* Holds the handle of a task waiting for data, or NU
 145:..\FreeRTOS/stream_buffer.c **** 	volatile TaskHandle_t xTaskWaitingToSend;	/* Holds the handle of a task waiting to send data to a 
ARM GAS  C:\Users\Tri94\AppData\Local\Temp\ccHaJcja.s 			page 4


 146:..\FreeRTOS/stream_buffer.c **** 	uint8_t *pucBuffer;					/* Points to the buffer itself - that is - the RAM that stores the data pa
 147:..\FreeRTOS/stream_buffer.c **** 	uint8_t ucFlags;
 148:..\FreeRTOS/stream_buffer.c **** 
 149:..\FreeRTOS/stream_buffer.c **** 	#if ( configUSE_TRACE_FACILITY == 1 )
 150:..\FreeRTOS/stream_buffer.c **** 		UBaseType_t uxStreamBufferNumber;		/* Used for tracing purposes. */
 151:..\FreeRTOS/stream_buffer.c **** 	#endif
 152:..\FreeRTOS/stream_buffer.c **** } StreamBuffer_t;
 153:..\FreeRTOS/stream_buffer.c **** 
 154:..\FreeRTOS/stream_buffer.c **** /*
 155:..\FreeRTOS/stream_buffer.c ****  * The number of bytes available to be read from the buffer.
 156:..\FreeRTOS/stream_buffer.c ****  */
 157:..\FreeRTOS/stream_buffer.c **** static size_t prvBytesInBuffer( const StreamBuffer_t * const pxStreamBuffer ) PRIVILEGED_FUNCTION;
 158:..\FreeRTOS/stream_buffer.c **** 
 159:..\FreeRTOS/stream_buffer.c **** /*
 160:..\FreeRTOS/stream_buffer.c ****  * Add xCount bytes from pucData into the pxStreamBuffer message buffer.
 161:..\FreeRTOS/stream_buffer.c ****  * Returns the number of bytes written, which will either equal xCount in the
 162:..\FreeRTOS/stream_buffer.c ****  * success case, or 0 if there was not enough space in the buffer (in which case
 163:..\FreeRTOS/stream_buffer.c ****  * no data is written into the buffer).
 164:..\FreeRTOS/stream_buffer.c ****  */
 165:..\FreeRTOS/stream_buffer.c **** static size_t prvWriteBytesToBuffer( StreamBuffer_t * const pxStreamBuffer, const uint8_t *pucData,
 166:..\FreeRTOS/stream_buffer.c **** 
 167:..\FreeRTOS/stream_buffer.c **** /*
 168:..\FreeRTOS/stream_buffer.c ****  * If the stream buffer is being used as a message buffer, then reads an entire
 169:..\FreeRTOS/stream_buffer.c ****  * message out of the buffer.  If the stream buffer is being used as a stream
 170:..\FreeRTOS/stream_buffer.c ****  * buffer then read as many bytes as possible from the buffer.
 171:..\FreeRTOS/stream_buffer.c ****  * prvReadBytesFromBuffer() is called to actually extract the bytes from the
 172:..\FreeRTOS/stream_buffer.c ****  * buffer's data storage area.
 173:..\FreeRTOS/stream_buffer.c ****  */
 174:..\FreeRTOS/stream_buffer.c **** static size_t prvReadMessageFromBuffer( StreamBuffer_t *pxStreamBuffer,
 175:..\FreeRTOS/stream_buffer.c **** 										void *pvRxData,
 176:..\FreeRTOS/stream_buffer.c **** 										size_t xBufferLengthBytes,
 177:..\FreeRTOS/stream_buffer.c **** 										size_t xBytesAvailable,
 178:..\FreeRTOS/stream_buffer.c **** 										size_t xBytesToStoreMessageLength ) PRIVILEGED_FUNCTION;
 179:..\FreeRTOS/stream_buffer.c **** 
 180:..\FreeRTOS/stream_buffer.c **** /*
 181:..\FreeRTOS/stream_buffer.c ****  * If the stream buffer is being used as a message buffer, then writes an entire
 182:..\FreeRTOS/stream_buffer.c ****  * message to the buffer.  If the stream buffer is being used as a stream
 183:..\FreeRTOS/stream_buffer.c ****  * buffer then write as many bytes as possible to the buffer.
 184:..\FreeRTOS/stream_buffer.c ****  * prvWriteBytestoBuffer() is called to actually send the bytes to the buffer's
 185:..\FreeRTOS/stream_buffer.c ****  * data storage area.
 186:..\FreeRTOS/stream_buffer.c ****  */
 187:..\FreeRTOS/stream_buffer.c **** static size_t prvWriteMessageToBuffer(  StreamBuffer_t * const pxStreamBuffer,
 188:..\FreeRTOS/stream_buffer.c **** 										const void * pvTxData,
 189:..\FreeRTOS/stream_buffer.c **** 										size_t xDataLengthBytes,
 190:..\FreeRTOS/stream_buffer.c **** 										size_t xSpace,
 191:..\FreeRTOS/stream_buffer.c **** 										size_t xRequiredSpace ) PRIVILEGED_FUNCTION;
 192:..\FreeRTOS/stream_buffer.c **** 
 193:..\FreeRTOS/stream_buffer.c **** /*
 194:..\FreeRTOS/stream_buffer.c ****  * Read xMaxCount bytes from the pxStreamBuffer message buffer and write them
 195:..\FreeRTOS/stream_buffer.c ****  * to pucData.
 196:..\FreeRTOS/stream_buffer.c ****  */
 197:..\FreeRTOS/stream_buffer.c **** static size_t prvReadBytesFromBuffer( StreamBuffer_t *pxStreamBuffer,
 198:..\FreeRTOS/stream_buffer.c **** 									  uint8_t *pucData,
 199:..\FreeRTOS/stream_buffer.c **** 									  size_t xMaxCount,
 200:..\FreeRTOS/stream_buffer.c **** 									  size_t xBytesAvailable ); PRIVILEGED_FUNCTION
 201:..\FreeRTOS/stream_buffer.c **** 
 202:..\FreeRTOS/stream_buffer.c **** /*
ARM GAS  C:\Users\Tri94\AppData\Local\Temp\ccHaJcja.s 			page 5


 203:..\FreeRTOS/stream_buffer.c ****  * Called by both pxStreamBufferCreate() and pxStreamBufferCreateStatic() to
 204:..\FreeRTOS/stream_buffer.c ****  * initialise the members of the newly created stream buffer structure.
 205:..\FreeRTOS/stream_buffer.c ****  */
 206:..\FreeRTOS/stream_buffer.c **** static void prvInitialiseNewStreamBuffer( StreamBuffer_t * const pxStreamBuffer,
 207:..\FreeRTOS/stream_buffer.c **** 										  uint8_t * const pucBuffer,
 208:..\FreeRTOS/stream_buffer.c **** 										  size_t xBufferSizeBytes,
 209:..\FreeRTOS/stream_buffer.c **** 										  size_t xTriggerLevelBytes,
 210:..\FreeRTOS/stream_buffer.c **** 										  BaseType_t xIsMessageBuffer ) PRIVILEGED_FUNCTION;
 211:..\FreeRTOS/stream_buffer.c **** 
 212:..\FreeRTOS/stream_buffer.c **** /*-----------------------------------------------------------*/
 213:..\FreeRTOS/stream_buffer.c **** 
 214:..\FreeRTOS/stream_buffer.c **** #if( configSUPPORT_DYNAMIC_ALLOCATION == 1 )
 215:..\FreeRTOS/stream_buffer.c **** 
 216:..\FreeRTOS/stream_buffer.c **** 	StreamBufferHandle_t xStreamBufferGenericCreate( size_t xBufferSizeBytes, size_t xTriggerLevelByte
 217:..\FreeRTOS/stream_buffer.c **** 	{
 218:..\FreeRTOS/stream_buffer.c **** 	uint8_t *pucAllocatedMemory;
 219:..\FreeRTOS/stream_buffer.c **** 
 220:..\FreeRTOS/stream_buffer.c **** 		/* In case the stream buffer is going to be used as a message buffer
 221:..\FreeRTOS/stream_buffer.c **** 		(that is, it will hold discrete messages with a little meta data that
 222:..\FreeRTOS/stream_buffer.c **** 		says how big the next message is) check the buffer will be large enough
 223:..\FreeRTOS/stream_buffer.c **** 		to hold at least one message. */
 224:..\FreeRTOS/stream_buffer.c **** 		configASSERT( xBufferSizeBytes > sbBYTES_TO_STORE_MESSAGE_LENGTH );
 225:..\FreeRTOS/stream_buffer.c **** 		configASSERT( xTriggerLevelBytes <= xBufferSizeBytes );
 226:..\FreeRTOS/stream_buffer.c **** 
 227:..\FreeRTOS/stream_buffer.c **** 		/* A trigger level of 0 would cause a waiting task to unblock even when
 228:..\FreeRTOS/stream_buffer.c **** 		the buffer was empty. */
 229:..\FreeRTOS/stream_buffer.c **** 		if( xTriggerLevelBytes == ( size_t ) 0 )
 230:..\FreeRTOS/stream_buffer.c **** 		{
 231:..\FreeRTOS/stream_buffer.c **** 			xTriggerLevelBytes = ( size_t ) 1; /*lint !e9044 Parameter modified to ensure it doesn't have a 
 232:..\FreeRTOS/stream_buffer.c **** 		}
 233:..\FreeRTOS/stream_buffer.c **** 
 234:..\FreeRTOS/stream_buffer.c **** 		/* A stream buffer requires a StreamBuffer_t structure and a buffer.
 235:..\FreeRTOS/stream_buffer.c **** 		Both are allocated in a single call to pvPortMalloc().  The
 236:..\FreeRTOS/stream_buffer.c **** 		StreamBuffer_t structure is placed at the start of the allocated memory
 237:..\FreeRTOS/stream_buffer.c **** 		and the buffer follows immediately after.  The requested size is
 238:..\FreeRTOS/stream_buffer.c **** 		incremented so the free space is returned as the user would expect -
 239:..\FreeRTOS/stream_buffer.c **** 		this is a quirk of the implementation that means otherwise the free
 240:..\FreeRTOS/stream_buffer.c **** 		space would be reported as one byte smaller than would be logically
 241:..\FreeRTOS/stream_buffer.c **** 		expected. */
 242:..\FreeRTOS/stream_buffer.c **** 		xBufferSizeBytes++;
 243:..\FreeRTOS/stream_buffer.c **** 		pucAllocatedMemory = ( uint8_t * ) pvPortMalloc( xBufferSizeBytes + sizeof( StreamBuffer_t ) ); /
 244:..\FreeRTOS/stream_buffer.c **** 
 245:..\FreeRTOS/stream_buffer.c **** 		if( pucAllocatedMemory != NULL )
 246:..\FreeRTOS/stream_buffer.c **** 		{
 247:..\FreeRTOS/stream_buffer.c **** 			prvInitialiseNewStreamBuffer( ( StreamBuffer_t * ) pucAllocatedMemory, /* Structure at the start
 248:..\FreeRTOS/stream_buffer.c **** 										   pucAllocatedMemory + sizeof( StreamBuffer_t ),  /* Storage area follows. */ /*lint !e9
 249:..\FreeRTOS/stream_buffer.c **** 										   xBufferSizeBytes,
 250:..\FreeRTOS/stream_buffer.c **** 										   xTriggerLevelBytes,
 251:..\FreeRTOS/stream_buffer.c **** 										   xIsMessageBuffer );
 252:..\FreeRTOS/stream_buffer.c **** 
 253:..\FreeRTOS/stream_buffer.c **** 			traceSTREAM_BUFFER_CREATE( ( ( StreamBuffer_t * ) pucAllocatedMemory ), xIsMessageBuffer );
 254:..\FreeRTOS/stream_buffer.c **** 		}
 255:..\FreeRTOS/stream_buffer.c **** 		else
 256:..\FreeRTOS/stream_buffer.c **** 		{
 257:..\FreeRTOS/stream_buffer.c **** 			traceSTREAM_BUFFER_CREATE_FAILED( xIsMessageBuffer );
 258:..\FreeRTOS/stream_buffer.c **** 		}
 259:..\FreeRTOS/stream_buffer.c **** 
ARM GAS  C:\Users\Tri94\AppData\Local\Temp\ccHaJcja.s 			page 6


 260:..\FreeRTOS/stream_buffer.c **** 		return ( StreamBufferHandle_t * ) pucAllocatedMemory; /*lint !e9087 !e826 Safe cast as allocated 
 261:..\FreeRTOS/stream_buffer.c **** 	}
 262:..\FreeRTOS/stream_buffer.c **** 
 263:..\FreeRTOS/stream_buffer.c **** #endif /* configSUPPORT_DYNAMIC_ALLOCATION */
 264:..\FreeRTOS/stream_buffer.c **** /*-----------------------------------------------------------*/
 265:..\FreeRTOS/stream_buffer.c **** 
 266:..\FreeRTOS/stream_buffer.c **** #if( configSUPPORT_STATIC_ALLOCATION == 1 )
 267:..\FreeRTOS/stream_buffer.c **** 
 268:..\FreeRTOS/stream_buffer.c **** 	StreamBufferHandle_t xStreamBufferGenericCreateStatic( size_t xBufferSizeBytes,
 269:..\FreeRTOS/stream_buffer.c **** 														   size_t xTriggerLevelBytes,
 270:..\FreeRTOS/stream_buffer.c **** 														   BaseType_t xIsMessageBuffer,
 271:..\FreeRTOS/stream_buffer.c **** 														   uint8_t * const pucStreamBufferStorageArea,
 272:..\FreeRTOS/stream_buffer.c **** 														   StaticStreamBuffer_t * const pxStaticStreamBuffer )
 273:..\FreeRTOS/stream_buffer.c **** 	{
 274:..\FreeRTOS/stream_buffer.c **** 	StreamBuffer_t * const pxStreamBuffer = ( StreamBuffer_t * ) pxStaticStreamBuffer; /*lint !e740 !e
 275:..\FreeRTOS/stream_buffer.c **** 	StreamBufferHandle_t xReturn;
 276:..\FreeRTOS/stream_buffer.c **** 
 277:..\FreeRTOS/stream_buffer.c **** 		configASSERT( pucStreamBufferStorageArea );
 278:..\FreeRTOS/stream_buffer.c **** 		configASSERT( pxStaticStreamBuffer );
 279:..\FreeRTOS/stream_buffer.c **** 		configASSERT( xTriggerLevelBytes <= xBufferSizeBytes );
 280:..\FreeRTOS/stream_buffer.c **** 
 281:..\FreeRTOS/stream_buffer.c **** 		/* A trigger level of 0 would cause a waiting task to unblock even when
 282:..\FreeRTOS/stream_buffer.c **** 		the buffer was empty. */
 283:..\FreeRTOS/stream_buffer.c **** 		if( xTriggerLevelBytes == ( size_t ) 0 )
 284:..\FreeRTOS/stream_buffer.c **** 		{
 285:..\FreeRTOS/stream_buffer.c **** 			xTriggerLevelBytes = ( size_t ) 1; /*lint !e9044 Function parameter deliberately modified to ens
 286:..\FreeRTOS/stream_buffer.c **** 		}
 287:..\FreeRTOS/stream_buffer.c **** 
 288:..\FreeRTOS/stream_buffer.c **** 		/* In case the stream buffer is going to be used as a message buffer
 289:..\FreeRTOS/stream_buffer.c **** 		(that is, it will hold discrete messages with a little meta data that
 290:..\FreeRTOS/stream_buffer.c **** 		says how big the next message is) check the buffer will be large enough
 291:..\FreeRTOS/stream_buffer.c **** 		to hold at least one message. */
 292:..\FreeRTOS/stream_buffer.c **** 		configASSERT( xBufferSizeBytes > sbBYTES_TO_STORE_MESSAGE_LENGTH );
 293:..\FreeRTOS/stream_buffer.c **** 
 294:..\FreeRTOS/stream_buffer.c **** 		#if( configASSERT_DEFINED == 1 )
 295:..\FreeRTOS/stream_buffer.c **** 		{
 296:..\FreeRTOS/stream_buffer.c **** 			/* Sanity check that the size of the structure used to declare a
 297:..\FreeRTOS/stream_buffer.c **** 			variable of type StaticStreamBuffer_t equals the size of the real
 298:..\FreeRTOS/stream_buffer.c **** 			message buffer structure. */
 299:..\FreeRTOS/stream_buffer.c **** 			volatile size_t xSize = sizeof( StaticStreamBuffer_t );
 300:..\FreeRTOS/stream_buffer.c **** 			configASSERT( xSize == sizeof( StreamBuffer_t ) );
 301:..\FreeRTOS/stream_buffer.c **** 		}
 302:..\FreeRTOS/stream_buffer.c **** 		#endif /* configASSERT_DEFINED */
 303:..\FreeRTOS/stream_buffer.c **** 
 304:..\FreeRTOS/stream_buffer.c **** 		if( ( pucStreamBufferStorageArea != NULL ) && ( pxStaticStreamBuffer != NULL ) )
 305:..\FreeRTOS/stream_buffer.c **** 		{
 306:..\FreeRTOS/stream_buffer.c **** 			prvInitialiseNewStreamBuffer( pxStreamBuffer,
 307:..\FreeRTOS/stream_buffer.c **** 										  pucStreamBufferStorageArea,
 308:..\FreeRTOS/stream_buffer.c **** 										  xBufferSizeBytes,
 309:..\FreeRTOS/stream_buffer.c **** 										  xTriggerLevelBytes,
 310:..\FreeRTOS/stream_buffer.c **** 										  xIsMessageBuffer );
 311:..\FreeRTOS/stream_buffer.c **** 
 312:..\FreeRTOS/stream_buffer.c **** 			/* Remember this was statically allocated in case it is ever deleted
 313:..\FreeRTOS/stream_buffer.c **** 			again. */
 314:..\FreeRTOS/stream_buffer.c **** 			pxStreamBuffer->ucFlags |= sbFLAGS_IS_STATICALLY_ALLOCATED;
 315:..\FreeRTOS/stream_buffer.c **** 
 316:..\FreeRTOS/stream_buffer.c **** 			traceSTREAM_BUFFER_CREATE( pxStreamBuffer, xIsMessageBuffer );
ARM GAS  C:\Users\Tri94\AppData\Local\Temp\ccHaJcja.s 			page 7


 317:..\FreeRTOS/stream_buffer.c **** 
 318:..\FreeRTOS/stream_buffer.c **** 			xReturn = ( StreamBufferHandle_t ) pxStaticStreamBuffer; /*lint !e9087 Data hiding requires cast
 319:..\FreeRTOS/stream_buffer.c **** 		}
 320:..\FreeRTOS/stream_buffer.c **** 		else
 321:..\FreeRTOS/stream_buffer.c **** 		{
 322:..\FreeRTOS/stream_buffer.c **** 			xReturn = NULL;
 323:..\FreeRTOS/stream_buffer.c **** 			traceSTREAM_BUFFER_CREATE_STATIC_FAILED( xReturn, xIsMessageBuffer );
 324:..\FreeRTOS/stream_buffer.c **** 		}
 325:..\FreeRTOS/stream_buffer.c **** 
 326:..\FreeRTOS/stream_buffer.c **** 		return xReturn;
 327:..\FreeRTOS/stream_buffer.c **** 	}
 328:..\FreeRTOS/stream_buffer.c **** 
 329:..\FreeRTOS/stream_buffer.c **** #endif /* ( configSUPPORT_STATIC_ALLOCATION == 1 ) */
 330:..\FreeRTOS/stream_buffer.c **** /*-----------------------------------------------------------*/
 331:..\FreeRTOS/stream_buffer.c **** 
 332:..\FreeRTOS/stream_buffer.c **** void vStreamBufferDelete( StreamBufferHandle_t xStreamBuffer )
 333:..\FreeRTOS/stream_buffer.c **** {
 334:..\FreeRTOS/stream_buffer.c **** StreamBuffer_t * pxStreamBuffer = ( StreamBuffer_t * ) xStreamBuffer; /*lint !e9087 !e9079 Safe cas
 335:..\FreeRTOS/stream_buffer.c **** 
 336:..\FreeRTOS/stream_buffer.c **** 	configASSERT( pxStreamBuffer );
 337:..\FreeRTOS/stream_buffer.c **** 
 338:..\FreeRTOS/stream_buffer.c **** 	traceSTREAM_BUFFER_DELETE( xStreamBuffer );
 339:..\FreeRTOS/stream_buffer.c **** 
 340:..\FreeRTOS/stream_buffer.c **** 	if( ( pxStreamBuffer->ucFlags & sbFLAGS_IS_STATICALLY_ALLOCATED ) == ( uint8_t ) pdFALSE )
 341:..\FreeRTOS/stream_buffer.c **** 	{
 342:..\FreeRTOS/stream_buffer.c **** 		#if( configSUPPORT_DYNAMIC_ALLOCATION == 1 )
 343:..\FreeRTOS/stream_buffer.c **** 		{
 344:..\FreeRTOS/stream_buffer.c **** 			/* Both the structure and the buffer were allocated using a single call
 345:..\FreeRTOS/stream_buffer.c **** 			to pvPortMalloc(), hence only one call to vPortFree() is required. */
 346:..\FreeRTOS/stream_buffer.c **** 			vPortFree( ( void * ) pxStreamBuffer ); /*lint !e9087 Standard free() semantics require void *, 
 347:..\FreeRTOS/stream_buffer.c **** 		}
 348:..\FreeRTOS/stream_buffer.c **** 		#else
 349:..\FreeRTOS/stream_buffer.c **** 		{
 350:..\FreeRTOS/stream_buffer.c **** 			/* Should not be possible to get here, ucFlags must be corrupt.
 351:..\FreeRTOS/stream_buffer.c **** 			Force an assert. */
 352:..\FreeRTOS/stream_buffer.c **** 			configASSERT( xStreamBuffer == ( StreamBufferHandle_t ) ~0 );
 353:..\FreeRTOS/stream_buffer.c **** 		}
 354:..\FreeRTOS/stream_buffer.c **** 		#endif
 355:..\FreeRTOS/stream_buffer.c **** 	}
 356:..\FreeRTOS/stream_buffer.c **** 	else
 357:..\FreeRTOS/stream_buffer.c **** 	{
 358:..\FreeRTOS/stream_buffer.c **** 		/* The structure and buffer were not allocated dynamically and cannot be
 359:..\FreeRTOS/stream_buffer.c **** 		freed - just scrub the structure so future use will assert. */
 360:..\FreeRTOS/stream_buffer.c **** 		memset( pxStreamBuffer, 0x00, sizeof( StreamBuffer_t ) );
 361:..\FreeRTOS/stream_buffer.c **** 	}
 362:..\FreeRTOS/stream_buffer.c **** }
 363:..\FreeRTOS/stream_buffer.c **** /*-----------------------------------------------------------*/
 364:..\FreeRTOS/stream_buffer.c **** 
 365:..\FreeRTOS/stream_buffer.c **** BaseType_t xStreamBufferReset( StreamBufferHandle_t xStreamBuffer )
 366:..\FreeRTOS/stream_buffer.c **** {
 367:..\FreeRTOS/stream_buffer.c **** StreamBuffer_t * const pxStreamBuffer = ( StreamBuffer_t * ) xStreamBuffer; /*lint !e9087 !e9079 Sa
 368:..\FreeRTOS/stream_buffer.c **** BaseType_t xReturn = pdFAIL, xIsMessageBuffer;
 369:..\FreeRTOS/stream_buffer.c **** 
 370:..\FreeRTOS/stream_buffer.c **** #if( configUSE_TRACE_FACILITY == 1 )
 371:..\FreeRTOS/stream_buffer.c **** 	UBaseType_t uxStreamBufferNumber;
 372:..\FreeRTOS/stream_buffer.c **** #endif
 373:..\FreeRTOS/stream_buffer.c **** 
ARM GAS  C:\Users\Tri94\AppData\Local\Temp\ccHaJcja.s 			page 8


 374:..\FreeRTOS/stream_buffer.c **** 	configASSERT( pxStreamBuffer );
 375:..\FreeRTOS/stream_buffer.c **** 
 376:..\FreeRTOS/stream_buffer.c **** 	#if( configUSE_TRACE_FACILITY == 1 )
 377:..\FreeRTOS/stream_buffer.c **** 	{
 378:..\FreeRTOS/stream_buffer.c **** 		/* Store the stream buffer number so it can be restored after the
 379:..\FreeRTOS/stream_buffer.c **** 		reset. */
 380:..\FreeRTOS/stream_buffer.c **** 		uxStreamBufferNumber = pxStreamBuffer->uxStreamBufferNumber;
 381:..\FreeRTOS/stream_buffer.c **** 	}
 382:..\FreeRTOS/stream_buffer.c **** 	#endif
 383:..\FreeRTOS/stream_buffer.c **** 
 384:..\FreeRTOS/stream_buffer.c **** 	/* Can only reset a message buffer if there are no tasks blocked on it. */
 385:..\FreeRTOS/stream_buffer.c **** 	if( pxStreamBuffer->xTaskWaitingToReceive == NULL )
 386:..\FreeRTOS/stream_buffer.c **** 	{
 387:..\FreeRTOS/stream_buffer.c **** 		if( pxStreamBuffer->xTaskWaitingToSend == NULL )
 388:..\FreeRTOS/stream_buffer.c **** 		{
 389:..\FreeRTOS/stream_buffer.c **** 			if( ( pxStreamBuffer->ucFlags & sbFLAGS_IS_MESSAGE_BUFFER ) != ( uint8_t ) 0 )
 390:..\FreeRTOS/stream_buffer.c **** 			{
 391:..\FreeRTOS/stream_buffer.c **** 				xIsMessageBuffer = pdTRUE;
 392:..\FreeRTOS/stream_buffer.c **** 			}
 393:..\FreeRTOS/stream_buffer.c **** 			else
 394:..\FreeRTOS/stream_buffer.c **** 			{
 395:..\FreeRTOS/stream_buffer.c **** 				xIsMessageBuffer = pdFALSE;
 396:..\FreeRTOS/stream_buffer.c **** 			}
 397:..\FreeRTOS/stream_buffer.c **** 
 398:..\FreeRTOS/stream_buffer.c **** 			prvInitialiseNewStreamBuffer( pxStreamBuffer,
 399:..\FreeRTOS/stream_buffer.c **** 										  pxStreamBuffer->pucBuffer,
 400:..\FreeRTOS/stream_buffer.c **** 										  pxStreamBuffer->xLength,
 401:..\FreeRTOS/stream_buffer.c **** 										  pxStreamBuffer->xTriggerLevelBytes,
 402:..\FreeRTOS/stream_buffer.c **** 										  xIsMessageBuffer );
 403:..\FreeRTOS/stream_buffer.c **** 			xReturn = pdPASS;
 404:..\FreeRTOS/stream_buffer.c **** 
 405:..\FreeRTOS/stream_buffer.c **** 			#if( configUSE_TRACE_FACILITY == 1 )
 406:..\FreeRTOS/stream_buffer.c **** 			{
 407:..\FreeRTOS/stream_buffer.c **** 				pxStreamBuffer->uxStreamBufferNumber = uxStreamBufferNumber;
 408:..\FreeRTOS/stream_buffer.c **** 			}
 409:..\FreeRTOS/stream_buffer.c **** 			#endif
 410:..\FreeRTOS/stream_buffer.c **** 
 411:..\FreeRTOS/stream_buffer.c **** 			traceSTREAM_BUFFER_RESET( xStreamBuffer );
 412:..\FreeRTOS/stream_buffer.c **** 		}
 413:..\FreeRTOS/stream_buffer.c **** 	}
 414:..\FreeRTOS/stream_buffer.c **** 
 415:..\FreeRTOS/stream_buffer.c **** 	return xReturn;
 416:..\FreeRTOS/stream_buffer.c **** }
 417:..\FreeRTOS/stream_buffer.c **** /*-----------------------------------------------------------*/
 418:..\FreeRTOS/stream_buffer.c **** 
 419:..\FreeRTOS/stream_buffer.c **** BaseType_t xStreamBufferSetTriggerLevel( StreamBufferHandle_t xStreamBuffer, size_t xTriggerLevel )
 420:..\FreeRTOS/stream_buffer.c **** {
 421:..\FreeRTOS/stream_buffer.c **** StreamBuffer_t * const pxStreamBuffer = ( StreamBuffer_t * ) xStreamBuffer; /*lint !e9087 !e9079 Sa
 422:..\FreeRTOS/stream_buffer.c **** BaseType_t xReturn;
 423:..\FreeRTOS/stream_buffer.c **** 
 424:..\FreeRTOS/stream_buffer.c **** 	configASSERT( pxStreamBuffer );
 425:..\FreeRTOS/stream_buffer.c **** 
 426:..\FreeRTOS/stream_buffer.c **** 	/* It is not valid for the trigger level to be 0. */
 427:..\FreeRTOS/stream_buffer.c **** 	if( xTriggerLevel == ( size_t ) 0 )
 428:..\FreeRTOS/stream_buffer.c **** 	{
 429:..\FreeRTOS/stream_buffer.c **** 		xTriggerLevel = ( size_t ) 1; /*lint !e9044 Parameter modified to ensure it doesn't have a danger
 430:..\FreeRTOS/stream_buffer.c **** 	}
ARM GAS  C:\Users\Tri94\AppData\Local\Temp\ccHaJcja.s 			page 9


 431:..\FreeRTOS/stream_buffer.c **** 
 432:..\FreeRTOS/stream_buffer.c **** 	/* The trigger level is the number of bytes that must be in the stream
 433:..\FreeRTOS/stream_buffer.c **** 	buffer before a task that is waiting for data is unblocked. */
 434:..\FreeRTOS/stream_buffer.c **** 	if( xTriggerLevel <= pxStreamBuffer->xLength )
 435:..\FreeRTOS/stream_buffer.c **** 	{
 436:..\FreeRTOS/stream_buffer.c **** 		pxStreamBuffer->xTriggerLevelBytes = xTriggerLevel;
 437:..\FreeRTOS/stream_buffer.c **** 		xReturn = pdPASS;
 438:..\FreeRTOS/stream_buffer.c **** 	}
 439:..\FreeRTOS/stream_buffer.c **** 	else
 440:..\FreeRTOS/stream_buffer.c **** 	{
 441:..\FreeRTOS/stream_buffer.c **** 		xReturn = pdFALSE;
 442:..\FreeRTOS/stream_buffer.c **** 	}
 443:..\FreeRTOS/stream_buffer.c **** 
 444:..\FreeRTOS/stream_buffer.c **** 	return xReturn;
 445:..\FreeRTOS/stream_buffer.c **** }
 446:..\FreeRTOS/stream_buffer.c **** /*-----------------------------------------------------------*/
 447:..\FreeRTOS/stream_buffer.c **** 
 448:..\FreeRTOS/stream_buffer.c **** size_t xStreamBufferSpacesAvailable( StreamBufferHandle_t xStreamBuffer )
 449:..\FreeRTOS/stream_buffer.c **** {
 450:..\FreeRTOS/stream_buffer.c **** const StreamBuffer_t * const pxStreamBuffer = ( StreamBuffer_t * ) xStreamBuffer; /*lint !e9087 !e9
 451:..\FreeRTOS/stream_buffer.c **** size_t xSpace;
 452:..\FreeRTOS/stream_buffer.c **** 
 453:..\FreeRTOS/stream_buffer.c **** 	configASSERT( pxStreamBuffer );
 454:..\FreeRTOS/stream_buffer.c **** 
 455:..\FreeRTOS/stream_buffer.c **** 	xSpace = pxStreamBuffer->xLength + pxStreamBuffer->xTail;
 456:..\FreeRTOS/stream_buffer.c **** 	xSpace -= pxStreamBuffer->xHead;
 457:..\FreeRTOS/stream_buffer.c **** 	xSpace -= ( size_t ) 1;
 458:..\FreeRTOS/stream_buffer.c **** 
 459:..\FreeRTOS/stream_buffer.c **** 	if( xSpace >= pxStreamBuffer->xLength )
 460:..\FreeRTOS/stream_buffer.c **** 	{
 461:..\FreeRTOS/stream_buffer.c **** 		xSpace -= pxStreamBuffer->xLength;
 462:..\FreeRTOS/stream_buffer.c **** 	}
 463:..\FreeRTOS/stream_buffer.c **** 	else
 464:..\FreeRTOS/stream_buffer.c **** 	{
 465:..\FreeRTOS/stream_buffer.c **** 		mtCOVERAGE_TEST_MARKER();
 466:..\FreeRTOS/stream_buffer.c **** 	}
 467:..\FreeRTOS/stream_buffer.c **** 
 468:..\FreeRTOS/stream_buffer.c **** 	return xSpace;
 469:..\FreeRTOS/stream_buffer.c **** }
 470:..\FreeRTOS/stream_buffer.c **** /*-----------------------------------------------------------*/
 471:..\FreeRTOS/stream_buffer.c **** 
 472:..\FreeRTOS/stream_buffer.c **** size_t xStreamBufferBytesAvailable( StreamBufferHandle_t xStreamBuffer )
 473:..\FreeRTOS/stream_buffer.c **** {
 474:..\FreeRTOS/stream_buffer.c **** const StreamBuffer_t * const pxStreamBuffer = ( StreamBuffer_t * ) xStreamBuffer; /*lint !e9087 !e9
 475:..\FreeRTOS/stream_buffer.c **** size_t xReturn;
 476:..\FreeRTOS/stream_buffer.c **** 
 477:..\FreeRTOS/stream_buffer.c **** 	configASSERT( pxStreamBuffer );
 478:..\FreeRTOS/stream_buffer.c **** 
 479:..\FreeRTOS/stream_buffer.c **** 	xReturn = prvBytesInBuffer( pxStreamBuffer );
 480:..\FreeRTOS/stream_buffer.c **** 	return xReturn;
 481:..\FreeRTOS/stream_buffer.c **** }
 482:..\FreeRTOS/stream_buffer.c **** /*-----------------------------------------------------------*/
 483:..\FreeRTOS/stream_buffer.c **** 
 484:..\FreeRTOS/stream_buffer.c **** size_t xStreamBufferSend( StreamBufferHandle_t xStreamBuffer,
 485:..\FreeRTOS/stream_buffer.c **** 						  const void *pvTxData,
 486:..\FreeRTOS/stream_buffer.c **** 						  size_t xDataLengthBytes,
 487:..\FreeRTOS/stream_buffer.c **** 						  TickType_t xTicksToWait )
ARM GAS  C:\Users\Tri94\AppData\Local\Temp\ccHaJcja.s 			page 10


 488:..\FreeRTOS/stream_buffer.c **** {
 489:..\FreeRTOS/stream_buffer.c **** StreamBuffer_t * const pxStreamBuffer = ( StreamBuffer_t * ) xStreamBuffer; /*lint !e9087 !e9079 Sa
 490:..\FreeRTOS/stream_buffer.c **** size_t xReturn, xSpace = 0;
 491:..\FreeRTOS/stream_buffer.c **** size_t xRequiredSpace = xDataLengthBytes;
 492:..\FreeRTOS/stream_buffer.c **** TimeOut_t xTimeOut;
 493:..\FreeRTOS/stream_buffer.c **** 
 494:..\FreeRTOS/stream_buffer.c **** 	configASSERT( pvTxData );
 495:..\FreeRTOS/stream_buffer.c **** 	configASSERT( pxStreamBuffer );
 496:..\FreeRTOS/stream_buffer.c **** 
 497:..\FreeRTOS/stream_buffer.c **** 	/* This send function is used to write to both message buffers and stream
 498:..\FreeRTOS/stream_buffer.c **** 	buffers.  If this is a message buffer then the space needed must be
 499:..\FreeRTOS/stream_buffer.c **** 	increased by the amount of bytes needed to store the length of the
 500:..\FreeRTOS/stream_buffer.c **** 	message. */
 501:..\FreeRTOS/stream_buffer.c **** 	if( ( pxStreamBuffer->ucFlags & sbFLAGS_IS_MESSAGE_BUFFER ) != ( uint8_t ) 0 )
 502:..\FreeRTOS/stream_buffer.c **** 	{
 503:..\FreeRTOS/stream_buffer.c **** 		xRequiredSpace += sbBYTES_TO_STORE_MESSAGE_LENGTH;
 504:..\FreeRTOS/stream_buffer.c **** 	}
 505:..\FreeRTOS/stream_buffer.c **** 	else
 506:..\FreeRTOS/stream_buffer.c **** 	{
 507:..\FreeRTOS/stream_buffer.c **** 		mtCOVERAGE_TEST_MARKER();
 508:..\FreeRTOS/stream_buffer.c **** 	}
 509:..\FreeRTOS/stream_buffer.c **** 
 510:..\FreeRTOS/stream_buffer.c **** 	if( xTicksToWait != ( TickType_t ) 0 )
 511:..\FreeRTOS/stream_buffer.c **** 	{
 512:..\FreeRTOS/stream_buffer.c **** 		vTaskSetTimeOutState( &xTimeOut );
 513:..\FreeRTOS/stream_buffer.c **** 
 514:..\FreeRTOS/stream_buffer.c **** 		do
 515:..\FreeRTOS/stream_buffer.c **** 		{
 516:..\FreeRTOS/stream_buffer.c **** 			/* Wait until the required number of bytes are free in the message
 517:..\FreeRTOS/stream_buffer.c **** 			buffer. */
 518:..\FreeRTOS/stream_buffer.c **** 			taskENTER_CRITICAL();
 519:..\FreeRTOS/stream_buffer.c **** 			{
 520:..\FreeRTOS/stream_buffer.c **** 				xSpace = xStreamBufferSpacesAvailable( pxStreamBuffer );
 521:..\FreeRTOS/stream_buffer.c **** 
 522:..\FreeRTOS/stream_buffer.c **** 				if( xSpace < xRequiredSpace )
 523:..\FreeRTOS/stream_buffer.c **** 				{
 524:..\FreeRTOS/stream_buffer.c **** 					/* Clear notification state as going to wait for space. */
 525:..\FreeRTOS/stream_buffer.c **** 					( void ) xTaskNotifyStateClear( NULL );
 526:..\FreeRTOS/stream_buffer.c **** 
 527:..\FreeRTOS/stream_buffer.c **** 					/* Should only be one writer. */
 528:..\FreeRTOS/stream_buffer.c **** 					configASSERT( pxStreamBuffer->xTaskWaitingToSend == NULL );
 529:..\FreeRTOS/stream_buffer.c **** 					pxStreamBuffer->xTaskWaitingToSend = xTaskGetCurrentTaskHandle();
 530:..\FreeRTOS/stream_buffer.c **** 				}
 531:..\FreeRTOS/stream_buffer.c **** 				else
 532:..\FreeRTOS/stream_buffer.c **** 				{
 533:..\FreeRTOS/stream_buffer.c **** 					taskEXIT_CRITICAL();
 534:..\FreeRTOS/stream_buffer.c **** 					break;
 535:..\FreeRTOS/stream_buffer.c **** 				}
 536:..\FreeRTOS/stream_buffer.c **** 			}
 537:..\FreeRTOS/stream_buffer.c **** 			taskEXIT_CRITICAL();
 538:..\FreeRTOS/stream_buffer.c **** 
 539:..\FreeRTOS/stream_buffer.c **** 			traceBLOCKING_ON_STREAM_BUFFER_SEND( xStreamBuffer );
 540:..\FreeRTOS/stream_buffer.c **** 			( void ) xTaskNotifyWait( ( uint32_t ) 0, UINT32_MAX, NULL, xTicksToWait );
 541:..\FreeRTOS/stream_buffer.c **** 			pxStreamBuffer->xTaskWaitingToSend = NULL;
 542:..\FreeRTOS/stream_buffer.c **** 
 543:..\FreeRTOS/stream_buffer.c **** 		} while( xTaskCheckForTimeOut( &xTimeOut, &xTicksToWait ) == pdFALSE );
 544:..\FreeRTOS/stream_buffer.c **** 	}
ARM GAS  C:\Users\Tri94\AppData\Local\Temp\ccHaJcja.s 			page 11


 545:..\FreeRTOS/stream_buffer.c **** 	else
 546:..\FreeRTOS/stream_buffer.c **** 	{
 547:..\FreeRTOS/stream_buffer.c **** 		mtCOVERAGE_TEST_MARKER();
 548:..\FreeRTOS/stream_buffer.c **** 	}
 549:..\FreeRTOS/stream_buffer.c **** 
 550:..\FreeRTOS/stream_buffer.c **** 	if( xSpace == ( size_t ) 0 )
 551:..\FreeRTOS/stream_buffer.c **** 	{
 552:..\FreeRTOS/stream_buffer.c **** 		xSpace = xStreamBufferSpacesAvailable( pxStreamBuffer );
 553:..\FreeRTOS/stream_buffer.c **** 	}
 554:..\FreeRTOS/stream_buffer.c **** 	else
 555:..\FreeRTOS/stream_buffer.c **** 	{
 556:..\FreeRTOS/stream_buffer.c **** 		mtCOVERAGE_TEST_MARKER();
 557:..\FreeRTOS/stream_buffer.c **** 	}
 558:..\FreeRTOS/stream_buffer.c **** 
 559:..\FreeRTOS/stream_buffer.c **** 	xReturn = prvWriteMessageToBuffer( pxStreamBuffer, pvTxData, xDataLengthBytes, xSpace, xRequiredSp
 560:..\FreeRTOS/stream_buffer.c **** 
 561:..\FreeRTOS/stream_buffer.c **** 	if( xReturn > ( size_t ) 0 )
 562:..\FreeRTOS/stream_buffer.c **** 	{
 563:..\FreeRTOS/stream_buffer.c **** 		traceSTREAM_BUFFER_SEND( xStreamBuffer, xReturn );
 564:..\FreeRTOS/stream_buffer.c **** 
 565:..\FreeRTOS/stream_buffer.c **** 		/* Was a task waiting for the data? */
 566:..\FreeRTOS/stream_buffer.c **** 		if( prvBytesInBuffer( pxStreamBuffer ) >= pxStreamBuffer->xTriggerLevelBytes )
 567:..\FreeRTOS/stream_buffer.c **** 		{
 568:..\FreeRTOS/stream_buffer.c **** 			sbSEND_COMPLETED( pxStreamBuffer );
 569:..\FreeRTOS/stream_buffer.c **** 		}
 570:..\FreeRTOS/stream_buffer.c **** 		else
 571:..\FreeRTOS/stream_buffer.c **** 		{
 572:..\FreeRTOS/stream_buffer.c **** 			mtCOVERAGE_TEST_MARKER();
 573:..\FreeRTOS/stream_buffer.c **** 		}
 574:..\FreeRTOS/stream_buffer.c **** 	}
 575:..\FreeRTOS/stream_buffer.c **** 	else
 576:..\FreeRTOS/stream_buffer.c **** 	{
 577:..\FreeRTOS/stream_buffer.c **** 		mtCOVERAGE_TEST_MARKER();
 578:..\FreeRTOS/stream_buffer.c **** 		traceSTREAM_BUFFER_SEND_FAILED( xStreamBuffer );
 579:..\FreeRTOS/stream_buffer.c **** 	}
 580:..\FreeRTOS/stream_buffer.c **** 
 581:..\FreeRTOS/stream_buffer.c **** 	return xReturn;
 582:..\FreeRTOS/stream_buffer.c **** }
 583:..\FreeRTOS/stream_buffer.c **** /*-----------------------------------------------------------*/
 584:..\FreeRTOS/stream_buffer.c **** 
 585:..\FreeRTOS/stream_buffer.c **** size_t xStreamBufferSendFromISR( StreamBufferHandle_t xStreamBuffer,
 586:..\FreeRTOS/stream_buffer.c **** 								 const void *pvTxData,
 587:..\FreeRTOS/stream_buffer.c **** 								 size_t xDataLengthBytes,
 588:..\FreeRTOS/stream_buffer.c **** 								 BaseType_t * const pxHigherPriorityTaskWoken )
 589:..\FreeRTOS/stream_buffer.c **** {
 590:..\FreeRTOS/stream_buffer.c **** StreamBuffer_t * const pxStreamBuffer = ( StreamBuffer_t * ) xStreamBuffer; /*lint !e9087 !e9079 Sa
 591:..\FreeRTOS/stream_buffer.c **** size_t xReturn, xSpace;
 592:..\FreeRTOS/stream_buffer.c **** size_t xRequiredSpace = xDataLengthBytes;
 593:..\FreeRTOS/stream_buffer.c **** 
 594:..\FreeRTOS/stream_buffer.c **** 	configASSERT( pvTxData );
 595:..\FreeRTOS/stream_buffer.c **** 	configASSERT( pxStreamBuffer );
 596:..\FreeRTOS/stream_buffer.c **** 
 597:..\FreeRTOS/stream_buffer.c **** 	/* This send function is used to write to both message buffers and stream
 598:..\FreeRTOS/stream_buffer.c **** 	buffers.  If this is a message buffer then the space needed must be
 599:..\FreeRTOS/stream_buffer.c **** 	increased by the amount of bytes needed to store the length of the
 600:..\FreeRTOS/stream_buffer.c **** 	message. */
 601:..\FreeRTOS/stream_buffer.c **** 	if( ( pxStreamBuffer->ucFlags & sbFLAGS_IS_MESSAGE_BUFFER ) != ( uint8_t ) 0 )
ARM GAS  C:\Users\Tri94\AppData\Local\Temp\ccHaJcja.s 			page 12


 602:..\FreeRTOS/stream_buffer.c **** 	{
 603:..\FreeRTOS/stream_buffer.c **** 		xRequiredSpace += sbBYTES_TO_STORE_MESSAGE_LENGTH;
 604:..\FreeRTOS/stream_buffer.c **** 	}
 605:..\FreeRTOS/stream_buffer.c **** 	else
 606:..\FreeRTOS/stream_buffer.c **** 	{
 607:..\FreeRTOS/stream_buffer.c **** 		mtCOVERAGE_TEST_MARKER();
 608:..\FreeRTOS/stream_buffer.c **** 	}
 609:..\FreeRTOS/stream_buffer.c **** 
 610:..\FreeRTOS/stream_buffer.c **** 	xSpace = xStreamBufferSpacesAvailable( pxStreamBuffer );
 611:..\FreeRTOS/stream_buffer.c **** 	xReturn = prvWriteMessageToBuffer( pxStreamBuffer, pvTxData, xDataLengthBytes, xSpace, xRequiredSp
 612:..\FreeRTOS/stream_buffer.c **** 
 613:..\FreeRTOS/stream_buffer.c **** 	if( xReturn > ( size_t ) 0 )
 614:..\FreeRTOS/stream_buffer.c **** 	{
 615:..\FreeRTOS/stream_buffer.c **** 		/* Was a task waiting for the data? */
 616:..\FreeRTOS/stream_buffer.c **** 		if( prvBytesInBuffer( pxStreamBuffer ) >= pxStreamBuffer->xTriggerLevelBytes )
 617:..\FreeRTOS/stream_buffer.c **** 		{
 618:..\FreeRTOS/stream_buffer.c **** 			sbSEND_COMPLETE_FROM_ISR( pxStreamBuffer, pxHigherPriorityTaskWoken );
 619:..\FreeRTOS/stream_buffer.c **** 		}
 620:..\FreeRTOS/stream_buffer.c **** 		else
 621:..\FreeRTOS/stream_buffer.c **** 		{
 622:..\FreeRTOS/stream_buffer.c **** 			mtCOVERAGE_TEST_MARKER();
 623:..\FreeRTOS/stream_buffer.c **** 		}
 624:..\FreeRTOS/stream_buffer.c **** 	}
 625:..\FreeRTOS/stream_buffer.c **** 	else
 626:..\FreeRTOS/stream_buffer.c **** 	{
 627:..\FreeRTOS/stream_buffer.c **** 		mtCOVERAGE_TEST_MARKER();
 628:..\FreeRTOS/stream_buffer.c **** 	}
 629:..\FreeRTOS/stream_buffer.c **** 
 630:..\FreeRTOS/stream_buffer.c **** 	traceSTREAM_BUFFER_SEND_FROM_ISR( xStreamBuffer, xReturn );
 631:..\FreeRTOS/stream_buffer.c **** 
 632:..\FreeRTOS/stream_buffer.c **** 	return xReturn;
 633:..\FreeRTOS/stream_buffer.c **** }
 634:..\FreeRTOS/stream_buffer.c **** /*-----------------------------------------------------------*/
 635:..\FreeRTOS/stream_buffer.c **** 
 636:..\FreeRTOS/stream_buffer.c **** static size_t prvWriteMessageToBuffer( StreamBuffer_t * const pxStreamBuffer,
 637:..\FreeRTOS/stream_buffer.c **** 									   const void * pvTxData,
 638:..\FreeRTOS/stream_buffer.c **** 									   size_t xDataLengthBytes,
 639:..\FreeRTOS/stream_buffer.c **** 									   size_t xSpace,
 640:..\FreeRTOS/stream_buffer.c **** 									   size_t xRequiredSpace )
 641:..\FreeRTOS/stream_buffer.c **** {
 642:..\FreeRTOS/stream_buffer.c **** 	BaseType_t xShouldWrite;
 643:..\FreeRTOS/stream_buffer.c **** 	size_t xReturn;
 644:..\FreeRTOS/stream_buffer.c **** 
 645:..\FreeRTOS/stream_buffer.c **** 	if( xSpace == ( size_t ) 0 )
 646:..\FreeRTOS/stream_buffer.c **** 	{
 647:..\FreeRTOS/stream_buffer.c **** 		/* Doesn't matter if this is a stream buffer or a message buffer, there
 648:..\FreeRTOS/stream_buffer.c **** 		is no space to write. */
 649:..\FreeRTOS/stream_buffer.c **** 		xShouldWrite = pdFALSE;
 650:..\FreeRTOS/stream_buffer.c **** 	}
 651:..\FreeRTOS/stream_buffer.c **** 	else if( ( pxStreamBuffer->ucFlags & sbFLAGS_IS_MESSAGE_BUFFER ) == ( uint8_t ) 0 )
 652:..\FreeRTOS/stream_buffer.c **** 	{
 653:..\FreeRTOS/stream_buffer.c **** 		/* This is a stream buffer, as opposed to a message buffer, so writing a
 654:..\FreeRTOS/stream_buffer.c **** 		stream of bytes rather than discrete messages.  Write as many bytes as
 655:..\FreeRTOS/stream_buffer.c **** 		possible. */
 656:..\FreeRTOS/stream_buffer.c **** 		xShouldWrite = pdTRUE;
 657:..\FreeRTOS/stream_buffer.c **** 		xDataLengthBytes = configMIN( xDataLengthBytes, xSpace ); /*lint !e9044 Function parameter modifi
 658:..\FreeRTOS/stream_buffer.c **** 	}
ARM GAS  C:\Users\Tri94\AppData\Local\Temp\ccHaJcja.s 			page 13


 659:..\FreeRTOS/stream_buffer.c **** 	else if( xSpace >= xRequiredSpace )
 660:..\FreeRTOS/stream_buffer.c **** 	{
 661:..\FreeRTOS/stream_buffer.c **** 		/* This is a message buffer, as opposed to a stream buffer, and there
 662:..\FreeRTOS/stream_buffer.c **** 		is enough space to write both the message length and the message itself
 663:..\FreeRTOS/stream_buffer.c **** 		into the buffer.  Start by writing the length of the data, the data
 664:..\FreeRTOS/stream_buffer.c **** 		itself will be written later in this function. */
 665:..\FreeRTOS/stream_buffer.c **** 		xShouldWrite = pdTRUE;
 666:..\FreeRTOS/stream_buffer.c **** 		( void ) prvWriteBytesToBuffer( pxStreamBuffer, ( const uint8_t * ) &( xDataLengthBytes ), sbBYTE
 667:..\FreeRTOS/stream_buffer.c **** 	}
 668:..\FreeRTOS/stream_buffer.c **** 	else
 669:..\FreeRTOS/stream_buffer.c **** 	{
 670:..\FreeRTOS/stream_buffer.c **** 		/* There is space available, but not enough space. */
 671:..\FreeRTOS/stream_buffer.c **** 		xShouldWrite = pdFALSE;
 672:..\FreeRTOS/stream_buffer.c **** 	}
 673:..\FreeRTOS/stream_buffer.c **** 
 674:..\FreeRTOS/stream_buffer.c **** 	if( xShouldWrite != pdFALSE )
 675:..\FreeRTOS/stream_buffer.c **** 	{
 676:..\FreeRTOS/stream_buffer.c **** 		/* Writes the data itself. */
 677:..\FreeRTOS/stream_buffer.c **** 		xReturn = prvWriteBytesToBuffer( pxStreamBuffer, ( const uint8_t * ) pvTxData, xDataLengthBytes )
 678:..\FreeRTOS/stream_buffer.c **** 	}
 679:..\FreeRTOS/stream_buffer.c **** 	else
 680:..\FreeRTOS/stream_buffer.c **** 	{
 681:..\FreeRTOS/stream_buffer.c **** 		xReturn = 0;
 682:..\FreeRTOS/stream_buffer.c **** 	}
 683:..\FreeRTOS/stream_buffer.c **** 
 684:..\FreeRTOS/stream_buffer.c **** 	return xReturn;
 685:..\FreeRTOS/stream_buffer.c **** }
 686:..\FreeRTOS/stream_buffer.c **** /*-----------------------------------------------------------*/
 687:..\FreeRTOS/stream_buffer.c **** 
 688:..\FreeRTOS/stream_buffer.c **** size_t xStreamBufferReceive( StreamBufferHandle_t xStreamBuffer,
 689:..\FreeRTOS/stream_buffer.c **** 							 void *pvRxData,
 690:..\FreeRTOS/stream_buffer.c **** 							 size_t xBufferLengthBytes,
 691:..\FreeRTOS/stream_buffer.c **** 							 TickType_t xTicksToWait )
 692:..\FreeRTOS/stream_buffer.c **** {
 693:..\FreeRTOS/stream_buffer.c **** StreamBuffer_t * const pxStreamBuffer = ( StreamBuffer_t * ) xStreamBuffer; /*lint !e9087 !e9079 Sa
 694:..\FreeRTOS/stream_buffer.c **** size_t xReceivedLength = 0, xBytesAvailable, xBytesToStoreMessageLength;
 695:..\FreeRTOS/stream_buffer.c **** 
 696:..\FreeRTOS/stream_buffer.c **** 	configASSERT( pvRxData );
 697:..\FreeRTOS/stream_buffer.c **** 	configASSERT( pxStreamBuffer );
 698:..\FreeRTOS/stream_buffer.c **** 
 699:..\FreeRTOS/stream_buffer.c **** 	/* This receive function is used by both message buffers, which store
 700:..\FreeRTOS/stream_buffer.c **** 	discrete messages, and stream buffers, which store a continuous stream of
 701:..\FreeRTOS/stream_buffer.c **** 	bytes.  Discrete messages include an additional
 702:..\FreeRTOS/stream_buffer.c **** 	sbBYTES_TO_STORE_MESSAGE_LENGTH bytes that hold the length of the
 703:..\FreeRTOS/stream_buffer.c **** 	message. */
 704:..\FreeRTOS/stream_buffer.c **** 	if( ( pxStreamBuffer->ucFlags & sbFLAGS_IS_MESSAGE_BUFFER ) != ( uint8_t ) 0 )
 705:..\FreeRTOS/stream_buffer.c **** 	{
 706:..\FreeRTOS/stream_buffer.c **** 		xBytesToStoreMessageLength = sbBYTES_TO_STORE_MESSAGE_LENGTH;
 707:..\FreeRTOS/stream_buffer.c **** 	}
 708:..\FreeRTOS/stream_buffer.c **** 	else
 709:..\FreeRTOS/stream_buffer.c **** 	{
 710:..\FreeRTOS/stream_buffer.c **** 		xBytesToStoreMessageLength = 0;
 711:..\FreeRTOS/stream_buffer.c **** 	}
 712:..\FreeRTOS/stream_buffer.c **** 
 713:..\FreeRTOS/stream_buffer.c **** 	if( xTicksToWait != ( TickType_t ) 0 )
 714:..\FreeRTOS/stream_buffer.c **** 	{
 715:..\FreeRTOS/stream_buffer.c **** 		/* Checking if there is data and clearing the notification state must be
ARM GAS  C:\Users\Tri94\AppData\Local\Temp\ccHaJcja.s 			page 14


 716:..\FreeRTOS/stream_buffer.c **** 		performed atomically. */
 717:..\FreeRTOS/stream_buffer.c **** 		taskENTER_CRITICAL();
 718:..\FreeRTOS/stream_buffer.c **** 		{
 719:..\FreeRTOS/stream_buffer.c **** 			xBytesAvailable = prvBytesInBuffer( pxStreamBuffer );
 720:..\FreeRTOS/stream_buffer.c **** 
 721:..\FreeRTOS/stream_buffer.c **** 			/* If this function was invoked by a message buffer read then
 722:..\FreeRTOS/stream_buffer.c **** 			xBytesToStoreMessageLength holds the number of bytes used to hold
 723:..\FreeRTOS/stream_buffer.c **** 			the length of the next discrete message.  If this function was
 724:..\FreeRTOS/stream_buffer.c **** 			invoked by a stream buffer read then xBytesToStoreMessageLength will
 725:..\FreeRTOS/stream_buffer.c **** 			be 0. */
 726:..\FreeRTOS/stream_buffer.c **** 			if( xBytesAvailable <= xBytesToStoreMessageLength )
 727:..\FreeRTOS/stream_buffer.c **** 			{
 728:..\FreeRTOS/stream_buffer.c **** 				/* Clear notification state as going to wait for data. */
 729:..\FreeRTOS/stream_buffer.c **** 				( void ) xTaskNotifyStateClear( NULL );
 730:..\FreeRTOS/stream_buffer.c **** 
 731:..\FreeRTOS/stream_buffer.c **** 				/* Should only be one reader. */
 732:..\FreeRTOS/stream_buffer.c **** 				configASSERT( pxStreamBuffer->xTaskWaitingToReceive == NULL );
 733:..\FreeRTOS/stream_buffer.c **** 				pxStreamBuffer->xTaskWaitingToReceive = xTaskGetCurrentTaskHandle();
 734:..\FreeRTOS/stream_buffer.c **** 			}
 735:..\FreeRTOS/stream_buffer.c **** 			else
 736:..\FreeRTOS/stream_buffer.c **** 			{
 737:..\FreeRTOS/stream_buffer.c **** 				mtCOVERAGE_TEST_MARKER();
 738:..\FreeRTOS/stream_buffer.c **** 			}
 739:..\FreeRTOS/stream_buffer.c **** 		}
 740:..\FreeRTOS/stream_buffer.c **** 		taskEXIT_CRITICAL();
 741:..\FreeRTOS/stream_buffer.c **** 
 742:..\FreeRTOS/stream_buffer.c **** 		if( xBytesAvailable <= xBytesToStoreMessageLength )
 743:..\FreeRTOS/stream_buffer.c **** 		{
 744:..\FreeRTOS/stream_buffer.c **** 			/* Wait for data to be available. */
 745:..\FreeRTOS/stream_buffer.c **** 			traceBLOCKING_ON_STREAM_BUFFER_RECEIVE( xStreamBuffer );
 746:..\FreeRTOS/stream_buffer.c **** 			( void ) xTaskNotifyWait( ( uint32_t ) 0, UINT32_MAX, NULL, xTicksToWait );
 747:..\FreeRTOS/stream_buffer.c **** 			pxStreamBuffer->xTaskWaitingToReceive = NULL;
 748:..\FreeRTOS/stream_buffer.c **** 
 749:..\FreeRTOS/stream_buffer.c **** 			/* Recheck the data available after blocking. */
 750:..\FreeRTOS/stream_buffer.c **** 			xBytesAvailable = prvBytesInBuffer( pxStreamBuffer );
 751:..\FreeRTOS/stream_buffer.c **** 		}
 752:..\FreeRTOS/stream_buffer.c **** 		else
 753:..\FreeRTOS/stream_buffer.c **** 		{
 754:..\FreeRTOS/stream_buffer.c **** 			mtCOVERAGE_TEST_MARKER();
 755:..\FreeRTOS/stream_buffer.c **** 		}
 756:..\FreeRTOS/stream_buffer.c **** 	}
 757:..\FreeRTOS/stream_buffer.c **** 	else
 758:..\FreeRTOS/stream_buffer.c **** 	{
 759:..\FreeRTOS/stream_buffer.c **** 		xBytesAvailable = prvBytesInBuffer( pxStreamBuffer );
 760:..\FreeRTOS/stream_buffer.c **** 	}
 761:..\FreeRTOS/stream_buffer.c **** 
 762:..\FreeRTOS/stream_buffer.c **** 	/* Whether receiving a discrete message (where xBytesToStoreMessageLength
 763:..\FreeRTOS/stream_buffer.c **** 	holds the number of bytes used to store the message length) or a stream of
 764:..\FreeRTOS/stream_buffer.c **** 	bytes (where xBytesToStoreMessageLength is zero), the number of bytes
 765:..\FreeRTOS/stream_buffer.c **** 	available must be greater than xBytesToStoreMessageLength to be able to
 766:..\FreeRTOS/stream_buffer.c **** 	read bytes from the buffer. */
 767:..\FreeRTOS/stream_buffer.c **** 	if( xBytesAvailable > xBytesToStoreMessageLength )
 768:..\FreeRTOS/stream_buffer.c **** 	{
 769:..\FreeRTOS/stream_buffer.c **** 		xReceivedLength = prvReadMessageFromBuffer( pxStreamBuffer, pvRxData, xBufferLengthBytes, xBytesA
 770:..\FreeRTOS/stream_buffer.c **** 
 771:..\FreeRTOS/stream_buffer.c **** 		/* Was a task waiting for space in the buffer? */
 772:..\FreeRTOS/stream_buffer.c **** 		if( xReceivedLength != ( size_t ) 0 )
ARM GAS  C:\Users\Tri94\AppData\Local\Temp\ccHaJcja.s 			page 15


 773:..\FreeRTOS/stream_buffer.c **** 		{
 774:..\FreeRTOS/stream_buffer.c **** 			traceSTREAM_BUFFER_RECEIVE( xStreamBuffer, xReceivedLength );
 775:..\FreeRTOS/stream_buffer.c **** 			sbRECEIVE_COMPLETED( pxStreamBuffer );
 776:..\FreeRTOS/stream_buffer.c **** 		}
 777:..\FreeRTOS/stream_buffer.c **** 		else
 778:..\FreeRTOS/stream_buffer.c **** 		{
 779:..\FreeRTOS/stream_buffer.c **** 			mtCOVERAGE_TEST_MARKER();
 780:..\FreeRTOS/stream_buffer.c **** 		}
 781:..\FreeRTOS/stream_buffer.c **** 	}
 782:..\FreeRTOS/stream_buffer.c **** 	else
 783:..\FreeRTOS/stream_buffer.c **** 	{
 784:..\FreeRTOS/stream_buffer.c **** 		traceSTREAM_BUFFER_RECEIVE_FAILED( xStreamBuffer );
 785:..\FreeRTOS/stream_buffer.c **** 		mtCOVERAGE_TEST_MARKER();
 786:..\FreeRTOS/stream_buffer.c **** 	}
 787:..\FreeRTOS/stream_buffer.c **** 
 788:..\FreeRTOS/stream_buffer.c **** 	return xReceivedLength;
 789:..\FreeRTOS/stream_buffer.c **** }
 790:..\FreeRTOS/stream_buffer.c **** /*-----------------------------------------------------------*/
 791:..\FreeRTOS/stream_buffer.c **** 
 792:..\FreeRTOS/stream_buffer.c **** size_t xStreamBufferReceiveFromISR( StreamBufferHandle_t xStreamBuffer,
 793:..\FreeRTOS/stream_buffer.c **** 									void *pvRxData,
 794:..\FreeRTOS/stream_buffer.c **** 									size_t xBufferLengthBytes,
 795:..\FreeRTOS/stream_buffer.c **** 									BaseType_t * const pxHigherPriorityTaskWoken )
 796:..\FreeRTOS/stream_buffer.c **** {
 797:..\FreeRTOS/stream_buffer.c **** StreamBuffer_t * const pxStreamBuffer = ( StreamBuffer_t * ) xStreamBuffer; /*lint !e9087 !e9079 Sa
 798:..\FreeRTOS/stream_buffer.c **** size_t xReceivedLength = 0, xBytesAvailable, xBytesToStoreMessageLength;
 799:..\FreeRTOS/stream_buffer.c **** 
 800:..\FreeRTOS/stream_buffer.c **** 	configASSERT( pvRxData );
 801:..\FreeRTOS/stream_buffer.c **** 	configASSERT( pxStreamBuffer );
 802:..\FreeRTOS/stream_buffer.c **** 
 803:..\FreeRTOS/stream_buffer.c **** 	/* This receive function is used by both message buffers, which store
 804:..\FreeRTOS/stream_buffer.c **** 	discrete messages, and stream buffers, which store a continuous stream of
 805:..\FreeRTOS/stream_buffer.c **** 	bytes.  Discrete messages include an additional
 806:..\FreeRTOS/stream_buffer.c **** 	sbBYTES_TO_STORE_MESSAGE_LENGTH bytes that hold the length of the
 807:..\FreeRTOS/stream_buffer.c **** 	message. */
 808:..\FreeRTOS/stream_buffer.c **** 	if( ( pxStreamBuffer->ucFlags & sbFLAGS_IS_MESSAGE_BUFFER ) != ( uint8_t ) 0 )
 809:..\FreeRTOS/stream_buffer.c **** 	{
 810:..\FreeRTOS/stream_buffer.c **** 		xBytesToStoreMessageLength = sbBYTES_TO_STORE_MESSAGE_LENGTH;
 811:..\FreeRTOS/stream_buffer.c **** 	}
 812:..\FreeRTOS/stream_buffer.c **** 	else
 813:..\FreeRTOS/stream_buffer.c **** 	{
 814:..\FreeRTOS/stream_buffer.c **** 		xBytesToStoreMessageLength = 0;
 815:..\FreeRTOS/stream_buffer.c **** 	}
 816:..\FreeRTOS/stream_buffer.c **** 
 817:..\FreeRTOS/stream_buffer.c **** 	xBytesAvailable = prvBytesInBuffer( pxStreamBuffer );
 818:..\FreeRTOS/stream_buffer.c **** 
 819:..\FreeRTOS/stream_buffer.c **** 	/* Whether receiving a discrete message (where xBytesToStoreMessageLength
 820:..\FreeRTOS/stream_buffer.c **** 	holds the number of bytes used to store the message length) or a stream of
 821:..\FreeRTOS/stream_buffer.c **** 	bytes (where xBytesToStoreMessageLength is zero), the number of bytes
 822:..\FreeRTOS/stream_buffer.c **** 	available must be greater than xBytesToStoreMessageLength to be able to
 823:..\FreeRTOS/stream_buffer.c **** 	read bytes from the buffer. */
 824:..\FreeRTOS/stream_buffer.c **** 	if( xBytesAvailable > xBytesToStoreMessageLength )
 825:..\FreeRTOS/stream_buffer.c **** 	{
 826:..\FreeRTOS/stream_buffer.c **** 		xReceivedLength = prvReadMessageFromBuffer( pxStreamBuffer, pvRxData, xBufferLengthBytes, xBytesA
 827:..\FreeRTOS/stream_buffer.c **** 
 828:..\FreeRTOS/stream_buffer.c **** 		/* Was a task waiting for space in the buffer? */
 829:..\FreeRTOS/stream_buffer.c **** 		if( xReceivedLength != ( size_t ) 0 )
ARM GAS  C:\Users\Tri94\AppData\Local\Temp\ccHaJcja.s 			page 16


 830:..\FreeRTOS/stream_buffer.c **** 		{
 831:..\FreeRTOS/stream_buffer.c **** 			sbRECEIVE_COMPLETED_FROM_ISR( pxStreamBuffer, pxHigherPriorityTaskWoken );
 832:..\FreeRTOS/stream_buffer.c **** 		}
 833:..\FreeRTOS/stream_buffer.c **** 		else
 834:..\FreeRTOS/stream_buffer.c **** 		{
 835:..\FreeRTOS/stream_buffer.c **** 			mtCOVERAGE_TEST_MARKER();
 836:..\FreeRTOS/stream_buffer.c **** 		}
 837:..\FreeRTOS/stream_buffer.c **** 	}
 838:..\FreeRTOS/stream_buffer.c **** 	else
 839:..\FreeRTOS/stream_buffer.c **** 	{
 840:..\FreeRTOS/stream_buffer.c **** 		mtCOVERAGE_TEST_MARKER();
 841:..\FreeRTOS/stream_buffer.c **** 	}
 842:..\FreeRTOS/stream_buffer.c **** 
 843:..\FreeRTOS/stream_buffer.c **** 	traceSTREAM_BUFFER_RECEIVE_FROM_ISR( xStreamBuffer, xReceivedLength );
 844:..\FreeRTOS/stream_buffer.c **** 
 845:..\FreeRTOS/stream_buffer.c **** 	return xReceivedLength;
 846:..\FreeRTOS/stream_buffer.c **** }
 847:..\FreeRTOS/stream_buffer.c **** /*-----------------------------------------------------------*/
 848:..\FreeRTOS/stream_buffer.c **** 
 849:..\FreeRTOS/stream_buffer.c **** static size_t prvReadMessageFromBuffer( StreamBuffer_t *pxStreamBuffer,
 850:..\FreeRTOS/stream_buffer.c **** 										void *pvRxData,
 851:..\FreeRTOS/stream_buffer.c **** 										size_t xBufferLengthBytes,
 852:..\FreeRTOS/stream_buffer.c **** 										size_t xBytesAvailable,
 853:..\FreeRTOS/stream_buffer.c **** 										size_t xBytesToStoreMessageLength )
 854:..\FreeRTOS/stream_buffer.c **** {
 855:..\FreeRTOS/stream_buffer.c **** size_t xOriginalTail, xReceivedLength, xNextMessageLength;
 856:..\FreeRTOS/stream_buffer.c **** 
 857:..\FreeRTOS/stream_buffer.c **** 	if( xBytesToStoreMessageLength != ( size_t ) 0 )
 858:..\FreeRTOS/stream_buffer.c **** 	{
 859:..\FreeRTOS/stream_buffer.c **** 		/* A discrete message is being received.  First receive the length
 860:..\FreeRTOS/stream_buffer.c **** 		of the message.  A copy of the tail is stored so the buffer can be
 861:..\FreeRTOS/stream_buffer.c **** 		returned to its prior state if the length of the message is too
 862:..\FreeRTOS/stream_buffer.c **** 		large for the provided buffer. */
 863:..\FreeRTOS/stream_buffer.c **** 		xOriginalTail = pxStreamBuffer->xTail;
 864:..\FreeRTOS/stream_buffer.c **** 		( void ) prvReadBytesFromBuffer( pxStreamBuffer, ( uint8_t * ) &xNextMessageLength, xBytesToStore
 865:..\FreeRTOS/stream_buffer.c **** 
 866:..\FreeRTOS/stream_buffer.c **** 		/* Reduce the number of bytes available by the number of bytes just
 867:..\FreeRTOS/stream_buffer.c **** 		read out. */
 868:..\FreeRTOS/stream_buffer.c **** 		xBytesAvailable -= xBytesToStoreMessageLength;
 869:..\FreeRTOS/stream_buffer.c **** 
 870:..\FreeRTOS/stream_buffer.c **** 		/* Check there is enough space in the buffer provided by the
 871:..\FreeRTOS/stream_buffer.c **** 		user. */
 872:..\FreeRTOS/stream_buffer.c **** 		if( xNextMessageLength > xBufferLengthBytes )
 873:..\FreeRTOS/stream_buffer.c **** 		{
 874:..\FreeRTOS/stream_buffer.c **** 			/* The user has provided insufficient space to read the message
 875:..\FreeRTOS/stream_buffer.c **** 			so return the buffer to its previous state (so the length of
 876:..\FreeRTOS/stream_buffer.c **** 			the message is in the buffer again). */
 877:..\FreeRTOS/stream_buffer.c **** 			pxStreamBuffer->xTail = xOriginalTail;
 878:..\FreeRTOS/stream_buffer.c **** 			xNextMessageLength = 0;
 879:..\FreeRTOS/stream_buffer.c **** 		}
 880:..\FreeRTOS/stream_buffer.c **** 		else
 881:..\FreeRTOS/stream_buffer.c **** 		{
 882:..\FreeRTOS/stream_buffer.c **** 			mtCOVERAGE_TEST_MARKER();
 883:..\FreeRTOS/stream_buffer.c **** 		}
 884:..\FreeRTOS/stream_buffer.c **** 	}
 885:..\FreeRTOS/stream_buffer.c **** 	else
 886:..\FreeRTOS/stream_buffer.c **** 	{
ARM GAS  C:\Users\Tri94\AppData\Local\Temp\ccHaJcja.s 			page 17


 887:..\FreeRTOS/stream_buffer.c **** 		/* A stream of bytes is being received (as opposed to a discrete
 888:..\FreeRTOS/stream_buffer.c **** 		message), so read as many bytes as possible. */
 889:..\FreeRTOS/stream_buffer.c **** 		xNextMessageLength = xBufferLengthBytes;
 890:..\FreeRTOS/stream_buffer.c **** 	}
 891:..\FreeRTOS/stream_buffer.c **** 
 892:..\FreeRTOS/stream_buffer.c **** 	/* Read the actual data. */
 893:..\FreeRTOS/stream_buffer.c **** 	xReceivedLength = prvReadBytesFromBuffer( pxStreamBuffer, ( uint8_t * ) pvRxData, xNextMessageLeng
 894:..\FreeRTOS/stream_buffer.c **** 
 895:..\FreeRTOS/stream_buffer.c **** 	return xReceivedLength;
 896:..\FreeRTOS/stream_buffer.c **** }
 897:..\FreeRTOS/stream_buffer.c **** /*-----------------------------------------------------------*/
 898:..\FreeRTOS/stream_buffer.c **** 
 899:..\FreeRTOS/stream_buffer.c **** BaseType_t xStreamBufferIsEmpty( StreamBufferHandle_t xStreamBuffer )
 900:..\FreeRTOS/stream_buffer.c **** {
 901:..\FreeRTOS/stream_buffer.c **** const StreamBuffer_t * const pxStreamBuffer = ( StreamBuffer_t * ) xStreamBuffer; /*lint !e9087 !e9
 902:..\FreeRTOS/stream_buffer.c **** BaseType_t xReturn;
 903:..\FreeRTOS/stream_buffer.c **** size_t xTail;
 904:..\FreeRTOS/stream_buffer.c **** 
 905:..\FreeRTOS/stream_buffer.c **** 	configASSERT( pxStreamBuffer );
 906:..\FreeRTOS/stream_buffer.c **** 
 907:..\FreeRTOS/stream_buffer.c **** 	/* True if no bytes are available. */
 908:..\FreeRTOS/stream_buffer.c **** 	xTail = pxStreamBuffer->xTail;
 909:..\FreeRTOS/stream_buffer.c **** 	if( pxStreamBuffer->xHead == xTail )
 910:..\FreeRTOS/stream_buffer.c **** 	{
 911:..\FreeRTOS/stream_buffer.c **** 		xReturn = pdTRUE;
 912:..\FreeRTOS/stream_buffer.c **** 	}
 913:..\FreeRTOS/stream_buffer.c **** 	else
 914:..\FreeRTOS/stream_buffer.c **** 	{
 915:..\FreeRTOS/stream_buffer.c **** 		xReturn = pdFALSE;
 916:..\FreeRTOS/stream_buffer.c **** 	}
 917:..\FreeRTOS/stream_buffer.c **** 
 918:..\FreeRTOS/stream_buffer.c **** 	return xReturn;
 919:..\FreeRTOS/stream_buffer.c **** }
 920:..\FreeRTOS/stream_buffer.c **** /*-----------------------------------------------------------*/
 921:..\FreeRTOS/stream_buffer.c **** 
 922:..\FreeRTOS/stream_buffer.c **** BaseType_t xStreamBufferIsFull( StreamBufferHandle_t xStreamBuffer )
 923:..\FreeRTOS/stream_buffer.c **** {
 924:..\FreeRTOS/stream_buffer.c **** BaseType_t xReturn;
 925:..\FreeRTOS/stream_buffer.c **** size_t xBytesToStoreMessageLength;
 926:..\FreeRTOS/stream_buffer.c **** const StreamBuffer_t * const pxStreamBuffer = ( StreamBuffer_t * ) xStreamBuffer; /*lint !e9087 !e9
 927:..\FreeRTOS/stream_buffer.c **** 
 928:..\FreeRTOS/stream_buffer.c **** 	configASSERT( pxStreamBuffer );
 929:..\FreeRTOS/stream_buffer.c **** 
 930:..\FreeRTOS/stream_buffer.c **** 	/* This generic version of the receive function is used by both message
 931:..\FreeRTOS/stream_buffer.c **** 	buffers, which store discrete messages, and stream buffers, which store a
 932:..\FreeRTOS/stream_buffer.c **** 	continuous stream of bytes.  Discrete messages include an additional
 933:..\FreeRTOS/stream_buffer.c **** 	sbBYTES_TO_STORE_MESSAGE_LENGTH bytes that hold the length of the message. */
 934:..\FreeRTOS/stream_buffer.c **** 	if( ( pxStreamBuffer->ucFlags & sbFLAGS_IS_MESSAGE_BUFFER ) != ( uint8_t ) 0 )
 935:..\FreeRTOS/stream_buffer.c **** 	{
 936:..\FreeRTOS/stream_buffer.c **** 		xBytesToStoreMessageLength = sbBYTES_TO_STORE_MESSAGE_LENGTH;
 937:..\FreeRTOS/stream_buffer.c **** 	}
 938:..\FreeRTOS/stream_buffer.c **** 	else
 939:..\FreeRTOS/stream_buffer.c **** 	{
 940:..\FreeRTOS/stream_buffer.c **** 		xBytesToStoreMessageLength = 0;
 941:..\FreeRTOS/stream_buffer.c **** 	}
 942:..\FreeRTOS/stream_buffer.c **** 
 943:..\FreeRTOS/stream_buffer.c **** 	/* True if the available space equals zero. */
ARM GAS  C:\Users\Tri94\AppData\Local\Temp\ccHaJcja.s 			page 18


 944:..\FreeRTOS/stream_buffer.c **** 	if( xStreamBufferSpacesAvailable( xStreamBuffer ) <= xBytesToStoreMessageLength )
 945:..\FreeRTOS/stream_buffer.c **** 	{
 946:..\FreeRTOS/stream_buffer.c **** 		xReturn = pdTRUE;
 947:..\FreeRTOS/stream_buffer.c **** 	}
 948:..\FreeRTOS/stream_buffer.c **** 	else
 949:..\FreeRTOS/stream_buffer.c **** 	{
 950:..\FreeRTOS/stream_buffer.c **** 		xReturn = pdFALSE;
 951:..\FreeRTOS/stream_buffer.c **** 	}
 952:..\FreeRTOS/stream_buffer.c **** 
 953:..\FreeRTOS/stream_buffer.c **** 	return xReturn;
 954:..\FreeRTOS/stream_buffer.c **** }
 955:..\FreeRTOS/stream_buffer.c **** /*-----------------------------------------------------------*/
 956:..\FreeRTOS/stream_buffer.c **** 
 957:..\FreeRTOS/stream_buffer.c **** BaseType_t xStreamBufferSendCompletedFromISR( StreamBufferHandle_t xStreamBuffer, BaseType_t *pxHig
 958:..\FreeRTOS/stream_buffer.c **** {
 959:..\FreeRTOS/stream_buffer.c **** StreamBuffer_t * const pxStreamBuffer = ( StreamBuffer_t * ) xStreamBuffer; /*lint !e9087 !e9079 Sa
 960:..\FreeRTOS/stream_buffer.c **** BaseType_t xReturn;
 961:..\FreeRTOS/stream_buffer.c **** UBaseType_t uxSavedInterruptStatus;
 962:..\FreeRTOS/stream_buffer.c **** 
 963:..\FreeRTOS/stream_buffer.c **** 	configASSERT( pxStreamBuffer );
 964:..\FreeRTOS/stream_buffer.c **** 
 965:..\FreeRTOS/stream_buffer.c **** 	uxSavedInterruptStatus = ( UBaseType_t ) portSET_INTERRUPT_MASK_FROM_ISR();
 966:..\FreeRTOS/stream_buffer.c **** 	{
 967:..\FreeRTOS/stream_buffer.c **** 		if( ( pxStreamBuffer )->xTaskWaitingToReceive != NULL )
 968:..\FreeRTOS/stream_buffer.c **** 		{
 969:..\FreeRTOS/stream_buffer.c **** 			( void ) xTaskNotifyFromISR( ( pxStreamBuffer )->xTaskWaitingToReceive,
 970:..\FreeRTOS/stream_buffer.c **** 										 ( uint32_t ) 0,
 971:..\FreeRTOS/stream_buffer.c **** 										 eNoAction,
 972:..\FreeRTOS/stream_buffer.c **** 										 pxHigherPriorityTaskWoken );
 973:..\FreeRTOS/stream_buffer.c **** 			( pxStreamBuffer )->xTaskWaitingToReceive = NULL;
 974:..\FreeRTOS/stream_buffer.c **** 			xReturn = pdTRUE;
 975:..\FreeRTOS/stream_buffer.c **** 		}
 976:..\FreeRTOS/stream_buffer.c **** 		else
 977:..\FreeRTOS/stream_buffer.c **** 		{
 978:..\FreeRTOS/stream_buffer.c **** 			xReturn = pdFALSE;
 979:..\FreeRTOS/stream_buffer.c **** 		}
 980:..\FreeRTOS/stream_buffer.c **** 	}
 981:..\FreeRTOS/stream_buffer.c **** 	portCLEAR_INTERRUPT_MASK_FROM_ISR( uxSavedInterruptStatus );
 982:..\FreeRTOS/stream_buffer.c **** 
 983:..\FreeRTOS/stream_buffer.c **** 	return xReturn;
 984:..\FreeRTOS/stream_buffer.c **** }
 985:..\FreeRTOS/stream_buffer.c **** /*-----------------------------------------------------------*/
 986:..\FreeRTOS/stream_buffer.c **** 
 987:..\FreeRTOS/stream_buffer.c **** BaseType_t xStreamBufferReceiveCompletedFromISR( StreamBufferHandle_t xStreamBuffer, BaseType_t *px
 988:..\FreeRTOS/stream_buffer.c **** {
 989:..\FreeRTOS/stream_buffer.c **** StreamBuffer_t * const pxStreamBuffer = ( StreamBuffer_t * ) xStreamBuffer; /*lint !e9087 !e9079 Sa
 990:..\FreeRTOS/stream_buffer.c **** BaseType_t xReturn;
 991:..\FreeRTOS/stream_buffer.c **** UBaseType_t uxSavedInterruptStatus;
 992:..\FreeRTOS/stream_buffer.c **** 
 993:..\FreeRTOS/stream_buffer.c **** 	configASSERT( pxStreamBuffer );
 994:..\FreeRTOS/stream_buffer.c **** 
 995:..\FreeRTOS/stream_buffer.c **** 	uxSavedInterruptStatus = ( UBaseType_t ) portSET_INTERRUPT_MASK_FROM_ISR();
 996:..\FreeRTOS/stream_buffer.c **** 	{
 997:..\FreeRTOS/stream_buffer.c **** 		if( ( pxStreamBuffer )->xTaskWaitingToSend != NULL )
 998:..\FreeRTOS/stream_buffer.c **** 		{
 999:..\FreeRTOS/stream_buffer.c **** 			( void ) xTaskNotifyFromISR( ( pxStreamBuffer )->xTaskWaitingToSend,
1000:..\FreeRTOS/stream_buffer.c **** 										 ( uint32_t ) 0,
ARM GAS  C:\Users\Tri94\AppData\Local\Temp\ccHaJcja.s 			page 19


1001:..\FreeRTOS/stream_buffer.c **** 										 eNoAction,
1002:..\FreeRTOS/stream_buffer.c **** 										 pxHigherPriorityTaskWoken );
1003:..\FreeRTOS/stream_buffer.c **** 			( pxStreamBuffer )->xTaskWaitingToSend = NULL;
1004:..\FreeRTOS/stream_buffer.c **** 			xReturn = pdTRUE;
1005:..\FreeRTOS/stream_buffer.c **** 		}
1006:..\FreeRTOS/stream_buffer.c **** 		else
1007:..\FreeRTOS/stream_buffer.c **** 		{
1008:..\FreeRTOS/stream_buffer.c **** 			xReturn = pdFALSE;
1009:..\FreeRTOS/stream_buffer.c **** 		}
1010:..\FreeRTOS/stream_buffer.c **** 	}
1011:..\FreeRTOS/stream_buffer.c **** 	portCLEAR_INTERRUPT_MASK_FROM_ISR( uxSavedInterruptStatus );
1012:..\FreeRTOS/stream_buffer.c **** 
1013:..\FreeRTOS/stream_buffer.c **** 	return xReturn;
1014:..\FreeRTOS/stream_buffer.c **** }
1015:..\FreeRTOS/stream_buffer.c **** /*-----------------------------------------------------------*/
1016:..\FreeRTOS/stream_buffer.c **** 
1017:..\FreeRTOS/stream_buffer.c **** static size_t prvWriteBytesToBuffer( StreamBuffer_t * const pxStreamBuffer, const uint8_t *pucData,
1018:..\FreeRTOS/stream_buffer.c **** {
1019:..\FreeRTOS/stream_buffer.c **** size_t xNextHead, xFirstLength;
1020:..\FreeRTOS/stream_buffer.c **** 
1021:..\FreeRTOS/stream_buffer.c **** 	configASSERT( xCount > ( size_t ) 0 );
1022:..\FreeRTOS/stream_buffer.c **** 
1023:..\FreeRTOS/stream_buffer.c **** 	xNextHead = pxStreamBuffer->xHead;
1024:..\FreeRTOS/stream_buffer.c **** 
1025:..\FreeRTOS/stream_buffer.c **** 	/* Calculate the number of bytes that can be added in the first write -
1026:..\FreeRTOS/stream_buffer.c **** 	which may be less than the total number of bytes that need to be added if
1027:..\FreeRTOS/stream_buffer.c **** 	the buffer will wrap back to the beginning. */
1028:..\FreeRTOS/stream_buffer.c **** 	xFirstLength = configMIN( pxStreamBuffer->xLength - xNextHead, xCount );
1029:..\FreeRTOS/stream_buffer.c **** 
1030:..\FreeRTOS/stream_buffer.c **** 	/* Write as many bytes as can be written in the first write. */
1031:..\FreeRTOS/stream_buffer.c **** 	configASSERT( ( xNextHead + xFirstLength ) <= pxStreamBuffer->xLength );
1032:..\FreeRTOS/stream_buffer.c **** 	memcpy( ( void* ) ( &( pxStreamBuffer->pucBuffer[ xNextHead ] ) ), ( const void * ) pucData, xFirs
1033:..\FreeRTOS/stream_buffer.c **** 
1034:..\FreeRTOS/stream_buffer.c **** 	/* If the number of bytes written was less than the number that could be
1035:..\FreeRTOS/stream_buffer.c **** 	written in the first write... */
1036:..\FreeRTOS/stream_buffer.c **** 	if( xCount > xFirstLength )
1037:..\FreeRTOS/stream_buffer.c **** 	{
1038:..\FreeRTOS/stream_buffer.c **** 		/* ...then write the remaining bytes to the start of the buffer. */
1039:..\FreeRTOS/stream_buffer.c **** 		configASSERT( ( xCount - xFirstLength ) <= pxStreamBuffer->xLength );
1040:..\FreeRTOS/stream_buffer.c **** 		memcpy( ( void * ) pxStreamBuffer->pucBuffer, ( const void * ) &( pucData[ xFirstLength ] ), xCou
1041:..\FreeRTOS/stream_buffer.c **** 	}
1042:..\FreeRTOS/stream_buffer.c **** 	else
1043:..\FreeRTOS/stream_buffer.c **** 	{
1044:..\FreeRTOS/stream_buffer.c **** 		mtCOVERAGE_TEST_MARKER();
1045:..\FreeRTOS/stream_buffer.c **** 	}
1046:..\FreeRTOS/stream_buffer.c **** 
1047:..\FreeRTOS/stream_buffer.c **** 	xNextHead += xCount;
1048:..\FreeRTOS/stream_buffer.c **** 	if( xNextHead >= pxStreamBuffer->xLength )
1049:..\FreeRTOS/stream_buffer.c **** 	{
1050:..\FreeRTOS/stream_buffer.c **** 		xNextHead -= pxStreamBuffer->xLength;
1051:..\FreeRTOS/stream_buffer.c **** 	}
1052:..\FreeRTOS/stream_buffer.c **** 	else
1053:..\FreeRTOS/stream_buffer.c **** 	{
1054:..\FreeRTOS/stream_buffer.c **** 		mtCOVERAGE_TEST_MARKER();
1055:..\FreeRTOS/stream_buffer.c **** 	}
1056:..\FreeRTOS/stream_buffer.c **** 
1057:..\FreeRTOS/stream_buffer.c **** 	pxStreamBuffer->xHead = xNextHead;
ARM GAS  C:\Users\Tri94\AppData\Local\Temp\ccHaJcja.s 			page 20


1058:..\FreeRTOS/stream_buffer.c **** 
1059:..\FreeRTOS/stream_buffer.c **** 	return xCount;
1060:..\FreeRTOS/stream_buffer.c **** }
1061:..\FreeRTOS/stream_buffer.c **** /*-----------------------------------------------------------*/
1062:..\FreeRTOS/stream_buffer.c **** 
1063:..\FreeRTOS/stream_buffer.c **** static size_t prvReadBytesFromBuffer( StreamBuffer_t *pxStreamBuffer, uint8_t *pucData, size_t xMax
1064:..\FreeRTOS/stream_buffer.c **** {
1065:..\FreeRTOS/stream_buffer.c **** size_t xCount, xFirstLength, xNextTail;
1066:..\FreeRTOS/stream_buffer.c **** 
1067:..\FreeRTOS/stream_buffer.c **** 	/* Use the minimum of the wanted bytes and the available bytes. */
1068:..\FreeRTOS/stream_buffer.c **** 	xCount = configMIN( xBytesAvailable, xMaxCount );
1069:..\FreeRTOS/stream_buffer.c **** 
1070:..\FreeRTOS/stream_buffer.c **** 	if( xCount > ( size_t ) 0 )
1071:..\FreeRTOS/stream_buffer.c **** 	{
1072:..\FreeRTOS/stream_buffer.c **** 		xNextTail = pxStreamBuffer->xTail;
1073:..\FreeRTOS/stream_buffer.c **** 
1074:..\FreeRTOS/stream_buffer.c **** 		/* Calculate the number of bytes that can be read - which may be
1075:..\FreeRTOS/stream_buffer.c **** 		less than the number wanted if the data wraps around to the start of
1076:..\FreeRTOS/stream_buffer.c **** 		the buffer. */
1077:..\FreeRTOS/stream_buffer.c **** 		xFirstLength = configMIN( pxStreamBuffer->xLength - xNextTail, xCount );
1078:..\FreeRTOS/stream_buffer.c **** 
1079:..\FreeRTOS/stream_buffer.c **** 		/* Obtain the number of bytes it is possible to obtain in the first
1080:..\FreeRTOS/stream_buffer.c **** 		read.  Asserts check bounds of read and write. */
1081:..\FreeRTOS/stream_buffer.c **** 		configASSERT( xFirstLength <= xMaxCount );
1082:..\FreeRTOS/stream_buffer.c **** 		configASSERT( ( xNextTail + xFirstLength ) <= pxStreamBuffer->xLength );
1083:..\FreeRTOS/stream_buffer.c **** 		memcpy( ( void * ) pucData, ( const void * ) &( pxStreamBuffer->pucBuffer[ xNextTail ] ), xFirstL
1084:..\FreeRTOS/stream_buffer.c **** 
1085:..\FreeRTOS/stream_buffer.c **** 		/* If the total number of wanted bytes is greater than the number
1086:..\FreeRTOS/stream_buffer.c **** 		that could be read in the first read... */
1087:..\FreeRTOS/stream_buffer.c **** 		if( xCount > xFirstLength )
1088:..\FreeRTOS/stream_buffer.c **** 		{
1089:..\FreeRTOS/stream_buffer.c **** 			/*...then read the remaining bytes from the start of the buffer. */
1090:..\FreeRTOS/stream_buffer.c **** 			configASSERT( xCount <= xMaxCount );
1091:..\FreeRTOS/stream_buffer.c **** 			memcpy( ( void * ) &( pucData[ xFirstLength ] ), ( void * ) ( pxStreamBuffer->pucBuffer ), xCoun
1092:..\FreeRTOS/stream_buffer.c **** 		}
1093:..\FreeRTOS/stream_buffer.c **** 		else
1094:..\FreeRTOS/stream_buffer.c **** 		{
1095:..\FreeRTOS/stream_buffer.c **** 			mtCOVERAGE_TEST_MARKER();
1096:..\FreeRTOS/stream_buffer.c **** 		}
1097:..\FreeRTOS/stream_buffer.c **** 
1098:..\FreeRTOS/stream_buffer.c **** 		/* Move the tail pointer to effectively remove the data read from
1099:..\FreeRTOS/stream_buffer.c **** 		the buffer. */
1100:..\FreeRTOS/stream_buffer.c **** 		xNextTail += xCount;
1101:..\FreeRTOS/stream_buffer.c **** 
1102:..\FreeRTOS/stream_buffer.c **** 		if( xNextTail >= pxStreamBuffer->xLength )
1103:..\FreeRTOS/stream_buffer.c **** 		{
1104:..\FreeRTOS/stream_buffer.c **** 			xNextTail -= pxStreamBuffer->xLength;
1105:..\FreeRTOS/stream_buffer.c **** 		}
1106:..\FreeRTOS/stream_buffer.c **** 
1107:..\FreeRTOS/stream_buffer.c **** 		pxStreamBuffer->xTail = xNextTail;
1108:..\FreeRTOS/stream_buffer.c **** 	}
1109:..\FreeRTOS/stream_buffer.c **** 	else
1110:..\FreeRTOS/stream_buffer.c **** 	{
1111:..\FreeRTOS/stream_buffer.c **** 		mtCOVERAGE_TEST_MARKER();
1112:..\FreeRTOS/stream_buffer.c **** 	}
1113:..\FreeRTOS/stream_buffer.c **** 
1114:..\FreeRTOS/stream_buffer.c **** 	return xCount;
ARM GAS  C:\Users\Tri94\AppData\Local\Temp\ccHaJcja.s 			page 21


1115:..\FreeRTOS/stream_buffer.c **** }
1116:..\FreeRTOS/stream_buffer.c **** /*-----------------------------------------------------------*/
1117:..\FreeRTOS/stream_buffer.c **** 
1118:..\FreeRTOS/stream_buffer.c **** static size_t prvBytesInBuffer( const StreamBuffer_t * const pxStreamBuffer )
1119:..\FreeRTOS/stream_buffer.c **** {
  27              		.loc 1 1119 0
  28              		.cfi_startproc
  29              		@ args = 0, pretend = 0, frame = 0
  30              		@ frame_needed = 0, uses_anonymous_args = 0
  31              		@ link register save eliminated.
  32              	.LVL0:
1120:..\FreeRTOS/stream_buffer.c **** /* Returns the distance between xTail and xHead. */
1121:..\FreeRTOS/stream_buffer.c **** size_t xCount;
1122:..\FreeRTOS/stream_buffer.c **** 
1123:..\FreeRTOS/stream_buffer.c **** 	xCount = pxStreamBuffer->xLength + pxStreamBuffer->xHead;
  33              		.loc 1 1123 0
  34 0000 8268     		ldr	r2, [r0, #8]
  35 0002 4368     		ldr	r3, [r0, #4]
  36 0004 1344     		add	r3, r3, r2
  37              	.LVL1:
1124:..\FreeRTOS/stream_buffer.c **** 	xCount -= pxStreamBuffer->xTail;
  38              		.loc 1 1124 0
  39 0006 0068     		ldr	r0, [r0]
  40              	.LVL2:
  41 0008 181A     		subs	r0, r3, r0
  42              	.LVL3:
1125:..\FreeRTOS/stream_buffer.c **** 	if ( xCount >= pxStreamBuffer->xLength )
  43              		.loc 1 1125 0
  44 000a 8242     		cmp	r2, r0
  45 000c 00D8     		bhi	.L2
1126:..\FreeRTOS/stream_buffer.c **** 	{
1127:..\FreeRTOS/stream_buffer.c **** 		xCount -= pxStreamBuffer->xLength;
  46              		.loc 1 1127 0
  47 000e 801A     		subs	r0, r0, r2
  48              	.LVL4:
  49              	.L2:
1128:..\FreeRTOS/stream_buffer.c **** 	}
1129:..\FreeRTOS/stream_buffer.c **** 	else
1130:..\FreeRTOS/stream_buffer.c **** 	{
1131:..\FreeRTOS/stream_buffer.c **** 		mtCOVERAGE_TEST_MARKER();
1132:..\FreeRTOS/stream_buffer.c **** 	}
1133:..\FreeRTOS/stream_buffer.c **** 
1134:..\FreeRTOS/stream_buffer.c **** 	return xCount;
1135:..\FreeRTOS/stream_buffer.c **** }
  50              		.loc 1 1135 0
  51 0010 7047     		bx	lr
  52              		.cfi_endproc
  53              	.LFE87:
  54              		.size	prvBytesInBuffer, .-prvBytesInBuffer
  55 0012 00BF     		.section	.text.prvInitialiseNewStreamBuffer,"ax",%progbits
  56              		.align	2
  57              		.thumb
  58              		.thumb_func
  59              		.type	prvInitialiseNewStreamBuffer, %function
  60              	prvInitialiseNewStreamBuffer:
  61              	.LFB88:
1136:..\FreeRTOS/stream_buffer.c **** /*-----------------------------------------------------------*/
ARM GAS  C:\Users\Tri94\AppData\Local\Temp\ccHaJcja.s 			page 22


1137:..\FreeRTOS/stream_buffer.c **** 
1138:..\FreeRTOS/stream_buffer.c **** static void prvInitialiseNewStreamBuffer( StreamBuffer_t * const pxStreamBuffer,
1139:..\FreeRTOS/stream_buffer.c **** 										  uint8_t * const pucBuffer,
1140:..\FreeRTOS/stream_buffer.c **** 										  size_t xBufferSizeBytes,
1141:..\FreeRTOS/stream_buffer.c **** 										  size_t xTriggerLevelBytes,
1142:..\FreeRTOS/stream_buffer.c **** 										  BaseType_t xIsMessageBuffer )
1143:..\FreeRTOS/stream_buffer.c **** {
  62              		.loc 1 1143 0
  63              		.cfi_startproc
  64              		@ args = 4, pretend = 0, frame = 0
  65              		@ frame_needed = 0, uses_anonymous_args = 0
  66              	.LVL5:
  67 0000 F8B5     		push	{r3, r4, r5, r6, r7, lr}
  68              		.cfi_def_cfa_offset 24
  69              		.cfi_offset 3, -24
  70              		.cfi_offset 4, -20
  71              		.cfi_offset 5, -16
  72              		.cfi_offset 6, -12
  73              		.cfi_offset 7, -8
  74              		.cfi_offset 14, -4
  75 0002 0446     		mov	r4, r0
  76 0004 0D46     		mov	r5, r1
  77 0006 1746     		mov	r7, r2
  78 0008 1E46     		mov	r6, r3
1144:..\FreeRTOS/stream_buffer.c **** 	/* Assert here is deliberately writing to the entire buffer to ensure it can
1145:..\FreeRTOS/stream_buffer.c **** 	be written to without generating exceptions, and is setting the buffer to a
1146:..\FreeRTOS/stream_buffer.c **** 	known value to assist in development/debugging. */
1147:..\FreeRTOS/stream_buffer.c **** 	#if( configASSERT_DEFINED == 1 )
1148:..\FreeRTOS/stream_buffer.c **** 	{
1149:..\FreeRTOS/stream_buffer.c **** 		/* The value written just has to be identifiable when looking at the
1150:..\FreeRTOS/stream_buffer.c **** 		memory.  Don't use 0xA5 as that is the stack fill value and could
1151:..\FreeRTOS/stream_buffer.c **** 		result in confusion as to what is actually being observed. */
1152:..\FreeRTOS/stream_buffer.c **** 		const BaseType_t xWriteValue = 0x55;
1153:..\FreeRTOS/stream_buffer.c **** 		configASSERT( memset( pucBuffer, ( int ) xWriteValue, xBufferSizeBytes ) == pucBuffer );
1154:..\FreeRTOS/stream_buffer.c **** 	}
1155:..\FreeRTOS/stream_buffer.c **** 	#endif
1156:..\FreeRTOS/stream_buffer.c **** 
1157:..\FreeRTOS/stream_buffer.c **** 	memset( ( void * ) pxStreamBuffer, 0x00, sizeof( StreamBuffer_t ) ); /*lint !e9087 memset() requir
  79              		.loc 1 1157 0
  80 000a 2022     		movs	r2, #32
  81              	.LVL6:
  82 000c 0021     		movs	r1, #0
  83              	.LVL7:
  84 000e FFF7FEFF 		bl	memset
  85              	.LVL8:
1158:..\FreeRTOS/stream_buffer.c **** 	pxStreamBuffer->pucBuffer = pucBuffer;
  86              		.loc 1 1158 0
  87 0012 A561     		str	r5, [r4, #24]
1159:..\FreeRTOS/stream_buffer.c **** 	pxStreamBuffer->xLength = xBufferSizeBytes;
  88              		.loc 1 1159 0
  89 0014 A760     		str	r7, [r4, #8]
1160:..\FreeRTOS/stream_buffer.c **** 	pxStreamBuffer->xTriggerLevelBytes = xTriggerLevelBytes;
  90              		.loc 1 1160 0
  91 0016 E660     		str	r6, [r4, #12]
1161:..\FreeRTOS/stream_buffer.c **** 
1162:..\FreeRTOS/stream_buffer.c **** 	if( xIsMessageBuffer != pdFALSE )
  92              		.loc 1 1162 0
ARM GAS  C:\Users\Tri94\AppData\Local\Temp\ccHaJcja.s 			page 23


  93 0018 069B     		ldr	r3, [sp, #24]
  94 001a 1BB1     		cbz	r3, .L3
1163:..\FreeRTOS/stream_buffer.c **** 	{
1164:..\FreeRTOS/stream_buffer.c **** 		pxStreamBuffer->ucFlags |= sbFLAGS_IS_MESSAGE_BUFFER;
  95              		.loc 1 1164 0
  96 001c 237F     		ldrb	r3, [r4, #28]	@ zero_extendqisi2
  97 001e 43F00103 		orr	r3, r3, #1
  98 0022 2377     		strb	r3, [r4, #28]
  99              	.L3:
 100 0024 F8BD     		pop	{r3, r4, r5, r6, r7, pc}
 101              		.cfi_endproc
 102              	.LFE88:
 103              		.size	prvInitialiseNewStreamBuffer, .-prvInitialiseNewStreamBuffer
 104 0026 00BF     		.section	.text.prvWriteBytesToBuffer,"ax",%progbits
 105              		.align	2
 106              		.thumb
 107              		.thumb_func
 108              		.type	prvWriteBytesToBuffer, %function
 109              	prvWriteBytesToBuffer:
 110              	.LFB85:
1018:..\FreeRTOS/stream_buffer.c **** size_t xNextHead, xFirstLength;
 111              		.loc 1 1018 0
 112              		.cfi_startproc
 113              		@ args = 0, pretend = 0, frame = 0
 114              		@ frame_needed = 0, uses_anonymous_args = 0
 115              	.LVL9:
 116 0000 2DE9F041 		push	{r4, r5, r6, r7, r8, lr}
 117              		.cfi_def_cfa_offset 24
 118              		.cfi_offset 4, -24
 119              		.cfi_offset 5, -20
 120              		.cfi_offset 6, -16
 121              		.cfi_offset 7, -12
 122              		.cfi_offset 8, -8
 123              		.cfi_offset 14, -4
 124 0004 0646     		mov	r6, r0
 125 0006 8846     		mov	r8, r1
 126 0008 1746     		mov	r7, r2
1023:..\FreeRTOS/stream_buffer.c **** 
 127              		.loc 1 1023 0
 128 000a 4468     		ldr	r4, [r0, #4]
 129              	.LVL10:
1028:..\FreeRTOS/stream_buffer.c **** 
 130              		.loc 1 1028 0
 131 000c 8568     		ldr	r5, [r0, #8]
 132 000e 2D1B     		subs	r5, r5, r4
 133 0010 9542     		cmp	r5, r2
 134 0012 28BF     		it	cs
 135 0014 1546     		movcs	r5, r2
 136              	.LVL11:
1032:..\FreeRTOS/stream_buffer.c **** 
 137              		.loc 1 1032 0
 138 0016 8069     		ldr	r0, [r0, #24]
 139              	.LVL12:
 140 0018 2A46     		mov	r2, r5
 141              	.LVL13:
 142 001a 2044     		add	r0, r0, r4
 143 001c FFF7FEFF 		bl	memcpy
ARM GAS  C:\Users\Tri94\AppData\Local\Temp\ccHaJcja.s 			page 24


 144              	.LVL14:
1036:..\FreeRTOS/stream_buffer.c **** 	{
 145              		.loc 1 1036 0
 146 0020 AF42     		cmp	r7, r5
 147 0022 05D9     		bls	.L7
1040:..\FreeRTOS/stream_buffer.c **** 	}
 148              		.loc 1 1040 0
 149 0024 7A1B     		subs	r2, r7, r5
 150 0026 08EB0501 		add	r1, r8, r5
 151 002a B069     		ldr	r0, [r6, #24]
 152 002c FFF7FEFF 		bl	memcpy
 153              	.LVL15:
 154              	.L7:
1047:..\FreeRTOS/stream_buffer.c **** 	if( xNextHead >= pxStreamBuffer->xLength )
 155              		.loc 1 1047 0
 156 0030 E319     		adds	r3, r4, r7
 157              	.LVL16:
1048:..\FreeRTOS/stream_buffer.c **** 	{
 158              		.loc 1 1048 0
 159 0032 B268     		ldr	r2, [r6, #8]
 160 0034 9342     		cmp	r3, r2
 161 0036 00D3     		bcc	.L8
1050:..\FreeRTOS/stream_buffer.c **** 	}
 162              		.loc 1 1050 0
 163 0038 9B1A     		subs	r3, r3, r2
 164              	.LVL17:
 165              	.L8:
1057:..\FreeRTOS/stream_buffer.c **** 
 166              		.loc 1 1057 0
 167 003a 7360     		str	r3, [r6, #4]
1060:..\FreeRTOS/stream_buffer.c **** /*-----------------------------------------------------------*/
 168              		.loc 1 1060 0
 169 003c 3846     		mov	r0, r7
 170 003e BDE8F081 		pop	{r4, r5, r6, r7, r8, pc}
 171              		.cfi_endproc
 172              	.LFE85:
 173              		.size	prvWriteBytesToBuffer, .-prvWriteBytesToBuffer
 174 0042 00BF     		.section	.text.prvWriteMessageToBuffer,"ax",%progbits
 175              		.align	2
 176              		.thumb
 177              		.thumb_func
 178              		.type	prvWriteMessageToBuffer, %function
 179              	prvWriteMessageToBuffer:
 180              	.LFB77:
 641:..\FreeRTOS/stream_buffer.c **** 	BaseType_t xShouldWrite;
 181              		.loc 1 641 0
 182              		.cfi_startproc
 183              		@ args = 4, pretend = 0, frame = 8
 184              		@ frame_needed = 0, uses_anonymous_args = 0
 185              	.LVL18:
 186 0000 30B5     		push	{r4, r5, lr}
 187              		.cfi_def_cfa_offset 12
 188              		.cfi_offset 4, -12
 189              		.cfi_offset 5, -8
 190              		.cfi_offset 14, -4
 191 0002 83B0     		sub	sp, sp, #12
 192              		.cfi_def_cfa_offset 24
ARM GAS  C:\Users\Tri94\AppData\Local\Temp\ccHaJcja.s 			page 25


 193 0004 0446     		mov	r4, r0
 194 0006 0D46     		mov	r5, r1
 195 0008 0192     		str	r2, [sp, #4]
 645:..\FreeRTOS/stream_buffer.c **** 	{
 196              		.loc 1 645 0
 197 000a ABB1     		cbz	r3, .L14
 198 000c 1A46     		mov	r2, r3
 199              	.LVL19:
 651:..\FreeRTOS/stream_buffer.c **** 	{
 200              		.loc 1 651 0
 201 000e 037F     		ldrb	r3, [r0, #28]	@ zero_extendqisi2
 202              	.LVL20:
 203 0010 13F0010F 		tst	r3, #1
 204 0014 06D1     		bne	.L12
 205              	.LVL21:
 657:..\FreeRTOS/stream_buffer.c **** 	}
 206              		.loc 1 657 0
 207 0016 019B     		ldr	r3, [sp, #4]
 208 0018 9A42     		cmp	r2, r3
 209 001a 28BF     		it	cs
 210 001c 1A46     		movcs	r2, r3
 211              	.LVL22:
 212 001e 0192     		str	r2, [sp, #4]
 213              	.LVL23:
 656:..\FreeRTOS/stream_buffer.c **** 		xDataLengthBytes = configMIN( xDataLengthBytes, xSpace ); /*lint !e9044 Function parameter modifi
 214              		.loc 1 656 0
 215 0020 0123     		movs	r3, #1
 216              	.LVL24:
 217 0022 0CE0     		b	.L11
 218              	.LVL25:
 219              	.L12:
 659:..\FreeRTOS/stream_buffer.c **** 	{
 220              		.loc 1 659 0
 221 0024 069B     		ldr	r3, [sp, #24]
 222 0026 9A42     		cmp	r2, r3
 223 0028 08D3     		bcc	.L15
 224              	.LVL26:
 666:..\FreeRTOS/stream_buffer.c **** 	}
 225              		.loc 1 666 0
 226 002a 0422     		movs	r2, #4
 227              	.LVL27:
 228 002c 0DEB0201 		add	r1, sp, r2
 229              	.LVL28:
 230 0030 FFF7FEFF 		bl	prvWriteBytesToBuffer
 231              	.LVL29:
 665:..\FreeRTOS/stream_buffer.c **** 		( void ) prvWriteBytesToBuffer( pxStreamBuffer, ( const uint8_t * ) &( xDataLengthBytes ), sbBYTE
 232              		.loc 1 665 0
 233 0034 0123     		movs	r3, #1
 234 0036 02E0     		b	.L11
 235              	.LVL30:
 236              	.L14:
 649:..\FreeRTOS/stream_buffer.c **** 	}
 237              		.loc 1 649 0
 238 0038 0023     		movs	r3, #0
 239              	.LVL31:
 240 003a 00E0     		b	.L11
 241              	.LVL32:
ARM GAS  C:\Users\Tri94\AppData\Local\Temp\ccHaJcja.s 			page 26


 242              	.L15:
 671:..\FreeRTOS/stream_buffer.c **** 	}
 243              		.loc 1 671 0
 244 003c 0023     		movs	r3, #0
 245              	.LVL33:
 246              	.L11:
 674:..\FreeRTOS/stream_buffer.c **** 	{
 247              		.loc 1 674 0
 248 003e 2BB1     		cbz	r3, .L16
 677:..\FreeRTOS/stream_buffer.c **** 	}
 249              		.loc 1 677 0
 250 0040 019A     		ldr	r2, [sp, #4]
 251 0042 2946     		mov	r1, r5
 252 0044 2046     		mov	r0, r4
 253 0046 FFF7FEFF 		bl	prvWriteBytesToBuffer
 254              	.LVL34:
 255 004a 00E0     		b	.L13
 256              	.LVL35:
 257              	.L16:
 681:..\FreeRTOS/stream_buffer.c **** 	}
 258              		.loc 1 681 0
 259 004c 0020     		movs	r0, #0
 260              	.LVL36:
 261              	.L13:
 685:..\FreeRTOS/stream_buffer.c **** /*-----------------------------------------------------------*/
 262              		.loc 1 685 0
 263 004e 03B0     		add	sp, sp, #12
 264              		.cfi_def_cfa_offset 12
 265              		@ sp needed
 266 0050 30BD     		pop	{r4, r5, pc}
 267              		.cfi_endproc
 268              	.LFE77:
 269              		.size	prvWriteMessageToBuffer, .-prvWriteMessageToBuffer
 270 0052 00BF     		.section	.text.prvReadBytesFromBuffer,"ax",%progbits
 271              		.align	2
 272              		.thumb
 273              		.thumb_func
 274              		.type	prvReadBytesFromBuffer, %function
 275              	prvReadBytesFromBuffer:
 276              	.LFB86:
1064:..\FreeRTOS/stream_buffer.c **** size_t xCount, xFirstLength, xNextTail;
 277              		.loc 1 1064 0
 278              		.cfi_startproc
 279              		@ args = 0, pretend = 0, frame = 0
 280              		@ frame_needed = 0, uses_anonymous_args = 0
 281              	.LVL37:
 282 0000 2DE9F041 		push	{r4, r5, r6, r7, r8, lr}
 283              		.cfi_def_cfa_offset 24
 284              		.cfi_offset 4, -24
 285              		.cfi_offset 5, -20
 286              		.cfi_offset 6, -16
 287              		.cfi_offset 7, -12
 288              		.cfi_offset 8, -8
 289              		.cfi_offset 14, -4
1068:..\FreeRTOS/stream_buffer.c **** 
 290              		.loc 1 1068 0
 291 0004 9A42     		cmp	r2, r3
ARM GAS  C:\Users\Tri94\AppData\Local\Temp\ccHaJcja.s 			page 27


 292 0006 28BF     		it	cs
 293 0008 1A46     		movcs	r2, r3
 294              	.LVL38:
 295 000a 1446     		mov	r4, r2
 296              	.LVL39:
1070:..\FreeRTOS/stream_buffer.c **** 	{
 297              		.loc 1 1070 0
 298 000c DAB1     		cbz	r2, .L19
 299 000e 8846     		mov	r8, r1
 300 0010 0546     		mov	r5, r0
1072:..\FreeRTOS/stream_buffer.c **** 
 301              		.loc 1 1072 0
 302 0012 0668     		ldr	r6, [r0]
 303              	.LVL40:
1077:..\FreeRTOS/stream_buffer.c **** 
 304              		.loc 1 1077 0
 305 0014 8768     		ldr	r7, [r0, #8]
 306 0016 BF1B     		subs	r7, r7, r6
 307 0018 9742     		cmp	r7, r2
 308 001a 28BF     		it	cs
 309 001c 1746     		movcs	r7, r2
 310              	.LVL41:
1083:..\FreeRTOS/stream_buffer.c **** 
 311              		.loc 1 1083 0
 312 001e 8169     		ldr	r1, [r0, #24]
 313              	.LVL42:
 314 0020 3A46     		mov	r2, r7
 315              	.LVL43:
 316 0022 3144     		add	r1, r1, r6
 317 0024 4046     		mov	r0, r8
 318              	.LVL44:
 319 0026 FFF7FEFF 		bl	memcpy
 320              	.LVL45:
1087:..\FreeRTOS/stream_buffer.c **** 		{
 321              		.loc 1 1087 0
 322 002a BC42     		cmp	r4, r7
 323 002c 05D9     		bls	.L20
1091:..\FreeRTOS/stream_buffer.c **** 		}
 324              		.loc 1 1091 0
 325 002e E21B     		subs	r2, r4, r7
 326 0030 A969     		ldr	r1, [r5, #24]
 327 0032 08EB0700 		add	r0, r8, r7
 328 0036 FFF7FEFF 		bl	memcpy
 329              	.LVL46:
 330              	.L20:
1100:..\FreeRTOS/stream_buffer.c **** 
 331              		.loc 1 1100 0
 332 003a 2644     		add	r6, r6, r4
 333              	.LVL47:
1102:..\FreeRTOS/stream_buffer.c **** 		{
 334              		.loc 1 1102 0
 335 003c AB68     		ldr	r3, [r5, #8]
 336 003e 9E42     		cmp	r6, r3
 337 0040 00D3     		bcc	.L21
1104:..\FreeRTOS/stream_buffer.c **** 		}
 338              		.loc 1 1104 0
 339 0042 F61A     		subs	r6, r6, r3
ARM GAS  C:\Users\Tri94\AppData\Local\Temp\ccHaJcja.s 			page 28


 340              	.LVL48:
 341              	.L21:
1107:..\FreeRTOS/stream_buffer.c **** 	}
 342              		.loc 1 1107 0
 343 0044 2E60     		str	r6, [r5]
 344              	.LVL49:
 345              	.L19:
1115:..\FreeRTOS/stream_buffer.c **** /*-----------------------------------------------------------*/
 346              		.loc 1 1115 0
 347 0046 2046     		mov	r0, r4
 348 0048 BDE8F081 		pop	{r4, r5, r6, r7, r8, pc}
 349              		.cfi_endproc
 350              	.LFE86:
 351              		.size	prvReadBytesFromBuffer, .-prvReadBytesFromBuffer
 352              		.section	.text.prvReadMessageFromBuffer,"ax",%progbits
 353              		.align	2
 354              		.thumb
 355              		.thumb_func
 356              		.type	prvReadMessageFromBuffer, %function
 357              	prvReadMessageFromBuffer:
 358              	.LFB80:
 854:..\FreeRTOS/stream_buffer.c **** size_t xOriginalTail, xReceivedLength, xNextMessageLength;
 359              		.loc 1 854 0
 360              		.cfi_startproc
 361              		@ args = 4, pretend = 0, frame = 8
 362              		@ frame_needed = 0, uses_anonymous_args = 0
 363              	.LVL50:
 364 0000 2DE9F043 		push	{r4, r5, r6, r7, r8, r9, lr}
 365              		.cfi_def_cfa_offset 28
 366              		.cfi_offset 4, -28
 367              		.cfi_offset 5, -24
 368              		.cfi_offset 6, -20
 369              		.cfi_offset 7, -16
 370              		.cfi_offset 8, -12
 371              		.cfi_offset 9, -8
 372              		.cfi_offset 14, -4
 373 0004 83B0     		sub	sp, sp, #12
 374              		.cfi_def_cfa_offset 40
 375 0006 0546     		mov	r5, r0
 376 0008 0F46     		mov	r7, r1
 377 000a 9046     		mov	r8, r2
 378 000c 1C46     		mov	r4, r3
 379 000e 0A9E     		ldr	r6, [sp, #40]
 857:..\FreeRTOS/stream_buffer.c **** 	{
 380              		.loc 1 857 0
 381 0010 76B1     		cbz	r6, .L24
 863:..\FreeRTOS/stream_buffer.c **** 		( void ) prvReadBytesFromBuffer( pxStreamBuffer, ( uint8_t * ) &xNextMessageLength, xBytesToStore
 382              		.loc 1 863 0
 383 0012 D0F80090 		ldr	r9, [r0]
 384              	.LVL51:
 864:..\FreeRTOS/stream_buffer.c **** 
 385              		.loc 1 864 0
 386 0016 3246     		mov	r2, r6
 387              	.LVL52:
 388 0018 01A9     		add	r1, sp, #4
 389              	.LVL53:
 390 001a FFF7FEFF 		bl	prvReadBytesFromBuffer
ARM GAS  C:\Users\Tri94\AppData\Local\Temp\ccHaJcja.s 			page 29


 391              	.LVL54:
 868:..\FreeRTOS/stream_buffer.c **** 
 392              		.loc 1 868 0
 393 001e A41B     		subs	r4, r4, r6
 394              	.LVL55:
 872:..\FreeRTOS/stream_buffer.c **** 		{
 395              		.loc 1 872 0
 396 0020 019B     		ldr	r3, [sp, #4]
 397 0022 4345     		cmp	r3, r8
 398 0024 05D9     		bls	.L25
 877:..\FreeRTOS/stream_buffer.c **** 			xNextMessageLength = 0;
 399              		.loc 1 877 0
 400 0026 C5F80090 		str	r9, [r5]
 878:..\FreeRTOS/stream_buffer.c **** 		}
 401              		.loc 1 878 0
 402 002a 0023     		movs	r3, #0
 403 002c 0193     		str	r3, [sp, #4]
 404 002e 00E0     		b	.L25
 405              	.LVL56:
 406              	.L24:
 889:..\FreeRTOS/stream_buffer.c **** 	}
 407              		.loc 1 889 0
 408 0030 0192     		str	r2, [sp, #4]
 409              	.LVL57:
 410              	.L25:
 893:..\FreeRTOS/stream_buffer.c **** 
 411              		.loc 1 893 0
 412 0032 2346     		mov	r3, r4
 413 0034 019A     		ldr	r2, [sp, #4]
 414 0036 3946     		mov	r1, r7
 415 0038 2846     		mov	r0, r5
 416 003a FFF7FEFF 		bl	prvReadBytesFromBuffer
 417              	.LVL58:
 896:..\FreeRTOS/stream_buffer.c **** /*-----------------------------------------------------------*/
 418              		.loc 1 896 0
 419 003e 03B0     		add	sp, sp, #12
 420              		.cfi_def_cfa_offset 28
 421              		@ sp needed
 422 0040 BDE8F083 		pop	{r4, r5, r6, r7, r8, r9, pc}
 423              		.cfi_endproc
 424              	.LFE80:
 425              		.size	prvReadMessageFromBuffer, .-prvReadMessageFromBuffer
 426              		.section	.text.xStreamBufferGenericCreate,"ax",%progbits
 427              		.align	2
 428              		.global	xStreamBufferGenericCreate
 429              		.thumb
 430              		.thumb_func
 431              		.type	xStreamBufferGenericCreate, %function
 432              	xStreamBufferGenericCreate:
 433              	.LFB69:
 217:..\FreeRTOS/stream_buffer.c **** 	uint8_t *pucAllocatedMemory;
 434              		.loc 1 217 0
 435              		.cfi_startproc
 436              		@ args = 0, pretend = 0, frame = 0
 437              		@ frame_needed = 0, uses_anonymous_args = 0
 438              	.LVL59:
 439 0000 F0B5     		push	{r4, r5, r6, r7, lr}
ARM GAS  C:\Users\Tri94\AppData\Local\Temp\ccHaJcja.s 			page 30


 440              		.cfi_def_cfa_offset 20
 441              		.cfi_offset 4, -20
 442              		.cfi_offset 5, -16
 443              		.cfi_offset 6, -12
 444              		.cfi_offset 7, -8
 445              		.cfi_offset 14, -4
 446 0002 83B0     		sub	sp, sp, #12
 447              		.cfi_def_cfa_offset 32
 448 0004 1746     		mov	r7, r2
 229:..\FreeRTOS/stream_buffer.c **** 		{
 449              		.loc 1 229 0
 450 0006 0D46     		mov	r5, r1
 451 0008 01B9     		cbnz	r1, .L28
 231:..\FreeRTOS/stream_buffer.c **** 		}
 452              		.loc 1 231 0
 453 000a 0125     		movs	r5, #1
 454              	.L28:
 455              	.LVL60:
 242:..\FreeRTOS/stream_buffer.c **** 		pucAllocatedMemory = ( uint8_t * ) pvPortMalloc( xBufferSizeBytes + sizeof( StreamBuffer_t ) ); /
 456              		.loc 1 242 0
 457 000c 461C     		adds	r6, r0, #1
 458              	.LVL61:
 243:..\FreeRTOS/stream_buffer.c **** 
 459              		.loc 1 243 0
 460 000e 2130     		adds	r0, r0, #33
 461 0010 FFF7FEFF 		bl	pvPortMalloc
 462              	.LVL62:
 245:..\FreeRTOS/stream_buffer.c **** 		{
 463              		.loc 1 245 0
 464 0014 0446     		mov	r4, r0
 465 0016 30B1     		cbz	r0, .L29
 247:..\FreeRTOS/stream_buffer.c **** 										   pucAllocatedMemory + sizeof( StreamBuffer_t ),  /* Storage area follows. */ /*lint !e9
 466              		.loc 1 247 0
 467 0018 0097     		str	r7, [sp]
 468 001a 2B46     		mov	r3, r5
 469 001c 3246     		mov	r2, r6
 470 001e 00F12001 		add	r1, r0, #32
 471 0022 FFF7FEFF 		bl	prvInitialiseNewStreamBuffer
 472              	.LVL63:
 473              	.L29:
 261:..\FreeRTOS/stream_buffer.c **** 
 474              		.loc 1 261 0
 475 0026 2046     		mov	r0, r4
 476 0028 03B0     		add	sp, sp, #12
 477              		.cfi_def_cfa_offset 20
 478              		@ sp needed
 479 002a F0BD     		pop	{r4, r5, r6, r7, pc}
 480              		.cfi_endproc
 481              	.LFE69:
 482              		.size	xStreamBufferGenericCreate, .-xStreamBufferGenericCreate
 483              		.section	.text.vStreamBufferDelete,"ax",%progbits
 484              		.align	2
 485              		.global	vStreamBufferDelete
 486              		.thumb
 487              		.thumb_func
 488              		.type	vStreamBufferDelete, %function
 489              	vStreamBufferDelete:
ARM GAS  C:\Users\Tri94\AppData\Local\Temp\ccHaJcja.s 			page 31


 490              	.LFB70:
 333:..\FreeRTOS/stream_buffer.c **** StreamBuffer_t * pxStreamBuffer = ( StreamBuffer_t * ) xStreamBuffer; /*lint !e9087 !e9079 Safe cas
 491              		.loc 1 333 0
 492              		.cfi_startproc
 493              		@ args = 0, pretend = 0, frame = 0
 494              		@ frame_needed = 0, uses_anonymous_args = 0
 495              	.LVL64:
 496 0000 08B5     		push	{r3, lr}
 497              		.cfi_def_cfa_offset 8
 498              		.cfi_offset 3, -8
 499              		.cfi_offset 14, -4
 500              	.LVL65:
 340:..\FreeRTOS/stream_buffer.c **** 	{
 501              		.loc 1 340 0
 502 0002 037F     		ldrb	r3, [r0, #28]	@ zero_extendqisi2
 503 0004 13F0020F 		tst	r3, #2
 504 0008 02D1     		bne	.L33
 346:..\FreeRTOS/stream_buffer.c **** 		}
 505              		.loc 1 346 0
 506 000a FFF7FEFF 		bl	vPortFree
 507              	.LVL66:
 508 000e 08BD     		pop	{r3, pc}
 509              	.LVL67:
 510              	.L33:
 360:..\FreeRTOS/stream_buffer.c **** 	}
 511              		.loc 1 360 0
 512 0010 2022     		movs	r2, #32
 513 0012 0021     		movs	r1, #0
 514 0014 FFF7FEFF 		bl	memset
 515              	.LVL68:
 516 0018 08BD     		pop	{r3, pc}
 517              		.cfi_endproc
 518              	.LFE70:
 519              		.size	vStreamBufferDelete, .-vStreamBufferDelete
 520 001a 00BF     		.section	.text.xStreamBufferReset,"ax",%progbits
 521              		.align	2
 522              		.global	xStreamBufferReset
 523              		.thumb
 524              		.thumb_func
 525              		.type	xStreamBufferReset, %function
 526              	xStreamBufferReset:
 527              	.LFB71:
 366:..\FreeRTOS/stream_buffer.c **** StreamBuffer_t * const pxStreamBuffer = ( StreamBuffer_t * ) xStreamBuffer; /*lint !e9087 !e9079 Sa
 528              		.loc 1 366 0
 529              		.cfi_startproc
 530              		@ args = 0, pretend = 0, frame = 0
 531              		@ frame_needed = 0, uses_anonymous_args = 0
 532              	.LVL69:
 385:..\FreeRTOS/stream_buffer.c **** 	{
 533              		.loc 1 385 0
 534 0000 0369     		ldr	r3, [r0, #16]
 535 0002 93B9     		cbnz	r3, .L39
 387:..\FreeRTOS/stream_buffer.c **** 		{
 536              		.loc 1 387 0
 537 0004 4369     		ldr	r3, [r0, #20]
 538 0006 93B9     		cbnz	r3, .L40
 366:..\FreeRTOS/stream_buffer.c **** StreamBuffer_t * const pxStreamBuffer = ( StreamBuffer_t * ) xStreamBuffer; /*lint !e9087 !e9079 Sa
ARM GAS  C:\Users\Tri94\AppData\Local\Temp\ccHaJcja.s 			page 32


 539              		.loc 1 366 0
 540 0008 00B5     		push	{lr}
 541              		.cfi_def_cfa_offset 4
 542              		.cfi_offset 14, -4
 543 000a 83B0     		sub	sp, sp, #12
 544              		.cfi_def_cfa_offset 16
 389:..\FreeRTOS/stream_buffer.c **** 			{
 545              		.loc 1 389 0
 546 000c 037F     		ldrb	r3, [r0, #28]	@ zero_extendqisi2
 547 000e 13F0010F 		tst	r3, #1
 548 0012 01D0     		beq	.L41
 391:..\FreeRTOS/stream_buffer.c **** 			}
 549              		.loc 1 391 0
 550 0014 0123     		movs	r3, #1
 551 0016 00E0     		b	.L38
 552              	.L41:
 395:..\FreeRTOS/stream_buffer.c **** 			}
 553              		.loc 1 395 0
 554 0018 0023     		movs	r3, #0
 555              	.L38:
 556              	.LVL70:
 398:..\FreeRTOS/stream_buffer.c **** 										  pxStreamBuffer->pucBuffer,
 557              		.loc 1 398 0
 558 001a 0093     		str	r3, [sp]
 559 001c C368     		ldr	r3, [r0, #12]
 560              	.LVL71:
 561 001e 8268     		ldr	r2, [r0, #8]
 562 0020 8169     		ldr	r1, [r0, #24]
 563 0022 FFF7FEFF 		bl	prvInitialiseNewStreamBuffer
 564              	.LVL72:
 403:..\FreeRTOS/stream_buffer.c **** 
 565              		.loc 1 403 0
 566 0026 0120     		movs	r0, #1
 567 0028 03E0     		b	.L37
 568              	.LVL73:
 569              	.L39:
 570              		.cfi_def_cfa_offset 0
 571              		.cfi_restore 14
 368:..\FreeRTOS/stream_buffer.c **** 
 572              		.loc 1 368 0
 573 002a 0020     		movs	r0, #0
 574              	.LVL74:
 575 002c 7047     		bx	lr
 576              	.LVL75:
 577              	.L40:
 578 002e 0020     		movs	r0, #0
 579              	.LVL76:
 580 0030 7047     		bx	lr
 581              	.LVL77:
 582              	.L37:
 583              		.cfi_def_cfa_offset 16
 584              		.cfi_offset 14, -4
 416:..\FreeRTOS/stream_buffer.c **** /*-----------------------------------------------------------*/
 585              		.loc 1 416 0
 586 0032 03B0     		add	sp, sp, #12
 587              		.cfi_def_cfa_offset 4
 588              		@ sp needed
ARM GAS  C:\Users\Tri94\AppData\Local\Temp\ccHaJcja.s 			page 33


 589 0034 5DF804FB 		ldr	pc, [sp], #4
 590              		.cfi_endproc
 591              	.LFE71:
 592              		.size	xStreamBufferReset, .-xStreamBufferReset
 593              		.section	.text.xStreamBufferSetTriggerLevel,"ax",%progbits
 594              		.align	2
 595              		.global	xStreamBufferSetTriggerLevel
 596              		.thumb
 597              		.thumb_func
 598              		.type	xStreamBufferSetTriggerLevel, %function
 599              	xStreamBufferSetTriggerLevel:
 600              	.LFB72:
 420:..\FreeRTOS/stream_buffer.c **** StreamBuffer_t * const pxStreamBuffer = ( StreamBuffer_t * ) xStreamBuffer; /*lint !e9087 !e9079 Sa
 601              		.loc 1 420 0
 602              		.cfi_startproc
 603              		@ args = 0, pretend = 0, frame = 0
 604              		@ frame_needed = 0, uses_anonymous_args = 0
 605              		@ link register save eliminated.
 606              	.LVL78:
 427:..\FreeRTOS/stream_buffer.c **** 	{
 607              		.loc 1 427 0
 608 0000 0B46     		mov	r3, r1
 609 0002 01B9     		cbnz	r1, .L45
 429:..\FreeRTOS/stream_buffer.c **** 	}
 610              		.loc 1 429 0
 611 0004 0123     		movs	r3, #1
 612              	.L45:
 613              	.LVL79:
 434:..\FreeRTOS/stream_buffer.c **** 	{
 614              		.loc 1 434 0
 615 0006 8268     		ldr	r2, [r0, #8]
 616 0008 9342     		cmp	r3, r2
 617 000a 02D8     		bhi	.L48
 436:..\FreeRTOS/stream_buffer.c **** 		xReturn = pdPASS;
 618              		.loc 1 436 0
 619 000c C360     		str	r3, [r0, #12]
 620              	.LVL80:
 437:..\FreeRTOS/stream_buffer.c **** 	}
 621              		.loc 1 437 0
 622 000e 0120     		movs	r0, #1
 623              	.LVL81:
 624 0010 7047     		bx	lr
 625              	.LVL82:
 626              	.L48:
 441:..\FreeRTOS/stream_buffer.c **** 	}
 627              		.loc 1 441 0
 628 0012 0020     		movs	r0, #0
 629              	.LVL83:
 445:..\FreeRTOS/stream_buffer.c **** /*-----------------------------------------------------------*/
 630              		.loc 1 445 0
 631 0014 7047     		bx	lr
 632              		.cfi_endproc
 633              	.LFE72:
 634              		.size	xStreamBufferSetTriggerLevel, .-xStreamBufferSetTriggerLevel
 635 0016 00BF     		.section	.text.xStreamBufferSpacesAvailable,"ax",%progbits
 636              		.align	2
 637              		.global	xStreamBufferSpacesAvailable
ARM GAS  C:\Users\Tri94\AppData\Local\Temp\ccHaJcja.s 			page 34


 638              		.thumb
 639              		.thumb_func
 640              		.type	xStreamBufferSpacesAvailable, %function
 641              	xStreamBufferSpacesAvailable:
 642              	.LFB73:
 449:..\FreeRTOS/stream_buffer.c **** const StreamBuffer_t * const pxStreamBuffer = ( StreamBuffer_t * ) xStreamBuffer; /*lint !e9087 !e9
 643              		.loc 1 449 0
 644              		.cfi_startproc
 645              		@ args = 0, pretend = 0, frame = 0
 646              		@ frame_needed = 0, uses_anonymous_args = 0
 647              		@ link register save eliminated.
 648              	.LVL84:
 455:..\FreeRTOS/stream_buffer.c **** 	xSpace -= pxStreamBuffer->xHead;
 649              		.loc 1 455 0
 650 0000 8268     		ldr	r2, [r0, #8]
 651 0002 0368     		ldr	r3, [r0]
 652 0004 1344     		add	r3, r3, r2
 653              	.LVL85:
 456:..\FreeRTOS/stream_buffer.c **** 	xSpace -= ( size_t ) 1;
 654              		.loc 1 456 0
 655 0006 4068     		ldr	r0, [r0, #4]
 656              	.LVL86:
 657 0008 181A     		subs	r0, r3, r0
 658              	.LVL87:
 457:..\FreeRTOS/stream_buffer.c **** 
 659              		.loc 1 457 0
 660 000a 0138     		subs	r0, r0, #1
 661              	.LVL88:
 459:..\FreeRTOS/stream_buffer.c **** 	{
 662              		.loc 1 459 0
 663 000c 8242     		cmp	r2, r0
 664 000e 00D8     		bhi	.L50
 461:..\FreeRTOS/stream_buffer.c **** 	}
 665              		.loc 1 461 0
 666 0010 801A     		subs	r0, r0, r2
 667              	.LVL89:
 668              	.L50:
 469:..\FreeRTOS/stream_buffer.c **** /*-----------------------------------------------------------*/
 669              		.loc 1 469 0
 670 0012 7047     		bx	lr
 671              		.cfi_endproc
 672              	.LFE73:
 673              		.size	xStreamBufferSpacesAvailable, .-xStreamBufferSpacesAvailable
 674              		.section	.text.xStreamBufferBytesAvailable,"ax",%progbits
 675              		.align	2
 676              		.global	xStreamBufferBytesAvailable
 677              		.thumb
 678              		.thumb_func
 679              		.type	xStreamBufferBytesAvailable, %function
 680              	xStreamBufferBytesAvailable:
 681              	.LFB74:
 473:..\FreeRTOS/stream_buffer.c **** const StreamBuffer_t * const pxStreamBuffer = ( StreamBuffer_t * ) xStreamBuffer; /*lint !e9087 !e9
 682              		.loc 1 473 0
 683              		.cfi_startproc
 684              		@ args = 0, pretend = 0, frame = 0
 685              		@ frame_needed = 0, uses_anonymous_args = 0
 686              	.LVL90:
ARM GAS  C:\Users\Tri94\AppData\Local\Temp\ccHaJcja.s 			page 35


 687 0000 08B5     		push	{r3, lr}
 688              		.cfi_def_cfa_offset 8
 689              		.cfi_offset 3, -8
 690              		.cfi_offset 14, -4
 691              	.LVL91:
 479:..\FreeRTOS/stream_buffer.c **** 	return xReturn;
 692              		.loc 1 479 0
 693 0002 FFF7FEFF 		bl	prvBytesInBuffer
 694              	.LVL92:
 481:..\FreeRTOS/stream_buffer.c **** /*-----------------------------------------------------------*/
 695              		.loc 1 481 0
 696 0006 08BD     		pop	{r3, pc}
 697              		.cfi_endproc
 698              	.LFE74:
 699              		.size	xStreamBufferBytesAvailable, .-xStreamBufferBytesAvailable
 700              		.section	.text.xStreamBufferSend,"ax",%progbits
 701              		.align	2
 702              		.global	xStreamBufferSend
 703              		.thumb
 704              		.thumb_func
 705              		.type	xStreamBufferSend, %function
 706              	xStreamBufferSend:
 707              	.LFB75:
 488:..\FreeRTOS/stream_buffer.c **** StreamBuffer_t * const pxStreamBuffer = ( StreamBuffer_t * ) xStreamBuffer; /*lint !e9087 !e9079 Sa
 708              		.loc 1 488 0
 709              		.cfi_startproc
 710              		@ args = 0, pretend = 0, frame = 16
 711              		@ frame_needed = 0, uses_anonymous_args = 0
 712              	.LVL93:
 713 0000 2DE9F043 		push	{r4, r5, r6, r7, r8, r9, lr}
 714              		.cfi_def_cfa_offset 28
 715              		.cfi_offset 4, -28
 716              		.cfi_offset 5, -24
 717              		.cfi_offset 6, -20
 718              		.cfi_offset 7, -16
 719              		.cfi_offset 8, -12
 720              		.cfi_offset 9, -8
 721              		.cfi_offset 14, -4
 722 0004 87B0     		sub	sp, sp, #28
 723              		.cfi_def_cfa_offset 56
 724 0006 0446     		mov	r4, r0
 725 0008 8946     		mov	r9, r1
 726 000a 9046     		mov	r8, r2
 727 000c 0393     		str	r3, [sp, #12]
 728              	.LVL94:
 501:..\FreeRTOS/stream_buffer.c **** 	{
 729              		.loc 1 501 0
 730 000e 037F     		ldrb	r3, [r0, #28]	@ zero_extendqisi2
 731              	.LVL95:
 732 0010 13F0010F 		tst	r3, #1
 733 0014 01D0     		beq	.L61
 503:..\FreeRTOS/stream_buffer.c **** 	}
 734              		.loc 1 503 0
 735 0016 171D     		adds	r7, r2, #4
 736              	.LVL96:
 737 0018 00E0     		b	.L54
 738              	.LVL97:
ARM GAS  C:\Users\Tri94\AppData\Local\Temp\ccHaJcja.s 			page 36


 739              	.L61:
 491:..\FreeRTOS/stream_buffer.c **** TimeOut_t xTimeOut;
 740              		.loc 1 491 0
 741 001a 1746     		mov	r7, r2
 742              	.LVL98:
 743              	.L54:
 510:..\FreeRTOS/stream_buffer.c **** 	{
 744              		.loc 1 510 0
 745 001c 039B     		ldr	r3, [sp, #12]
 746 001e 3BB3     		cbz	r3, .L62
 512:..\FreeRTOS/stream_buffer.c **** 
 747              		.loc 1 512 0
 748 0020 04A8     		add	r0, sp, #16
 749              	.LVL99:
 750 0022 FFF7FEFF 		bl	vTaskSetTimeOutState
 751              	.LVL100:
 752              	.L57:
 518:..\FreeRTOS/stream_buffer.c **** 			{
 753              		.loc 1 518 0
 754 0026 FFF7FEFF 		bl	vPortEnterCritical
 755              	.LVL101:
 520:..\FreeRTOS/stream_buffer.c **** 
 756              		.loc 1 520 0
 757 002a 2046     		mov	r0, r4
 758 002c FFF7FEFF 		bl	xStreamBufferSpacesAvailable
 759              	.LVL102:
 760 0030 0646     		mov	r6, r0
 761              	.LVL103:
 522:..\FreeRTOS/stream_buffer.c **** 				{
 762              		.loc 1 522 0
 763 0032 8742     		cmp	r7, r0
 764 0034 19D9     		bls	.L56
 525:..\FreeRTOS/stream_buffer.c **** 
 765              		.loc 1 525 0
 766 0036 0020     		movs	r0, #0
 767              	.LVL104:
 768 0038 FFF7FEFF 		bl	xTaskNotifyStateClear
 769              	.LVL105:
 529:..\FreeRTOS/stream_buffer.c **** 				}
 770              		.loc 1 529 0
 771 003c FFF7FEFF 		bl	xTaskGetCurrentTaskHandle
 772              	.LVL106:
 773 0040 6061     		str	r0, [r4, #20]
 537:..\FreeRTOS/stream_buffer.c **** 
 774              		.loc 1 537 0
 775 0042 FFF7FEFF 		bl	vPortExitCritical
 776              	.LVL107:
 540:..\FreeRTOS/stream_buffer.c **** 			pxStreamBuffer->xTaskWaitingToSend = NULL;
 777              		.loc 1 540 0
 778 0046 06AD     		add	r5, sp, #24
 779 0048 55F80C3D 		ldr	r3, [r5, #-12]!
 780 004c 0022     		movs	r2, #0
 781 004e 4FF0FF31 		mov	r1, #-1
 782 0052 1046     		mov	r0, r2
 783 0054 FFF7FEFF 		bl	xTaskNotifyWait
 784              	.LVL108:
 541:..\FreeRTOS/stream_buffer.c **** 
ARM GAS  C:\Users\Tri94\AppData\Local\Temp\ccHaJcja.s 			page 37


 785              		.loc 1 541 0
 786 0058 0023     		movs	r3, #0
 787 005a 6361     		str	r3, [r4, #20]
 543:..\FreeRTOS/stream_buffer.c **** 	}
 788              		.loc 1 543 0
 789 005c 2946     		mov	r1, r5
 790 005e 04A8     		add	r0, sp, #16
 791 0060 FFF7FEFF 		bl	xTaskCheckForTimeOut
 792              	.LVL109:
 793 0064 0028     		cmp	r0, #0
 794 0066 DED0     		beq	.L57
 795 0068 03E0     		b	.L55
 796              	.LVL110:
 797              	.L56:
 533:..\FreeRTOS/stream_buffer.c **** 					break;
 798              		.loc 1 533 0
 799 006a FFF7FEFF 		bl	vPortExitCritical
 800              	.LVL111:
 534:..\FreeRTOS/stream_buffer.c **** 				}
 801              		.loc 1 534 0
 802 006e 00E0     		b	.L55
 803              	.LVL112:
 804              	.L62:
 490:..\FreeRTOS/stream_buffer.c **** size_t xRequiredSpace = xDataLengthBytes;
 805              		.loc 1 490 0
 806 0070 0026     		movs	r6, #0
 807              	.LVL113:
 808              	.L55:
 550:..\FreeRTOS/stream_buffer.c **** 	{
 809              		.loc 1 550 0
 810 0072 1EB9     		cbnz	r6, .L58
 552:..\FreeRTOS/stream_buffer.c **** 	}
 811              		.loc 1 552 0
 812 0074 2046     		mov	r0, r4
 813 0076 FFF7FEFF 		bl	xStreamBufferSpacesAvailable
 814              	.LVL114:
 815 007a 0646     		mov	r6, r0
 816              	.LVL115:
 817              	.L58:
 559:..\FreeRTOS/stream_buffer.c **** 
 818              		.loc 1 559 0
 819 007c 0097     		str	r7, [sp]
 820 007e 3346     		mov	r3, r6
 821 0080 4246     		mov	r2, r8
 822 0082 4946     		mov	r1, r9
 823 0084 2046     		mov	r0, r4
 824 0086 FFF7FEFF 		bl	prvWriteMessageToBuffer
 825              	.LVL116:
 561:..\FreeRTOS/stream_buffer.c **** 	{
 826              		.loc 1 561 0
 827 008a 0546     		mov	r5, r0
 828 008c 98B1     		cbz	r0, .L59
 566:..\FreeRTOS/stream_buffer.c **** 		{
 829              		.loc 1 566 0
 830 008e 2046     		mov	r0, r4
 831              	.LVL117:
 832 0090 FFF7FEFF 		bl	prvBytesInBuffer
ARM GAS  C:\Users\Tri94\AppData\Local\Temp\ccHaJcja.s 			page 38


 833              	.LVL118:
 834 0094 E368     		ldr	r3, [r4, #12]
 835 0096 9842     		cmp	r0, r3
 836 0098 0DD3     		bcc	.L59
 568:..\FreeRTOS/stream_buffer.c **** 		}
 837              		.loc 1 568 0
 838 009a FFF7FEFF 		bl	vTaskSuspendAll
 839              	.LVL119:
 840 009e 2369     		ldr	r3, [r4, #16]
 841 00a0 3BB1     		cbz	r3, .L60
 568:..\FreeRTOS/stream_buffer.c **** 		}
 842              		.loc 1 568 0 is_stmt 0 discriminator 1
 843 00a2 2069     		ldr	r0, [r4, #16]
 844 00a4 0023     		movs	r3, #0
 845 00a6 1A46     		mov	r2, r3
 846 00a8 1946     		mov	r1, r3
 847 00aa FFF7FEFF 		bl	xTaskGenericNotify
 848              	.LVL120:
 849 00ae 0023     		movs	r3, #0
 850 00b0 2361     		str	r3, [r4, #16]
 851              	.L60:
 568:..\FreeRTOS/stream_buffer.c **** 		}
 852              		.loc 1 568 0 discriminator 3
 853 00b2 FFF7FEFF 		bl	xTaskResumeAll
 854              	.LVL121:
 855              	.L59:
 582:..\FreeRTOS/stream_buffer.c **** /*-----------------------------------------------------------*/
 856              		.loc 1 582 0 is_stmt 1
 857 00b6 2846     		mov	r0, r5
 858 00b8 07B0     		add	sp, sp, #28
 859              		.cfi_def_cfa_offset 28
 860              		@ sp needed
 861 00ba BDE8F083 		pop	{r4, r5, r6, r7, r8, r9, pc}
 862              		.cfi_endproc
 863              	.LFE75:
 864              		.size	xStreamBufferSend, .-xStreamBufferSend
 865 00be 00BF     		.section	.text.xStreamBufferSendFromISR,"ax",%progbits
 866              		.align	2
 867              		.global	xStreamBufferSendFromISR
 868              		.thumb
 869              		.thumb_func
 870              		.type	xStreamBufferSendFromISR, %function
 871              	xStreamBufferSendFromISR:
 872              	.LFB76:
 589:..\FreeRTOS/stream_buffer.c **** StreamBuffer_t * const pxStreamBuffer = ( StreamBuffer_t * ) xStreamBuffer; /*lint !e9087 !e9079 Sa
 873              		.loc 1 589 0
 874              		.cfi_startproc
 875              		@ args = 0, pretend = 0, frame = 0
 876              		@ frame_needed = 0, uses_anonymous_args = 0
 877              	.LVL122:
 878 0000 2DE9F041 		push	{r4, r5, r6, r7, r8, lr}
 879              		.cfi_def_cfa_offset 24
 880              		.cfi_offset 4, -24
 881              		.cfi_offset 5, -20
 882              		.cfi_offset 6, -16
 883              		.cfi_offset 7, -12
 884              		.cfi_offset 8, -8
ARM GAS  C:\Users\Tri94\AppData\Local\Temp\ccHaJcja.s 			page 39


 885              		.cfi_offset 14, -4
 886 0004 82B0     		sub	sp, sp, #8
 887              		.cfi_def_cfa_offset 32
 888 0006 0446     		mov	r4, r0
 889 0008 0E46     		mov	r6, r1
 890 000a 1546     		mov	r5, r2
 891 000c 9846     		mov	r8, r3
 892              	.LVL123:
 601:..\FreeRTOS/stream_buffer.c **** 	{
 893              		.loc 1 601 0
 894 000e 037F     		ldrb	r3, [r0, #28]	@ zero_extendqisi2
 895              	.LVL124:
 896 0010 13F0010F 		tst	r3, #1
 897 0014 01D0     		beq	.L68
 603:..\FreeRTOS/stream_buffer.c **** 	}
 898              		.loc 1 603 0
 899 0016 171D     		adds	r7, r2, #4
 900              	.LVL125:
 901 0018 00E0     		b	.L65
 902              	.LVL126:
 903              	.L68:
 592:..\FreeRTOS/stream_buffer.c **** 
 904              		.loc 1 592 0
 905 001a 1746     		mov	r7, r2
 906              	.LVL127:
 907              	.L65:
 610:..\FreeRTOS/stream_buffer.c **** 	xReturn = prvWriteMessageToBuffer( pxStreamBuffer, pvTxData, xDataLengthBytes, xSpace, xRequiredSp
 908              		.loc 1 610 0
 909 001c 2046     		mov	r0, r4
 910              	.LVL128:
 911 001e FFF7FEFF 		bl	xStreamBufferSpacesAvailable
 912              	.LVL129:
 611:..\FreeRTOS/stream_buffer.c **** 
 913              		.loc 1 611 0
 914 0022 0097     		str	r7, [sp]
 915 0024 0346     		mov	r3, r0
 916 0026 2A46     		mov	r2, r5
 917 0028 3146     		mov	r1, r6
 918 002a 2046     		mov	r0, r4
 919              	.LVL130:
 920 002c FFF7FEFF 		bl	prvWriteMessageToBuffer
 921              	.LVL131:
 613:..\FreeRTOS/stream_buffer.c **** 	{
 922              		.loc 1 613 0
 923 0030 0546     		mov	r5, r0
 924              	.LVL132:
 925 0032 E8B1     		cbz	r0, .L66
 616:..\FreeRTOS/stream_buffer.c **** 		{
 926              		.loc 1 616 0
 927 0034 2046     		mov	r0, r4
 928              	.LVL133:
 929 0036 FFF7FEFF 		bl	prvBytesInBuffer
 930              	.LVL134:
 931 003a E368     		ldr	r3, [r4, #12]
 932 003c 9842     		cmp	r0, r3
 933 003e 17D3     		bcc	.L66
 934              	.LBB20:
ARM GAS  C:\Users\Tri94\AppData\Local\Temp\ccHaJcja.s 			page 40


 935              	.LBB21:
 936              	.LBB22:
 937              		.file 2 "..\\FreeRTOS\\portable\\GCC\\ARM_CM3/portmacro.h"
   1:..\FreeRTOS\portable\GCC\ARM_CM3/portmacro.h **** /*
   2:..\FreeRTOS\portable\GCC\ARM_CM3/portmacro.h ****  * FreeRTOS Kernel V10.0.0
   3:..\FreeRTOS\portable\GCC\ARM_CM3/portmacro.h ****  * Copyright (C) 2017 Amazon.com, Inc. or its affiliates.  All Rights Reserved.
   4:..\FreeRTOS\portable\GCC\ARM_CM3/portmacro.h ****  *
   5:..\FreeRTOS\portable\GCC\ARM_CM3/portmacro.h ****  * Permission is hereby granted, free of charge, to any person obtaining a copy of
   6:..\FreeRTOS\portable\GCC\ARM_CM3/portmacro.h ****  * this software and associated documentation files (the "Software"), to deal in
   7:..\FreeRTOS\portable\GCC\ARM_CM3/portmacro.h ****  * the Software without restriction, including without limitation the rights to
   8:..\FreeRTOS\portable\GCC\ARM_CM3/portmacro.h ****  * use, copy, modify, merge, publish, distribute, sublicense, and/or sell copies of
   9:..\FreeRTOS\portable\GCC\ARM_CM3/portmacro.h ****  * the Software, and to permit persons to whom the Software is furnished to do so,
  10:..\FreeRTOS\portable\GCC\ARM_CM3/portmacro.h ****  * subject to the following conditions:
  11:..\FreeRTOS\portable\GCC\ARM_CM3/portmacro.h ****  *
  12:..\FreeRTOS\portable\GCC\ARM_CM3/portmacro.h ****  * The above copyright notice and this permission notice shall be included in all
  13:..\FreeRTOS\portable\GCC\ARM_CM3/portmacro.h ****  * copies or substantial portions of the Software. If you wish to use our Amazon
  14:..\FreeRTOS\portable\GCC\ARM_CM3/portmacro.h ****  * FreeRTOS name, please do so in a fair use way that does not cause confusion.
  15:..\FreeRTOS\portable\GCC\ARM_CM3/portmacro.h ****  *
  16:..\FreeRTOS\portable\GCC\ARM_CM3/portmacro.h ****  * THE SOFTWARE IS PROVIDED "AS IS", WITHOUT WARRANTY OF ANY KIND, EXPRESS OR
  17:..\FreeRTOS\portable\GCC\ARM_CM3/portmacro.h ****  * IMPLIED, INCLUDING BUT NOT LIMITED TO THE WARRANTIES OF MERCHANTABILITY, FITNESS
  18:..\FreeRTOS\portable\GCC\ARM_CM3/portmacro.h ****  * FOR A PARTICULAR PURPOSE AND NONINFRINGEMENT. IN NO EVENT SHALL THE AUTHORS OR
  19:..\FreeRTOS\portable\GCC\ARM_CM3/portmacro.h ****  * COPYRIGHT HOLDERS BE LIABLE FOR ANY CLAIM, DAMAGES OR OTHER LIABILITY, WHETHER
  20:..\FreeRTOS\portable\GCC\ARM_CM3/portmacro.h ****  * IN AN ACTION OF CONTRACT, TORT OR OTHERWISE, ARISING FROM, OUT OF OR IN
  21:..\FreeRTOS\portable\GCC\ARM_CM3/portmacro.h ****  * CONNECTION WITH THE SOFTWARE OR THE USE OR OTHER DEALINGS IN THE SOFTWARE.
  22:..\FreeRTOS\portable\GCC\ARM_CM3/portmacro.h ****  *
  23:..\FreeRTOS\portable\GCC\ARM_CM3/portmacro.h ****  * http://www.FreeRTOS.org
  24:..\FreeRTOS\portable\GCC\ARM_CM3/portmacro.h ****  * http://aws.amazon.com/freertos
  25:..\FreeRTOS\portable\GCC\ARM_CM3/portmacro.h ****  *
  26:..\FreeRTOS\portable\GCC\ARM_CM3/portmacro.h ****  * 1 tab == 4 spaces!
  27:..\FreeRTOS\portable\GCC\ARM_CM3/portmacro.h ****  */
  28:..\FreeRTOS\portable\GCC\ARM_CM3/portmacro.h **** #include <stdio.h>
  29:..\FreeRTOS\portable\GCC\ARM_CM3/portmacro.h **** #include <stdlib.h>
  30:..\FreeRTOS\portable\GCC\ARM_CM3/portmacro.h **** #include <stdint.h>
  31:..\FreeRTOS\portable\GCC\ARM_CM3/portmacro.h **** #include <stdbool.h>
  32:..\FreeRTOS\portable\GCC\ARM_CM3/portmacro.h **** #include "projdefs.h"
  33:..\FreeRTOS\portable\GCC\ARM_CM3/portmacro.h **** 
  34:..\FreeRTOS\portable\GCC\ARM_CM3/portmacro.h **** 
  35:..\FreeRTOS\portable\GCC\ARM_CM3/portmacro.h **** #ifndef PORTMACRO_H
  36:..\FreeRTOS\portable\GCC\ARM_CM3/portmacro.h **** #define PORTMACRO_H
  37:..\FreeRTOS\portable\GCC\ARM_CM3/portmacro.h **** 
  38:..\FreeRTOS\portable\GCC\ARM_CM3/portmacro.h **** #ifdef __cplusplus
  39:..\FreeRTOS\portable\GCC\ARM_CM3/portmacro.h **** extern "C" {
  40:..\FreeRTOS\portable\GCC\ARM_CM3/portmacro.h **** #endif
  41:..\FreeRTOS\portable\GCC\ARM_CM3/portmacro.h **** 
  42:..\FreeRTOS\portable\GCC\ARM_CM3/portmacro.h **** /*-----------------------------------------------------------
  43:..\FreeRTOS\portable\GCC\ARM_CM3/portmacro.h ****  * Port specific definitions.
  44:..\FreeRTOS\portable\GCC\ARM_CM3/portmacro.h ****  *
  45:..\FreeRTOS\portable\GCC\ARM_CM3/portmacro.h ****  * The settings in this file configure FreeRTOS correctly for the
  46:..\FreeRTOS\portable\GCC\ARM_CM3/portmacro.h ****  * given hardware and compiler.
  47:..\FreeRTOS\portable\GCC\ARM_CM3/portmacro.h ****  *
  48:..\FreeRTOS\portable\GCC\ARM_CM3/portmacro.h ****  * These settings should not be altered.
  49:..\FreeRTOS\portable\GCC\ARM_CM3/portmacro.h ****  *-----------------------------------------------------------
  50:..\FreeRTOS\portable\GCC\ARM_CM3/portmacro.h ****  */
  51:..\FreeRTOS\portable\GCC\ARM_CM3/portmacro.h **** 
  52:..\FreeRTOS\portable\GCC\ARM_CM3/portmacro.h **** 
  53:..\FreeRTOS\portable\GCC\ARM_CM3/portmacro.h **** // Added by Airs
  54:..\FreeRTOS\portable\GCC\ARM_CM3/portmacro.h **** #define portALIGNMENT_ASSERT_pxCurrentTCB ( void )
ARM GAS  C:\Users\Tri94\AppData\Local\Temp\ccHaJcja.s 			page 41


  55:..\FreeRTOS\portable\GCC\ARM_CM3/portmacro.h **** 
  56:..\FreeRTOS\portable\GCC\ARM_CM3/portmacro.h **** 
  57:..\FreeRTOS\portable\GCC\ARM_CM3/portmacro.h **** /* Type definitions. */
  58:..\FreeRTOS\portable\GCC\ARM_CM3/portmacro.h **** #define portCHAR		char
  59:..\FreeRTOS\portable\GCC\ARM_CM3/portmacro.h **** #define portFLOAT		float
  60:..\FreeRTOS\portable\GCC\ARM_CM3/portmacro.h **** #define portDOUBLE		double
  61:..\FreeRTOS\portable\GCC\ARM_CM3/portmacro.h **** #define portLONG		long
  62:..\FreeRTOS\portable\GCC\ARM_CM3/portmacro.h **** #define portSHORT		short
  63:..\FreeRTOS\portable\GCC\ARM_CM3/portmacro.h **** #define portSTACK_TYPE	uint32_t
  64:..\FreeRTOS\portable\GCC\ARM_CM3/portmacro.h **** #define portBASE_TYPE	long
  65:..\FreeRTOS\portable\GCC\ARM_CM3/portmacro.h **** 
  66:..\FreeRTOS\portable\GCC\ARM_CM3/portmacro.h **** typedef portSTACK_TYPE StackType_t;
  67:..\FreeRTOS\portable\GCC\ARM_CM3/portmacro.h **** typedef long BaseType_t;
  68:..\FreeRTOS\portable\GCC\ARM_CM3/portmacro.h **** typedef unsigned long UBaseType_t;
  69:..\FreeRTOS\portable\GCC\ARM_CM3/portmacro.h **** 
  70:..\FreeRTOS\portable\GCC\ARM_CM3/portmacro.h **** #if( configUSE_16_BIT_TICKS == 1 )
  71:..\FreeRTOS\portable\GCC\ARM_CM3/portmacro.h **** 	typedef uint16_t TickType_t;
  72:..\FreeRTOS\portable\GCC\ARM_CM3/portmacro.h **** 	#define portMAX_DELAY ( TickType_t ) 0xffff
  73:..\FreeRTOS\portable\GCC\ARM_CM3/portmacro.h **** #else
  74:..\FreeRTOS\portable\GCC\ARM_CM3/portmacro.h **** 	typedef uint32_t TickType_t;
  75:..\FreeRTOS\portable\GCC\ARM_CM3/portmacro.h **** 	#define portMAX_DELAY ( TickType_t ) 0xffffffffUL
  76:..\FreeRTOS\portable\GCC\ARM_CM3/portmacro.h **** 
  77:..\FreeRTOS\portable\GCC\ARM_CM3/portmacro.h **** 	/* 32-bit tick type on a 32-bit architecture, so reads of the tick count do
  78:..\FreeRTOS\portable\GCC\ARM_CM3/portmacro.h **** 	not need to be guarded with a critical section. */
  79:..\FreeRTOS\portable\GCC\ARM_CM3/portmacro.h **** 	#define portTICK_TYPE_IS_ATOMIC 1
  80:..\FreeRTOS\portable\GCC\ARM_CM3/portmacro.h **** #endif
  81:..\FreeRTOS\portable\GCC\ARM_CM3/portmacro.h **** /*-----------------------------------------------------------*/
  82:..\FreeRTOS\portable\GCC\ARM_CM3/portmacro.h **** 
  83:..\FreeRTOS\portable\GCC\ARM_CM3/portmacro.h **** /* Architecture specifics. */
  84:..\FreeRTOS\portable\GCC\ARM_CM3/portmacro.h **** #define portSTACK_GROWTH			( -1 )
  85:..\FreeRTOS\portable\GCC\ARM_CM3/portmacro.h **** #define portTICK_PERIOD_MS			( ( TickType_t ) 1000 / configTICK_RATE_HZ )
  86:..\FreeRTOS\portable\GCC\ARM_CM3/portmacro.h **** #define portBYTE_ALIGNMENT			8
  87:..\FreeRTOS\portable\GCC\ARM_CM3/portmacro.h **** /*-----------------------------------------------------------*/
  88:..\FreeRTOS\portable\GCC\ARM_CM3/portmacro.h **** 
  89:..\FreeRTOS\portable\GCC\ARM_CM3/portmacro.h **** /* Scheduler utilities. */
  90:..\FreeRTOS\portable\GCC\ARM_CM3/portmacro.h **** #define portYIELD() 															\
  91:..\FreeRTOS\portable\GCC\ARM_CM3/portmacro.h **** {																				\
  92:..\FreeRTOS\portable\GCC\ARM_CM3/portmacro.h **** 	/* Set a PendSV to request a context switch. */								\
  93:..\FreeRTOS\portable\GCC\ARM_CM3/portmacro.h **** 	portNVIC_INT_CTRL_REG = portNVIC_PENDSVSET_BIT;								\
  94:..\FreeRTOS\portable\GCC\ARM_CM3/portmacro.h **** 																				\
  95:..\FreeRTOS\portable\GCC\ARM_CM3/portmacro.h **** 	/* Barriers are normally not required but do ensure the code is completely	\
  96:..\FreeRTOS\portable\GCC\ARM_CM3/portmacro.h **** 	within the specified behaviour for the architecture. */						\
  97:..\FreeRTOS\portable\GCC\ARM_CM3/portmacro.h **** 	__asm volatile( "dsb" ::: "memory" );										\
  98:..\FreeRTOS\portable\GCC\ARM_CM3/portmacro.h **** 	__asm volatile( "isb" );													\
  99:..\FreeRTOS\portable\GCC\ARM_CM3/portmacro.h **** }
 100:..\FreeRTOS\portable\GCC\ARM_CM3/portmacro.h **** 
 101:..\FreeRTOS\portable\GCC\ARM_CM3/portmacro.h **** #define portNVIC_INT_CTRL_REG		( * ( ( volatile uint32_t * ) 0xe000ed04 ) )
 102:..\FreeRTOS\portable\GCC\ARM_CM3/portmacro.h **** #define portNVIC_PENDSVSET_BIT		( 1UL << 28UL )
 103:..\FreeRTOS\portable\GCC\ARM_CM3/portmacro.h **** #define portEND_SWITCHING_ISR( xSwitchRequired ) if( xSwitchRequired != pdFALSE ) portYIELD()
 104:..\FreeRTOS\portable\GCC\ARM_CM3/portmacro.h **** #define portYIELD_FROM_ISR( x ) portEND_SWITCHING_ISR( x )
 105:..\FreeRTOS\portable\GCC\ARM_CM3/portmacro.h **** /*-----------------------------------------------------------*/
 106:..\FreeRTOS\portable\GCC\ARM_CM3/portmacro.h **** 
 107:..\FreeRTOS\portable\GCC\ARM_CM3/portmacro.h **** /* Critical section management. */
 108:..\FreeRTOS\portable\GCC\ARM_CM3/portmacro.h **** extern void vPortEnterCritical( void );
 109:..\FreeRTOS\portable\GCC\ARM_CM3/portmacro.h **** extern void vPortExitCritical( void );
 110:..\FreeRTOS\portable\GCC\ARM_CM3/portmacro.h **** #define portSET_INTERRUPT_MASK_FROM_ISR()		ulPortRaiseBASEPRI()
 111:..\FreeRTOS\portable\GCC\ARM_CM3/portmacro.h **** #define portCLEAR_INTERRUPT_MASK_FROM_ISR(x)	vPortSetBASEPRI(x)
ARM GAS  C:\Users\Tri94\AppData\Local\Temp\ccHaJcja.s 			page 42


 112:..\FreeRTOS\portable\GCC\ARM_CM3/portmacro.h **** #define portDISABLE_INTERRUPTS()				vPortRaiseBASEPRI()
 113:..\FreeRTOS\portable\GCC\ARM_CM3/portmacro.h **** #define portENABLE_INTERRUPTS()					vPortSetBASEPRI(0)
 114:..\FreeRTOS\portable\GCC\ARM_CM3/portmacro.h **** #define portENTER_CRITICAL()					vPortEnterCritical()
 115:..\FreeRTOS\portable\GCC\ARM_CM3/portmacro.h **** #define portEXIT_CRITICAL()						vPortExitCritical()
 116:..\FreeRTOS\portable\GCC\ARM_CM3/portmacro.h **** 
 117:..\FreeRTOS\portable\GCC\ARM_CM3/portmacro.h **** /*-----------------------------------------------------------*/
 118:..\FreeRTOS\portable\GCC\ARM_CM3/portmacro.h **** 
 119:..\FreeRTOS\portable\GCC\ARM_CM3/portmacro.h **** /* Task function macros as described on the FreeRTOS.org WEB site.  These are
 120:..\FreeRTOS\portable\GCC\ARM_CM3/portmacro.h **** not necessary for to use this port.  They are defined so the common demo files
 121:..\FreeRTOS\portable\GCC\ARM_CM3/portmacro.h **** (which build with all the ports) will build. */
 122:..\FreeRTOS\portable\GCC\ARM_CM3/portmacro.h **** #define portTASK_FUNCTION_PROTO( vFunction, pvParameters ) void vFunction( void *pvParameters )
 123:..\FreeRTOS\portable\GCC\ARM_CM3/portmacro.h **** #define portTASK_FUNCTION( vFunction, pvParameters ) void vFunction( void *pvParameters )
 124:..\FreeRTOS\portable\GCC\ARM_CM3/portmacro.h **** /*-----------------------------------------------------------*/
 125:..\FreeRTOS\portable\GCC\ARM_CM3/portmacro.h **** 
 126:..\FreeRTOS\portable\GCC\ARM_CM3/portmacro.h **** /* Tickless idle/low power functionality. */
 127:..\FreeRTOS\portable\GCC\ARM_CM3/portmacro.h **** #ifndef portSUPPRESS_TICKS_AND_SLEEP
 128:..\FreeRTOS\portable\GCC\ARM_CM3/portmacro.h **** 	extern void vPortSuppressTicksAndSleep( TickType_t xExpectedIdleTime );
 129:..\FreeRTOS\portable\GCC\ARM_CM3/portmacro.h **** 	#define portSUPPRESS_TICKS_AND_SLEEP( xExpectedIdleTime ) vPortSuppressTicksAndSleep( xExpectedIdl
 130:..\FreeRTOS\portable\GCC\ARM_CM3/portmacro.h **** #endif
 131:..\FreeRTOS\portable\GCC\ARM_CM3/portmacro.h **** /*-----------------------------------------------------------*/
 132:..\FreeRTOS\portable\GCC\ARM_CM3/portmacro.h **** 
 133:..\FreeRTOS\portable\GCC\ARM_CM3/portmacro.h **** /* Architecture specific optimisations. */
 134:..\FreeRTOS\portable\GCC\ARM_CM3/portmacro.h **** #ifndef configUSE_PORT_OPTIMISED_TASK_SELECTION
 135:..\FreeRTOS\portable\GCC\ARM_CM3/portmacro.h **** 	#define configUSE_PORT_OPTIMISED_TASK_SELECTION 1
 136:..\FreeRTOS\portable\GCC\ARM_CM3/portmacro.h **** #endif
 137:..\FreeRTOS\portable\GCC\ARM_CM3/portmacro.h **** 
 138:..\FreeRTOS\portable\GCC\ARM_CM3/portmacro.h **** #if configUSE_PORT_OPTIMISED_TASK_SELECTION == 1
 139:..\FreeRTOS\portable\GCC\ARM_CM3/portmacro.h **** 
 140:..\FreeRTOS\portable\GCC\ARM_CM3/portmacro.h **** 	/* Generic helper function. */
 141:..\FreeRTOS\portable\GCC\ARM_CM3/portmacro.h **** 	__attribute__( ( always_inline ) ) static inline uint8_t ucPortCountLeadingZeros( uint32_t ulBitma
 142:..\FreeRTOS\portable\GCC\ARM_CM3/portmacro.h **** 	{
 143:..\FreeRTOS\portable\GCC\ARM_CM3/portmacro.h **** 	uint8_t ucReturn;
 144:..\FreeRTOS\portable\GCC\ARM_CM3/portmacro.h **** 
 145:..\FreeRTOS\portable\GCC\ARM_CM3/portmacro.h **** 		__asm volatile ( "clz %0, %1" : "=r" ( ucReturn ) : "r" ( ulBitmap ) : "memory" );
 146:..\FreeRTOS\portable\GCC\ARM_CM3/portmacro.h **** 		return ucReturn;
 147:..\FreeRTOS\portable\GCC\ARM_CM3/portmacro.h **** 	}
 148:..\FreeRTOS\portable\GCC\ARM_CM3/portmacro.h **** 
 149:..\FreeRTOS\portable\GCC\ARM_CM3/portmacro.h **** 	/* Check the configuration. */
 150:..\FreeRTOS\portable\GCC\ARM_CM3/portmacro.h **** 	#if( configMAX_PRIORITIES > 32 )
 151:..\FreeRTOS\portable\GCC\ARM_CM3/portmacro.h **** 		#error configUSE_PORT_OPTIMISED_TASK_SELECTION can only be set to 1 when configMAX_PRIORITIES is 
 152:..\FreeRTOS\portable\GCC\ARM_CM3/portmacro.h **** 	#endif
 153:..\FreeRTOS\portable\GCC\ARM_CM3/portmacro.h **** 
 154:..\FreeRTOS\portable\GCC\ARM_CM3/portmacro.h **** 	/* Store/clear the ready priorities in a bit map. */
 155:..\FreeRTOS\portable\GCC\ARM_CM3/portmacro.h **** 	#define portRECORD_READY_PRIORITY( uxPriority, uxReadyPriorities ) ( uxReadyPriorities ) |= ( 1UL 
 156:..\FreeRTOS\portable\GCC\ARM_CM3/portmacro.h **** 	#define portRESET_READY_PRIORITY( uxPriority, uxReadyPriorities ) ( uxReadyPriorities ) &= ~( 1UL 
 157:..\FreeRTOS\portable\GCC\ARM_CM3/portmacro.h **** 
 158:..\FreeRTOS\portable\GCC\ARM_CM3/portmacro.h **** 	/*-----------------------------------------------------------*/
 159:..\FreeRTOS\portable\GCC\ARM_CM3/portmacro.h **** 
 160:..\FreeRTOS\portable\GCC\ARM_CM3/portmacro.h **** 	#define portGET_HIGHEST_PRIORITY( uxTopPriority, uxReadyPriorities ) uxTopPriority = ( 31UL - ( ui
 161:..\FreeRTOS\portable\GCC\ARM_CM3/portmacro.h **** 
 162:..\FreeRTOS\portable\GCC\ARM_CM3/portmacro.h **** #endif /* configUSE_PORT_OPTIMISED_TASK_SELECTION */
 163:..\FreeRTOS\portable\GCC\ARM_CM3/portmacro.h **** 
 164:..\FreeRTOS\portable\GCC\ARM_CM3/portmacro.h **** /*-----------------------------------------------------------*/
 165:..\FreeRTOS\portable\GCC\ARM_CM3/portmacro.h **** 
 166:..\FreeRTOS\portable\GCC\ARM_CM3/portmacro.h **** #ifdef configASSERT
 167:..\FreeRTOS\portable\GCC\ARM_CM3/portmacro.h **** 	void vPortValidateInterruptPriority( void );
 168:..\FreeRTOS\portable\GCC\ARM_CM3/portmacro.h **** 	#define portASSERT_IF_INTERRUPT_PRIORITY_INVALID() 	vPortValidateInterruptPriority()
ARM GAS  C:\Users\Tri94\AppData\Local\Temp\ccHaJcja.s 			page 43


 169:..\FreeRTOS\portable\GCC\ARM_CM3/portmacro.h **** #endif
 170:..\FreeRTOS\portable\GCC\ARM_CM3/portmacro.h **** 
 171:..\FreeRTOS\portable\GCC\ARM_CM3/portmacro.h **** /* portNOP() is not required by this port. */
 172:..\FreeRTOS\portable\GCC\ARM_CM3/portmacro.h **** #define portNOP()
 173:..\FreeRTOS\portable\GCC\ARM_CM3/portmacro.h **** 
 174:..\FreeRTOS\portable\GCC\ARM_CM3/portmacro.h **** #define portINLINE	__inline
 175:..\FreeRTOS\portable\GCC\ARM_CM3/portmacro.h **** 
 176:..\FreeRTOS\portable\GCC\ARM_CM3/portmacro.h **** #ifndef portFORCE_INLINE
 177:..\FreeRTOS\portable\GCC\ARM_CM3/portmacro.h **** 	#define portFORCE_INLINE inline __attribute__(( always_inline))
 178:..\FreeRTOS\portable\GCC\ARM_CM3/portmacro.h **** #endif
 179:..\FreeRTOS\portable\GCC\ARM_CM3/portmacro.h **** 
 180:..\FreeRTOS\portable\GCC\ARM_CM3/portmacro.h **** portFORCE_INLINE static BaseType_t xPortIsInsideInterrupt( void )
 181:..\FreeRTOS\portable\GCC\ARM_CM3/portmacro.h **** {
 182:..\FreeRTOS\portable\GCC\ARM_CM3/portmacro.h **** uint32_t ulCurrentInterrupt;
 183:..\FreeRTOS\portable\GCC\ARM_CM3/portmacro.h **** BaseType_t xReturn;
 184:..\FreeRTOS\portable\GCC\ARM_CM3/portmacro.h **** 
 185:..\FreeRTOS\portable\GCC\ARM_CM3/portmacro.h **** 	/* Obtain the number of the currently executing interrupt. */
 186:..\FreeRTOS\portable\GCC\ARM_CM3/portmacro.h **** 	__asm volatile( "mrs %0, ipsr" : "=r"( ulCurrentInterrupt ) :: "memory" );
 187:..\FreeRTOS\portable\GCC\ARM_CM3/portmacro.h **** 
 188:..\FreeRTOS\portable\GCC\ARM_CM3/portmacro.h **** 	if( ulCurrentInterrupt == 0 )
 189:..\FreeRTOS\portable\GCC\ARM_CM3/portmacro.h **** 	{
 190:..\FreeRTOS\portable\GCC\ARM_CM3/portmacro.h **** 		xReturn = pdFALSE;
 191:..\FreeRTOS\portable\GCC\ARM_CM3/portmacro.h **** 	}
 192:..\FreeRTOS\portable\GCC\ARM_CM3/portmacro.h **** 	else
 193:..\FreeRTOS\portable\GCC\ARM_CM3/portmacro.h **** 	{
 194:..\FreeRTOS\portable\GCC\ARM_CM3/portmacro.h **** 		xReturn = pdTRUE;
 195:..\FreeRTOS\portable\GCC\ARM_CM3/portmacro.h **** 	}
 196:..\FreeRTOS\portable\GCC\ARM_CM3/portmacro.h **** 
 197:..\FreeRTOS\portable\GCC\ARM_CM3/portmacro.h **** 	return xReturn;
 198:..\FreeRTOS\portable\GCC\ARM_CM3/portmacro.h **** }
 199:..\FreeRTOS\portable\GCC\ARM_CM3/portmacro.h **** 
 200:..\FreeRTOS\portable\GCC\ARM_CM3/portmacro.h **** /*-----------------------------------------------------------*/
 201:..\FreeRTOS\portable\GCC\ARM_CM3/portmacro.h **** 
 202:..\FreeRTOS\portable\GCC\ARM_CM3/portmacro.h **** portFORCE_INLINE static void vPortRaiseBASEPRI( void )
 203:..\FreeRTOS\portable\GCC\ARM_CM3/portmacro.h **** {
 204:..\FreeRTOS\portable\GCC\ARM_CM3/portmacro.h **** uint32_t ulNewBASEPRI;
 205:..\FreeRTOS\portable\GCC\ARM_CM3/portmacro.h **** 
 206:..\FreeRTOS\portable\GCC\ARM_CM3/portmacro.h **** 	__asm volatile
 207:..\FreeRTOS\portable\GCC\ARM_CM3/portmacro.h **** 	(
 208:..\FreeRTOS\portable\GCC\ARM_CM3/portmacro.h **** 		"	mov %0, %1												\n" \
 209:..\FreeRTOS\portable\GCC\ARM_CM3/portmacro.h **** 		"	msr basepri, %0											\n" \
 210:..\FreeRTOS\portable\GCC\ARM_CM3/portmacro.h **** 		"	isb														\n" \
 211:..\FreeRTOS\portable\GCC\ARM_CM3/portmacro.h **** 		"	dsb														\n" \
 212:..\FreeRTOS\portable\GCC\ARM_CM3/portmacro.h **** 		:"=r" (ulNewBASEPRI) : "i" ( configMAX_SYSCALL_INTERRUPT_PRIORITY ) : "memory"
 213:..\FreeRTOS\portable\GCC\ARM_CM3/portmacro.h **** 	);
 214:..\FreeRTOS\portable\GCC\ARM_CM3/portmacro.h **** }
 215:..\FreeRTOS\portable\GCC\ARM_CM3/portmacro.h **** 
 216:..\FreeRTOS\portable\GCC\ARM_CM3/portmacro.h **** /*-----------------------------------------------------------*/
 217:..\FreeRTOS\portable\GCC\ARM_CM3/portmacro.h **** 
 218:..\FreeRTOS\portable\GCC\ARM_CM3/portmacro.h **** portFORCE_INLINE static uint32_t ulPortRaiseBASEPRI( void )
 219:..\FreeRTOS\portable\GCC\ARM_CM3/portmacro.h **** {
 220:..\FreeRTOS\portable\GCC\ARM_CM3/portmacro.h **** uint32_t ulOriginalBASEPRI, ulNewBASEPRI;
 221:..\FreeRTOS\portable\GCC\ARM_CM3/portmacro.h **** 
 222:..\FreeRTOS\portable\GCC\ARM_CM3/portmacro.h **** 	__asm volatile
 938              		.loc 2 222 0
 939              		.syntax unified
 940              	@ 222 "..\FreeRTOS\portable\GCC\ARM_CM3/portmacro.h" 1
ARM GAS  C:\Users\Tri94\AppData\Local\Temp\ccHaJcja.s 			page 44


 941 0040 EFF31186 			mrs r6, basepri											
 942 0044 4FF0A003 		mov r3, #160												
 943 0048 83F31188 		msr basepri, r3											
 944 004c BFF36F8F 		isb														
 945 0050 BFF34F8F 		dsb														
 946              	
 947              	@ 0 "" 2
 948              	.LVL135:
 949              		.thumb
 950              		.syntax unified
 951              	.LBE22:
 952              	.LBE21:
 618:..\FreeRTOS/stream_buffer.c **** 		}
 953              		.loc 1 618 0
 954 0054 2369     		ldr	r3, [r4, #16]
 955 0056 4BB1     		cbz	r3, .L67
 618:..\FreeRTOS/stream_buffer.c **** 		}
 956              		.loc 1 618 0 is_stmt 0 discriminator 1
 957 0058 2069     		ldr	r0, [r4, #16]
 958 005a CDF80080 		str	r8, [sp]
 959 005e 0023     		movs	r3, #0
 960 0060 1A46     		mov	r2, r3
 961 0062 1946     		mov	r1, r3
 962 0064 FFF7FEFF 		bl	xTaskGenericNotifyFromISR
 963              	.LVL136:
 964 0068 0023     		movs	r3, #0
 965 006a 2361     		str	r3, [r4, #16]
 966              	.L67:
 967              	.LVL137:
 968              	.LBB23:
 969              	.LBB24:
 223:..\FreeRTOS\portable\GCC\ARM_CM3/portmacro.h **** 	(
 224:..\FreeRTOS\portable\GCC\ARM_CM3/portmacro.h **** 		"	mrs %0, basepri											\n" \
 225:..\FreeRTOS\portable\GCC\ARM_CM3/portmacro.h **** 		"	mov %1, %2												\n" \
 226:..\FreeRTOS\portable\GCC\ARM_CM3/portmacro.h **** 		"	msr basepri, %1											\n" \
 227:..\FreeRTOS\portable\GCC\ARM_CM3/portmacro.h **** 		"	isb														\n" \
 228:..\FreeRTOS\portable\GCC\ARM_CM3/portmacro.h **** 		"	dsb														\n" \
 229:..\FreeRTOS\portable\GCC\ARM_CM3/portmacro.h **** 		:"=r" (ulOriginalBASEPRI), "=r" (ulNewBASEPRI) : "i" ( configMAX_SYSCALL_INTERRUPT_PRIORITY ) : "
 230:..\FreeRTOS\portable\GCC\ARM_CM3/portmacro.h **** 	);
 231:..\FreeRTOS\portable\GCC\ARM_CM3/portmacro.h **** 
 232:..\FreeRTOS\portable\GCC\ARM_CM3/portmacro.h **** 	/* This return will not be reached but is necessary to prevent compiler
 233:..\FreeRTOS\portable\GCC\ARM_CM3/portmacro.h **** 	warnings. */
 234:..\FreeRTOS\portable\GCC\ARM_CM3/portmacro.h **** 	return ulOriginalBASEPRI;
 235:..\FreeRTOS\portable\GCC\ARM_CM3/portmacro.h **** }
 236:..\FreeRTOS\portable\GCC\ARM_CM3/portmacro.h **** /*-----------------------------------------------------------*/
 237:..\FreeRTOS\portable\GCC\ARM_CM3/portmacro.h **** 
 238:..\FreeRTOS\portable\GCC\ARM_CM3/portmacro.h **** portFORCE_INLINE static void vPortSetBASEPRI( uint32_t ulNewMaskValue )
 239:..\FreeRTOS\portable\GCC\ARM_CM3/portmacro.h **** {
 240:..\FreeRTOS\portable\GCC\ARM_CM3/portmacro.h **** 	__asm volatile
 970              		.loc 2 240 0 is_stmt 1 discriminator 3
 971              		.syntax unified
 972              	@ 240 "..\FreeRTOS\portable\GCC\ARM_CM3/portmacro.h" 1
 973 006c 86F31188 			msr basepri, r6	
 974              	@ 0 "" 2
 975              	.LVL138:
 976              		.thumb
 977              		.syntax unified
ARM GAS  C:\Users\Tri94\AppData\Local\Temp\ccHaJcja.s 			page 45


 978              	.L66:
 979              	.LBE24:
 980              	.LBE23:
 981              	.LBE20:
 633:..\FreeRTOS/stream_buffer.c **** /*-----------------------------------------------------------*/
 982              		.loc 1 633 0
 983 0070 2846     		mov	r0, r5
 984 0072 02B0     		add	sp, sp, #8
 985              		.cfi_def_cfa_offset 24
 986              		@ sp needed
 987 0074 BDE8F081 		pop	{r4, r5, r6, r7, r8, pc}
 988              		.cfi_endproc
 989              	.LFE76:
 990              		.size	xStreamBufferSendFromISR, .-xStreamBufferSendFromISR
 991              		.section	.text.xStreamBufferReceive,"ax",%progbits
 992              		.align	2
 993              		.global	xStreamBufferReceive
 994              		.thumb
 995              		.thumb_func
 996              		.type	xStreamBufferReceive, %function
 997              	xStreamBufferReceive:
 998              	.LFB78:
 692:..\FreeRTOS/stream_buffer.c **** StreamBuffer_t * const pxStreamBuffer = ( StreamBuffer_t * ) xStreamBuffer; /*lint !e9087 !e9079 Sa
 999              		.loc 1 692 0
 1000              		.cfi_startproc
 1001              		@ args = 0, pretend = 0, frame = 0
 1002              		@ frame_needed = 0, uses_anonymous_args = 0
 1003              	.LVL139:
 1004 0000 2DE9F043 		push	{r4, r5, r6, r7, r8, r9, lr}
 1005              		.cfi_def_cfa_offset 28
 1006              		.cfi_offset 4, -28
 1007              		.cfi_offset 5, -24
 1008              		.cfi_offset 6, -20
 1009              		.cfi_offset 7, -16
 1010              		.cfi_offset 8, -12
 1011              		.cfi_offset 9, -8
 1012              		.cfi_offset 14, -4
 1013 0004 83B0     		sub	sp, sp, #12
 1014              		.cfi_def_cfa_offset 40
 1015 0006 0446     		mov	r4, r0
 1016 0008 8846     		mov	r8, r1
 1017 000a 9146     		mov	r9, r2
 1018 000c 1F46     		mov	r7, r3
 1019              	.LVL140:
 704:..\FreeRTOS/stream_buffer.c **** 	{
 1020              		.loc 1 704 0
 1021 000e 037F     		ldrb	r3, [r0, #28]	@ zero_extendqisi2
 1022              	.LVL141:
 1023 0010 13F0010F 		tst	r3, #1
 1024 0014 01D0     		beq	.L77
 706:..\FreeRTOS/stream_buffer.c **** 	}
 1025              		.loc 1 706 0
 1026 0016 0426     		movs	r6, #4
 1027 0018 00E0     		b	.L71
 1028              	.L77:
 710:..\FreeRTOS/stream_buffer.c **** 	}
 1029              		.loc 1 710 0
ARM GAS  C:\Users\Tri94\AppData\Local\Temp\ccHaJcja.s 			page 46


 1030 001a 0026     		movs	r6, #0
 1031              	.L71:
 1032              	.LVL142:
 713:..\FreeRTOS/stream_buffer.c **** 	{
 1033              		.loc 1 713 0
 1034 001c FFB1     		cbz	r7, .L72
 717:..\FreeRTOS/stream_buffer.c **** 		{
 1035              		.loc 1 717 0
 1036 001e FFF7FEFF 		bl	vPortEnterCritical
 1037              	.LVL143:
 719:..\FreeRTOS/stream_buffer.c **** 
 1038              		.loc 1 719 0
 1039 0022 2046     		mov	r0, r4
 1040 0024 FFF7FEFF 		bl	prvBytesInBuffer
 1041              	.LVL144:
 1042 0028 0546     		mov	r5, r0
 1043              	.LVL145:
 726:..\FreeRTOS/stream_buffer.c **** 			{
 1044              		.loc 1 726 0
 1045 002a 8642     		cmp	r6, r0
 1046 002c 05D3     		bcc	.L73
 729:..\FreeRTOS/stream_buffer.c **** 
 1047              		.loc 1 729 0
 1048 002e 0020     		movs	r0, #0
 1049              	.LVL146:
 1050 0030 FFF7FEFF 		bl	xTaskNotifyStateClear
 1051              	.LVL147:
 733:..\FreeRTOS/stream_buffer.c **** 			}
 1052              		.loc 1 733 0
 1053 0034 FFF7FEFF 		bl	xTaskGetCurrentTaskHandle
 1054              	.LVL148:
 1055 0038 2061     		str	r0, [r4, #16]
 1056              	.L73:
 740:..\FreeRTOS/stream_buffer.c **** 
 1057              		.loc 1 740 0
 1058 003a FFF7FEFF 		bl	vPortExitCritical
 1059              	.LVL149:
 742:..\FreeRTOS/stream_buffer.c **** 		{
 1060              		.loc 1 742 0
 1061 003e AE42     		cmp	r6, r5
 1062 0040 11D3     		bcc	.L74
 746:..\FreeRTOS/stream_buffer.c **** 			pxStreamBuffer->xTaskWaitingToReceive = NULL;
 1063              		.loc 1 746 0
 1064 0042 3B46     		mov	r3, r7
 1065 0044 0022     		movs	r2, #0
 1066 0046 4FF0FF31 		mov	r1, #-1
 1067 004a 1046     		mov	r0, r2
 1068 004c FFF7FEFF 		bl	xTaskNotifyWait
 1069              	.LVL150:
 747:..\FreeRTOS/stream_buffer.c **** 
 1070              		.loc 1 747 0
 1071 0050 0023     		movs	r3, #0
 1072 0052 2361     		str	r3, [r4, #16]
 750:..\FreeRTOS/stream_buffer.c **** 		}
 1073              		.loc 1 750 0
 1074 0054 2046     		mov	r0, r4
 1075 0056 FFF7FEFF 		bl	prvBytesInBuffer
ARM GAS  C:\Users\Tri94\AppData\Local\Temp\ccHaJcja.s 			page 47


 1076              	.LVL151:
 1077 005a 0546     		mov	r5, r0
 1078              	.LVL152:
 1079 005c 03E0     		b	.L74
 1080              	.LVL153:
 1081              	.L72:
 759:..\FreeRTOS/stream_buffer.c **** 	}
 1082              		.loc 1 759 0
 1083 005e 2046     		mov	r0, r4
 1084              	.LVL154:
 1085 0060 FFF7FEFF 		bl	prvBytesInBuffer
 1086              	.LVL155:
 1087 0064 0546     		mov	r5, r0
 1088              	.LVL156:
 1089              	.L74:
 767:..\FreeRTOS/stream_buffer.c **** 	{
 1090              		.loc 1 767 0
 1091 0066 B542     		cmp	r5, r6
 1092 0068 17D9     		bls	.L78
 769:..\FreeRTOS/stream_buffer.c **** 
 1093              		.loc 1 769 0
 1094 006a 0096     		str	r6, [sp]
 1095 006c 2B46     		mov	r3, r5
 1096 006e 4A46     		mov	r2, r9
 1097 0070 4146     		mov	r1, r8
 1098 0072 2046     		mov	r0, r4
 1099 0074 FFF7FEFF 		bl	prvReadMessageFromBuffer
 1100              	.LVL157:
 772:..\FreeRTOS/stream_buffer.c **** 		{
 1101              		.loc 1 772 0
 1102 0078 0546     		mov	r5, r0
 1103              	.LVL158:
 1104 007a 78B1     		cbz	r0, .L75
 775:..\FreeRTOS/stream_buffer.c **** 		}
 1105              		.loc 1 775 0
 1106 007c FFF7FEFF 		bl	vTaskSuspendAll
 1107              	.LVL159:
 1108 0080 6369     		ldr	r3, [r4, #20]
 1109 0082 3BB1     		cbz	r3, .L76
 775:..\FreeRTOS/stream_buffer.c **** 		}
 1110              		.loc 1 775 0 is_stmt 0 discriminator 1
 1111 0084 6069     		ldr	r0, [r4, #20]
 1112 0086 0023     		movs	r3, #0
 1113 0088 1A46     		mov	r2, r3
 1114 008a 1946     		mov	r1, r3
 1115 008c FFF7FEFF 		bl	xTaskGenericNotify
 1116              	.LVL160:
 1117 0090 0023     		movs	r3, #0
 1118 0092 6361     		str	r3, [r4, #20]
 1119              	.L76:
 775:..\FreeRTOS/stream_buffer.c **** 		}
 1120              		.loc 1 775 0 discriminator 3
 1121 0094 FFF7FEFF 		bl	xTaskResumeAll
 1122              	.LVL161:
 1123 0098 00E0     		b	.L75
 1124              	.LVL162:
 1125              	.L78:
ARM GAS  C:\Users\Tri94\AppData\Local\Temp\ccHaJcja.s 			page 48


 694:..\FreeRTOS/stream_buffer.c **** 
 1126              		.loc 1 694 0 is_stmt 1
 1127 009a 0025     		movs	r5, #0
 1128              	.LVL163:
 1129              	.L75:
 789:..\FreeRTOS/stream_buffer.c **** /*-----------------------------------------------------------*/
 1130              		.loc 1 789 0
 1131 009c 2846     		mov	r0, r5
 1132 009e 03B0     		add	sp, sp, #12
 1133              		.cfi_def_cfa_offset 28
 1134              		@ sp needed
 1135 00a0 BDE8F083 		pop	{r4, r5, r6, r7, r8, r9, pc}
 1136              		.cfi_endproc
 1137              	.LFE78:
 1138              		.size	xStreamBufferReceive, .-xStreamBufferReceive
 1139              		.section	.text.xStreamBufferReceiveFromISR,"ax",%progbits
 1140              		.align	2
 1141              		.global	xStreamBufferReceiveFromISR
 1142              		.thumb
 1143              		.thumb_func
 1144              		.type	xStreamBufferReceiveFromISR, %function
 1145              	xStreamBufferReceiveFromISR:
 1146              	.LFB79:
 796:..\FreeRTOS/stream_buffer.c **** StreamBuffer_t * const pxStreamBuffer = ( StreamBuffer_t * ) xStreamBuffer; /*lint !e9087 !e9079 Sa
 1147              		.loc 1 796 0
 1148              		.cfi_startproc
 1149              		@ args = 0, pretend = 0, frame = 0
 1150              		@ frame_needed = 0, uses_anonymous_args = 0
 1151              	.LVL164:
 1152 0000 2DE9F041 		push	{r4, r5, r6, r7, r8, lr}
 1153              		.cfi_def_cfa_offset 24
 1154              		.cfi_offset 4, -24
 1155              		.cfi_offset 5, -20
 1156              		.cfi_offset 6, -16
 1157              		.cfi_offset 7, -12
 1158              		.cfi_offset 8, -8
 1159              		.cfi_offset 14, -4
 1160 0004 82B0     		sub	sp, sp, #8
 1161              		.cfi_def_cfa_offset 32
 1162 0006 0446     		mov	r4, r0
 1163 0008 0E46     		mov	r6, r1
 1164 000a 1746     		mov	r7, r2
 1165 000c 9846     		mov	r8, r3
 1166              	.LVL165:
 808:..\FreeRTOS/stream_buffer.c **** 	{
 1167              		.loc 1 808 0
 1168 000e 037F     		ldrb	r3, [r0, #28]	@ zero_extendqisi2
 1169              	.LVL166:
 1170 0010 13F0010F 		tst	r3, #1
 1171 0014 01D0     		beq	.L84
 810:..\FreeRTOS/stream_buffer.c **** 	}
 1172              		.loc 1 810 0
 1173 0016 0425     		movs	r5, #4
 1174 0018 00E0     		b	.L81
 1175              	.L84:
 814:..\FreeRTOS/stream_buffer.c **** 	}
 1176              		.loc 1 814 0
ARM GAS  C:\Users\Tri94\AppData\Local\Temp\ccHaJcja.s 			page 49


 1177 001a 0025     		movs	r5, #0
 1178              	.L81:
 1179              	.LVL167:
 817:..\FreeRTOS/stream_buffer.c **** 
 1180              		.loc 1 817 0
 1181 001c 2046     		mov	r0, r4
 1182              	.LVL168:
 1183 001e FFF7FEFF 		bl	prvBytesInBuffer
 1184              	.LVL169:
 824:..\FreeRTOS/stream_buffer.c **** 	{
 1185              		.loc 1 824 0
 1186 0022 8542     		cmp	r5, r0
 1187 0024 21D2     		bcs	.L85
 826:..\FreeRTOS/stream_buffer.c **** 
 1188              		.loc 1 826 0
 1189 0026 0095     		str	r5, [sp]
 1190 0028 0346     		mov	r3, r0
 1191 002a 3A46     		mov	r2, r7
 1192 002c 3146     		mov	r1, r6
 1193 002e 2046     		mov	r0, r4
 1194              	.LVL170:
 1195 0030 FFF7FEFF 		bl	prvReadMessageFromBuffer
 1196              	.LVL171:
 829:..\FreeRTOS/stream_buffer.c **** 		{
 1197              		.loc 1 829 0
 1198 0034 0546     		mov	r5, r0
 1199              	.LVL172:
 1200 0036 C8B1     		cbz	r0, .L82
 1201              	.LBB25:
 1202              	.LBB26:
 1203              	.LBB27:
 222:..\FreeRTOS\portable\GCC\ARM_CM3/portmacro.h **** 	(
 1204              		.loc 2 222 0
 1205              		.syntax unified
 1206              	@ 222 "..\FreeRTOS\portable\GCC\ARM_CM3/portmacro.h" 1
 1207 0038 EFF31186 			mrs r6, basepri											
 1208 003c 4FF0A003 		mov r3, #160												
 1209 0040 83F31188 		msr basepri, r3											
 1210 0044 BFF36F8F 		isb														
 1211 0048 BFF34F8F 		dsb														
 1212              	
 1213              	@ 0 "" 2
 1214              	.LVL173:
 1215              		.thumb
 1216              		.syntax unified
 1217              	.LBE27:
 1218              	.LBE26:
 831:..\FreeRTOS/stream_buffer.c **** 		}
 1219              		.loc 1 831 0
 1220 004c 6369     		ldr	r3, [r4, #20]
 1221 004e 4BB1     		cbz	r3, .L83
 831:..\FreeRTOS/stream_buffer.c **** 		}
 1222              		.loc 1 831 0 is_stmt 0 discriminator 1
 1223 0050 6069     		ldr	r0, [r4, #20]
 1224              	.LVL174:
 1225 0052 CDF80080 		str	r8, [sp]
 1226 0056 0023     		movs	r3, #0
ARM GAS  C:\Users\Tri94\AppData\Local\Temp\ccHaJcja.s 			page 50


 1227 0058 1A46     		mov	r2, r3
 1228 005a 1946     		mov	r1, r3
 1229 005c FFF7FEFF 		bl	xTaskGenericNotifyFromISR
 1230              	.LVL175:
 1231 0060 0023     		movs	r3, #0
 1232 0062 6361     		str	r3, [r4, #20]
 1233              	.L83:
 1234              	.LVL176:
 1235              	.LBB28:
 1236              	.LBB29:
 1237              		.loc 2 240 0 is_stmt 1 discriminator 3
 1238              		.syntax unified
 1239              	@ 240 "..\FreeRTOS\portable\GCC\ARM_CM3/portmacro.h" 1
 1240 0064 86F31188 			msr basepri, r6	
 1241              	@ 0 "" 2
 1242              		.thumb
 1243              		.syntax unified
 1244 0068 00E0     		b	.L82
 1245              	.LVL177:
 1246              	.L85:
 1247              	.LBE29:
 1248              	.LBE28:
 1249              	.LBE25:
 798:..\FreeRTOS/stream_buffer.c **** 
 1250              		.loc 1 798 0
 1251 006a 0025     		movs	r5, #0
 1252              	.LVL178:
 1253              	.L82:
 846:..\FreeRTOS/stream_buffer.c **** /*-----------------------------------------------------------*/
 1254              		.loc 1 846 0
 1255 006c 2846     		mov	r0, r5
 1256 006e 02B0     		add	sp, sp, #8
 1257              		.cfi_def_cfa_offset 24
 1258              		@ sp needed
 1259 0070 BDE8F081 		pop	{r4, r5, r6, r7, r8, pc}
 1260              		.cfi_endproc
 1261              	.LFE79:
 1262              		.size	xStreamBufferReceiveFromISR, .-xStreamBufferReceiveFromISR
 1263              		.section	.text.xStreamBufferIsEmpty,"ax",%progbits
 1264              		.align	2
 1265              		.global	xStreamBufferIsEmpty
 1266              		.thumb
 1267              		.thumb_func
 1268              		.type	xStreamBufferIsEmpty, %function
 1269              	xStreamBufferIsEmpty:
 1270              	.LFB81:
 900:..\FreeRTOS/stream_buffer.c **** const StreamBuffer_t * const pxStreamBuffer = ( StreamBuffer_t * ) xStreamBuffer; /*lint !e9087 !e9
 1271              		.loc 1 900 0
 1272              		.cfi_startproc
 1273              		@ args = 0, pretend = 0, frame = 0
 1274              		@ frame_needed = 0, uses_anonymous_args = 0
 1275              		@ link register save eliminated.
 1276              	.LVL179:
 908:..\FreeRTOS/stream_buffer.c **** 	if( pxStreamBuffer->xHead == xTail )
 1277              		.loc 1 908 0
 1278 0000 0268     		ldr	r2, [r0]
 1279              	.LVL180:
ARM GAS  C:\Users\Tri94\AppData\Local\Temp\ccHaJcja.s 			page 51


 909:..\FreeRTOS/stream_buffer.c **** 	{
 1280              		.loc 1 909 0
 1281 0002 4368     		ldr	r3, [r0, #4]
 1282 0004 9A42     		cmp	r2, r3
 1283 0006 01D1     		bne	.L89
 911:..\FreeRTOS/stream_buffer.c **** 	}
 1284              		.loc 1 911 0
 1285 0008 0120     		movs	r0, #1
 1286              	.LVL181:
 1287 000a 7047     		bx	lr
 1288              	.LVL182:
 1289              	.L89:
 915:..\FreeRTOS/stream_buffer.c **** 	}
 1290              		.loc 1 915 0
 1291 000c 0020     		movs	r0, #0
 1292              	.LVL183:
 919:..\FreeRTOS/stream_buffer.c **** /*-----------------------------------------------------------*/
 1293              		.loc 1 919 0
 1294 000e 7047     		bx	lr
 1295              		.cfi_endproc
 1296              	.LFE81:
 1297              		.size	xStreamBufferIsEmpty, .-xStreamBufferIsEmpty
 1298              		.section	.text.xStreamBufferIsFull,"ax",%progbits
 1299              		.align	2
 1300              		.global	xStreamBufferIsFull
 1301              		.thumb
 1302              		.thumb_func
 1303              		.type	xStreamBufferIsFull, %function
 1304              	xStreamBufferIsFull:
 1305              	.LFB82:
 923:..\FreeRTOS/stream_buffer.c **** BaseType_t xReturn;
 1306              		.loc 1 923 0
 1307              		.cfi_startproc
 1308              		@ args = 0, pretend = 0, frame = 0
 1309              		@ frame_needed = 0, uses_anonymous_args = 0
 1310              	.LVL184:
 1311 0000 10B5     		push	{r4, lr}
 1312              		.cfi_def_cfa_offset 8
 1313              		.cfi_offset 4, -8
 1314              		.cfi_offset 14, -4
 1315              	.LVL185:
 934:..\FreeRTOS/stream_buffer.c **** 	{
 1316              		.loc 1 934 0
 1317 0002 037F     		ldrb	r3, [r0, #28]	@ zero_extendqisi2
 1318 0004 13F0010F 		tst	r3, #1
 1319 0008 01D0     		beq	.L93
 936:..\FreeRTOS/stream_buffer.c **** 	}
 1320              		.loc 1 936 0
 1321 000a 0424     		movs	r4, #4
 1322 000c 00E0     		b	.L91
 1323              	.L93:
 940:..\FreeRTOS/stream_buffer.c **** 	}
 1324              		.loc 1 940 0
 1325 000e 0024     		movs	r4, #0
 1326              	.L91:
 1327              	.LVL186:
 944:..\FreeRTOS/stream_buffer.c **** 	{
ARM GAS  C:\Users\Tri94\AppData\Local\Temp\ccHaJcja.s 			page 52


 1328              		.loc 1 944 0
 1329 0010 FFF7FEFF 		bl	xStreamBufferSpacesAvailable
 1330              	.LVL187:
 1331 0014 8442     		cmp	r4, r0
 1332 0016 01D3     		bcc	.L94
 946:..\FreeRTOS/stream_buffer.c **** 	}
 1333              		.loc 1 946 0
 1334 0018 0120     		movs	r0, #1
 1335 001a 10BD     		pop	{r4, pc}
 1336              	.LVL188:
 1337              	.L94:
 950:..\FreeRTOS/stream_buffer.c **** 	}
 1338              		.loc 1 950 0
 1339 001c 0020     		movs	r0, #0
 1340              	.LVL189:
 954:..\FreeRTOS/stream_buffer.c **** /*-----------------------------------------------------------*/
 1341              		.loc 1 954 0
 1342 001e 10BD     		pop	{r4, pc}
 1343              		.cfi_endproc
 1344              	.LFE82:
 1345              		.size	xStreamBufferIsFull, .-xStreamBufferIsFull
 1346              		.section	.text.xStreamBufferSendCompletedFromISR,"ax",%progbits
 1347              		.align	2
 1348              		.global	xStreamBufferSendCompletedFromISR
 1349              		.thumb
 1350              		.thumb_func
 1351              		.type	xStreamBufferSendCompletedFromISR, %function
 1352              	xStreamBufferSendCompletedFromISR:
 1353              	.LFB83:
 958:..\FreeRTOS/stream_buffer.c **** StreamBuffer_t * const pxStreamBuffer = ( StreamBuffer_t * ) xStreamBuffer; /*lint !e9087 !e9079 Sa
 1354              		.loc 1 958 0
 1355              		.cfi_startproc
 1356              		@ args = 0, pretend = 0, frame = 0
 1357              		@ frame_needed = 0, uses_anonymous_args = 0
 1358              	.LVL190:
 1359 0000 30B5     		push	{r4, r5, lr}
 1360              		.cfi_def_cfa_offset 12
 1361              		.cfi_offset 4, -12
 1362              		.cfi_offset 5, -8
 1363              		.cfi_offset 14, -4
 1364 0002 83B0     		sub	sp, sp, #12
 1365              		.cfi_def_cfa_offset 24
 1366              	.LVL191:
 1367              	.LBB30:
 1368              	.LBB31:
 222:..\FreeRTOS\portable\GCC\ARM_CM3/portmacro.h **** 	(
 1369              		.loc 2 222 0
 1370              		.syntax unified
 1371              	@ 222 "..\FreeRTOS\portable\GCC\ARM_CM3/portmacro.h" 1
 1372 0004 EFF31185 			mrs r5, basepri											
 1373 0008 4FF0A003 		mov r3, #160												
 1374 000c 83F31188 		msr basepri, r3											
 1375 0010 BFF36F8F 		isb														
 1376 0014 BFF34F8F 		dsb														
 1377              	
 1378              	@ 0 "" 2
 1379              		.thumb
ARM GAS  C:\Users\Tri94\AppData\Local\Temp\ccHaJcja.s 			page 53


 1380              		.syntax unified
 1381              	.LBE31:
 1382              	.LBE30:
 967:..\FreeRTOS/stream_buffer.c **** 		{
 1383              		.loc 1 967 0
 1384 0018 0369     		ldr	r3, [r0, #16]
 1385 001a 5BB1     		cbz	r3, .L98
 1386 001c 0446     		mov	r4, r0
 969:..\FreeRTOS/stream_buffer.c **** 										 ( uint32_t ) 0,
 1387              		.loc 1 969 0
 1388 001e 0069     		ldr	r0, [r0, #16]
 1389              	.LVL192:
 1390 0020 0091     		str	r1, [sp]
 1391 0022 0023     		movs	r3, #0
 1392 0024 1A46     		mov	r2, r3
 1393 0026 1946     		mov	r1, r3
 1394              	.LVL193:
 1395 0028 FFF7FEFF 		bl	xTaskGenericNotifyFromISR
 1396              	.LVL194:
 973:..\FreeRTOS/stream_buffer.c **** 			xReturn = pdTRUE;
 1397              		.loc 1 973 0
 1398 002c 0023     		movs	r3, #0
 1399 002e 2361     		str	r3, [r4, #16]
 1400              	.LVL195:
 974:..\FreeRTOS/stream_buffer.c **** 		}
 1401              		.loc 1 974 0
 1402 0030 0120     		movs	r0, #1
 1403 0032 00E0     		b	.L97
 1404              	.LVL196:
 1405              	.L98:
 978:..\FreeRTOS/stream_buffer.c **** 		}
 1406              		.loc 1 978 0
 1407 0034 0020     		movs	r0, #0
 1408              	.LVL197:
 1409              	.L97:
 1410              	.LBB32:
 1411              	.LBB33:
 1412              		.loc 2 240 0
 1413              		.syntax unified
 1414              	@ 240 "..\FreeRTOS\portable\GCC\ARM_CM3/portmacro.h" 1
 1415 0036 85F31188 			msr basepri, r5	
 1416              	@ 0 "" 2
 1417              	.LVL198:
 1418              		.thumb
 1419              		.syntax unified
 1420              	.LBE33:
 1421              	.LBE32:
 984:..\FreeRTOS/stream_buffer.c **** /*-----------------------------------------------------------*/
 1422              		.loc 1 984 0
 1423 003a 03B0     		add	sp, sp, #12
 1424              		.cfi_def_cfa_offset 12
 1425              		@ sp needed
 1426 003c 30BD     		pop	{r4, r5, pc}
 1427              		.cfi_endproc
 1428              	.LFE83:
 1429              		.size	xStreamBufferSendCompletedFromISR, .-xStreamBufferSendCompletedFromISR
 1430 003e 00BF     		.section	.text.xStreamBufferReceiveCompletedFromISR,"ax",%progbits
ARM GAS  C:\Users\Tri94\AppData\Local\Temp\ccHaJcja.s 			page 54


 1431              		.align	2
 1432              		.global	xStreamBufferReceiveCompletedFromISR
 1433              		.thumb
 1434              		.thumb_func
 1435              		.type	xStreamBufferReceiveCompletedFromISR, %function
 1436              	xStreamBufferReceiveCompletedFromISR:
 1437              	.LFB84:
 988:..\FreeRTOS/stream_buffer.c **** StreamBuffer_t * const pxStreamBuffer = ( StreamBuffer_t * ) xStreamBuffer; /*lint !e9087 !e9079 Sa
 1438              		.loc 1 988 0
 1439              		.cfi_startproc
 1440              		@ args = 0, pretend = 0, frame = 0
 1441              		@ frame_needed = 0, uses_anonymous_args = 0
 1442              	.LVL199:
 1443 0000 30B5     		push	{r4, r5, lr}
 1444              		.cfi_def_cfa_offset 12
 1445              		.cfi_offset 4, -12
 1446              		.cfi_offset 5, -8
 1447              		.cfi_offset 14, -4
 1448 0002 83B0     		sub	sp, sp, #12
 1449              		.cfi_def_cfa_offset 24
 1450              	.LVL200:
 1451              	.LBB34:
 1452              	.LBB35:
 222:..\FreeRTOS\portable\GCC\ARM_CM3/portmacro.h **** 	(
 1453              		.loc 2 222 0
 1454              		.syntax unified
 1455              	@ 222 "..\FreeRTOS\portable\GCC\ARM_CM3/portmacro.h" 1
 1456 0004 EFF31185 			mrs r5, basepri											
 1457 0008 4FF0A003 		mov r3, #160												
 1458 000c 83F31188 		msr basepri, r3											
 1459 0010 BFF36F8F 		isb														
 1460 0014 BFF34F8F 		dsb														
 1461              	
 1462              	@ 0 "" 2
 1463              		.thumb
 1464              		.syntax unified
 1465              	.LBE35:
 1466              	.LBE34:
 997:..\FreeRTOS/stream_buffer.c **** 		{
 1467              		.loc 1 997 0
 1468 0018 4369     		ldr	r3, [r0, #20]
 1469 001a 5BB1     		cbz	r3, .L102
 1470 001c 0446     		mov	r4, r0
 999:..\FreeRTOS/stream_buffer.c **** 										 ( uint32_t ) 0,
 1471              		.loc 1 999 0
 1472 001e 4069     		ldr	r0, [r0, #20]
 1473              	.LVL201:
 1474 0020 0091     		str	r1, [sp]
 1475 0022 0023     		movs	r3, #0
 1476 0024 1A46     		mov	r2, r3
 1477 0026 1946     		mov	r1, r3
 1478              	.LVL202:
 1479 0028 FFF7FEFF 		bl	xTaskGenericNotifyFromISR
 1480              	.LVL203:
1003:..\FreeRTOS/stream_buffer.c **** 			xReturn = pdTRUE;
 1481              		.loc 1 1003 0
 1482 002c 0023     		movs	r3, #0
ARM GAS  C:\Users\Tri94\AppData\Local\Temp\ccHaJcja.s 			page 55


 1483 002e 6361     		str	r3, [r4, #20]
 1484              	.LVL204:
1004:..\FreeRTOS/stream_buffer.c **** 		}
 1485              		.loc 1 1004 0
 1486 0030 0120     		movs	r0, #1
 1487 0032 00E0     		b	.L101
 1488              	.LVL205:
 1489              	.L102:
1008:..\FreeRTOS/stream_buffer.c **** 		}
 1490              		.loc 1 1008 0
 1491 0034 0020     		movs	r0, #0
 1492              	.LVL206:
 1493              	.L101:
 1494              	.LBB36:
 1495              	.LBB37:
 1496              		.loc 2 240 0
 1497              		.syntax unified
 1498              	@ 240 "..\FreeRTOS\portable\GCC\ARM_CM3/portmacro.h" 1
 1499 0036 85F31188 			msr basepri, r5	
 1500              	@ 0 "" 2
 1501              	.LVL207:
 1502              		.thumb
 1503              		.syntax unified
 1504              	.LBE37:
 1505              	.LBE36:
1014:..\FreeRTOS/stream_buffer.c **** /*-----------------------------------------------------------*/
 1506              		.loc 1 1014 0
 1507 003a 03B0     		add	sp, sp, #12
 1508              		.cfi_def_cfa_offset 12
 1509              		@ sp needed
 1510 003c 30BD     		pop	{r4, r5, pc}
 1511              		.cfi_endproc
 1512              	.LFE84:
 1513              		.size	xStreamBufferReceiveCompletedFromISR, .-xStreamBufferReceiveCompletedFromISR
 1514 003e 00BF     		.text
 1515              	.Letext0:
 1516              		.file 3 "c:\\program files (x86)\\cypress\\psoc creator\\4.2\\psoc creator\\import\\gnu\\arm\\5.4.
 1517              		.file 4 "c:\\program files (x86)\\cypress\\psoc creator\\4.2\\psoc creator\\import\\gnu\\arm\\5.4.
 1518              		.file 5 "c:\\program files (x86)\\cypress\\psoc creator\\4.2\\psoc creator\\import\\gnu\\arm\\5.4.
 1519              		.file 6 "..\\FreeRTOS\\include/task.h"
 1520              		.file 7 "..\\FreeRTOS\\include/stream_buffer.h"
 1521              		.file 8 "..\\FreeRTOS\\include/portable.h"
 1522              		.file 9 "Generated_Source\\PSoC5/core_cm3.h"