ARM GAS  C:\Users\Tri94\AppData\Local\Temp\ccN5SiFQ.s 			page 1


   1              		.syntax unified
   2              		.cpu cortex-m3
   3              		.fpu softvfp
   4              		.eabi_attribute 20, 1
   5              		.eabi_attribute 21, 1
   6              		.eabi_attribute 23, 3
   7              		.eabi_attribute 24, 1
   8              		.eabi_attribute 25, 1
   9              		.eabi_attribute 26, 1
  10              		.eabi_attribute 30, 1
  11              		.eabi_attribute 34, 1
  12              		.eabi_attribute 18, 4
  13              		.thumb
  14              		.syntax unified
  15              		.file	"main.c"
  16              		.text
  17              	.Ltext0:
  18              		.cfi_sections	.debug_frame
  19              		.section	.text.myISR_UART,"ax",%progbits
  20              		.align	2
  21              		.global	myISR_UART
  22              		.thumb
  23              		.thumb_func
  24              		.type	myISR_UART, %function
  25              	myISR_UART:
  26              	.LFB71:
  27              		.file 1 "main.c"
   1:main.c        **** /* ========================================
   2:main.c        ****  *
   3:main.c        ****  * Copyright YOUR COMPANY, THE YEAR
   4:main.c        ****  * All Rights Reserved
   5:main.c        ****  * UNPUBLISHED, LICENSED SOFTWARE.
   6:main.c        ****  *
   7:main.c        ****  * CONFIDENTIAL AND PROPRIETARY INFORMATION
   8:main.c        ****  * WHICH IS THE PROPERTY OF your company.
   9:main.c        ****  *
  10:main.c        ****  * ========================================
  11:main.c        **** */
  12:main.c        **** #include "project.h"
  13:main.c        **** #include <stdio.h>
  14:main.c        **** #include <stdlib.h>
  15:main.c        **** #include <stdint.h>
  16:main.c        **** #include <stdbool.h>
  17:main.c        **** 
  18:main.c        **** // ROTS Header Files
  19:main.c        **** #include "FreeRTOS_PSoC.h"
  20:main.c        **** #include "FreeRTOS.h"
  21:main.c        **** #include "task.h"
  22:main.c        **** #include "queue.h"
  23:main.c        **** #include "semphr.h"
  24:main.c        **** #include "timers.h"
  25:main.c        **** #include "event_groups.h"
  26:main.c        **** #include "message_buffer.h"
  27:main.c        **** 
  28:main.c        **** // Your task function
  29:main.c        **** void vReadUARTTask1(void *pvParaments);
  30:main.c        **** void vSendUARTTask1(void *pvParaments);
ARM GAS  C:\Users\Tri94\AppData\Local\Temp\ccN5SiFQ.s 			page 2


  31:main.c        **** void vWriteLCDTask2(void *pvParaments);
  32:main.c        **** 
  33:main.c        **** void myPSoC2Setup();
  34:main.c        **** 
  35:main.c        **** MessageBufferHandle_t xMessageBuffer = NULL;
  36:main.c        **** #define               MESSAGE_BUFFER_SIZE 100
  37:main.c        **** 
  38:main.c        **** CY_ISR_PROTO(myISR_UART);
  39:main.c        **** 
  40:main.c        **** int main(void)
  41:main.c        **** {
  42:main.c        ****     BaseType_t err;
  43:main.c        ****     
  44:main.c        ****     CyGlobalIntEnable; /* Enable global interrupts. */
  45:main.c        **** 
  46:main.c        ****     /* Place your initialization/startup code here (e.g. MyInst_Start()) */
  47:main.c        ****     FreeRTOS_Init();
  48:main.c        ****     myPSoC2Setup();
  49:main.c        ****     UART_WriteTxData('a');
  50:main.c        ****     // Create Mutex
  51:main.c        ****    xMessageBuffer = xMessageBufferCreate(MESSAGE_BUFFER_SIZE);
  52:main.c        **** 
  53:main.c        ****     if (xMessageBuffer == NULL){
  54:main.c        ****         while(1);   // Stop system here
  55:main.c        ****     }
  56:main.c        ****     
  57:main.c        ****     // Create Task
  58:main.c        ****     err = xTaskCreate(vReadUARTTask1,               // Taskfunction_t pvTaskCode,
  59:main.c        ****                         "Read UART DATA",           // const char * const pcName,
  60:main.c        ****                         configMINIMAL_STACK_SIZE,   // unsigned short usStackDepth,
  61:main.c        ****                         NULL,                       // void *pvParameters,
  62:main.c        ****                         configMAX_PRIORITIES-1,     // UBaseType_t uxPriority,
  63:main.c        ****                         NULL);                      // TaskHandle_t *pxCreatedTask );
  64:main.c        ****     
  65:main.c        ****     if (err != pdPASS){
  66:main.c        ****         // Cannot create task!
  67:main.c        ****         while(1){
  68:main.c        ****             UART_WriteTxData('c');
  69:main.c        ****         }
  70:main.c        ****     }
  71:main.c        ****     UART_WriteTxData('b');
  72:main.c        ****     // Start the scheduler, so the tasks start executing
  73:main.c        ****     vTaskStartScheduler();
  74:main.c        ****     
  75:main.c        ****     
  76:main.c        ****     for(;;)
  77:main.c        ****     {
  78:main.c        ****         /* Place your application code here. */
  79:main.c        ****     }
  80:main.c        **** }
  81:main.c        **** 
  82:main.c        **** void myPSoC2Setup(){
  83:main.c        ****     
  84:main.c        ****     
  85:main.c        ****     // Place your component's start code here
  86:main.c        ****     UART_ClearRxBuffer();
  87:main.c        ****     UART_ClearTxBuffer();
ARM GAS  C:\Users\Tri94\AppData\Local\Temp\ccN5SiFQ.s 			page 3


  88:main.c        ****     ISR_UART_StartEx(myISR_UART);
  89:main.c        ****     UART_Start();
  90:main.c        ****     
  91:main.c        ****     CyDelay(2000);
  92:main.c        ****     UART_PutString(";L1:");
  93:main.c        ****     
  94:main.c        ****     CyDelay(2000);
  95:main.c        ****     UART_PutString(";L2:");
  96:main.c        ****     
  97:main.c        ****     CyDelay(2000);
  98:main.c        ****     UART_PutString(";S1:");
  99:main.c        ****     
 100:main.c        ****     CyDelay(2000);
 101:main.c        ****     UART_PutString(";S2:");
 102:main.c        ****     
 103:main.c        ****     CyDelay(2000);
 104:main.c        ****     UART_PutString(";S1:");
 105:main.c        ****     
 106:main.c        ****     CyDelay(2000);
 107:main.c        ****     UART_PutString(";S2:");
 108:main.c        ****     
 109:main.c        ****     
 110:main.c        **** }
 111:main.c        **** 
 112:main.c        **** typedef enum STATES_CMD{
 113:main.c        ****     S_IDLE,
 114:main.c        ****     S_GOT_DATE
 115:main.c        **** }STATES_CMD;
 116:main.c        **** 
 117:main.c        **** 
 118:main.c        **** 
 119:main.c        **** CY_ISR(myISR_UART){
  28              		.loc 1 119 0
  29              		.cfi_startproc
  30              		@ args = 0, pretend = 0, frame = 0
  31              		@ frame_needed = 0, uses_anonymous_args = 0
  32 0000 38B5     		push	{r3, r4, r5, lr}
  33              		.cfi_def_cfa_offset 16
  34              		.cfi_offset 3, -16
  35              		.cfi_offset 4, -12
  36              		.cfi_offset 5, -8
  37              		.cfi_offset 14, -4
  38              	.LVL0:
 120:main.c        ****     static char         buf[20];
 121:main.c        ****     static int          idx = 0;
 122:main.c        ****     static int          write = 0;
 123:main.c        ****     static STATES_CMD   state = S_IDLE;
 124:main.c        ****     char                ch;
 125:main.c        ****     BaseType_t          xHigherPriorityTaskWoken = pdFALSE; /* Initialised to pdFALSE */
 126:main.c        ****     
 127:main.c        ****     while (UART_GetRxBufferSize() > 0){
  39              		.loc 1 127 0
  40 0002 19E0     		b	.L3
  41              	.L4:
 128:main.c        ****         //UART_WriteTxData('q');
 129:main.c        ****     //while (UART_ReadRxStatus() & UART_RX_STS_FIFO_NOTEMPTY){    
 130:main.c        ****         ch = UART_GetByte();
ARM GAS  C:\Users\Tri94\AppData\Local\Temp\ccN5SiFQ.s 			page 4


  42              		.loc 1 130 0
  43 0004 FFF7FEFF 		bl	UART_GetByte
  44              	.LVL1:
 131:main.c        ****         //ch = UART_ReadRxData();
 132:main.c        ****         buf[idx] = ch;
  45              		.loc 1 132 0
  46 0008 144C     		ldr	r4, .L7
  47 000a 2368     		ldr	r3, [r4]
  48 000c E218     		adds	r2, r4, r3
  49 000e 1071     		strb	r0, [r2, #4]
 133:main.c        ****         idx++;
  50              		.loc 1 133 0
  51 0010 0133     		adds	r3, r3, #1
  52 0012 2360     		str	r3, [r4]
 134:main.c        ****         CyDelay(10);
  53              		.loc 1 134 0
  54 0014 0A20     		movs	r0, #10
  55              	.LVL2:
  56 0016 FFF7FEFF 		bl	CyDelay
  57              	.LVL3:
 135:main.c        ****         write = 1;
  58              		.loc 1 135 0
  59 001a 0123     		movs	r3, #1
  60 001c A361     		str	r3, [r4, #24]
 136:main.c        ****         if (idx == 4){
  61              		.loc 1 136 0
  62 001e 2368     		ldr	r3, [r4]
  63 0020 042B     		cmp	r3, #4
  64 0022 09D1     		bne	.L3
 137:main.c        ****             //UART_WriteTxData('P');
 138:main.c        ****             buf[idx] = '\0';
  65              		.loc 1 138 0
  66 0024 2344     		add	r3, r3, r4
  67 0026 0025     		movs	r5, #0
  68 0028 1D71     		strb	r5, [r3, #4]
 139:main.c        ****             state = S_IDLE;
 140:main.c        ****             xMessageBufferSendFromISR(xMessageBuffer, buf, 4, xHigherPriorityTaskWoken);
  69              		.loc 1 140 0
  70 002a 2B46     		mov	r3, r5
  71 002c 0422     		movs	r2, #4
  72 002e A118     		adds	r1, r4, r2
  73 0030 E069     		ldr	r0, [r4, #28]
  74 0032 FFF7FEFF 		bl	xStreamBufferSendFromISR
  75              	.LVL4:
 141:main.c        ****             idx = 0;
  76              		.loc 1 141 0
  77 0036 2560     		str	r5, [r4]
  78              	.L3:
 127:main.c        ****         //UART_WriteTxData('q');
  79              		.loc 1 127 0
  80 0038 FFF7FEFF 		bl	UART_GetRxBufferSize
  81              	.LVL5:
  82 003c 0028     		cmp	r0, #0
  83 003e E1D1     		bne	.L4
 142:main.c        ****             
 143:main.c        ****         }
 144:main.c        ****     }
ARM GAS  C:\Users\Tri94\AppData\Local\Temp\ccN5SiFQ.s 			page 5


 145:main.c        ****     UART_ReadRxStatus(); // Clear IRQ signal
  84              		.loc 1 145 0
  85 0040 FFF7FEFF 		bl	UART_ReadRxStatus
  86              	.LVL6:
 146:main.c        ****     if (write == 1){
  87              		.loc 1 146 0
  88 0044 054B     		ldr	r3, .L7
  89 0046 9B69     		ldr	r3, [r3, #24]
  90 0048 012B     		cmp	r3, #1
  91 004a 05D1     		bne	.L1
 147:main.c        ****         UART_PutString(buf);
  92              		.loc 1 147 0
  93 004c 034C     		ldr	r4, .L7
  94 004e 201D     		adds	r0, r4, #4
  95 0050 FFF7FEFF 		bl	UART_PutString
  96              	.LVL7:
 148:main.c        ****         write = 0;
  97              		.loc 1 148 0
  98 0054 0023     		movs	r3, #0
  99 0056 A361     		str	r3, [r4, #24]
 100              	.L1:
 101 0058 38BD     		pop	{r3, r4, r5, pc}
 102              	.L8:
 103 005a 00BF     		.align	2
 104              	.L7:
 105 005c 00000000 		.word	.LANCHOR0
 106              		.cfi_endproc
 107              	.LFE71:
 108              		.size	myISR_UART, .-myISR_UART
 109              		.section	.text.vReadUARTTask1,"ax",%progbits
 110              		.align	2
 111              		.global	vReadUARTTask1
 112              		.thumb
 113              		.thumb_func
 114              		.type	vReadUARTTask1, %function
 115              	vReadUARTTask1:
 116              	.LFB72:
 149:main.c        ****     }
 150:main.c        ****     /*
 151:main.c        ****     UART_WriteTxData(buf[0]);
 152:main.c        ****     CyDelay(10);
 153:main.c        ****     UART_WriteTxData(buf[1]);
 154:main.c        ****     CyDelay(10);
 155:main.c        ****     UART_WriteTxData(buf[2]);
 156:main.c        ****     CyDelay(10);
 157:main.c        ****     UART_WriteTxData(buf[3]);
 158:main.c        ****     CyDelay(10);
 159:main.c        ****     */
 160:main.c        ****     
 161:main.c        **** }
 162:main.c        **** 
 163:main.c        **** // Task to read sensor data and write to global variable
 164:main.c        **** void vReadUARTTask1(void *pvParaments){    
 117              		.loc 1 164 0
 118              		.cfi_startproc
 119              		@ args = 0, pretend = 0, frame = 24
 120              		@ frame_needed = 0, uses_anonymous_args = 0
ARM GAS  C:\Users\Tri94\AppData\Local\Temp\ccN5SiFQ.s 			page 6


 121              	.LVL8:
 122 0000 30B5     		push	{r4, r5, lr}
 123              		.cfi_def_cfa_offset 12
 124              		.cfi_offset 4, -12
 125              		.cfi_offset 5, -8
 126              		.cfi_offset 14, -4
 127 0002 87B0     		sub	sp, sp, #28
 128              		.cfi_def_cfa_offset 40
 129              	.LVL9:
 130              	.L10:
 165:main.c        ****     char    buf[20];
 166:main.c        ****     size_t  rxSize;
 167:main.c        ****     char    *delim = ":";
 168:main.c        ****     char    *pch;
 169:main.c        ****     
 170:main.c        ****     while(1){
 171:main.c        ****         if (xMessageBufferIsEmpty( xMessageBuffer ) == pdFALSE){
 131              		.loc 1 171 0
 132 0004 1A4B     		ldr	r3, .L15
 133 0006 D869     		ldr	r0, [r3, #28]
 134 0008 FFF7FEFF 		bl	xStreamBufferIsEmpty
 135              	.LVL10:
 136 000c 0028     		cmp	r0, #0
 137 000e F9D1     		bne	.L10
 172:main.c        ****             //UART_WriteTxData('M');
 173:main.c        ****             rxSize = xMessageBufferReceive(xMessageBuffer,buf,4,100);
 138              		.loc 1 173 0
 139 0010 6423     		movs	r3, #100
 140 0012 0422     		movs	r2, #4
 141 0014 0DEB0201 		add	r1, sp, r2
 142 0018 1548     		ldr	r0, .L15
 143 001a C069     		ldr	r0, [r0, #28]
 144 001c FFF7FEFF 		bl	xStreamBufferReceive
 145              	.LVL11:
 146 0020 0546     		mov	r5, r0
 147              	.LVL12:
 174:main.c        ****             pch = strtok(buf, delim);
 148              		.loc 1 174 0
 149 0022 144C     		ldr	r4, .L15+4
 150 0024 2146     		mov	r1, r4
 151 0026 01A8     		add	r0, sp, #4
 152              	.LVL13:
 153 0028 FFF7FEFF 		bl	strtok
 154              	.LVL14:
 175:main.c        ****             UART_PutString(pch);
 155              		.loc 1 175 0
 156 002c FFF7FEFF 		bl	UART_PutString
 157              	.LVL15:
 176:main.c        ****             CyDelay(100);
 158              		.loc 1 176 0
 159 0030 6420     		movs	r0, #100
 160 0032 FFF7FEFF 		bl	CyDelay
 161              	.LVL16:
 177:main.c        ****             pch = strtok(buf, delim);
 162              		.loc 1 177 0
 163 0036 2146     		mov	r1, r4
 164 0038 01A8     		add	r0, sp, #4
ARM GAS  C:\Users\Tri94\AppData\Local\Temp\ccN5SiFQ.s 			page 7


 165 003a FFF7FEFF 		bl	strtok
 166              	.LVL17:
 167 003e 0446     		mov	r4, r0
 168              	.LVL18:
 178:main.c        ****             UART_PutString(pch);
 169              		.loc 1 178 0
 170 0040 FFF7FEFF 		bl	UART_PutString
 171              	.LVL19:
 179:main.c        ****             if (rxSize > 0){
 172              		.loc 1 179 0
 173 0044 7DB1     		cbz	r5, .L11
 180:main.c        ****                 if (strcmp(pch, "L1") == 0){
 174              		.loc 1 180 0
 175 0046 0C49     		ldr	r1, .L15+8
 176 0048 2046     		mov	r0, r4
 177 004a FFF7FEFF 		bl	strcmp
 178              	.LVL20:
 179 004e 18B9     		cbnz	r0, .L12
 181:main.c        ****                     LED_Write(1);
 180              		.loc 1 181 0
 181 0050 0120     		movs	r0, #1
 182 0052 FFF7FEFF 		bl	LED_Write
 183              	.LVL21:
 184 0056 06E0     		b	.L11
 185              	.L12:
 182:main.c        ****                 }
 183:main.c        ****                 else if (strcmp(pch, "L2") == 0){
 186              		.loc 1 183 0
 187 0058 0849     		ldr	r1, .L15+12
 188 005a 2046     		mov	r0, r4
 189 005c FFF7FEFF 		bl	strcmp
 190              	.LVL22:
 191 0060 08B9     		cbnz	r0, .L11
 184:main.c        ****                     LED_Write(0);
 192              		.loc 1 184 0
 193 0062 FFF7FEFF 		bl	LED_Write
 194              	.LVL23:
 195              	.L11:
 185:main.c        ****                 }
 186:main.c        ****             }
 187:main.c        ****             vTaskDelay(pdMS_TO_TICKS(50)); // Delay for 50 ms
 196              		.loc 1 187 0
 197 0066 3220     		movs	r0, #50
 198 0068 FFF7FEFF 		bl	vTaskDelay
 199              	.LVL24:
 200 006c CAE7     		b	.L10
 201              	.L16:
 202 006e 00BF     		.align	2
 203              	.L15:
 204 0070 00000000 		.word	.LANCHOR0
 205 0074 00000000 		.word	.LC0
 206 0078 04000000 		.word	.LC1
 207 007c 08000000 		.word	.LC2
 208              		.cfi_endproc
 209              	.LFE72:
 210              		.size	vReadUARTTask1, .-vReadUARTTask1
 211              		.section	.text.myPSoC2Setup,"ax",%progbits
ARM GAS  C:\Users\Tri94\AppData\Local\Temp\ccN5SiFQ.s 			page 8


 212              		.align	2
 213              		.global	myPSoC2Setup
 214              		.thumb
 215              		.thumb_func
 216              		.type	myPSoC2Setup, %function
 217              	myPSoC2Setup:
 218              	.LFB70:
  82:main.c        ****     
 219              		.loc 1 82 0
 220              		.cfi_startproc
 221              		@ args = 0, pretend = 0, frame = 0
 222              		@ frame_needed = 0, uses_anonymous_args = 0
 223 0000 38B5     		push	{r3, r4, r5, lr}
 224              		.cfi_def_cfa_offset 16
 225              		.cfi_offset 3, -16
 226              		.cfi_offset 4, -12
 227              		.cfi_offset 5, -8
 228              		.cfi_offset 14, -4
  86:main.c        ****     UART_ClearTxBuffer();
 229              		.loc 1 86 0
 230 0002 FFF7FEFF 		bl	UART_ClearRxBuffer
 231              	.LVL25:
  87:main.c        ****     ISR_UART_StartEx(myISR_UART);
 232              		.loc 1 87 0
 233 0006 FFF7FEFF 		bl	UART_ClearTxBuffer
 234              	.LVL26:
  88:main.c        ****     UART_Start();
 235              		.loc 1 88 0
 236 000a 1948     		ldr	r0, .L19
 237 000c FFF7FEFF 		bl	ISR_UART_StartEx
 238              	.LVL27:
  89:main.c        ****     
 239              		.loc 1 89 0
 240 0010 FFF7FEFF 		bl	UART_Start
 241              	.LVL28:
  91:main.c        ****     UART_PutString(";L1:");
 242              		.loc 1 91 0
 243 0014 4FF4FA60 		mov	r0, #2000
 244 0018 FFF7FEFF 		bl	CyDelay
 245              	.LVL29:
  92:main.c        ****     
 246              		.loc 1 92 0
 247 001c 1548     		ldr	r0, .L19+4
 248 001e FFF7FEFF 		bl	UART_PutString
 249              	.LVL30:
  94:main.c        ****     UART_PutString(";L2:");
 250              		.loc 1 94 0
 251 0022 4FF4FA60 		mov	r0, #2000
 252 0026 FFF7FEFF 		bl	CyDelay
 253              	.LVL31:
  95:main.c        ****     
 254              		.loc 1 95 0
 255 002a 1348     		ldr	r0, .L19+8
 256 002c FFF7FEFF 		bl	UART_PutString
 257              	.LVL32:
  97:main.c        ****     UART_PutString(";S1:");
 258              		.loc 1 97 0
ARM GAS  C:\Users\Tri94\AppData\Local\Temp\ccN5SiFQ.s 			page 9


 259 0030 4FF4FA60 		mov	r0, #2000
 260 0034 FFF7FEFF 		bl	CyDelay
 261              	.LVL33:
  98:main.c        ****     
 262              		.loc 1 98 0
 263 0038 104D     		ldr	r5, .L19+12
 264 003a 2846     		mov	r0, r5
 265 003c FFF7FEFF 		bl	UART_PutString
 266              	.LVL34:
 100:main.c        ****     UART_PutString(";S2:");
 267              		.loc 1 100 0
 268 0040 4FF4FA60 		mov	r0, #2000
 269 0044 FFF7FEFF 		bl	CyDelay
 270              	.LVL35:
 101:main.c        ****     
 271              		.loc 1 101 0
 272 0048 0D4C     		ldr	r4, .L19+16
 273 004a 2046     		mov	r0, r4
 274 004c FFF7FEFF 		bl	UART_PutString
 275              	.LVL36:
 103:main.c        ****     UART_PutString(";S1:");
 276              		.loc 1 103 0
 277 0050 4FF4FA60 		mov	r0, #2000
 278 0054 FFF7FEFF 		bl	CyDelay
 279              	.LVL37:
 104:main.c        ****     
 280              		.loc 1 104 0
 281 0058 2846     		mov	r0, r5
 282 005a FFF7FEFF 		bl	UART_PutString
 283              	.LVL38:
 106:main.c        ****     UART_PutString(";S2:");
 284              		.loc 1 106 0
 285 005e 4FF4FA60 		mov	r0, #2000
 286 0062 FFF7FEFF 		bl	CyDelay
 287              	.LVL39:
 107:main.c        ****     
 288              		.loc 1 107 0
 289 0066 2046     		mov	r0, r4
 290 0068 FFF7FEFF 		bl	UART_PutString
 291              	.LVL40:
 292 006c 38BD     		pop	{r3, r4, r5, pc}
 293              	.L20:
 294 006e 00BF     		.align	2
 295              	.L19:
 296 0070 00000000 		.word	myISR_UART
 297 0074 0C000000 		.word	.LC3
 298 0078 14000000 		.word	.LC4
 299 007c 1C000000 		.word	.LC5
 300 0080 24000000 		.word	.LC6
 301              		.cfi_endproc
 302              	.LFE70:
 303              		.size	myPSoC2Setup, .-myPSoC2Setup
 304              		.section	.text.main,"ax",%progbits
 305              		.align	2
 306              		.global	main
 307              		.thumb
 308              		.thumb_func
ARM GAS  C:\Users\Tri94\AppData\Local\Temp\ccN5SiFQ.s 			page 10


 309              		.type	main, %function
 310              	main:
 311              	.LFB69:
  41:main.c        ****     BaseType_t err;
 312              		.loc 1 41 0
 313              		.cfi_startproc
 314              		@ args = 0, pretend = 0, frame = 0
 315              		@ frame_needed = 0, uses_anonymous_args = 0
 316 0000 00B5     		push	{lr}
 317              		.cfi_def_cfa_offset 4
 318              		.cfi_offset 14, -4
 319 0002 83B0     		sub	sp, sp, #12
 320              		.cfi_def_cfa_offset 16
  44:main.c        **** 
 321              		.loc 1 44 0
 322              		.syntax unified
 323              	@ 44 "main.c" 1
 324 0004 62B6     		CPSIE   i
 325              	@ 0 "" 2
  47:main.c        ****     myPSoC2Setup();
 326              		.loc 1 47 0
 327              		.thumb
 328              		.syntax unified
 329 0006 FFF7FEFF 		bl	FreeRTOS_Init
 330              	.LVL41:
  48:main.c        ****     UART_WriteTxData('a');
 331              		.loc 1 48 0
 332 000a FFF7FEFF 		bl	myPSoC2Setup
 333              	.LVL42:
  49:main.c        ****     // Create Mutex
 334              		.loc 1 49 0
 335 000e 6120     		movs	r0, #97
 336 0010 FFF7FEFF 		bl	UART_WriteTxData
 337              	.LVL43:
  51:main.c        **** 
 338              		.loc 1 51 0
 339 0014 0122     		movs	r2, #1
 340 0016 0021     		movs	r1, #0
 341 0018 6420     		movs	r0, #100
 342 001a FFF7FEFF 		bl	xStreamBufferGenericCreate
 343              	.LVL44:
 344 001e 0C4B     		ldr	r3, .L28
 345 0020 D861     		str	r0, [r3, #28]
  53:main.c        ****         while(1);   // Stop system here
 346              		.loc 1 53 0
 347 0022 00B9     		cbnz	r0, .L22
 348              	.L23:
 349 0024 FEE7     		b	.L23
 350              	.L22:
  58:main.c        ****                         "Read UART DATA",           // const char * const pcName,
 351              		.loc 1 58 0
 352 0026 0023     		movs	r3, #0
 353 0028 0193     		str	r3, [sp, #4]
 354 002a 0422     		movs	r2, #4
 355 002c 0092     		str	r2, [sp]
 356 002e C822     		movs	r2, #200
 357 0030 0849     		ldr	r1, .L28+4
ARM GAS  C:\Users\Tri94\AppData\Local\Temp\ccN5SiFQ.s 			page 11


 358 0032 0948     		ldr	r0, .L28+8
 359 0034 FFF7FEFF 		bl	xTaskCreate
 360              	.LVL45:
  65:main.c        ****         // Cannot create task!
 361              		.loc 1 65 0
 362 0038 0128     		cmp	r0, #1
 363 003a 03D0     		beq	.L24
 364              	.LVL46:
 365              	.L25:
  68:main.c        ****         }
 366              		.loc 1 68 0 discriminator 1
 367 003c 6320     		movs	r0, #99
 368 003e FFF7FEFF 		bl	UART_WriteTxData
 369              	.LVL47:
 370 0042 FBE7     		b	.L25
 371              	.LVL48:
 372              	.L24:
  71:main.c        ****     // Start the scheduler, so the tasks start executing
 373              		.loc 1 71 0
 374 0044 6220     		movs	r0, #98
 375              	.LVL49:
 376 0046 FFF7FEFF 		bl	UART_WriteTxData
 377              	.LVL50:
  73:main.c        ****     
 378              		.loc 1 73 0
 379 004a FFF7FEFF 		bl	vTaskStartScheduler
 380              	.LVL51:
 381              	.L26:
 382 004e FEE7     		b	.L26
 383              	.L29:
 384              		.align	2
 385              	.L28:
 386 0050 00000000 		.word	.LANCHOR0
 387 0054 2C000000 		.word	.LC7
 388 0058 00000000 		.word	vReadUARTTask1
 389              		.cfi_endproc
 390              	.LFE69:
 391              		.size	main, .-main
 392              		.global	xMessageBuffer
 393              		.section	.rodata.str1.4,"aMS",%progbits,1
 394              		.align	2
 395              	.LC0:
 396 0000 3A00     		.ascii	":\000"
 397 0002 0000     		.space	2
 398              	.LC1:
 399 0004 4C3100   		.ascii	"L1\000"
 400 0007 00       		.space	1
 401              	.LC2:
 402 0008 4C3200   		.ascii	"L2\000"
 403 000b 00       		.space	1
 404              	.LC3:
 405 000c 3B4C313A 		.ascii	";L1:\000"
 405      00
 406 0011 000000   		.space	3
 407              	.LC4:
 408 0014 3B4C323A 		.ascii	";L2:\000"
 408      00
ARM GAS  C:\Users\Tri94\AppData\Local\Temp\ccN5SiFQ.s 			page 12


 409 0019 000000   		.space	3
 410              	.LC5:
 411 001c 3B53313A 		.ascii	";S1:\000"
 411      00
 412 0021 000000   		.space	3
 413              	.LC6:
 414 0024 3B53323A 		.ascii	";S2:\000"
 414      00
 415 0029 000000   		.space	3
 416              	.LC7:
 417 002c 52656164 		.ascii	"Read UART DATA\000"
 417      20554152 
 417      54204441 
 417      544100
 418              		.bss
 419              		.align	2
 420              		.set	.LANCHOR0,. + 0
 421              		.type	idx.7446, %object
 422              		.size	idx.7446, 4
 423              	idx.7446:
 424 0000 00000000 		.space	4
 425              		.type	buf.7445, %object
 426              		.size	buf.7445, 20
 427              	buf.7445:
 428 0004 00000000 		.space	20
 428      00000000 
 428      00000000 
 428      00000000 
 428      00000000 
 429              		.type	write.7447, %object
 430              		.size	write.7447, 4
 431              	write.7447:
 432 0018 00000000 		.space	4
 433              		.type	xMessageBuffer, %object
 434              		.size	xMessageBuffer, 4
 435              	xMessageBuffer:
 436 001c 00000000 		.space	4
 437              		.text
 438              	.Letext0:
 439              		.file 2 "c:\\program files (x86)\\cypress\\psoc creator\\4.2\\psoc creator\\import\\gnu\\arm\\5.4.
 440              		.file 3 "c:\\program files (x86)\\cypress\\psoc creator\\4.2\\psoc creator\\import\\gnu\\arm\\5.4.
 441              		.file 4 "c:\\program files (x86)\\cypress\\psoc creator\\4.2\\psoc creator\\import\\gnu\\arm\\5.4.
 442              		.file 5 "..\\FreeRTOS\\portable\\GCC\\ARM_CM3/portmacro.h"
 443              		.file 6 "..\\FreeRTOS\\include/stream_buffer.h"
 444              		.file 7 "..\\FreeRTOS\\include/message_buffer.h"
 445              		.file 8 "Generated_Source\\PSoC5/core_cm3.h"
 446              		.file 9 "Generated_Source\\PSoC5/UART.h"
 447              		.file 10 "Generated_Source\\PSoC5/CyLib.h"
 448              		.file 11 "c:\\program files (x86)\\cypress\\psoc creator\\4.2\\psoc creator\\import\\gnu\\arm\\5.4
 449              		.file 12 "Generated_Source\\PSoC5/LED.h"
 450              		.file 13 "..\\FreeRTOS\\include/task.h"
 451              		.file 14 "Generated_Source\\PSoC5/ISR_UART.h"
 452              		.file 15 "..\\FreeRTOS/FreeRTOS_PSoC.h"