ARM GAS  C:\Users\Tri94\AppData\Local\Temp\ccNZkbUM.s 			page 1


   1              		.syntax unified
   2              		.cpu cortex-m3
   3              		.fpu softvfp
   4              		.eabi_attribute 20, 1
   5              		.eabi_attribute 21, 1
   6              		.eabi_attribute 23, 3
   7              		.eabi_attribute 24, 1
   8              		.eabi_attribute 25, 1
   9              		.eabi_attribute 26, 1
  10              		.eabi_attribute 30, 1
  11              		.eabi_attribute 34, 1
  12              		.eabi_attribute 18, 4
  13              		.thumb
  14              		.syntax unified
  15              		.file	"main.c"
  16              		.text
  17              	.Ltext0:
  18              		.cfi_sections	.debug_frame
  19              		.section	.text.main,"ax",%progbits
  20              		.align	2
  21              		.global	main
  22              		.thumb
  23              		.thumb_func
  24              		.type	main, %function
  25              	main:
  26              	.LFB64:
  27              		.file 1 "main.c"
   1:main.c        **** /* ========================================
   2:main.c        ****  *
   3:main.c        ****  * Copyright YOUR COMPANY, THE YEAR
   4:main.c        ****  * All Rights Reserved
   5:main.c        ****  * UNPUBLISHED, LICENSED SOFTWARE.
   6:main.c        ****  *
   7:main.c        ****  * CONFIDENTIAL AND PROPRIETARY INFORMATION
   8:main.c        ****  * WHICH IS THE PROPERTY OF your company.
   9:main.c        ****  *
  10:main.c        ****  * ========================================
  11:main.c        **** */
  12:main.c        **** #include "project.h"
  13:main.c        **** #include <stdio.h>
  14:main.c        **** #include <stdlib.h>
  15:main.c        **** #include <stdint.h>
  16:main.c        **** #include <stdbool.h>
  17:main.c        **** 
  18:main.c        **** int main(void)
  19:main.c        **** {
  28              		.loc 1 19 0
  29              		.cfi_startproc
  30              		@ args = 0, pretend = 0, frame = 0
  31              		@ frame_needed = 0, uses_anonymous_args = 0
  32 0000 38B5     		push	{r3, r4, r5, lr}
  33              		.cfi_def_cfa_offset 16
  34              		.cfi_offset 3, -16
  35              		.cfi_offset 4, -12
  36              		.cfi_offset 5, -8
  37              		.cfi_offset 14, -4
  20:main.c        ****     CyGlobalIntEnable; /* Enable global interrupts. */
ARM GAS  C:\Users\Tri94\AppData\Local\Temp\ccNZkbUM.s 			page 2


  38              		.loc 1 20 0
  39              		.syntax unified
  40              	@ 20 "main.c" 1
  41 0002 62B6     		CPSIE   i
  42              	@ 0 "" 2
  43              	.LVL0:
  21:main.c        **** 
  22:main.c        ****     /* Place your initialization/startup code here (e.g. MyInst_Start()) */
  23:main.c        ****     
  24:main.c        ****     int toogle = 0;
  25:main.c        ****     bool preState;
  26:main.c        ****     bool curState;
  27:main.c        ****     
  28:main.c        ****     //Initial value for preState
  29:main.c        ****     preState = 1;
  44              		.loc 1 29 0
  45              		.thumb
  46              		.syntax unified
  47 0004 0124     		movs	r4, #1
  48 0006 00E0     		b	.L2
  49              	.LVL1:
  50              	.L3:
  19:main.c        ****     CyGlobalIntEnable; /* Enable global interrupts. */
  51              		.loc 1 19 0
  52 0008 2C46     		mov	r4, r5
  53              	.LVL2:
  54              	.L2:
  30:main.c        ****     
  31:main.c        ****     for(;;)
  32:main.c        ****     {
  33:main.c        ****         /* Place your application code here. */
  34:main.c        ****         /*
  35:main.c        ****         if (nSW_Read()){
  36:main.c        ****             LED_Write(0);
  37:main.c        ****         }
  38:main.c        ****         else
  39:main.c        ****             LED_Write(1);
  40:main.c        **** 
  41:main.c        ****         if (nSW_Read() == 0){
  42:main.c        ****             toogle = !toogle;
  43:main.c        ****             LED_Write(toogle);
  44:main.c        ****             while(nSW_Read() == 0);
  45:main.c        ****         }
  46:main.c        **** 
  47:main.c        ****         while(nSW_Read() == 0){
  48:main.c        ****             toogle = !toogle;
  49:main.c        ****             LED_Write(toogle);
  50:main.c        ****             CyDelay(100);
  51:main.c        ****         }
  52:main.c        ****         */
  53:main.c        ****         
  54:main.c        ****         //Read current switch state
  55:main.c        ****         curState = nSW_Read();
  55              		.loc 1 55 0
  56 000a FFF7FEFF 		bl	nSW_Read
  57              	.LVL3:
  58 000e 051C     		adds	r5, r0, #0
ARM GAS  C:\Users\Tri94\AppData\Local\Temp\ccNZkbUM.s 			page 3


  59 0010 18BF     		it	ne
  60 0012 0125     		movne	r5, #1
  61              	.LVL4:
  56:main.c        ****         
  57:main.c        ****         //Detect when switch pushed
  58:main.c        ****         if ( (preState == 1) && (curState == 0))
  62              		.loc 1 58 0
  63 0014 002C     		cmp	r4, #0
  64 0016 F7D0     		beq	.L3
  65              		.loc 1 58 0 is_stmt 0 discriminator 1
  66 0018 0028     		cmp	r0, #0
  67 001a F5D1     		bne	.L3
  59:main.c        ****             LED_Write(!LED_Read());
  68              		.loc 1 59 0 is_stmt 1
  69 001c FFF7FEFF 		bl	LED_Read
  70              	.LVL5:
  71 0020 B0FA80F0 		clz	r0, r0
  72 0024 4009     		lsrs	r0, r0, #5
  73 0026 FFF7FEFF 		bl	LED_Write
  74              	.LVL6:
  75 002a EDE7     		b	.L3
  76              		.cfi_endproc
  77              	.LFE64:
  78              		.size	main, .-main
  79              		.text
  80              	.Letext0:
  81              		.file 2 "c:\\program files (x86)\\cypress\\psoc creator\\4.2\\psoc creator\\import\\gnu\\arm\\5.4.
  82              		.file 3 "c:\\program files (x86)\\cypress\\psoc creator\\4.2\\psoc creator\\import\\gnu\\arm\\5.4.
  83              		.file 4 "Generated_Source\\PSoC5/nSW.h"
  84              		.file 5 "Generated_Source\\PSoC5/LED.h"
  85              		.file 6 "Generated_Source\\PSoC5/core_cm3.h"