ARM GAS  C:\Users\Tri94\AppData\Local\Temp\cc6g7jfe.s 			page 1


   1              		.syntax unified
   2              		.cpu cortex-m3
   3              		.fpu softvfp
   4              		.eabi_attribute 20, 1
   5              		.eabi_attribute 21, 1
   6              		.eabi_attribute 23, 3
   7              		.eabi_attribute 24, 1
   8              		.eabi_attribute 25, 1
   9              		.eabi_attribute 26, 1
  10              		.eabi_attribute 30, 1
  11              		.eabi_attribute 34, 1
  12              		.eabi_attribute 18, 4
  13              		.thumb
  14              		.syntax unified
  15              		.file	"main.c"
  16              		.text
  17              	.Ltext0:
  18              		.cfi_sections	.debug_frame
  19              		.section	.text.myISR_UART,"ax",%progbits
  20              		.align	2
  21              		.global	myISR_UART
  22              		.thumb
  23              		.thumb_func
  24              		.type	myISR_UART, %function
  25              	myISR_UART:
  26              	.LFB71:
  27              		.file 1 "main.c"
   1:main.c        **** /* ========================================
   2:main.c        ****  *
   3:main.c        ****  * Copyright YOUR COMPANY, THE YEAR
   4:main.c        ****  * All Rights Reserved
   5:main.c        ****  * UNPUBLISHED, LICENSED SOFTWARE.
   6:main.c        ****  *
   7:main.c        ****  * CONFIDENTIAL AND PROPRIETARY INFORMATION
   8:main.c        ****  * WHICH IS THE PROPERTY OF your company.
   9:main.c        ****  *
  10:main.c        ****  * ========================================
  11:main.c        **** */
  12:main.c        **** #include "project.h"
  13:main.c        **** #include <stdio.h>
  14:main.c        **** #include <stdlib.h>
  15:main.c        **** #include <stdint.h>
  16:main.c        **** #include <stdbool.h>
  17:main.c        **** 
  18:main.c        **** // ROTS Header Files
  19:main.c        **** #include "FreeRTOS_PSoC.h"
  20:main.c        **** #include "FreeRTOS.h"
  21:main.c        **** #include "task.h"
  22:main.c        **** #include "queue.h"
  23:main.c        **** #include "semphr.h"
  24:main.c        **** #include "timers.h"
  25:main.c        **** #include "event_groups.h"
  26:main.c        **** #include "message_buffer.h"
  27:main.c        **** 
  28:main.c        **** // Your task function
  29:main.c        **** void vUARTTask1(void *pvParaments);
  30:main.c        **** void vWriteLCDTask2(void *pvParaments);
ARM GAS  C:\Users\Tri94\AppData\Local\Temp\cc6g7jfe.s 			page 2


  31:main.c        **** 
  32:main.c        **** void myPSoC2Setup();
  33:main.c        **** void senduart(char *buff, int size);
  34:main.c        **** 
  35:main.c        **** MessageBufferHandle_t xMessageBuffer = NULL;
  36:main.c        **** #define               MESSAGE_BUFFER_SIZE 100
  37:main.c        **** 
  38:main.c        **** CY_ISR_PROTO(myISR_UART);
  39:main.c        **** 
  40:main.c        **** int main(void)
  41:main.c        **** {
  42:main.c        ****     BaseType_t err;
  43:main.c        ****     
  44:main.c        ****     CyGlobalIntEnable; /* Enable global interrupts. */
  45:main.c        **** 
  46:main.c        ****     /* Place your initialization/startup code here (e.g. MyInst_Start()) */
  47:main.c        ****     FreeRTOS_Init();
  48:main.c        ****     myPSoC2Setup();
  49:main.c        ****     
  50:main.c        ****     // Create Mutex
  51:main.c        ****    xMessageBuffer = xMessageBufferCreate(MESSAGE_BUFFER_SIZE);
  52:main.c        **** 
  53:main.c        ****     if (xMessageBuffer == NULL){
  54:main.c        ****         LCD_PrintString("Message Buffer Error!");
  55:main.c        ****         while(1);   // Stop system here
  56:main.c        ****     }
  57:main.c        ****     
  58:main.c        ****     // Create Task
  59:main.c        ****     err = xTaskCreate(vUARTTask1,               // Taskfunction_t pvTaskCode,
  60:main.c        ****                         "Read UART DATA",           // const char * const pcName,
  61:main.c        ****                         configMINIMAL_STACK_SIZE,   // unsigned short usStackDepth,
  62:main.c        ****                         NULL,                       // void *pvParameters,
  63:main.c        ****                         configMAX_PRIORITIES-1,     // UBaseType_t uxPriority,
  64:main.c        ****                         NULL);                      // TaskHandle_t *pxCreatedTask );
  65:main.c        ****     
  66:main.c        ****     if (err != pdPASS){
  67:main.c        ****         // Cannot create task!
  68:main.c        ****         while(1);
  69:main.c        ****     } /*
  70:main.c        ****     err = xTaskCreate(vWriteLCDTask2,               // Taskfunction_t pvTaskCode,
  71:main.c        ****                         "Write LCD",                // const char * const pcName,
  72:main.c        ****                         configMINIMAL_STACK_SIZE,   // unsigned short usStackDepth,
  73:main.c        ****                         NULL,                       // void *pvParameters,
  74:main.c        ****                         configMAX_PRIORITIES-1,     // UBaseType_t uxPriority,
  75:main.c        ****                         NULL);                      // TaskHandle_t *pxCreatedTask );
  76:main.c        ****     
  77:main.c        ****     if (err != pdPASS){
  78:main.c        ****         // Cannot create task!
  79:main.c        ****         while(1);
  80:main.c        ****     }*/
  81:main.c        ****     
  82:main.c        ****     // Start the scheduler, so the tasks start executing
  83:main.c        ****     vTaskStartScheduler();
  84:main.c        ****     
  85:main.c        ****     for(;;)
  86:main.c        ****     {
  87:main.c        ****         /* Place your application code here. */
ARM GAS  C:\Users\Tri94\AppData\Local\Temp\cc6g7jfe.s 			page 3


  88:main.c        ****     }
  89:main.c        **** }
  90:main.c        **** char msg[] = "Hello";
  91:main.c        **** 
  92:main.c        **** void myPSoC2Setup(){
  93:main.c        ****     // Place your component's start code here
  94:main.c        ****     UART_ClearRxBuffer();
  95:main.c        ****     UART_ClearTxBuffer();
  96:main.c        ****     ISR_UART_StartEx(myISR_UART);
  97:main.c        ****     UART_Start();
  98:main.c        ****     UART_USB_Start();
  99:main.c        ****     LCD_Init();
 100:main.c        ****     LCD_Start();
 101:main.c        ****     LCD_ClearDisplay();
 102:main.c        ****     LCD_PrintString(msg);
 103:main.c        ****     UART_USB_PutString("Hello");
 104:main.c        **** }
 105:main.c        **** 
 106:main.c        **** typedef enum STATES_CMD{
 107:main.c        ****     S_IDLE,
 108:main.c        ****     S_GOT_DATE
 109:main.c        **** }STATES_CMD;
 110:main.c        **** 
 111:main.c        **** 
 112:main.c        **** CY_ISR(myISR_UART){
  28              		.loc 1 112 0
  29              		.cfi_startproc
  30              		@ args = 0, pretend = 0, frame = 0
  31              		@ frame_needed = 0, uses_anonymous_args = 0
  32 0000 10B5     		push	{r4, lr}
  33              		.cfi_def_cfa_offset 8
  34              		.cfi_offset 4, -8
  35              		.cfi_offset 14, -4
  36              	.LVL0:
 113:main.c        ****     static char         buf[20];
 114:main.c        ****     static int          idx = 0;
 115:main.c        ****     char                ch;
 116:main.c        ****     BaseType_t          xHigherPriorityTaskWoken = pdFALSE; /* Initialised to pdFALSE */
 117:main.c        ****     /*
 118:main.c        ****     while (UART_GetRxBufferSize() > 0){
 119:main.c        ****         ch = UART_GetByte();
 120:main.c        ****         buf[idx] = ch;
 121:main.c        ****         idx++;
 122:main.c        ****         CyDelay(10);
 123:main.c        ****         UART_USB_PutChar(ch);
 124:main.c        ****         if (idx == 4){
 125:main.c        ****             buf[idx] = '\0';
 126:main.c        ****             xMessageBufferSendFromISR(xMessageBuffer, buf, 4, xHigherPriorityTaskWoken);
 127:main.c        ****             idx = 0;
 128:main.c        ****             UART_USB_PutString(buf);
 129:main.c        ****             LCD_Position(0,0);
 130:main.c        ****             LCD_PrintString(buf);
 131:main.c        ****         }
 132:main.c        ****     }*/
 133:main.c        ****     ch = UART_GetByte();
  37              		.loc 1 133 0
  38 0002 FFF7FEFF 		bl	UART_GetByte
ARM GAS  C:\Users\Tri94\AppData\Local\Temp\cc6g7jfe.s 			page 4


  39              	.LVL1:
  40 0006 C4B2     		uxtb	r4, r0
  41              	.LVL2:
 134:main.c        ****     UART_USB_PutChar(ch);
  42              		.loc 1 134 0
  43 0008 2046     		mov	r0, r4
  44 000a FFF7FEFF 		bl	UART_USB_PutChar
  45              	.LVL3:
 135:main.c        ****     xMessageBufferSendFromISR(xMessageBuffer, ch, 1, xHigherPriorityTaskWoken);
  46              		.loc 1 135 0
  47 000e 0023     		movs	r3, #0
  48 0010 0122     		movs	r2, #1
  49 0012 2146     		mov	r1, r4
  50 0014 0248     		ldr	r0, .L3
  51 0016 0068     		ldr	r0, [r0]
  52 0018 FFF7FEFF 		bl	xStreamBufferSendFromISR
  53              	.LVL4:
  54 001c 10BD     		pop	{r4, pc}
  55              	.LVL5:
  56              	.L4:
  57 001e 00BF     		.align	2
  58              	.L3:
  59 0020 00000000 		.word	.LANCHOR0
  60              		.cfi_endproc
  61              	.LFE71:
  62              		.size	myISR_UART, .-myISR_UART
  63              		.section	.text.vUARTTask1,"ax",%progbits
  64              		.align	2
  65              		.global	vUARTTask1
  66              		.thumb
  67              		.thumb_func
  68              		.type	vUARTTask1, %function
  69              	vUARTTask1:
  70              	.LFB72:
 136:main.c        ****     //LCD_PutChar(ch);
 137:main.c        **** }
 138:main.c        **** 
 139:main.c        **** 
 140:main.c        **** 
 141:main.c        **** // Task to read sensor data and write to global variable
 142:main.c        **** void vUARTTask1(void *pvParaments){
  71              		.loc 1 142 0
  72              		.cfi_startproc
  73              		@ args = 0, pretend = 0, frame = 24
  74              		@ frame_needed = 0, uses_anonymous_args = 0
  75              	.LVL6:
  76 0000 10B5     		push	{r4, lr}
  77              		.cfi_def_cfa_offset 8
  78              		.cfi_offset 4, -8
  79              		.cfi_offset 14, -4
  80 0002 86B0     		sub	sp, sp, #24
  81              		.cfi_def_cfa_offset 32
  82              	.LVL7:
  83              	.L8:
 143:main.c        ****     
 144:main.c        ****     char led_on[4]    = ":L1:";
 145:main.c        ****     char led_off[4]   = ":L2:";
ARM GAS  C:\Users\Tri94\AppData\Local\Temp\cc6g7jfe.s 			page 5


 146:main.c        ****     char servo_on[4]  = ":S1:";
 147:main.c        ****     char servo_off[4] = ":S2:";
 148:main.c        ****     char music_on[4]  = ":M1:";
 149:main.c        ****     char music_off[4] = ":M2:";
 150:main.c        ****     
 151:main.c        ****     char    buf[20];
 152:main.c        ****     char    str[20];
 153:main.c        ****     size_t  rxSize;
 154:main.c        ****     char    *delim1 = ";";
 155:main.c        ****     char    *delim2 = ":";
 156:main.c        ****     char    *pch;
 157:main.c        ****     uint8_t     distance;
 158:main.c        ****   
 159:main.c        ****     
 160:main.c        ****     while(1){
 161:main.c        ****         
 162:main.c        ****         if (xMessageBufferIsEmpty( xMessageBuffer ) == pdFALSE){
  84              		.loc 1 162 0
  85 0004 0F4B     		ldr	r3, .L10
  86 0006 1868     		ldr	r0, [r3]
  87 0008 FFF7FEFF 		bl	xStreamBufferIsEmpty
  88              	.LVL8:
  89 000c B0B9     		cbnz	r0, .L6
 163:main.c        ****             
 164:main.c        ****             /*
 165:main.c        ****             rxSize = xMessageBufferReceive(xMessageBuffer,buf,4,100);
 166:main.c        ****             UART_USB_PutString(pch);
 167:main.c        ****             pch = strtok(buf, delim1);
 168:main.c        ****             UART_USB_PutString(pch);
 169:main.c        ****             CyDelay(100);
 170:main.c        ****             pch = strtok(buf, delim2);
 171:main.c        ****             distance = atoi(pch);
 172:main.c        ****             UART_USB_PutString(pch);
 173:main.c        ****             sprintf(buf,"Distance: %d  ",distance);
 174:main.c        ****             LCD_Position(1,0);
 175:main.c        ****             LCD_PrintString(buf);
 176:main.c        ****             */
 177:main.c        ****             
 178:main.c        ****             rxSize = xMessageBufferReceive(xMessageBuffer,distance,1,100);
  90              		.loc 1 178 0
  91 000e 6423     		movs	r3, #100
  92 0010 0122     		movs	r2, #1
  93 0012 0024     		movs	r4, #0
  94 0014 2146     		mov	r1, r4
  95 0016 0B48     		ldr	r0, .L10
  96 0018 0068     		ldr	r0, [r0]
  97 001a FFF7FEFF 		bl	xStreamBufferReceive
  98              	.LVL9:
 179:main.c        ****             sprintf(str,"Dis: %d  ",distance);
  99              		.loc 1 179 0
 100 001e 2246     		mov	r2, r4
 101 0020 0949     		ldr	r1, .L10+4
 102 0022 01A8     		add	r0, sp, #4
 103 0024 FFF7FEFF 		bl	sprintf
 104              	.LVL10:
 180:main.c        ****             LCD_Position(1,0);
 105              		.loc 1 180 0
ARM GAS  C:\Users\Tri94\AppData\Local\Temp\cc6g7jfe.s 			page 6


 106 0028 2146     		mov	r1, r4
 107 002a 0120     		movs	r0, #1
 108 002c FFF7FEFF 		bl	LCD_Position
 109              	.LVL11:
 181:main.c        ****             LCD_PrintString(str);
 110              		.loc 1 181 0
 111 0030 01A8     		add	r0, sp, #4
 112 0032 FFF7FEFF 		bl	LCD_PrintString
 113              	.LVL12:
 182:main.c        ****             if (distance < 50){
 183:main.c        ****                 // Open gate etc
 184:main.c        ****                 LED_Write(0);
 114              		.loc 1 184 0
 115 0036 2046     		mov	r0, r4
 116 0038 FFF7FEFF 		bl	LED_Write
 117              	.LVL13:
 118              	.L6:
 185:main.c        ****             } else{
 186:main.c        ****                 // Close gate etc
 187:main.c        ****                 LED_Write(1);
 188:main.c        ****             }       
 189:main.c        ****         }
 190:main.c        ****         vTaskDelay(pdMS_TO_TICKS(100)); // Delay for 50 ms
 119              		.loc 1 190 0
 120 003c 6420     		movs	r0, #100
 121 003e FFF7FEFF 		bl	vTaskDelay
 122              	.LVL14:
 191:main.c        ****     }
 123              		.loc 1 191 0
 124 0042 DFE7     		b	.L8
 125              	.L11:
 126              		.align	2
 127              	.L10:
 128 0044 00000000 		.word	.LANCHOR0
 129 0048 00000000 		.word	.LC0
 130              		.cfi_endproc
 131              	.LFE72:
 132              		.size	vUARTTask1, .-vUARTTask1
 133              		.section	.text.myPSoC2Setup,"ax",%progbits
 134              		.align	2
 135              		.global	myPSoC2Setup
 136              		.thumb
 137              		.thumb_func
 138              		.type	myPSoC2Setup, %function
 139              	myPSoC2Setup:
 140              	.LFB70:
  92:main.c        ****     // Place your component's start code here
 141              		.loc 1 92 0
 142              		.cfi_startproc
 143              		@ args = 0, pretend = 0, frame = 0
 144              		@ frame_needed = 0, uses_anonymous_args = 0
 145 0000 08B5     		push	{r3, lr}
 146              		.cfi_def_cfa_offset 8
 147              		.cfi_offset 3, -8
 148              		.cfi_offset 14, -4
  94:main.c        ****     UART_ClearTxBuffer();
 149              		.loc 1 94 0
ARM GAS  C:\Users\Tri94\AppData\Local\Temp\cc6g7jfe.s 			page 7


 150 0002 FFF7FEFF 		bl	UART_ClearRxBuffer
 151              	.LVL15:
  95:main.c        ****     ISR_UART_StartEx(myISR_UART);
 152              		.loc 1 95 0
 153 0006 FFF7FEFF 		bl	UART_ClearTxBuffer
 154              	.LVL16:
  96:main.c        ****     UART_Start();
 155              		.loc 1 96 0
 156 000a 0A48     		ldr	r0, .L14
 157 000c FFF7FEFF 		bl	ISR_UART_StartEx
 158              	.LVL17:
  97:main.c        ****     UART_USB_Start();
 159              		.loc 1 97 0
 160 0010 FFF7FEFF 		bl	UART_Start
 161              	.LVL18:
  98:main.c        ****     LCD_Init();
 162              		.loc 1 98 0
 163 0014 FFF7FEFF 		bl	UART_USB_Start
 164              	.LVL19:
  99:main.c        ****     LCD_Start();
 165              		.loc 1 99 0
 166 0018 FFF7FEFF 		bl	LCD_Init
 167              	.LVL20:
 100:main.c        ****     LCD_ClearDisplay();
 168              		.loc 1 100 0
 169 001c FFF7FEFF 		bl	LCD_Start
 170              	.LVL21:
 101:main.c        ****     LCD_PrintString(msg);
 171              		.loc 1 101 0
 172 0020 0120     		movs	r0, #1
 173 0022 FFF7FEFF 		bl	LCD_WriteControl
 174              	.LVL22:
 102:main.c        ****     UART_USB_PutString("Hello");
 175              		.loc 1 102 0
 176 0026 0448     		ldr	r0, .L14+4
 177 0028 FFF7FEFF 		bl	LCD_PrintString
 178              	.LVL23:
 103:main.c        **** }
 179              		.loc 1 103 0
 180 002c 0348     		ldr	r0, .L14+8
 181 002e FFF7FEFF 		bl	UART_USB_PutString
 182              	.LVL24:
 183 0032 08BD     		pop	{r3, pc}
 184              	.L15:
 185              		.align	2
 186              	.L14:
 187 0034 00000000 		.word	myISR_UART
 188 0038 00000000 		.word	.LANCHOR1
 189 003c 0C000000 		.word	.LC1
 190              		.cfi_endproc
 191              	.LFE70:
 192              		.size	myPSoC2Setup, .-myPSoC2Setup
 193              		.section	.text.main,"ax",%progbits
 194              		.align	2
 195              		.global	main
 196              		.thumb
 197              		.thumb_func
ARM GAS  C:\Users\Tri94\AppData\Local\Temp\cc6g7jfe.s 			page 8


 198              		.type	main, %function
 199              	main:
 200              	.LFB69:
  41:main.c        ****     BaseType_t err;
 201              		.loc 1 41 0
 202              		.cfi_startproc
 203              		@ args = 0, pretend = 0, frame = 0
 204              		@ frame_needed = 0, uses_anonymous_args = 0
 205 0000 00B5     		push	{lr}
 206              		.cfi_def_cfa_offset 4
 207              		.cfi_offset 14, -4
 208 0002 83B0     		sub	sp, sp, #12
 209              		.cfi_def_cfa_offset 16
  44:main.c        **** 
 210              		.loc 1 44 0
 211              		.syntax unified
 212              	@ 44 "main.c" 1
 213 0004 62B6     		CPSIE   i
 214              	@ 0 "" 2
  47:main.c        ****     myPSoC2Setup();
 215              		.loc 1 47 0
 216              		.thumb
 217              		.syntax unified
 218 0006 FFF7FEFF 		bl	FreeRTOS_Init
 219              	.LVL25:
  48:main.c        ****     
 220              		.loc 1 48 0
 221 000a FFF7FEFF 		bl	myPSoC2Setup
 222              	.LVL26:
  51:main.c        **** 
 223              		.loc 1 51 0
 224 000e 0122     		movs	r2, #1
 225 0010 0021     		movs	r1, #0
 226 0012 6420     		movs	r0, #100
 227 0014 FFF7FEFF 		bl	xStreamBufferGenericCreate
 228              	.LVL27:
 229 0018 0A4B     		ldr	r3, .L23
 230 001a 1860     		str	r0, [r3]
  53:main.c        ****         LCD_PrintString("Message Buffer Error!");
 231              		.loc 1 53 0
 232 001c 18B9     		cbnz	r0, .L17
  54:main.c        ****         while(1);   // Stop system here
 233              		.loc 1 54 0
 234 001e 0A48     		ldr	r0, .L23+4
 235 0020 FFF7FEFF 		bl	LCD_PrintString
 236              	.LVL28:
 237              	.L18:
 238 0024 FEE7     		b	.L18
 239              	.L17:
  59:main.c        ****                         "Read UART DATA",           // const char * const pcName,
 240              		.loc 1 59 0
 241 0026 0023     		movs	r3, #0
 242 0028 0193     		str	r3, [sp, #4]
 243 002a 0422     		movs	r2, #4
 244 002c 0092     		str	r2, [sp]
 245 002e C822     		movs	r2, #200
 246 0030 0649     		ldr	r1, .L23+8
ARM GAS  C:\Users\Tri94\AppData\Local\Temp\cc6g7jfe.s 			page 9


 247 0032 0748     		ldr	r0, .L23+12
 248 0034 FFF7FEFF 		bl	xTaskCreate
 249              	.LVL29:
  66:main.c        ****         // Cannot create task!
 250              		.loc 1 66 0
 251 0038 0128     		cmp	r0, #1
 252 003a 00D0     		beq	.L19
 253              	.L20:
 254 003c FEE7     		b	.L20
 255              	.L19:
  83:main.c        ****     
 256              		.loc 1 83 0
 257 003e FFF7FEFF 		bl	vTaskStartScheduler
 258              	.LVL30:
 259              	.L21:
 260 0042 FEE7     		b	.L21
 261              	.L24:
 262              		.align	2
 263              	.L23:
 264 0044 00000000 		.word	.LANCHOR0
 265 0048 14000000 		.word	.LC2
 266 004c 2C000000 		.word	.LC3
 267 0050 00000000 		.word	vUARTTask1
 268              		.cfi_endproc
 269              	.LFE69:
 270              		.size	main, .-main
 271              		.global	msg
 272              		.global	xMessageBuffer
 273              		.data
 274              		.align	2
 275              		.set	.LANCHOR1,. + 0
 276              		.type	msg, %object
 277              		.size	msg, 6
 278              	msg:
 279 0000 48656C6C 		.ascii	"Hello\000"
 279      6F00
 280              		.section	.rodata.str1.4,"aMS",%progbits,1
 281              		.align	2
 282              	.LC0:
 283 0000 4469733A 		.ascii	"Dis: %d  \000"
 283      20256420 
 283      2000
 284 000a 0000     		.space	2
 285              	.LC1:
 286 000c 48656C6C 		.ascii	"Hello\000"
 286      6F00
 287 0012 0000     		.space	2
 288              	.LC2:
 289 0014 4D657373 		.ascii	"Message Buffer Error!\000"
 289      61676520 
 289      42756666 
 289      65722045 
 289      72726F72 
 290 002a 0000     		.space	2
 291              	.LC3:
 292 002c 52656164 		.ascii	"Read UART DATA\000"
 292      20554152 
ARM GAS  C:\Users\Tri94\AppData\Local\Temp\cc6g7jfe.s 			page 10


 292      54204441 
 292      544100
 293              		.bss
 294              		.align	2
 295              		.set	.LANCHOR0,. + 0
 296              		.type	xMessageBuffer, %object
 297              		.size	xMessageBuffer, 4
 298              	xMessageBuffer:
 299 0000 00000000 		.space	4
 300              		.text
 301              	.Letext0:
 302              		.file 2 "c:\\program files (x86)\\cypress\\psoc creator\\4.2\\psoc creator\\import\\gnu\\arm\\5.4.
 303              		.file 3 "c:\\program files (x86)\\cypress\\psoc creator\\4.2\\psoc creator\\import\\gnu\\arm\\5.4.
 304              		.file 4 "c:\\program files (x86)\\cypress\\psoc creator\\4.2\\psoc creator\\import\\gnu\\arm\\5.4.
 305              		.file 5 "..\\FreeRTOS\\portable\\GCC\\ARM_CM3/portmacro.h"
 306              		.file 6 "..\\FreeRTOS\\include/stream_buffer.h"
 307              		.file 7 "..\\FreeRTOS\\include/message_buffer.h"
 308              		.file 8 "Generated_Source\\PSoC5/core_cm3.h"
 309              		.file 9 "Generated_Source\\PSoC5/UART.h"
 310              		.file 10 "Generated_Source\\PSoC5/UART_USB.h"
 311              		.file 11 "c:\\program files (x86)\\cypress\\psoc creator\\4.2\\psoc creator\\import\\gnu\\arm\\5.4
 312              		.file 12 "Generated_Source\\PSoC5/LCD.h"
 313              		.file 13 "Generated_Source\\PSoC5/LED.h"
 314              		.file 14 "..\\FreeRTOS\\include/task.h"
 315              		.file 15 "Generated_Source\\PSoC5/ISR_UART.h"
 316              		.file 16 "..\\FreeRTOS/FreeRTOS_PSoC.h"