ARM GAS  C:\Users\Tri94\AppData\Local\Temp\cc78C1At.s 			page 1


   1              		.syntax unified
   2              		.cpu cortex-m3
   3              		.fpu softvfp
   4              		.eabi_attribute 20, 1
   5              		.eabi_attribute 21, 1
   6              		.eabi_attribute 23, 3
   7              		.eabi_attribute 24, 1
   8              		.eabi_attribute 25, 1
   9              		.eabi_attribute 26, 1
  10              		.eabi_attribute 30, 1
  11              		.eabi_attribute 34, 1
  12              		.eabi_attribute 18, 4
  13              		.thumb
  14              		.syntax unified
  15              		.file	"main.c"
  16              		.text
  17              	.Ltext0:
  18              		.cfi_sections	.debug_frame
  19              		.section	.text.Read_I2C,"ax",%progbits
  20              		.align	2
  21              		.global	Read_I2C
  22              		.thumb
  23              		.thumb_func
  24              		.type	Read_I2C, %function
  25              	Read_I2C:
  26              	.LFB65:
  27              		.file 1 "main.c"
   1:main.c        **** /* ========================================
   2:main.c        ****  *
   3:main.c        ****  * Copyright YOUR COMPANY, THE YEAR
   4:main.c        ****  * All Rights Reserved
   5:main.c        ****  * UNPUBLISHED, LICENSED SOFTWARE.
   6:main.c        ****  *
   7:main.c        ****  * CONFIDENTIAL AND PROPRIETARY INFORMATION
   8:main.c        ****  * WHICH IS THE PROPERTY OF your company.
   9:main.c        ****  *
  10:main.c        ****  * ========================================
  11:main.c        **** */
  12:main.c        **** #include "project.h"
  13:main.c        **** #include <stdio.h>
  14:main.c        **** #include <stdlib.h>
  15:main.c        **** #include <stdint.h>
  16:main.c        **** #include <stdbool.h>
  17:main.c        **** 
  18:main.c        **** #define ADDR_DS3231 0x68
  19:main.c        **** #define ADDR_DS1307 0x68
  20:main.c        **** #define _I2C_WRITE  0
  21:main.c        **** #define _I2C_Read   1
  22:main.c        **** 
  23:main.c        **** #define DS1307_REG_CONTROL 0x07
  24:main.c        **** 
  25:main.c        **** #define DS3231_REG_SECONDS 0x00
  26:main.c        **** #define DS3231_REG_CONTROL 0x0E
  27:main.c        **** #define DS3231_REG_STATUS 0x0F
  28:main.c        **** 
  29:main.c        **** #define SUNDAY 1
  30:main.c        **** #define MONDAY 2
ARM GAS  C:\Users\Tri94\AppData\Local\Temp\cc78C1At.s 			page 2


  31:main.c        **** #define TUESDAY 3
  32:main.c        **** #define WEDNESDAY 4
  33:main.c        **** #define THURSDAY 5
  34:main.c        **** #define FRIDAY 6
  35:main.c        **** #define SATURDAY 7
  36:main.c        **** 
  37:main.c        **** bool Read_I2C(uint8_t addr, uint8_t reg, uint8_t length, uint8_t *buf);
  38:main.c        **** bool Write_I2C(uint8_t addr, uint8_t reg, uint8_t length, uint8_t *buf);
  39:main.c        **** 
  40:main.c        **** #define BCD2DEC(bcd) ( (bcd>>4)*10 + (bcd & 0x0F) )
  41:main.c        **** 
  42:main.c        **** //smartguy4198@hotmail.com
  43:main.c        **** 
  44:main.c        **** int main(void)
  45:main.c        **** {
  46:main.c        ****     uint8_t buf[7];
  47:main.c        ****     int delay;
  48:main.c        ****     uint8_t mm,dd,h,m,s,dow;
  49:main.c        ****     uint16_t yyyy;
  50:main.c        ****     bool     ampm;
  51:main.c        ****     char str[40];
  52:main.c        ****     char    *day[]={"SUN","MON","TUE","WED","THR","FRI","SAT"};
  53:main.c        ****     
  54:main.c        ****     CyGlobalIntEnable; /* Enable global interrupts. */
  55:main.c        **** 
  56:main.c        ****     /* Place your initialization/startup code here (e.g. MyInst_Start()) */
  57:main.c        ****     LCD_Start();
  58:main.c        ****     LCD_ClearDisplay();
  59:main.c        ****     
  60:main.c        ****     I2C_Start();
  61:main.c        ****     /*
  62:main.c        ****     //Skip this if if you got DS1307
  63:main.c        ****     if ( Read_I2C(ADDR_DS3231,DS3231_REG_CONTROL,1,buf)){
  64:main.c        ****         if (buf[0] & 0x80){
  65:main.c        ****             buf[0] &= 0x80; // Clear /EOSC(bit7) to 0
  66:main.c        ****             Write_I2C(ADDR_DS3231,DS3231_REG_CONTROL,1,buf);
  67:main.c        ****         }
  68:main.c        ****     }
  69:main.c        ****     */
  70:main.c        ****     LCD_PrintString("Update Data?");
  71:main.c        ****     delay = 2;
  72:main.c        ****     
  73:main.c        ****     while(delay--){
  74:main.c        ****         if(!nSW_Read()){
  75:main.c        ****             buf[0] = 0x30;          // 30sec
  76:main.c        ****             buf[1] = 0x29;          // 29min
  77:main.c        ****             buf[2] = 0x60 | 0x02;   // 2pm: 12-Hour format (bit6=1), PM(bit5=1)
  78:main.c        ****             buf[3] = THURSDAY;
  79:main.c        ****             buf[4] = 0x08;          // Date:    08
  80:main.c        ****             buf[5] = 0x10;          // Month:   10
  81:main.c        ****             buf[6] = 0x19;          // Year :   2019
  82:main.c        ****             if (Write_I2C(ADDR_DS1307,0x00,7,buf)){
  83:main.c        ****                 LCD_ClearDisplay();
  84:main.c        ****                 LCD_PrintString("Date Updated!");
  85:main.c        ****                 CyDelay(1000);      //Delay for 1sec
  86:main.c        ****             }
  87:main.c        ****             break;            
ARM GAS  C:\Users\Tri94\AppData\Local\Temp\cc78C1At.s 			page 3


  88:main.c        ****         }
  89:main.c        ****         CyDelay(100);   //Delay for 100ms
  90:main.c        ****     }
  91:main.c        ****     for(;;)
  92:main.c        ****     {
  93:main.c        ****         /* Place your application code here. */
  94:main.c        ****         // Read the date/time from DS1307
  95:main.c        ****         if (Read_I2C(ADDR_DS1307,0x00,7,buf)){
  96:main.c        ****             //Check bit6 12/24 hour format
  97:main.c        ****             if (buf[2] & 0x40){
  98:main.c        ****                 //12-Hour format
  99:main.c        ****                 ampm = buf[2] & 0x20;   //bit5: /AM.PM
 100:main.c        ****                 s    = BCD2DEC(buf[0] & 0x7F);
 101:main.c        ****                 m    = BCD2DEC(buf[1] & 0x7F);
 102:main.c        ****                 h    = BCD2DEC(buf[2] & 0x1F);
 103:main.c        ****                 dow  = BCD2DEC(buf[3] & 0x07);
 104:main.c        ****                 dd   = BCD2DEC(buf[4] & 0x1F);
 105:main.c        ****                 mm   = BCD2DEC(buf[5] & 0x1F);
 106:main.c        ****                 yyyy = BCD2DEC(buf[6] & 0x1F)+2000;
 107:main.c        ****                 if (ampm == 0)
 108:main.c        ****                     sprintf(str,"%2d:%2d/%2d AM",h,m,s);
 109:main.c        ****                 else
 110:main.c        ****                     sprintf(str,"%2d:%2d/%2d PM",h,m,s);
 111:main.c        ****                 LCD_Position(1,0);
 112:main.c        ****                 LCD_PrintString(str);
 113:main.c        ****             }else{
 114:main.c        ****                 //24-Hourt format
 115:main.c        ****                 s    = BCD2DEC(buf[0] & 0x7F);
 116:main.c        ****                 m    = BCD2DEC(buf[1] & 0x7F);
 117:main.c        ****                 h    = BCD2DEC(buf[2] & 0x3F);
 118:main.c        ****                 dow  = BCD2DEC(buf[3] & 0x07);
 119:main.c        ****                 dd   = BCD2DEC(buf[4] & 0x1F);
 120:main.c        ****                 mm   = BCD2DEC(buf[5] & 0x1F);
 121:main.c        ****                 yyyy = BCD2DEC(buf[6] & 0x1F)+2000;
 122:main.c        ****                 sprintf(str,"%2d:%2d/%2d PM",h,m,s);
 123:main.c        ****                 LCD_Position(1,0);
 124:main.c        ****                 LCD_PrintString(str);
 125:main.c        ****             }
 126:main.c        ****             sprintf(str,"%4d/%2d/%2d %s",yyyy,mm,dd,day[dow-1]);
 127:main.c        ****             LCD_Position(0,0);
 128:main.c        ****             LCD_PrintString(str);
 129:main.c        ****             
 130:main.c        ****             
 131:main.c        ****         }
 132:main.c        ****     }
 133:main.c        **** }
 134:main.c        **** 
 135:main.c        **** bool Read_I2C(uint8_t addr, uint8_t reg, uint8_t length, uint8_t *buf){
  28              		.loc 1 135 0
  29              		.cfi_startproc
  30              		@ args = 0, pretend = 0, frame = 0
  31              		@ frame_needed = 0, uses_anonymous_args = 0
  32              	.LVL0:
  33 0000 F8B5     		push	{r3, r4, r5, r6, r7, lr}
  34              		.cfi_def_cfa_offset 24
  35              		.cfi_offset 3, -24
  36              		.cfi_offset 4, -20
ARM GAS  C:\Users\Tri94\AppData\Local\Temp\cc78C1At.s 			page 4


  37              		.cfi_offset 5, -16
  38              		.cfi_offset 6, -12
  39              		.cfi_offset 7, -8
  40              		.cfi_offset 14, -4
  41 0002 0746     		mov	r7, r0
  42 0004 0C46     		mov	r4, r1
  43 0006 1546     		mov	r5, r2
  44 0008 1E46     		mov	r6, r3
 136:main.c        ****     uint8_t err;
 137:main.c        ****     int i;
 138:main.c        ****     
 139:main.c        ****     err = I2C_MasterSendStart(addr,_I2C_WRITE);    //Write first
  45              		.loc 1 139 0
  46 000a 0021     		movs	r1, #0
  47              	.LVL1:
  48 000c FFF7FEFF 		bl	I2C_MasterSendStart
  49              	.LVL2:
 140:main.c        ****     if (err != I2C_MSTR_NO_ERROR){
  50              		.loc 1 140 0
  51 0010 18B1     		cbz	r0, .L2
 141:main.c        ****         I2C_MasterSendStop();
  52              		.loc 1 141 0
  53 0012 FFF7FEFF 		bl	I2C_MasterSendStop
  54              	.LVL3:
 142:main.c        ****         return false;
  55              		.loc 1 142 0
  56 0016 0020     		movs	r0, #0
  57 0018 F8BD     		pop	{r3, r4, r5, r6, r7, pc}
  58              	.LVL4:
  59              	.L2:
 143:main.c        ****     }
 144:main.c        ****     err = I2C_MasterWriteByte(reg);
  60              		.loc 1 144 0
  61 001a 2046     		mov	r0, r4
  62              	.LVL5:
  63 001c FFF7FEFF 		bl	I2C_MasterWriteByte
  64              	.LVL6:
 145:main.c        ****     if (err != I2C_MSTR_NO_ERROR){
  65              		.loc 1 145 0
  66 0020 18B1     		cbz	r0, .L4
 146:main.c        ****         I2C_MasterSendStop();
  67              		.loc 1 146 0
  68 0022 FFF7FEFF 		bl	I2C_MasterSendStop
  69              	.LVL7:
 147:main.c        ****         return false;
  70              		.loc 1 147 0
  71 0026 0020     		movs	r0, #0
  72 0028 F8BD     		pop	{r3, r4, r5, r6, r7, pc}
  73              	.LVL8:
  74              	.L4:
 148:main.c        ****     }
 149:main.c        ****     err = I2C_MasterSendRestart(addr,_I2C_Read);
  75              		.loc 1 149 0
  76 002a 0121     		movs	r1, #1
  77 002c 3846     		mov	r0, r7
  78              	.LVL9:
  79 002e FFF7FEFF 		bl	I2C_MasterSendRestart
ARM GAS  C:\Users\Tri94\AppData\Local\Temp\cc78C1At.s 			page 5


  80              	.LVL10:
 150:main.c        ****     if (err != I2C_MSTR_NO_ERROR){
  81              		.loc 1 150 0
  82 0032 88B1     		cbz	r0, .L9
 151:main.c        ****         I2C_MasterSendStop();
  83              		.loc 1 151 0
  84 0034 FFF7FEFF 		bl	I2C_MasterSendStop
  85              	.LVL11:
 152:main.c        ****         return false;
  86              		.loc 1 152 0
  87 0038 0020     		movs	r0, #0
  88 003a F8BD     		pop	{r3, r4, r5, r6, r7, pc}
  89              	.LVL12:
  90              	.L8:
 153:main.c        ****     }
 154:main.c        ****     
 155:main.c        ****     for (i = 0; i < length; i++){
 156:main.c        ****         if (i == (length-1) )
  91              		.loc 1 156 0
  92 003c 6B1E     		subs	r3, r5, #1
  93 003e 9C42     		cmp	r4, r3
  94 0040 04D1     		bne	.L6
 157:main.c        ****             buf[i] = I2C_MasterReadByte(I2C_NAK_DATA);
  95              		.loc 1 157 0
  96 0042 0020     		movs	r0, #0
  97 0044 FFF7FEFF 		bl	I2C_MasterReadByte
  98              	.LVL13:
  99 0048 3055     		strb	r0, [r6, r4]
 100 004a 03E0     		b	.L7
 101              	.L6:
 158:main.c        ****         else
 159:main.c        ****             buf[i] = I2C_MasterReadByte(I2C_ACK_DATA);
 102              		.loc 1 159 0
 103 004c 0120     		movs	r0, #1
 104 004e FFF7FEFF 		bl	I2C_MasterReadByte
 105              	.LVL14:
 106 0052 3055     		strb	r0, [r6, r4]
 107              	.L7:
 155:main.c        ****         if (i == (length-1) )
 108              		.loc 1 155 0 discriminator 2
 109 0054 0134     		adds	r4, r4, #1
 110              	.LVL15:
 111 0056 00E0     		b	.L5
 112              	.LVL16:
 113              	.L9:
 114 0058 0024     		movs	r4, #0
 115              	.LVL17:
 116              	.L5:
 155:main.c        ****         if (i == (length-1) )
 117              		.loc 1 155 0 is_stmt 0 discriminator 1
 118 005a AC42     		cmp	r4, r5
 119 005c EEDB     		blt	.L8
 160:main.c        ****       
 161:main.c        ****     }
 162:main.c        ****     I2C_MasterSendStop();
 120              		.loc 1 162 0 is_stmt 1
 121 005e FFF7FEFF 		bl	I2C_MasterSendStop
ARM GAS  C:\Users\Tri94\AppData\Local\Temp\cc78C1At.s 			page 6


 122              	.LVL18:
 163:main.c        ****     return true;
 123              		.loc 1 163 0
 124 0062 0120     		movs	r0, #1
 164:main.c        **** }
 125              		.loc 1 164 0
 126 0064 F8BD     		pop	{r3, r4, r5, r6, r7, pc}
 127              		.cfi_endproc
 128              	.LFE65:
 129              		.size	Read_I2C, .-Read_I2C
 130 0066 00BF     		.section	.text.Write_I2C,"ax",%progbits
 131              		.align	2
 132              		.global	Write_I2C
 133              		.thumb
 134              		.thumb_func
 135              		.type	Write_I2C, %function
 136              	Write_I2C:
 137              	.LFB66:
 165:main.c        **** bool Write_I2C(uint8_t addr, uint8_t reg, uint8_t length, uint8_t *buf){
 138              		.loc 1 165 0
 139              		.cfi_startproc
 140              		@ args = 0, pretend = 0, frame = 0
 141              		@ frame_needed = 0, uses_anonymous_args = 0
 142              	.LVL19:
 143 0000 70B5     		push	{r4, r5, r6, lr}
 144              		.cfi_def_cfa_offset 16
 145              		.cfi_offset 4, -16
 146              		.cfi_offset 5, -12
 147              		.cfi_offset 6, -8
 148              		.cfi_offset 14, -4
 149 0002 0C46     		mov	r4, r1
 150 0004 1546     		mov	r5, r2
 151 0006 1E46     		mov	r6, r3
 166:main.c        ****     uint8_t err;
 167:main.c        ****     int i;
 168:main.c        ****     
 169:main.c        ****     err = I2C_MasterSendStart(addr,_I2C_WRITE);    //Write first
 152              		.loc 1 169 0
 153 0008 0021     		movs	r1, #0
 154              	.LVL20:
 155 000a FFF7FEFF 		bl	I2C_MasterSendStart
 156              	.LVL21:
 170:main.c        ****     if (err != I2C_MSTR_NO_ERROR){
 157              		.loc 1 170 0
 158 000e 18B1     		cbz	r0, .L12
 171:main.c        ****         I2C_MasterSendStop();
 159              		.loc 1 171 0
 160 0010 FFF7FEFF 		bl	I2C_MasterSendStop
 161              	.LVL22:
 172:main.c        ****         return false;
 162              		.loc 1 172 0
 163 0014 0020     		movs	r0, #0
 164 0016 70BD     		pop	{r4, r5, r6, pc}
 165              	.LVL23:
 166              	.L12:
 173:main.c        ****     }
 174:main.c        ****     
ARM GAS  C:\Users\Tri94\AppData\Local\Temp\cc78C1At.s 			page 7


 175:main.c        ****     err = I2C_MasterWriteByte(reg);
 167              		.loc 1 175 0
 168 0018 2046     		mov	r0, r4
 169              	.LVL24:
 170 001a FFF7FEFF 		bl	I2C_MasterWriteByte
 171              	.LVL25:
 176:main.c        ****     if (err != I2C_MSTR_NO_ERROR){
 172              		.loc 1 176 0
 173 001e 40B1     		cbz	r0, .L16
 177:main.c        ****         I2C_MasterSendStop();
 174              		.loc 1 177 0
 175 0020 FFF7FEFF 		bl	I2C_MasterSendStop
 176              	.LVL26:
 178:main.c        ****         return false;
 177              		.loc 1 178 0
 178 0024 0020     		movs	r0, #0
 179 0026 70BD     		pop	{r4, r5, r6, pc}
 180              	.LVL27:
 181              	.L15:
 179:main.c        ****     }
 180:main.c        ****     
 181:main.c        ****     for (i = 0; i < length; i++){
 182:main.c        ****         I2C_MasterWriteByte(buf[i]);
 182              		.loc 1 182 0 discriminator 3
 183 0028 305D     		ldrb	r0, [r6, r4]	@ zero_extendqisi2
 184 002a FFF7FEFF 		bl	I2C_MasterWriteByte
 185              	.LVL28:
 181:main.c        ****         I2C_MasterWriteByte(buf[i]);
 186              		.loc 1 181 0 discriminator 3
 187 002e 0134     		adds	r4, r4, #1
 188              	.LVL29:
 189 0030 00E0     		b	.L14
 190              	.LVL30:
 191              	.L16:
 192 0032 0024     		movs	r4, #0
 193              	.LVL31:
 194              	.L14:
 181:main.c        ****         I2C_MasterWriteByte(buf[i]);
 195              		.loc 1 181 0 is_stmt 0 discriminator 1
 196 0034 AC42     		cmp	r4, r5
 197 0036 F7DB     		blt	.L15
 183:main.c        ****     }
 184:main.c        ****     I2C_MasterSendStop();
 198              		.loc 1 184 0 is_stmt 1
 199 0038 FFF7FEFF 		bl	I2C_MasterSendStop
 200              	.LVL32:
 185:main.c        ****     return true;
 201              		.loc 1 185 0
 202 003c 0120     		movs	r0, #1
 186:main.c        **** }
 203              		.loc 1 186 0
 204 003e 70BD     		pop	{r4, r5, r6, pc}
 205              		.cfi_endproc
 206              	.LFE66:
 207              		.size	Write_I2C, .-Write_I2C
 208              		.section	.text.main,"ax",%progbits
 209              		.align	2
ARM GAS  C:\Users\Tri94\AppData\Local\Temp\cc78C1At.s 			page 8


 210              		.global	main
 211              		.thumb
 212              		.thumb_func
 213              		.type	main, %function
 214              	main:
 215              	.LFB64:
  45:main.c        ****     uint8_t buf[7];
 216              		.loc 1 45 0
 217              		.cfi_startproc
 218              		@ args = 0, pretend = 0, frame = 80
 219              		@ frame_needed = 0, uses_anonymous_args = 0
 220 0000 F0B5     		push	{r4, r5, r6, r7, lr}
 221              		.cfi_def_cfa_offset 20
 222              		.cfi_offset 4, -20
 223              		.cfi_offset 5, -16
 224              		.cfi_offset 6, -12
 225              		.cfi_offset 7, -8
 226              		.cfi_offset 14, -4
 227 0002 97B0     		sub	sp, sp, #92
 228              		.cfi_def_cfa_offset 112
  52:main.c        ****     
 229              		.loc 1 52 0
 230 0004 03AC     		add	r4, sp, #12
 231 0006 8D4D     		ldr	r5, .L30
 232 0008 0FCD     		ldmia	r5!, {r0, r1, r2, r3}
 233 000a 0FC4     		stmia	r4!, {r0, r1, r2, r3}
 234 000c 95E80700 		ldmia	r5, {r0, r1, r2}
 235 0010 84E80700 		stmia	r4, {r0, r1, r2}
  54:main.c        **** 
 236              		.loc 1 54 0
 237              		.syntax unified
 238              	@ 54 "main.c" 1
 239 0014 62B6     		CPSIE   i
 240              	@ 0 "" 2
  57:main.c        ****     LCD_ClearDisplay();
 241              		.loc 1 57 0
 242              		.thumb
 243              		.syntax unified
 244 0016 FFF7FEFF 		bl	LCD_Start
 245              	.LVL33:
  58:main.c        ****     
 246              		.loc 1 58 0
 247 001a 0120     		movs	r0, #1
 248 001c FFF7FEFF 		bl	LCD_WriteControl
 249              	.LVL34:
  60:main.c        ****     /*
 250              		.loc 1 60 0
 251 0020 FFF7FEFF 		bl	I2C_Start
 252              	.LVL35:
  70:main.c        ****     delay = 2;
 253              		.loc 1 70 0
 254 0024 8648     		ldr	r0, .L30+4
 255 0026 FFF7FEFF 		bl	LCD_PrintString
 256              	.LVL36:
  71:main.c        ****     
 257              		.loc 1 71 0
 258 002a 0223     		movs	r3, #2
ARM GAS  C:\Users\Tri94\AppData\Local\Temp\cc78C1At.s 			page 9


  73:main.c        ****         if(!nSW_Read()){
 259              		.loc 1 73 0
 260 002c 2DE0     		b	.L19
 261              	.LVL37:
 262              	.L23:
  74:main.c        ****             buf[0] = 0x30;          // 30sec
 263              		.loc 1 74 0
 264 002e FFF7FEFF 		bl	nSW_Read
 265              	.LVL38:
 266 0032 30BB     		cbnz	r0, .L20
  75:main.c        ****             buf[1] = 0x29;          // 29min
 267              		.loc 1 75 0
 268 0034 3023     		movs	r3, #48
 269 0036 8DF85030 		strb	r3, [sp, #80]
  76:main.c        ****             buf[2] = 0x60 | 0x02;   // 2pm: 12-Hour format (bit6=1), PM(bit5=1)
 270              		.loc 1 76 0
 271 003a 2923     		movs	r3, #41
 272 003c 8DF85130 		strb	r3, [sp, #81]
  77:main.c        ****             buf[3] = THURSDAY;
 273              		.loc 1 77 0
 274 0040 6223     		movs	r3, #98
 275 0042 8DF85230 		strb	r3, [sp, #82]
  78:main.c        ****             buf[4] = 0x08;          // Date:    08
 276              		.loc 1 78 0
 277 0046 0523     		movs	r3, #5
 278 0048 8DF85330 		strb	r3, [sp, #83]
  79:main.c        ****             buf[5] = 0x10;          // Month:   10
 279              		.loc 1 79 0
 280 004c 0823     		movs	r3, #8
 281 004e 8DF85430 		strb	r3, [sp, #84]
  80:main.c        ****             buf[6] = 0x19;          // Year :   2019
 282              		.loc 1 80 0
 283 0052 1023     		movs	r3, #16
 284 0054 8DF85530 		strb	r3, [sp, #85]
  81:main.c        ****             if (Write_I2C(ADDR_DS1307,0x00,7,buf)){
 285              		.loc 1 81 0
 286 0058 1923     		movs	r3, #25
 287 005a 8DF85630 		strb	r3, [sp, #86]
  82:main.c        ****                 LCD_ClearDisplay();
 288              		.loc 1 82 0
 289 005e 14AB     		add	r3, sp, #80
 290 0060 0722     		movs	r2, #7
 291 0062 0021     		movs	r1, #0
 292 0064 6820     		movs	r0, #104
 293 0066 FFF7FEFF 		bl	Write_I2C
 294              	.LVL39:
 295 006a 88B1     		cbz	r0, .L24
  83:main.c        ****                 LCD_PrintString("Date Updated!");
 296              		.loc 1 83 0
 297 006c 0120     		movs	r0, #1
 298 006e FFF7FEFF 		bl	LCD_WriteControl
 299              	.LVL40:
  84:main.c        ****                 CyDelay(1000);      //Delay for 1sec
 300              		.loc 1 84 0
 301 0072 7448     		ldr	r0, .L30+8
 302 0074 FFF7FEFF 		bl	LCD_PrintString
 303              	.LVL41:
ARM GAS  C:\Users\Tri94\AppData\Local\Temp\cc78C1At.s 			page 10


  85:main.c        ****             }
 304              		.loc 1 85 0
 305 0078 4FF47A70 		mov	r0, #1000
 306 007c FFF7FEFF 		bl	CyDelay
 307              	.LVL42:
 308 0080 06E0     		b	.L24
 309              	.L20:
  89:main.c        ****     }
 310              		.loc 1 89 0
 311 0082 6420     		movs	r0, #100
 312 0084 FFF7FEFF 		bl	CyDelay
 313              	.LVL43:
  73:main.c        ****         if(!nSW_Read()){
 314              		.loc 1 73 0
 315 0088 2346     		mov	r3, r4
 316              	.LVL44:
 317              	.L19:
 318 008a 5C1E     		subs	r4, r3, #1
 319              	.LVL45:
 320 008c 002B     		cmp	r3, #0
 321 008e CED1     		bne	.L23
 322              	.LVL46:
 323              	.L24:
  95:main.c        ****             //Check bit6 12/24 hour format
 324              		.loc 1 95 0
 325 0090 14AB     		add	r3, sp, #80
 326 0092 0722     		movs	r2, #7
 327 0094 0021     		movs	r1, #0
 328 0096 6820     		movs	r0, #104
 329 0098 FFF7FEFF 		bl	Read_I2C
 330              	.LVL47:
 331 009c 0028     		cmp	r0, #0
 332 009e F7D0     		beq	.L24
  97:main.c        ****                 //12-Hour format
 333              		.loc 1 97 0
 334 00a0 9DF852E0 		ldrb	lr, [sp, #82]	@ zero_extendqisi2
 335 00a4 1EF0400F 		tst	lr, #64
 336 00a8 5DD0     		beq	.L25
 337              	.LVL48:
 100:main.c        ****                 m    = BCD2DEC(buf[1] & 0x7F);
 338              		.loc 1 100 0
 339 00aa 9DF85030 		ldrb	r3, [sp, #80]	@ zero_extendqisi2
 340 00ae 03F00702 		and	r2, r3, #7
 341 00b2 02EB8202 		add	r2, r2, r2, lsl #2
 342 00b6 5100     		lsls	r1, r2, #1
 343 00b8 03F00F03 		and	r3, r3, #15
 344 00bc 1944     		add	r1, r1, r3
 345 00be C9B2     		uxtb	r1, r1
 346              	.LVL49:
 101:main.c        ****                 h    = BCD2DEC(buf[2] & 0x1F);
 347              		.loc 1 101 0
 348 00c0 9DF85120 		ldrb	r2, [sp, #81]	@ zero_extendqisi2
 349 00c4 02F00700 		and	r0, r2, #7
 350 00c8 00EB8000 		add	r0, r0, r0, lsl #2
 351 00cc 4300     		lsls	r3, r0, #1
 352 00ce 02F00F02 		and	r2, r2, #15
 353 00d2 1344     		add	r3, r3, r2
ARM GAS  C:\Users\Tri94\AppData\Local\Temp\cc78C1At.s 			page 11


 354 00d4 DBB2     		uxtb	r3, r3
 355              	.LVL50:
 102:main.c        ****                 dow  = BCD2DEC(buf[3] & 0x07);
 356              		.loc 1 102 0
 357 00d6 0EF00100 		and	r0, lr, #1
 358 00da 8200     		lsls	r2, r0, #2
 359 00dc 1044     		add	r0, r0, r2
 360 00de 4400     		lsls	r4, r0, #1
 361 00e0 0EF00F02 		and	r2, lr, #15
 362 00e4 2244     		add	r2, r2, r4
 363 00e6 D2B2     		uxtb	r2, r2
 364              	.LVL51:
 103:main.c        ****                 dd   = BCD2DEC(buf[4] & 0x1F);
 365              		.loc 1 103 0
 366 00e8 9DF85370 		ldrb	r7, [sp, #83]	@ zero_extendqisi2
 367 00ec 07F00707 		and	r7, r7, #7
 368              	.LVL52:
 104:main.c        ****                 mm   = BCD2DEC(buf[5] & 0x1F);
 369              		.loc 1 104 0
 370 00f0 9DF85400 		ldrb	r0, [sp, #84]	@ zero_extendqisi2
 371 00f4 00F00105 		and	r5, r0, #1
 372 00f8 AC00     		lsls	r4, r5, #2
 373 00fa 2C44     		add	r4, r4, r5
 374 00fc 6600     		lsls	r6, r4, #1
 375 00fe 00F00F00 		and	r0, r0, #15
 376 0102 0644     		add	r6, r6, r0
 377 0104 F6B2     		uxtb	r6, r6
 378              	.LVL53:
 105:main.c        ****                 yyyy = BCD2DEC(buf[6] & 0x1F)+2000;
 379              		.loc 1 105 0
 380 0106 9DF85500 		ldrb	r0, [sp, #85]	@ zero_extendqisi2
 381 010a 00F00105 		and	r5, r0, #1
 382 010e AC00     		lsls	r4, r5, #2
 383 0110 2C44     		add	r4, r4, r5
 384 0112 6500     		lsls	r5, r4, #1
 385 0114 00F00F00 		and	r0, r0, #15
 386 0118 0544     		add	r5, r5, r0
 387 011a EDB2     		uxtb	r5, r5
 388              	.LVL54:
 106:main.c        ****                 if (ampm == 0)
 389              		.loc 1 106 0
 390 011c 9DF85600 		ldrb	r0, [sp, #86]	@ zero_extendqisi2
 391 0120 00F0010C 		and	ip, r0, #1
 392 0124 4FEA8C04 		lsl	r4, ip, #2
 393 0128 A444     		add	ip, ip, r4
 394 012a 4FEA4C04 		lsl	r4, ip, #1
 395 012e 00F00F00 		and	r0, r0, #15
 396 0132 0444     		add	r4, r4, r0
 397 0134 04F5FA64 		add	r4, r4, #2000
 398 0138 A4B2     		uxth	r4, r4
 399              	.LVL55:
 107:main.c        ****                     sprintf(str,"%2d:%2d/%2d AM",h,m,s);
 400              		.loc 1 107 0
 401 013a 1EF0200F 		tst	lr, #32
 402 013e 05D1     		bne	.L26
 108:main.c        ****                 else
 403              		.loc 1 108 0
ARM GAS  C:\Users\Tri94\AppData\Local\Temp\cc78C1At.s 			page 12


 404 0140 0091     		str	r1, [sp]
 405 0142 4149     		ldr	r1, .L30+12
 406              	.LVL56:
 407 0144 0AA8     		add	r0, sp, #40
 408 0146 FFF7FEFF 		bl	sprintf
 409              	.LVL57:
 410 014a 04E0     		b	.L27
 411              	.LVL58:
 412              	.L26:
 110:main.c        ****                 LCD_Position(1,0);
 413              		.loc 1 110 0
 414 014c 0091     		str	r1, [sp]
 415 014e 3F49     		ldr	r1, .L30+16
 416              	.LVL59:
 417 0150 0AA8     		add	r0, sp, #40
 418 0152 FFF7FEFF 		bl	sprintf
 419              	.LVL60:
 420              	.L27:
 111:main.c        ****                 LCD_PrintString(str);
 421              		.loc 1 111 0
 422 0156 0021     		movs	r1, #0
 423 0158 0120     		movs	r0, #1
 424 015a FFF7FEFF 		bl	LCD_Position
 425              	.LVL61:
 112:main.c        ****             }else{
 426              		.loc 1 112 0
 427 015e 0AA8     		add	r0, sp, #40
 428 0160 FFF7FEFF 		bl	LCD_PrintString
 429              	.LVL62:
 430 0164 53E0     		b	.L28
 431              	.LVL63:
 432              	.L25:
 115:main.c        ****                 m    = BCD2DEC(buf[1] & 0x7F);
 433              		.loc 1 115 0
 434 0166 9DF85030 		ldrb	r3, [sp, #80]	@ zero_extendqisi2
 435 016a 03F00702 		and	r2, r3, #7
 436 016e 02EB8202 		add	r2, r2, r2, lsl #2
 437 0172 5100     		lsls	r1, r2, #1
 438 0174 03F00F03 		and	r3, r3, #15
 439 0178 1944     		add	r1, r1, r3
 440 017a C9B2     		uxtb	r1, r1
 441              	.LVL64:
 116:main.c        ****                 h    = BCD2DEC(buf[2] & 0x3F);
 442              		.loc 1 116 0
 443 017c 9DF85100 		ldrb	r0, [sp, #81]	@ zero_extendqisi2
 444 0180 00F00702 		and	r2, r0, #7
 445 0184 02EB8202 		add	r2, r2, r2, lsl #2
 446 0188 5300     		lsls	r3, r2, #1
 447 018a 00F00F00 		and	r0, r0, #15
 448 018e 0344     		add	r3, r3, r0
 449              	.LVL65:
 117:main.c        ****                 dow  = BCD2DEC(buf[3] & 0x07);
 450              		.loc 1 117 0
 451 0190 0EF00300 		and	r0, lr, #3
 452 0194 00EB8000 		add	r0, r0, r0, lsl #2
 453 0198 4200     		lsls	r2, r0, #1
 454 019a 0EF00F0E 		and	lr, lr, #15
ARM GAS  C:\Users\Tri94\AppData\Local\Temp\cc78C1At.s 			page 13


 455 019e 7244     		add	r2, r2, lr
 456              	.LVL66:
 118:main.c        ****                 dd   = BCD2DEC(buf[4] & 0x1F);
 457              		.loc 1 118 0
 458 01a0 9DF85370 		ldrb	r7, [sp, #83]	@ zero_extendqisi2
 459 01a4 07F00707 		and	r7, r7, #7
 460              	.LVL67:
 119:main.c        ****                 mm   = BCD2DEC(buf[5] & 0x1F);
 461              		.loc 1 119 0
 462 01a8 9DF85400 		ldrb	r0, [sp, #84]	@ zero_extendqisi2
 463 01ac 00F00105 		and	r5, r0, #1
 464 01b0 AC00     		lsls	r4, r5, #2
 465 01b2 2C44     		add	r4, r4, r5
 466 01b4 6600     		lsls	r6, r4, #1
 467 01b6 00F00F00 		and	r0, r0, #15
 468 01ba 0644     		add	r6, r6, r0
 469 01bc F6B2     		uxtb	r6, r6
 470              	.LVL68:
 120:main.c        ****                 yyyy = BCD2DEC(buf[6] & 0x1F)+2000;
 471              		.loc 1 120 0
 472 01be 9DF85500 		ldrb	r0, [sp, #85]	@ zero_extendqisi2
 473 01c2 00F00105 		and	r5, r0, #1
 474 01c6 AC00     		lsls	r4, r5, #2
 475 01c8 2C44     		add	r4, r4, r5
 476 01ca 6500     		lsls	r5, r4, #1
 477 01cc 00F00F00 		and	r0, r0, #15
 478 01d0 0544     		add	r5, r5, r0
 479 01d2 EDB2     		uxtb	r5, r5
 480              	.LVL69:
 121:main.c        ****                 sprintf(str,"%2d:%2d/%2d PM",h,m,s);
 481              		.loc 1 121 0
 482 01d4 9DF85600 		ldrb	r0, [sp, #86]	@ zero_extendqisi2
 483 01d8 00F0010E 		and	lr, r0, #1
 484 01dc 4FEA8E04 		lsl	r4, lr, #2
 485 01e0 A644     		add	lr, lr, r4
 486 01e2 4FEA4E04 		lsl	r4, lr, #1
 487 01e6 00F00F00 		and	r0, r0, #15
 488 01ea 0444     		add	r4, r4, r0
 489 01ec 04F5FA64 		add	r4, r4, #2000
 490 01f0 A4B2     		uxth	r4, r4
 491              	.LVL70:
 122:main.c        ****                 LCD_Position(1,0);
 492              		.loc 1 122 0
 493 01f2 0091     		str	r1, [sp]
 494 01f4 DBB2     		uxtb	r3, r3
 495 01f6 D2B2     		uxtb	r2, r2
 496 01f8 1449     		ldr	r1, .L30+16
 497              	.LVL71:
 498 01fa 0AA8     		add	r0, sp, #40
 499 01fc FFF7FEFF 		bl	sprintf
 500              	.LVL72:
 123:main.c        ****                 LCD_PrintString(str);
 501              		.loc 1 123 0
 502 0200 0021     		movs	r1, #0
 503 0202 0120     		movs	r0, #1
 504 0204 FFF7FEFF 		bl	LCD_Position
 505              	.LVL73:
ARM GAS  C:\Users\Tri94\AppData\Local\Temp\cc78C1At.s 			page 14


 124:main.c        ****             }
 506              		.loc 1 124 0
 507 0208 0AA8     		add	r0, sp, #40
 508 020a FFF7FEFF 		bl	LCD_PrintString
 509              	.LVL74:
 510              	.L28:
 126:main.c        ****             LCD_Position(0,0);
 511              		.loc 1 126 0
 512 020e 013F     		subs	r7, r7, #1
 513              	.LVL75:
 514 0210 16AB     		add	r3, sp, #88
 515 0212 03EB8707 		add	r7, r3, r7, lsl #2
 516 0216 57F84C3C 		ldr	r3, [r7, #-76]
 517 021a 0193     		str	r3, [sp, #4]
 518 021c 0096     		str	r6, [sp]
 519 021e 2B46     		mov	r3, r5
 520 0220 2246     		mov	r2, r4
 521 0222 0B49     		ldr	r1, .L30+20
 522 0224 0AA8     		add	r0, sp, #40
 523 0226 FFF7FEFF 		bl	sprintf
 524              	.LVL76:
 127:main.c        ****             LCD_PrintString(str);
 525              		.loc 1 127 0
 526 022a 0021     		movs	r1, #0
 527 022c 0846     		mov	r0, r1
 528 022e FFF7FEFF 		bl	LCD_Position
 529              	.LVL77:
 128:main.c        ****             
 530              		.loc 1 128 0
 531 0232 0AA8     		add	r0, sp, #40
 532 0234 FFF7FEFF 		bl	LCD_PrintString
 533              	.LVL78:
 534 0238 2AE7     		b	.L24
 535              	.L31:
 536 023a 00BF     		.align	2
 537              	.L30:
 538 023c 00000000 		.word	.LANCHOR0
 539 0240 00000000 		.word	.LC9
 540 0244 10000000 		.word	.LC10
 541 0248 20000000 		.word	.LC11
 542 024c 30000000 		.word	.LC12
 543 0250 40000000 		.word	.LC13
 544              		.cfi_endproc
 545              	.LFE64:
 546              		.size	main, .-main
 547              		.section	.rodata
 548              		.align	2
 549              		.set	.LANCHOR0,. + 0
 550              	.LC8:
 551 0000 50000000 		.word	.LC0
 552 0004 54000000 		.word	.LC1
 553 0008 58000000 		.word	.LC2
 554 000c 5C000000 		.word	.LC3
 555 0010 60000000 		.word	.LC4
 556 0014 64000000 		.word	.LC5
 557 0018 68000000 		.word	.LC6
 558              		.section	.rodata.str1.4,"aMS",%progbits,1
ARM GAS  C:\Users\Tri94\AppData\Local\Temp\cc78C1At.s 			page 15


 559              		.align	2
 560              	.LC9:
 561 0000 55706461 		.ascii	"Update Data?\000"
 561      74652044 
 561      6174613F 
 561      00
 562 000d 000000   		.space	3
 563              	.LC10:
 564 0010 44617465 		.ascii	"Date Updated!\000"
 564      20557064 
 564      61746564 
 564      2100
 565 001e 0000     		.space	2
 566              	.LC11:
 567 0020 2532643A 		.ascii	"%2d:%2d/%2d AM\000"
 567      2532642F 
 567      25326420 
 567      414D00
 568 002f 00       		.space	1
 569              	.LC12:
 570 0030 2532643A 		.ascii	"%2d:%2d/%2d PM\000"
 570      2532642F 
 570      25326420 
 570      504D00
 571 003f 00       		.space	1
 572              	.LC13:
 573 0040 2534642F 		.ascii	"%4d/%2d/%2d %s\000"
 573      2532642F 
 573      25326420 
 573      257300
 574 004f 00       		.space	1
 575              	.LC0:
 576 0050 53554E00 		.ascii	"SUN\000"
 577              	.LC1:
 578 0054 4D4F4E00 		.ascii	"MON\000"
 579              	.LC2:
 580 0058 54554500 		.ascii	"TUE\000"
 581              	.LC3:
 582 005c 57454400 		.ascii	"WED\000"
 583              	.LC4:
 584 0060 54485200 		.ascii	"THR\000"
 585              	.LC5:
 586 0064 46524900 		.ascii	"FRI\000"
 587              	.LC6:
 588 0068 53415400 		.ascii	"SAT\000"
 589              		.text
 590              	.Letext0:
 591              		.file 2 "c:\\program files (x86)\\cypress\\psoc creator\\4.2\\psoc creator\\import\\gnu\\arm\\5.4.
 592              		.file 3 "c:\\program files (x86)\\cypress\\psoc creator\\4.2\\psoc creator\\import\\gnu\\arm\\5.4.
 593              		.file 4 "Generated_Source\\PSoC5/I2C.h"
 594              		.file 5 "Generated_Source\\PSoC5/LCD.h"
 595              		.file 6 "Generated_Source\\PSoC5/nSW.h"
 596              		.file 7 "Generated_Source\\PSoC5/CyLib.h"
 597              		.file 8 "c:\\program files (x86)\\cypress\\psoc creator\\4.2\\psoc creator\\import\\gnu\\arm\\5.4.
 598              		.file 9 "Generated_Source\\PSoC5/core_cm3.h"