ARM GAS  C:\Users\Tri94\AppData\Local\Temp\cct7nfDh.s 			page 1


   1              		.syntax unified
   2              		.cpu cortex-m3
   3              		.fpu softvfp
   4              		.eabi_attribute 20, 1
   5              		.eabi_attribute 21, 1
   6              		.eabi_attribute 23, 3
   7              		.eabi_attribute 24, 1
   8              		.eabi_attribute 25, 1
   9              		.eabi_attribute 26, 1
  10              		.eabi_attribute 30, 1
  11              		.eabi_attribute 34, 1
  12              		.eabi_attribute 18, 4
  13              		.thumb
  14              		.syntax unified
  15              		.file	"main.c"
  16              		.text
  17              	.Ltext0:
  18              		.cfi_sections	.debug_frame
  19              		.section	.text.vAppTask1,"ax",%progbits
  20              		.align	2
  21              		.global	vAppTask1
  22              		.thumb
  23              		.thumb_func
  24              		.type	vAppTask1, %function
  25              	vAppTask1:
  26              	.LFB71:
  27              		.file 1 "main.c"
   1:main.c        **** /* ========================================
   2:main.c        ****  *
   3:main.c        ****  * Copyright YOUR COMPANY, THE YEAR
   4:main.c        ****  * All Rights Reserved
   5:main.c        ****  * UNPUBLISHED, LICENSED SOFTWARE.
   6:main.c        ****  *
   7:main.c        ****  * CONFIDENTIAL AND PROPRIETARY INFORMATION
   8:main.c        ****  * WHICH IS THE PROPERTY OF your company.
   9:main.c        ****  *
  10:main.c        ****  * ========================================
  11:main.c        **** */
  12:main.c        **** #include "project.h"
  13:main.c        **** #include <stdio.h>
  14:main.c        **** #include <stdlib.h>
  15:main.c        **** #include <stdint.h>
  16:main.c        **** #include <stdbool.h>
  17:main.c        **** 
  18:main.c        **** // ROTS Header Files
  19:main.c        **** #include "FreeRTOS_PSoC.h"
  20:main.c        **** #include "FreeRTOS.h"
  21:main.c        **** #include "task.h"
  22:main.c        **** #include "queue.h"
  23:main.c        **** #include "semphr.h"
  24:main.c        **** #include "timers.h"
  25:main.c        **** #include "event_groups.h"
  26:main.c        **** 
  27:main.c        **** // Your task function
  28:main.c        **** void vAppTask1(void *pvParaments);
  29:main.c        **** void vAppTask2(void *pvParaments);
  30:main.c        **** 
ARM GAS  C:\Users\Tri94\AppData\Local\Temp\cct7nfDh.s 			page 2


  31:main.c        **** void myPSoCSetup();
  32:main.c        **** 
  33:main.c        **** int main(void)
  34:main.c        **** {
  35:main.c        ****     BaseType_t err;
  36:main.c        ****     
  37:main.c        ****     CyGlobalIntEnable; /* Enable global interrupts. */
  38:main.c        **** 
  39:main.c        ****     /* Place your initialization/startup code here (e.g. MyInst_Start()) */
  40:main.c        ****     FreeRTOS_Init();
  41:main.c        ****     myPSoCSetup();
  42:main.c        ****     
  43:main.c        ****     // Create Task
  44:main.c        ****     err = xTaskCreate(vAppTask1,                    // Taskfunction_t pvTaskCode,
  45:main.c        ****                         "Task 1",                   // const char * const pcName,
  46:main.c        ****                         configMINIMAL_STACK_SIZE,   // unsigned short usStackDepth,
  47:main.c        ****                         NULL,                       // void *pvParameters,
  48:main.c        ****                         configMAX_PRIORITIES-1,     // UBaseType_t uxPriority,
  49:main.c        ****                         NULL);                      // TaskHandle_t *pxCreatedTask );
  50:main.c        ****     
  51:main.c        ****     if (err != pdPASS){
  52:main.c        ****         // Cannot create task!
  53:main.c        ****         while(1);
  54:main.c        ****     }
  55:main.c        ****     
  56:main.c        ****     err = xTaskCreate(vAppTask2,                    // Taskfunction_t pvTaskCode,
  57:main.c        ****                         "Task 2",                   // const char * const pcName,
  58:main.c        ****                         configMINIMAL_STACK_SIZE,   // unsigned short usStackDepth,
  59:main.c        ****                         NULL,                       // void *pvParameters,
  60:main.c        ****                         configMAX_PRIORITIES-1,     // UBaseType_t uxPriority,
  61:main.c        ****                         NULL);                      // TaskHandle_t *pxCreatedTask );
  62:main.c        ****     
  63:main.c        ****     if (err != pdPASS){
  64:main.c        ****         // Cannot create task!
  65:main.c        ****         while(1);
  66:main.c        ****     }
  67:main.c        ****     
  68:main.c        ****     // Start the scheduler, so the tasks start executing
  69:main.c        ****     vTaskStartScheduler();
  70:main.c        ****     
  71:main.c        ****     for(;;)
  72:main.c        ****     {
  73:main.c        ****         /* Place your application code here. */
  74:main.c        ****     }
  75:main.c        **** }
  76:main.c        **** 
  77:main.c        **** void myPSoCSetup(){
  78:main.c        ****     // Place your component's start code here
  79:main.c        ****     
  80:main.c        **** }
  81:main.c        **** void vAppTask1(void *pvParaments){
  28              		.loc 1 81 0
  29              		.cfi_startproc
  30              		@ args = 0, pretend = 0, frame = 0
  31              		@ frame_needed = 0, uses_anonymous_args = 0
  32              	.LVL0:
  33 0000 08B5     		push	{r3, lr}
ARM GAS  C:\Users\Tri94\AppData\Local\Temp\cct7nfDh.s 			page 3


  34              		.cfi_def_cfa_offset 8
  35              		.cfi_offset 3, -8
  36              		.cfi_offset 14, -4
  82:main.c        ****     LED1_Write(!LED1_Read());       // Toggle LED1
  37              		.loc 1 82 0
  38 0002 FFF7FEFF 		bl	LED1_Read
  39              	.LVL1:
  40 0006 B0FA80F0 		clz	r0, r0
  41 000a 4009     		lsrs	r0, r0, #5
  42 000c FFF7FEFF 		bl	LED1_Write
  43              	.LVL2:
  83:main.c        ****     vTaskDelay(pdMS_TO_TICKS(1000));// Delay for 1 sec
  44              		.loc 1 83 0
  45 0010 4FF47A70 		mov	r0, #1000
  46 0014 FFF7FEFF 		bl	vTaskDelay
  47              	.LVL3:
  48 0018 08BD     		pop	{r3, pc}
  49              		.cfi_endproc
  50              	.LFE71:
  51              		.size	vAppTask1, .-vAppTask1
  52 001a 00BF     		.section	.text.vAppTask2,"ax",%progbits
  53              		.align	2
  54              		.global	vAppTask2
  55              		.thumb
  56              		.thumb_func
  57              		.type	vAppTask2, %function
  58              	vAppTask2:
  59              	.LFB72:
  84:main.c        **** }
  85:main.c        **** void vAppTask2(void *pvParaments){
  60              		.loc 1 85 0
  61              		.cfi_startproc
  62              		@ args = 0, pretend = 0, frame = 0
  63              		@ frame_needed = 0, uses_anonymous_args = 0
  64              	.LVL4:
  65 0000 08B5     		push	{r3, lr}
  66              		.cfi_def_cfa_offset 8
  67              		.cfi_offset 3, -8
  68              		.cfi_offset 14, -4
  86:main.c        ****     LED2_Write(!LED2_Read());       // Toggle LED1
  69              		.loc 1 86 0
  70 0002 FFF7FEFF 		bl	LED2_Read
  71              	.LVL5:
  72 0006 B0FA80F0 		clz	r0, r0
  73 000a 4009     		lsrs	r0, r0, #5
  74 000c FFF7FEFF 		bl	LED2_Write
  75              	.LVL6:
  87:main.c        ****     vTaskDelay(pdMS_TO_TICKS(850)); // Delay for 850 ms
  76              		.loc 1 87 0
  77 0010 40F25230 		movw	r0, #850
  78 0014 FFF7FEFF 		bl	vTaskDelay
  79              	.LVL7:
  80 0018 08BD     		pop	{r3, pc}
  81              		.cfi_endproc
  82              	.LFE72:
  83              		.size	vAppTask2, .-vAppTask2
  84 001a 00BF     		.section	.text.main,"ax",%progbits
ARM GAS  C:\Users\Tri94\AppData\Local\Temp\cct7nfDh.s 			page 4


  85              		.align	2
  86              		.global	main
  87              		.thumb
  88              		.thumb_func
  89              		.type	main, %function
  90              	main:
  91              	.LFB69:
  34:main.c        ****     BaseType_t err;
  92              		.loc 1 34 0
  93              		.cfi_startproc
  94              		@ args = 0, pretend = 0, frame = 0
  95              		@ frame_needed = 0, uses_anonymous_args = 0
  96 0000 00B5     		push	{lr}
  97              		.cfi_def_cfa_offset 4
  98              		.cfi_offset 14, -4
  99 0002 83B0     		sub	sp, sp, #12
 100              		.cfi_def_cfa_offset 16
  37:main.c        **** 
 101              		.loc 1 37 0
 102              		.syntax unified
 103              	@ 37 "main.c" 1
 104 0004 62B6     		CPSIE   i
 105              	@ 0 "" 2
  40:main.c        ****     myPSoCSetup();
 106              		.loc 1 40 0
 107              		.thumb
 108              		.syntax unified
 109 0006 FFF7FEFF 		bl	FreeRTOS_Init
 110              	.LVL8:
  44:main.c        ****                         "Task 1",                   // const char * const pcName,
 111              		.loc 1 44 0
 112 000a 0023     		movs	r3, #0
 113 000c 0193     		str	r3, [sp, #4]
 114 000e 0422     		movs	r2, #4
 115 0010 0092     		str	r2, [sp]
 116 0012 C822     		movs	r2, #200
 117 0014 0A49     		ldr	r1, .L12
 118 0016 0B48     		ldr	r0, .L12+4
 119 0018 FFF7FEFF 		bl	xTaskCreate
 120              	.LVL9:
  51:main.c        ****         // Cannot create task!
 121              		.loc 1 51 0
 122 001c 0128     		cmp	r0, #1
 123 001e 00D0     		beq	.L6
 124              	.L7:
 125 0020 FEE7     		b	.L7
 126              	.L6:
  56:main.c        ****                         "Task 2",                   // const char * const pcName,
 127              		.loc 1 56 0
 128 0022 0023     		movs	r3, #0
 129 0024 0193     		str	r3, [sp, #4]
 130 0026 0422     		movs	r2, #4
 131 0028 0092     		str	r2, [sp]
 132 002a C822     		movs	r2, #200
 133 002c 0649     		ldr	r1, .L12+8
 134 002e 0748     		ldr	r0, .L12+12
 135              	.LVL10:
ARM GAS  C:\Users\Tri94\AppData\Local\Temp\cct7nfDh.s 			page 5


 136 0030 FFF7FEFF 		bl	xTaskCreate
 137              	.LVL11:
  63:main.c        ****         // Cannot create task!
 138              		.loc 1 63 0
 139 0034 0128     		cmp	r0, #1
 140 0036 00D0     		beq	.L8
 141              	.L9:
 142 0038 FEE7     		b	.L9
 143              	.L8:
  69:main.c        ****     
 144              		.loc 1 69 0
 145 003a FFF7FEFF 		bl	vTaskStartScheduler
 146              	.LVL12:
 147              	.L10:
 148 003e FEE7     		b	.L10
 149              	.L13:
 150              		.align	2
 151              	.L12:
 152 0040 00000000 		.word	.LC0
 153 0044 00000000 		.word	vAppTask1
 154 0048 08000000 		.word	.LC1
 155 004c 00000000 		.word	vAppTask2
 156              		.cfi_endproc
 157              	.LFE69:
 158              		.size	main, .-main
 159              		.section	.text.myPSoCSetup,"ax",%progbits
 160              		.align	2
 161              		.global	myPSoCSetup
 162              		.thumb
 163              		.thumb_func
 164              		.type	myPSoCSetup, %function
 165              	myPSoCSetup:
 166              	.LFB70:
  77:main.c        ****     // Place your component's start code here
 167              		.loc 1 77 0
 168              		.cfi_startproc
 169              		@ args = 0, pretend = 0, frame = 0
 170              		@ frame_needed = 0, uses_anonymous_args = 0
 171              		@ link register save eliminated.
 172 0000 7047     		bx	lr
 173              		.cfi_endproc
 174              	.LFE70:
 175              		.size	myPSoCSetup, .-myPSoCSetup
 176 0002 00BF     		.section	.rodata.str1.4,"aMS",%progbits,1
 177              		.align	2
 178              	.LC0:
 179 0000 5461736B 		.ascii	"Task 1\000"
 179      203100
 180 0007 00       		.space	1
 181              	.LC1:
 182 0008 5461736B 		.ascii	"Task 2\000"
 182      203200
 183              		.text
 184              	.Letext0:
 185              		.file 2 "c:\\program files (x86)\\cypress\\psoc creator\\4.2\\psoc creator\\import\\gnu\\arm\\5.4.
 186              		.file 3 "c:\\program files (x86)\\cypress\\psoc creator\\4.2\\psoc creator\\import\\gnu\\arm\\5.4.
 187              		.file 4 "..\\FreeRTOS\\portable\\GCC\\ARM_CM3/portmacro.h"
ARM GAS  C:\Users\Tri94\AppData\Local\Temp\cct7nfDh.s 			page 6


 188              		.file 5 "Generated_Source\\PSoC5/LED1.h"
 189              		.file 6 "..\\FreeRTOS\\include/task.h"
 190              		.file 7 "Generated_Source\\PSoC5/LED2.h"
 191              		.file 8 "..\\FreeRTOS/FreeRTOS_PSoC.h"
 192              		.file 9 "Generated_Source\\PSoC5/core_cm3.h"