ARM GAS  C:\Users\Tri94\AppData\Local\Temp\ccjoABRh.s 			page 1


   1              		.syntax unified
   2              		.cpu cortex-m3
   3              		.fpu softvfp
   4              		.eabi_attribute 20, 1
   5              		.eabi_attribute 21, 1
   6              		.eabi_attribute 23, 3
   7              		.eabi_attribute 24, 1
   8              		.eabi_attribute 25, 1
   9              		.eabi_attribute 26, 1
  10              		.eabi_attribute 30, 1
  11              		.eabi_attribute 34, 1
  12              		.eabi_attribute 18, 4
  13              		.thumb
  14              		.syntax unified
  15              		.file	"event_groups.c"
  16              		.text
  17              	.Ltext0:
  18              		.cfi_sections	.debug_frame
  19              		.section	.text.prvTestWaitCondition,"ax",%progbits
  20              		.align	2
  21              		.thumb
  22              		.thumb_func
  23              		.type	prvTestWaitCondition, %function
  24              	prvTestWaitCondition:
  25              	.LFB78:
  26              		.file 1 "..\\FreeRTOS\\event_groups.c"
   1:..\FreeRTOS/event_groups.c **** /*
   2:..\FreeRTOS/event_groups.c ****  * FreeRTOS Kernel V10.0.0
   3:..\FreeRTOS/event_groups.c ****  * Copyright (C) 2017 Amazon.com, Inc. or its affiliates.  All Rights Reserved.
   4:..\FreeRTOS/event_groups.c ****  *
   5:..\FreeRTOS/event_groups.c ****  * Permission is hereby granted, free of charge, to any person obtaining a copy of
   6:..\FreeRTOS/event_groups.c ****  * this software and associated documentation files (the "Software"), to deal in
   7:..\FreeRTOS/event_groups.c ****  * the Software without restriction, including without limitation the rights to
   8:..\FreeRTOS/event_groups.c ****  * use, copy, modify, merge, publish, distribute, sublicense, and/or sell copies of
   9:..\FreeRTOS/event_groups.c ****  * the Software, and to permit persons to whom the Software is furnished to do so,
  10:..\FreeRTOS/event_groups.c ****  * subject to the following conditions:
  11:..\FreeRTOS/event_groups.c ****  *
  12:..\FreeRTOS/event_groups.c ****  * The above copyright notice and this permission notice shall be included in all
  13:..\FreeRTOS/event_groups.c ****  * copies or substantial portions of the Software. If you wish to use our Amazon
  14:..\FreeRTOS/event_groups.c ****  * FreeRTOS name, please do so in a fair use way that does not cause confusion.
  15:..\FreeRTOS/event_groups.c ****  *
  16:..\FreeRTOS/event_groups.c ****  * THE SOFTWARE IS PROVIDED "AS IS", WITHOUT WARRANTY OF ANY KIND, EXPRESS OR
  17:..\FreeRTOS/event_groups.c ****  * IMPLIED, INCLUDING BUT NOT LIMITED TO THE WARRANTIES OF MERCHANTABILITY, FITNESS
  18:..\FreeRTOS/event_groups.c ****  * FOR A PARTICULAR PURPOSE AND NONINFRINGEMENT. IN NO EVENT SHALL THE AUTHORS OR
  19:..\FreeRTOS/event_groups.c ****  * COPYRIGHT HOLDERS BE LIABLE FOR ANY CLAIM, DAMAGES OR OTHER LIABILITY, WHETHER
  20:..\FreeRTOS/event_groups.c ****  * IN AN ACTION OF CONTRACT, TORT OR OTHERWISE, ARISING FROM, OUT OF OR IN
  21:..\FreeRTOS/event_groups.c ****  * CONNECTION WITH THE SOFTWARE OR THE USE OR OTHER DEALINGS IN THE SOFTWARE.
  22:..\FreeRTOS/event_groups.c ****  *
  23:..\FreeRTOS/event_groups.c ****  * http://www.FreeRTOS.org
  24:..\FreeRTOS/event_groups.c ****  * http://aws.amazon.com/freertos
  25:..\FreeRTOS/event_groups.c ****  *
  26:..\FreeRTOS/event_groups.c ****  * 1 tab == 4 spaces!
  27:..\FreeRTOS/event_groups.c ****  */
  28:..\FreeRTOS/event_groups.c **** 
  29:..\FreeRTOS/event_groups.c **** /* Standard includes. */
  30:..\FreeRTOS/event_groups.c **** #include <stdlib.h>
  31:..\FreeRTOS/event_groups.c **** 
ARM GAS  C:\Users\Tri94\AppData\Local\Temp\ccjoABRh.s 			page 2


  32:..\FreeRTOS/event_groups.c **** /* Defining MPU_WRAPPERS_INCLUDED_FROM_API_FILE prevents task.h from redefining
  33:..\FreeRTOS/event_groups.c **** all the API functions to use the MPU wrappers.  That should only be done when
  34:..\FreeRTOS/event_groups.c **** task.h is included from an application file. */
  35:..\FreeRTOS/event_groups.c **** #define MPU_WRAPPERS_INCLUDED_FROM_API_FILE
  36:..\FreeRTOS/event_groups.c **** 
  37:..\FreeRTOS/event_groups.c **** /* FreeRTOS includes. */
  38:..\FreeRTOS/event_groups.c **** #include "FreeRTOS.h"
  39:..\FreeRTOS/event_groups.c **** #include "task.h"
  40:..\FreeRTOS/event_groups.c **** #include "timers.h"
  41:..\FreeRTOS/event_groups.c **** #include "event_groups.h"
  42:..\FreeRTOS/event_groups.c **** 
  43:..\FreeRTOS/event_groups.c **** /* Lint e961 and e750 are suppressed as a MISRA exception justified because the
  44:..\FreeRTOS/event_groups.c **** MPU ports require MPU_WRAPPERS_INCLUDED_FROM_API_FILE to be defined for the
  45:..\FreeRTOS/event_groups.c **** header files above, but not in this file, in order to generate the correct
  46:..\FreeRTOS/event_groups.c **** privileged Vs unprivileged linkage and placement. */
  47:..\FreeRTOS/event_groups.c **** #undef MPU_WRAPPERS_INCLUDED_FROM_API_FILE /*lint !e961 !e750. */
  48:..\FreeRTOS/event_groups.c **** 
  49:..\FreeRTOS/event_groups.c **** /* The following bit fields convey control information in a task's event list
  50:..\FreeRTOS/event_groups.c **** item value.  It is important they don't clash with the
  51:..\FreeRTOS/event_groups.c **** taskEVENT_LIST_ITEM_VALUE_IN_USE definition. */
  52:..\FreeRTOS/event_groups.c **** #if configUSE_16_BIT_TICKS == 1
  53:..\FreeRTOS/event_groups.c **** 	#define eventCLEAR_EVENTS_ON_EXIT_BIT	0x0100U
  54:..\FreeRTOS/event_groups.c **** 	#define eventUNBLOCKED_DUE_TO_BIT_SET	0x0200U
  55:..\FreeRTOS/event_groups.c **** 	#define eventWAIT_FOR_ALL_BITS			0x0400U
  56:..\FreeRTOS/event_groups.c **** 	#define eventEVENT_BITS_CONTROL_BYTES	0xff00U
  57:..\FreeRTOS/event_groups.c **** #else
  58:..\FreeRTOS/event_groups.c **** 	#define eventCLEAR_EVENTS_ON_EXIT_BIT	0x01000000UL
  59:..\FreeRTOS/event_groups.c **** 	#define eventUNBLOCKED_DUE_TO_BIT_SET	0x02000000UL
  60:..\FreeRTOS/event_groups.c **** 	#define eventWAIT_FOR_ALL_BITS			0x04000000UL
  61:..\FreeRTOS/event_groups.c **** 	#define eventEVENT_BITS_CONTROL_BYTES	0xff000000UL
  62:..\FreeRTOS/event_groups.c **** #endif
  63:..\FreeRTOS/event_groups.c **** 
  64:..\FreeRTOS/event_groups.c **** typedef struct xEventGroupDefinition
  65:..\FreeRTOS/event_groups.c **** {
  66:..\FreeRTOS/event_groups.c **** 	EventBits_t uxEventBits;
  67:..\FreeRTOS/event_groups.c **** 	List_t xTasksWaitingForBits;		/*< List of tasks waiting for a bit to be set. */
  68:..\FreeRTOS/event_groups.c **** 
  69:..\FreeRTOS/event_groups.c **** 	#if( configUSE_TRACE_FACILITY == 1 )
  70:..\FreeRTOS/event_groups.c **** 		UBaseType_t uxEventGroupNumber;
  71:..\FreeRTOS/event_groups.c **** 	#endif
  72:..\FreeRTOS/event_groups.c **** 
  73:..\FreeRTOS/event_groups.c **** 	#if( ( configSUPPORT_STATIC_ALLOCATION == 1 ) && ( configSUPPORT_DYNAMIC_ALLOCATION == 1 ) )
  74:..\FreeRTOS/event_groups.c **** 		uint8_t ucStaticallyAllocated; /*< Set to pdTRUE if the event group is statically allocated to en
  75:..\FreeRTOS/event_groups.c **** 	#endif
  76:..\FreeRTOS/event_groups.c **** } EventGroup_t;
  77:..\FreeRTOS/event_groups.c **** 
  78:..\FreeRTOS/event_groups.c **** /*-----------------------------------------------------------*/
  79:..\FreeRTOS/event_groups.c **** 
  80:..\FreeRTOS/event_groups.c **** /*
  81:..\FreeRTOS/event_groups.c ****  * Test the bits set in uxCurrentEventBits to see if the wait condition is met.
  82:..\FreeRTOS/event_groups.c ****  * The wait condition is defined by xWaitForAllBits.  If xWaitForAllBits is
  83:..\FreeRTOS/event_groups.c ****  * pdTRUE then the wait condition is met if all the bits set in uxBitsToWaitFor
  84:..\FreeRTOS/event_groups.c ****  * are also set in uxCurrentEventBits.  If xWaitForAllBits is pdFALSE then the
  85:..\FreeRTOS/event_groups.c ****  * wait condition is met if any of the bits set in uxBitsToWait for are also set
  86:..\FreeRTOS/event_groups.c ****  * in uxCurrentEventBits.
  87:..\FreeRTOS/event_groups.c ****  */
  88:..\FreeRTOS/event_groups.c **** static BaseType_t prvTestWaitCondition( const EventBits_t uxCurrentEventBits, const EventBits_t uxB
ARM GAS  C:\Users\Tri94\AppData\Local\Temp\ccjoABRh.s 			page 3


  89:..\FreeRTOS/event_groups.c **** 
  90:..\FreeRTOS/event_groups.c **** /*-----------------------------------------------------------*/
  91:..\FreeRTOS/event_groups.c **** 
  92:..\FreeRTOS/event_groups.c **** #if( configSUPPORT_STATIC_ALLOCATION == 1 )
  93:..\FreeRTOS/event_groups.c **** 
  94:..\FreeRTOS/event_groups.c **** 	EventGroupHandle_t xEventGroupCreateStatic( StaticEventGroup_t *pxEventGroupBuffer )
  95:..\FreeRTOS/event_groups.c **** 	{
  96:..\FreeRTOS/event_groups.c **** 	EventGroup_t *pxEventBits;
  97:..\FreeRTOS/event_groups.c **** 
  98:..\FreeRTOS/event_groups.c **** 		/* A StaticEventGroup_t object must be provided. */
  99:..\FreeRTOS/event_groups.c **** 		configASSERT( pxEventGroupBuffer );
 100:..\FreeRTOS/event_groups.c **** 
 101:..\FreeRTOS/event_groups.c **** 		#if( configASSERT_DEFINED == 1 )
 102:..\FreeRTOS/event_groups.c **** 		{
 103:..\FreeRTOS/event_groups.c **** 			/* Sanity check that the size of the structure used to declare a
 104:..\FreeRTOS/event_groups.c **** 			variable of type StaticEventGroup_t equals the size of the real
 105:..\FreeRTOS/event_groups.c **** 			event group structure. */
 106:..\FreeRTOS/event_groups.c **** 			volatile size_t xSize = sizeof( StaticEventGroup_t );
 107:..\FreeRTOS/event_groups.c **** 			configASSERT( xSize == sizeof( EventGroup_t ) );
 108:..\FreeRTOS/event_groups.c **** 		}
 109:..\FreeRTOS/event_groups.c **** 		#endif /* configASSERT_DEFINED */
 110:..\FreeRTOS/event_groups.c **** 
 111:..\FreeRTOS/event_groups.c **** 		/* The user has provided a statically allocated event group - use it. */
 112:..\FreeRTOS/event_groups.c **** 		pxEventBits = ( EventGroup_t * ) pxEventGroupBuffer; /*lint !e740 EventGroup_t and StaticEventGro
 113:..\FreeRTOS/event_groups.c **** 
 114:..\FreeRTOS/event_groups.c **** 		if( pxEventBits != NULL )
 115:..\FreeRTOS/event_groups.c **** 		{
 116:..\FreeRTOS/event_groups.c **** 			pxEventBits->uxEventBits = 0;
 117:..\FreeRTOS/event_groups.c **** 			vListInitialise( &( pxEventBits->xTasksWaitingForBits ) );
 118:..\FreeRTOS/event_groups.c **** 
 119:..\FreeRTOS/event_groups.c **** 			#if( configSUPPORT_DYNAMIC_ALLOCATION == 1 )
 120:..\FreeRTOS/event_groups.c **** 			{
 121:..\FreeRTOS/event_groups.c **** 				/* Both static and dynamic allocation can be used, so note that
 122:..\FreeRTOS/event_groups.c **** 				this event group was created statically in case the event group
 123:..\FreeRTOS/event_groups.c **** 				is later deleted. */
 124:..\FreeRTOS/event_groups.c **** 				pxEventBits->ucStaticallyAllocated = pdTRUE;
 125:..\FreeRTOS/event_groups.c **** 			}
 126:..\FreeRTOS/event_groups.c **** 			#endif /* configSUPPORT_DYNAMIC_ALLOCATION */
 127:..\FreeRTOS/event_groups.c **** 
 128:..\FreeRTOS/event_groups.c **** 			traceEVENT_GROUP_CREATE( pxEventBits );
 129:..\FreeRTOS/event_groups.c **** 		}
 130:..\FreeRTOS/event_groups.c **** 		else
 131:..\FreeRTOS/event_groups.c **** 		{
 132:..\FreeRTOS/event_groups.c **** 			traceEVENT_GROUP_CREATE_FAILED();
 133:..\FreeRTOS/event_groups.c **** 		}
 134:..\FreeRTOS/event_groups.c **** 
 135:..\FreeRTOS/event_groups.c **** 		return ( EventGroupHandle_t ) pxEventBits;
 136:..\FreeRTOS/event_groups.c **** 	}
 137:..\FreeRTOS/event_groups.c **** 
 138:..\FreeRTOS/event_groups.c **** #endif /* configSUPPORT_STATIC_ALLOCATION */
 139:..\FreeRTOS/event_groups.c **** /*-----------------------------------------------------------*/
 140:..\FreeRTOS/event_groups.c **** 
 141:..\FreeRTOS/event_groups.c **** #if( configSUPPORT_DYNAMIC_ALLOCATION == 1 )
 142:..\FreeRTOS/event_groups.c **** 
 143:..\FreeRTOS/event_groups.c **** 	EventGroupHandle_t xEventGroupCreate( void )
 144:..\FreeRTOS/event_groups.c **** 	{
 145:..\FreeRTOS/event_groups.c **** 	EventGroup_t *pxEventBits;
ARM GAS  C:\Users\Tri94\AppData\Local\Temp\ccjoABRh.s 			page 4


 146:..\FreeRTOS/event_groups.c **** 
 147:..\FreeRTOS/event_groups.c **** 		/* Allocate the event group. */
 148:..\FreeRTOS/event_groups.c **** 		pxEventBits = ( EventGroup_t * ) pvPortMalloc( sizeof( EventGroup_t ) );
 149:..\FreeRTOS/event_groups.c **** 
 150:..\FreeRTOS/event_groups.c **** 		if( pxEventBits != NULL )
 151:..\FreeRTOS/event_groups.c **** 		{
 152:..\FreeRTOS/event_groups.c **** 			pxEventBits->uxEventBits = 0;
 153:..\FreeRTOS/event_groups.c **** 			vListInitialise( &( pxEventBits->xTasksWaitingForBits ) );
 154:..\FreeRTOS/event_groups.c **** 
 155:..\FreeRTOS/event_groups.c **** 			#if( configSUPPORT_STATIC_ALLOCATION == 1 )
 156:..\FreeRTOS/event_groups.c **** 			{
 157:..\FreeRTOS/event_groups.c **** 				/* Both static and dynamic allocation can be used, so note this
 158:..\FreeRTOS/event_groups.c **** 				event group was allocated statically in case the event group is
 159:..\FreeRTOS/event_groups.c **** 				later deleted. */
 160:..\FreeRTOS/event_groups.c **** 				pxEventBits->ucStaticallyAllocated = pdFALSE;
 161:..\FreeRTOS/event_groups.c **** 			}
 162:..\FreeRTOS/event_groups.c **** 			#endif /* configSUPPORT_STATIC_ALLOCATION */
 163:..\FreeRTOS/event_groups.c **** 
 164:..\FreeRTOS/event_groups.c **** 			traceEVENT_GROUP_CREATE( pxEventBits );
 165:..\FreeRTOS/event_groups.c **** 		}
 166:..\FreeRTOS/event_groups.c **** 		else
 167:..\FreeRTOS/event_groups.c **** 		{
 168:..\FreeRTOS/event_groups.c **** 			traceEVENT_GROUP_CREATE_FAILED();
 169:..\FreeRTOS/event_groups.c **** 		}
 170:..\FreeRTOS/event_groups.c **** 
 171:..\FreeRTOS/event_groups.c **** 		return ( EventGroupHandle_t ) pxEventBits;
 172:..\FreeRTOS/event_groups.c **** 	}
 173:..\FreeRTOS/event_groups.c **** 
 174:..\FreeRTOS/event_groups.c **** #endif /* configSUPPORT_DYNAMIC_ALLOCATION */
 175:..\FreeRTOS/event_groups.c **** /*-----------------------------------------------------------*/
 176:..\FreeRTOS/event_groups.c **** 
 177:..\FreeRTOS/event_groups.c **** EventBits_t xEventGroupSync( EventGroupHandle_t xEventGroup, const EventBits_t uxBitsToSet, const E
 178:..\FreeRTOS/event_groups.c **** {
 179:..\FreeRTOS/event_groups.c **** EventBits_t uxOriginalBitValue, uxReturn;
 180:..\FreeRTOS/event_groups.c **** EventGroup_t *pxEventBits = ( EventGroup_t * ) xEventGroup;
 181:..\FreeRTOS/event_groups.c **** BaseType_t xAlreadyYielded;
 182:..\FreeRTOS/event_groups.c **** BaseType_t xTimeoutOccurred = pdFALSE;
 183:..\FreeRTOS/event_groups.c **** 
 184:..\FreeRTOS/event_groups.c **** 	configASSERT( ( uxBitsToWaitFor & eventEVENT_BITS_CONTROL_BYTES ) == 0 );
 185:..\FreeRTOS/event_groups.c **** 	configASSERT( uxBitsToWaitFor != 0 );
 186:..\FreeRTOS/event_groups.c **** 	#if ( ( INCLUDE_xTaskGetSchedulerState == 1 ) || ( configUSE_TIMERS == 1 ) )
 187:..\FreeRTOS/event_groups.c **** 	{
 188:..\FreeRTOS/event_groups.c **** 		configASSERT( !( ( xTaskGetSchedulerState() == taskSCHEDULER_SUSPENDED ) && ( xTicksToWait != 0 )
 189:..\FreeRTOS/event_groups.c **** 	}
 190:..\FreeRTOS/event_groups.c **** 	#endif
 191:..\FreeRTOS/event_groups.c **** 
 192:..\FreeRTOS/event_groups.c **** 	vTaskSuspendAll();
 193:..\FreeRTOS/event_groups.c **** 	{
 194:..\FreeRTOS/event_groups.c **** 		uxOriginalBitValue = pxEventBits->uxEventBits;
 195:..\FreeRTOS/event_groups.c **** 
 196:..\FreeRTOS/event_groups.c **** 		( void ) xEventGroupSetBits( xEventGroup, uxBitsToSet );
 197:..\FreeRTOS/event_groups.c **** 
 198:..\FreeRTOS/event_groups.c **** 		if( ( ( uxOriginalBitValue | uxBitsToSet ) & uxBitsToWaitFor ) == uxBitsToWaitFor )
 199:..\FreeRTOS/event_groups.c **** 		{
 200:..\FreeRTOS/event_groups.c **** 			/* All the rendezvous bits are now set - no need to block. */
 201:..\FreeRTOS/event_groups.c **** 			uxReturn = ( uxOriginalBitValue | uxBitsToSet );
 202:..\FreeRTOS/event_groups.c **** 
ARM GAS  C:\Users\Tri94\AppData\Local\Temp\ccjoABRh.s 			page 5


 203:..\FreeRTOS/event_groups.c **** 			/* Rendezvous always clear the bits.  They will have been cleared
 204:..\FreeRTOS/event_groups.c **** 			already unless this is the only task in the rendezvous. */
 205:..\FreeRTOS/event_groups.c **** 			pxEventBits->uxEventBits &= ~uxBitsToWaitFor;
 206:..\FreeRTOS/event_groups.c **** 
 207:..\FreeRTOS/event_groups.c **** 			xTicksToWait = 0;
 208:..\FreeRTOS/event_groups.c **** 		}
 209:..\FreeRTOS/event_groups.c **** 		else
 210:..\FreeRTOS/event_groups.c **** 		{
 211:..\FreeRTOS/event_groups.c **** 			if( xTicksToWait != ( TickType_t ) 0 )
 212:..\FreeRTOS/event_groups.c **** 			{
 213:..\FreeRTOS/event_groups.c **** 				traceEVENT_GROUP_SYNC_BLOCK( xEventGroup, uxBitsToSet, uxBitsToWaitFor );
 214:..\FreeRTOS/event_groups.c **** 
 215:..\FreeRTOS/event_groups.c **** 				/* Store the bits that the calling task is waiting for in the
 216:..\FreeRTOS/event_groups.c **** 				task's event list item so the kernel knows when a match is
 217:..\FreeRTOS/event_groups.c **** 				found.  Then enter the blocked state. */
 218:..\FreeRTOS/event_groups.c **** 				vTaskPlaceOnUnorderedEventList( &( pxEventBits->xTasksWaitingForBits ), ( uxBitsToWaitFor | eve
 219:..\FreeRTOS/event_groups.c **** 
 220:..\FreeRTOS/event_groups.c **** 				/* This assignment is obsolete as uxReturn will get set after
 221:..\FreeRTOS/event_groups.c **** 				the task unblocks, but some compilers mistakenly generate a
 222:..\FreeRTOS/event_groups.c **** 				warning about uxReturn being returned without being set if the
 223:..\FreeRTOS/event_groups.c **** 				assignment is omitted. */
 224:..\FreeRTOS/event_groups.c **** 				uxReturn = 0;
 225:..\FreeRTOS/event_groups.c **** 			}
 226:..\FreeRTOS/event_groups.c **** 			else
 227:..\FreeRTOS/event_groups.c **** 			{
 228:..\FreeRTOS/event_groups.c **** 				/* The rendezvous bits were not set, but no block time was
 229:..\FreeRTOS/event_groups.c **** 				specified - just return the current event bit value. */
 230:..\FreeRTOS/event_groups.c **** 				uxReturn = pxEventBits->uxEventBits;
 231:..\FreeRTOS/event_groups.c **** 				xTimeoutOccurred = pdTRUE;
 232:..\FreeRTOS/event_groups.c **** 			}
 233:..\FreeRTOS/event_groups.c **** 		}
 234:..\FreeRTOS/event_groups.c **** 	}
 235:..\FreeRTOS/event_groups.c **** 	xAlreadyYielded = xTaskResumeAll();
 236:..\FreeRTOS/event_groups.c **** 
 237:..\FreeRTOS/event_groups.c **** 	if( xTicksToWait != ( TickType_t ) 0 )
 238:..\FreeRTOS/event_groups.c **** 	{
 239:..\FreeRTOS/event_groups.c **** 		if( xAlreadyYielded == pdFALSE )
 240:..\FreeRTOS/event_groups.c **** 		{
 241:..\FreeRTOS/event_groups.c **** 			portYIELD_WITHIN_API();
 242:..\FreeRTOS/event_groups.c **** 		}
 243:..\FreeRTOS/event_groups.c **** 		else
 244:..\FreeRTOS/event_groups.c **** 		{
 245:..\FreeRTOS/event_groups.c **** 			mtCOVERAGE_TEST_MARKER();
 246:..\FreeRTOS/event_groups.c **** 		}
 247:..\FreeRTOS/event_groups.c **** 
 248:..\FreeRTOS/event_groups.c **** 		/* The task blocked to wait for its required bits to be set - at this
 249:..\FreeRTOS/event_groups.c **** 		point either the required bits were set or the block time expired.  If
 250:..\FreeRTOS/event_groups.c **** 		the required bits were set they will have been stored in the task's
 251:..\FreeRTOS/event_groups.c **** 		event list item, and they should now be retrieved then cleared. */
 252:..\FreeRTOS/event_groups.c **** 		uxReturn = uxTaskResetEventItemValue();
 253:..\FreeRTOS/event_groups.c **** 
 254:..\FreeRTOS/event_groups.c **** 		if( ( uxReturn & eventUNBLOCKED_DUE_TO_BIT_SET ) == ( EventBits_t ) 0 )
 255:..\FreeRTOS/event_groups.c **** 		{
 256:..\FreeRTOS/event_groups.c **** 			/* The task timed out, just return the current event bit value. */
 257:..\FreeRTOS/event_groups.c **** 			taskENTER_CRITICAL();
 258:..\FreeRTOS/event_groups.c **** 			{
 259:..\FreeRTOS/event_groups.c **** 				uxReturn = pxEventBits->uxEventBits;
ARM GAS  C:\Users\Tri94\AppData\Local\Temp\ccjoABRh.s 			page 6


 260:..\FreeRTOS/event_groups.c **** 
 261:..\FreeRTOS/event_groups.c **** 				/* Although the task got here because it timed out before the
 262:..\FreeRTOS/event_groups.c **** 				bits it was waiting for were set, it is possible that since it
 263:..\FreeRTOS/event_groups.c **** 				unblocked another task has set the bits.  If this is the case
 264:..\FreeRTOS/event_groups.c **** 				then it needs to clear the bits before exiting. */
 265:..\FreeRTOS/event_groups.c **** 				if( ( uxReturn & uxBitsToWaitFor ) == uxBitsToWaitFor )
 266:..\FreeRTOS/event_groups.c **** 				{
 267:..\FreeRTOS/event_groups.c **** 					pxEventBits->uxEventBits &= ~uxBitsToWaitFor;
 268:..\FreeRTOS/event_groups.c **** 				}
 269:..\FreeRTOS/event_groups.c **** 				else
 270:..\FreeRTOS/event_groups.c **** 				{
 271:..\FreeRTOS/event_groups.c **** 					mtCOVERAGE_TEST_MARKER();
 272:..\FreeRTOS/event_groups.c **** 				}
 273:..\FreeRTOS/event_groups.c **** 			}
 274:..\FreeRTOS/event_groups.c **** 			taskEXIT_CRITICAL();
 275:..\FreeRTOS/event_groups.c **** 
 276:..\FreeRTOS/event_groups.c **** 			xTimeoutOccurred = pdTRUE;
 277:..\FreeRTOS/event_groups.c **** 		}
 278:..\FreeRTOS/event_groups.c **** 		else
 279:..\FreeRTOS/event_groups.c **** 		{
 280:..\FreeRTOS/event_groups.c **** 			/* The task unblocked because the bits were set. */
 281:..\FreeRTOS/event_groups.c **** 		}
 282:..\FreeRTOS/event_groups.c **** 
 283:..\FreeRTOS/event_groups.c **** 		/* Control bits might be set as the task had blocked should not be
 284:..\FreeRTOS/event_groups.c **** 		returned. */
 285:..\FreeRTOS/event_groups.c **** 		uxReturn &= ~eventEVENT_BITS_CONTROL_BYTES;
 286:..\FreeRTOS/event_groups.c **** 	}
 287:..\FreeRTOS/event_groups.c **** 
 288:..\FreeRTOS/event_groups.c **** 	traceEVENT_GROUP_SYNC_END( xEventGroup, uxBitsToSet, uxBitsToWaitFor, xTimeoutOccurred );
 289:..\FreeRTOS/event_groups.c **** 
 290:..\FreeRTOS/event_groups.c **** 	/* Prevent compiler warnings when trace macros are not used. */
 291:..\FreeRTOS/event_groups.c **** 	( void ) xTimeoutOccurred;
 292:..\FreeRTOS/event_groups.c **** 
 293:..\FreeRTOS/event_groups.c **** 	return uxReturn;
 294:..\FreeRTOS/event_groups.c **** }
 295:..\FreeRTOS/event_groups.c **** /*-----------------------------------------------------------*/
 296:..\FreeRTOS/event_groups.c **** 
 297:..\FreeRTOS/event_groups.c **** EventBits_t xEventGroupWaitBits( EventGroupHandle_t xEventGroup, const EventBits_t uxBitsToWaitFor,
 298:..\FreeRTOS/event_groups.c **** {
 299:..\FreeRTOS/event_groups.c **** EventGroup_t *pxEventBits = ( EventGroup_t * ) xEventGroup;
 300:..\FreeRTOS/event_groups.c **** EventBits_t uxReturn, uxControlBits = 0;
 301:..\FreeRTOS/event_groups.c **** BaseType_t xWaitConditionMet, xAlreadyYielded;
 302:..\FreeRTOS/event_groups.c **** BaseType_t xTimeoutOccurred = pdFALSE;
 303:..\FreeRTOS/event_groups.c **** 
 304:..\FreeRTOS/event_groups.c **** 	/* Check the user is not attempting to wait on the bits used by the kernel
 305:..\FreeRTOS/event_groups.c **** 	itself, and that at least one bit is being requested. */
 306:..\FreeRTOS/event_groups.c **** 	configASSERT( xEventGroup );
 307:..\FreeRTOS/event_groups.c **** 	configASSERT( ( uxBitsToWaitFor & eventEVENT_BITS_CONTROL_BYTES ) == 0 );
 308:..\FreeRTOS/event_groups.c **** 	configASSERT( uxBitsToWaitFor != 0 );
 309:..\FreeRTOS/event_groups.c **** 	#if ( ( INCLUDE_xTaskGetSchedulerState == 1 ) || ( configUSE_TIMERS == 1 ) )
 310:..\FreeRTOS/event_groups.c **** 	{
 311:..\FreeRTOS/event_groups.c **** 		configASSERT( !( ( xTaskGetSchedulerState() == taskSCHEDULER_SUSPENDED ) && ( xTicksToWait != 0 )
 312:..\FreeRTOS/event_groups.c **** 	}
 313:..\FreeRTOS/event_groups.c **** 	#endif
 314:..\FreeRTOS/event_groups.c **** 
 315:..\FreeRTOS/event_groups.c **** 	vTaskSuspendAll();
 316:..\FreeRTOS/event_groups.c **** 	{
ARM GAS  C:\Users\Tri94\AppData\Local\Temp\ccjoABRh.s 			page 7


 317:..\FreeRTOS/event_groups.c **** 		const EventBits_t uxCurrentEventBits = pxEventBits->uxEventBits;
 318:..\FreeRTOS/event_groups.c **** 
 319:..\FreeRTOS/event_groups.c **** 		/* Check to see if the wait condition is already met or not. */
 320:..\FreeRTOS/event_groups.c **** 		xWaitConditionMet = prvTestWaitCondition( uxCurrentEventBits, uxBitsToWaitFor, xWaitForAllBits );
 321:..\FreeRTOS/event_groups.c **** 
 322:..\FreeRTOS/event_groups.c **** 		if( xWaitConditionMet != pdFALSE )
 323:..\FreeRTOS/event_groups.c **** 		{
 324:..\FreeRTOS/event_groups.c **** 			/* The wait condition has already been met so there is no need to
 325:..\FreeRTOS/event_groups.c **** 			block. */
 326:..\FreeRTOS/event_groups.c **** 			uxReturn = uxCurrentEventBits;
 327:..\FreeRTOS/event_groups.c **** 			xTicksToWait = ( TickType_t ) 0;
 328:..\FreeRTOS/event_groups.c **** 
 329:..\FreeRTOS/event_groups.c **** 			/* Clear the wait bits if requested to do so. */
 330:..\FreeRTOS/event_groups.c **** 			if( xClearOnExit != pdFALSE )
 331:..\FreeRTOS/event_groups.c **** 			{
 332:..\FreeRTOS/event_groups.c **** 				pxEventBits->uxEventBits &= ~uxBitsToWaitFor;
 333:..\FreeRTOS/event_groups.c **** 			}
 334:..\FreeRTOS/event_groups.c **** 			else
 335:..\FreeRTOS/event_groups.c **** 			{
 336:..\FreeRTOS/event_groups.c **** 				mtCOVERAGE_TEST_MARKER();
 337:..\FreeRTOS/event_groups.c **** 			}
 338:..\FreeRTOS/event_groups.c **** 		}
 339:..\FreeRTOS/event_groups.c **** 		else if( xTicksToWait == ( TickType_t ) 0 )
 340:..\FreeRTOS/event_groups.c **** 		{
 341:..\FreeRTOS/event_groups.c **** 			/* The wait condition has not been met, but no block time was
 342:..\FreeRTOS/event_groups.c **** 			specified, so just return the current value. */
 343:..\FreeRTOS/event_groups.c **** 			uxReturn = uxCurrentEventBits;
 344:..\FreeRTOS/event_groups.c **** 			xTimeoutOccurred = pdTRUE;
 345:..\FreeRTOS/event_groups.c **** 		}
 346:..\FreeRTOS/event_groups.c **** 		else
 347:..\FreeRTOS/event_groups.c **** 		{
 348:..\FreeRTOS/event_groups.c **** 			/* The task is going to block to wait for its required bits to be
 349:..\FreeRTOS/event_groups.c **** 			set.  uxControlBits are used to remember the specified behaviour of
 350:..\FreeRTOS/event_groups.c **** 			this call to xEventGroupWaitBits() - for use when the event bits
 351:..\FreeRTOS/event_groups.c **** 			unblock the task. */
 352:..\FreeRTOS/event_groups.c **** 			if( xClearOnExit != pdFALSE )
 353:..\FreeRTOS/event_groups.c **** 			{
 354:..\FreeRTOS/event_groups.c **** 				uxControlBits |= eventCLEAR_EVENTS_ON_EXIT_BIT;
 355:..\FreeRTOS/event_groups.c **** 			}
 356:..\FreeRTOS/event_groups.c **** 			else
 357:..\FreeRTOS/event_groups.c **** 			{
 358:..\FreeRTOS/event_groups.c **** 				mtCOVERAGE_TEST_MARKER();
 359:..\FreeRTOS/event_groups.c **** 			}
 360:..\FreeRTOS/event_groups.c **** 
 361:..\FreeRTOS/event_groups.c **** 			if( xWaitForAllBits != pdFALSE )
 362:..\FreeRTOS/event_groups.c **** 			{
 363:..\FreeRTOS/event_groups.c **** 				uxControlBits |= eventWAIT_FOR_ALL_BITS;
 364:..\FreeRTOS/event_groups.c **** 			}
 365:..\FreeRTOS/event_groups.c **** 			else
 366:..\FreeRTOS/event_groups.c **** 			{
 367:..\FreeRTOS/event_groups.c **** 				mtCOVERAGE_TEST_MARKER();
 368:..\FreeRTOS/event_groups.c **** 			}
 369:..\FreeRTOS/event_groups.c **** 
 370:..\FreeRTOS/event_groups.c **** 			/* Store the bits that the calling task is waiting for in the
 371:..\FreeRTOS/event_groups.c **** 			task's event list item so the kernel knows when a match is
 372:..\FreeRTOS/event_groups.c **** 			found.  Then enter the blocked state. */
 373:..\FreeRTOS/event_groups.c **** 			vTaskPlaceOnUnorderedEventList( &( pxEventBits->xTasksWaitingForBits ), ( uxBitsToWaitFor | uxCo
ARM GAS  C:\Users\Tri94\AppData\Local\Temp\ccjoABRh.s 			page 8


 374:..\FreeRTOS/event_groups.c **** 
 375:..\FreeRTOS/event_groups.c **** 			/* This is obsolete as it will get set after the task unblocks, but
 376:..\FreeRTOS/event_groups.c **** 			some compilers mistakenly generate a warning about the variable
 377:..\FreeRTOS/event_groups.c **** 			being returned without being set if it is not done. */
 378:..\FreeRTOS/event_groups.c **** 			uxReturn = 0;
 379:..\FreeRTOS/event_groups.c **** 
 380:..\FreeRTOS/event_groups.c **** 			traceEVENT_GROUP_WAIT_BITS_BLOCK( xEventGroup, uxBitsToWaitFor );
 381:..\FreeRTOS/event_groups.c **** 		}
 382:..\FreeRTOS/event_groups.c **** 	}
 383:..\FreeRTOS/event_groups.c **** 	xAlreadyYielded = xTaskResumeAll();
 384:..\FreeRTOS/event_groups.c **** 
 385:..\FreeRTOS/event_groups.c **** 	if( xTicksToWait != ( TickType_t ) 0 )
 386:..\FreeRTOS/event_groups.c **** 	{
 387:..\FreeRTOS/event_groups.c **** 		if( xAlreadyYielded == pdFALSE )
 388:..\FreeRTOS/event_groups.c **** 		{
 389:..\FreeRTOS/event_groups.c **** 			portYIELD_WITHIN_API();
 390:..\FreeRTOS/event_groups.c **** 		}
 391:..\FreeRTOS/event_groups.c **** 		else
 392:..\FreeRTOS/event_groups.c **** 		{
 393:..\FreeRTOS/event_groups.c **** 			mtCOVERAGE_TEST_MARKER();
 394:..\FreeRTOS/event_groups.c **** 		}
 395:..\FreeRTOS/event_groups.c **** 
 396:..\FreeRTOS/event_groups.c **** 		/* The task blocked to wait for its required bits to be set - at this
 397:..\FreeRTOS/event_groups.c **** 		point either the required bits were set or the block time expired.  If
 398:..\FreeRTOS/event_groups.c **** 		the required bits were set they will have been stored in the task's
 399:..\FreeRTOS/event_groups.c **** 		event list item, and they should now be retrieved then cleared. */
 400:..\FreeRTOS/event_groups.c **** 		uxReturn = uxTaskResetEventItemValue();
 401:..\FreeRTOS/event_groups.c **** 
 402:..\FreeRTOS/event_groups.c **** 		if( ( uxReturn & eventUNBLOCKED_DUE_TO_BIT_SET ) == ( EventBits_t ) 0 )
 403:..\FreeRTOS/event_groups.c **** 		{
 404:..\FreeRTOS/event_groups.c **** 			taskENTER_CRITICAL();
 405:..\FreeRTOS/event_groups.c **** 			{
 406:..\FreeRTOS/event_groups.c **** 				/* The task timed out, just return the current event bit value. */
 407:..\FreeRTOS/event_groups.c **** 				uxReturn = pxEventBits->uxEventBits;
 408:..\FreeRTOS/event_groups.c **** 
 409:..\FreeRTOS/event_groups.c **** 				/* It is possible that the event bits were updated between this
 410:..\FreeRTOS/event_groups.c **** 				task leaving the Blocked state and running again. */
 411:..\FreeRTOS/event_groups.c **** 				if( prvTestWaitCondition( uxReturn, uxBitsToWaitFor, xWaitForAllBits ) != pdFALSE )
 412:..\FreeRTOS/event_groups.c **** 				{
 413:..\FreeRTOS/event_groups.c **** 					if( xClearOnExit != pdFALSE )
 414:..\FreeRTOS/event_groups.c **** 					{
 415:..\FreeRTOS/event_groups.c **** 						pxEventBits->uxEventBits &= ~uxBitsToWaitFor;
 416:..\FreeRTOS/event_groups.c **** 					}
 417:..\FreeRTOS/event_groups.c **** 					else
 418:..\FreeRTOS/event_groups.c **** 					{
 419:..\FreeRTOS/event_groups.c **** 						mtCOVERAGE_TEST_MARKER();
 420:..\FreeRTOS/event_groups.c **** 					}
 421:..\FreeRTOS/event_groups.c **** 				}
 422:..\FreeRTOS/event_groups.c **** 				else
 423:..\FreeRTOS/event_groups.c **** 				{
 424:..\FreeRTOS/event_groups.c **** 					mtCOVERAGE_TEST_MARKER();
 425:..\FreeRTOS/event_groups.c **** 				}
 426:..\FreeRTOS/event_groups.c **** 				xTimeoutOccurred = pdTRUE;
 427:..\FreeRTOS/event_groups.c **** 			}
 428:..\FreeRTOS/event_groups.c **** 			taskEXIT_CRITICAL();
 429:..\FreeRTOS/event_groups.c **** 		}
 430:..\FreeRTOS/event_groups.c **** 		else
ARM GAS  C:\Users\Tri94\AppData\Local\Temp\ccjoABRh.s 			page 9


 431:..\FreeRTOS/event_groups.c **** 		{
 432:..\FreeRTOS/event_groups.c **** 			/* The task unblocked because the bits were set. */
 433:..\FreeRTOS/event_groups.c **** 		}
 434:..\FreeRTOS/event_groups.c **** 
 435:..\FreeRTOS/event_groups.c **** 		/* The task blocked so control bits may have been set. */
 436:..\FreeRTOS/event_groups.c **** 		uxReturn &= ~eventEVENT_BITS_CONTROL_BYTES;
 437:..\FreeRTOS/event_groups.c **** 	}
 438:..\FreeRTOS/event_groups.c **** 	traceEVENT_GROUP_WAIT_BITS_END( xEventGroup, uxBitsToWaitFor, xTimeoutOccurred );
 439:..\FreeRTOS/event_groups.c **** 
 440:..\FreeRTOS/event_groups.c **** 	/* Prevent compiler warnings when trace macros are not used. */
 441:..\FreeRTOS/event_groups.c **** 	( void ) xTimeoutOccurred;
 442:..\FreeRTOS/event_groups.c **** 
 443:..\FreeRTOS/event_groups.c **** 	return uxReturn;
 444:..\FreeRTOS/event_groups.c **** }
 445:..\FreeRTOS/event_groups.c **** /*-----------------------------------------------------------*/
 446:..\FreeRTOS/event_groups.c **** 
 447:..\FreeRTOS/event_groups.c **** EventBits_t xEventGroupClearBits( EventGroupHandle_t xEventGroup, const EventBits_t uxBitsToClear )
 448:..\FreeRTOS/event_groups.c **** {
 449:..\FreeRTOS/event_groups.c **** EventGroup_t *pxEventBits = ( EventGroup_t * ) xEventGroup;
 450:..\FreeRTOS/event_groups.c **** EventBits_t uxReturn;
 451:..\FreeRTOS/event_groups.c **** 
 452:..\FreeRTOS/event_groups.c **** 	/* Check the user is not attempting to clear the bits used by the kernel
 453:..\FreeRTOS/event_groups.c **** 	itself. */
 454:..\FreeRTOS/event_groups.c **** 	configASSERT( xEventGroup );
 455:..\FreeRTOS/event_groups.c **** 	configASSERT( ( uxBitsToClear & eventEVENT_BITS_CONTROL_BYTES ) == 0 );
 456:..\FreeRTOS/event_groups.c **** 
 457:..\FreeRTOS/event_groups.c **** 	taskENTER_CRITICAL();
 458:..\FreeRTOS/event_groups.c **** 	{
 459:..\FreeRTOS/event_groups.c **** 		traceEVENT_GROUP_CLEAR_BITS( xEventGroup, uxBitsToClear );
 460:..\FreeRTOS/event_groups.c **** 
 461:..\FreeRTOS/event_groups.c **** 		/* The value returned is the event group value prior to the bits being
 462:..\FreeRTOS/event_groups.c **** 		cleared. */
 463:..\FreeRTOS/event_groups.c **** 		uxReturn = pxEventBits->uxEventBits;
 464:..\FreeRTOS/event_groups.c **** 
 465:..\FreeRTOS/event_groups.c **** 		/* Clear the bits. */
 466:..\FreeRTOS/event_groups.c **** 		pxEventBits->uxEventBits &= ~uxBitsToClear;
 467:..\FreeRTOS/event_groups.c **** 	}
 468:..\FreeRTOS/event_groups.c **** 	taskEXIT_CRITICAL();
 469:..\FreeRTOS/event_groups.c **** 
 470:..\FreeRTOS/event_groups.c **** 	return uxReturn;
 471:..\FreeRTOS/event_groups.c **** }
 472:..\FreeRTOS/event_groups.c **** /*-----------------------------------------------------------*/
 473:..\FreeRTOS/event_groups.c **** 
 474:..\FreeRTOS/event_groups.c **** #if ( ( configUSE_TRACE_FACILITY == 1 ) && ( INCLUDE_xTimerPendFunctionCall == 1 ) && ( configUSE_T
 475:..\FreeRTOS/event_groups.c **** 
 476:..\FreeRTOS/event_groups.c **** 	BaseType_t xEventGroupClearBitsFromISR( EventGroupHandle_t xEventGroup, const EventBits_t uxBitsTo
 477:..\FreeRTOS/event_groups.c **** 	{
 478:..\FreeRTOS/event_groups.c **** 		BaseType_t xReturn;
 479:..\FreeRTOS/event_groups.c **** 
 480:..\FreeRTOS/event_groups.c **** 		traceEVENT_GROUP_CLEAR_BITS_FROM_ISR( xEventGroup, uxBitsToClear );
 481:..\FreeRTOS/event_groups.c **** 		xReturn = xTimerPendFunctionCallFromISR( vEventGroupClearBitsCallback, ( void * ) xEventGroup, ( 
 482:..\FreeRTOS/event_groups.c **** 
 483:..\FreeRTOS/event_groups.c **** 		return xReturn;
 484:..\FreeRTOS/event_groups.c **** 	}
 485:..\FreeRTOS/event_groups.c **** 
 486:..\FreeRTOS/event_groups.c **** #endif
 487:..\FreeRTOS/event_groups.c **** /*-----------------------------------------------------------*/
ARM GAS  C:\Users\Tri94\AppData\Local\Temp\ccjoABRh.s 			page 10


 488:..\FreeRTOS/event_groups.c **** 
 489:..\FreeRTOS/event_groups.c **** EventBits_t xEventGroupGetBitsFromISR( EventGroupHandle_t xEventGroup )
 490:..\FreeRTOS/event_groups.c **** {
 491:..\FreeRTOS/event_groups.c **** UBaseType_t uxSavedInterruptStatus;
 492:..\FreeRTOS/event_groups.c **** EventGroup_t *pxEventBits = ( EventGroup_t * ) xEventGroup;
 493:..\FreeRTOS/event_groups.c **** EventBits_t uxReturn;
 494:..\FreeRTOS/event_groups.c **** 
 495:..\FreeRTOS/event_groups.c **** 	uxSavedInterruptStatus = portSET_INTERRUPT_MASK_FROM_ISR();
 496:..\FreeRTOS/event_groups.c **** 	{
 497:..\FreeRTOS/event_groups.c **** 		uxReturn = pxEventBits->uxEventBits;
 498:..\FreeRTOS/event_groups.c **** 	}
 499:..\FreeRTOS/event_groups.c **** 	portCLEAR_INTERRUPT_MASK_FROM_ISR( uxSavedInterruptStatus );
 500:..\FreeRTOS/event_groups.c **** 
 501:..\FreeRTOS/event_groups.c **** 	return uxReturn;
 502:..\FreeRTOS/event_groups.c **** }
 503:..\FreeRTOS/event_groups.c **** /*-----------------------------------------------------------*/
 504:..\FreeRTOS/event_groups.c **** 
 505:..\FreeRTOS/event_groups.c **** EventBits_t xEventGroupSetBits( EventGroupHandle_t xEventGroup, const EventBits_t uxBitsToSet )
 506:..\FreeRTOS/event_groups.c **** {
 507:..\FreeRTOS/event_groups.c **** ListItem_t *pxListItem, *pxNext;
 508:..\FreeRTOS/event_groups.c **** ListItem_t const *pxListEnd;
 509:..\FreeRTOS/event_groups.c **** List_t *pxList;
 510:..\FreeRTOS/event_groups.c **** EventBits_t uxBitsToClear = 0, uxBitsWaitedFor, uxControlBits;
 511:..\FreeRTOS/event_groups.c **** EventGroup_t *pxEventBits = ( EventGroup_t * ) xEventGroup;
 512:..\FreeRTOS/event_groups.c **** BaseType_t xMatchFound = pdFALSE;
 513:..\FreeRTOS/event_groups.c **** 
 514:..\FreeRTOS/event_groups.c **** 	/* Check the user is not attempting to set the bits used by the kernel
 515:..\FreeRTOS/event_groups.c **** 	itself. */
 516:..\FreeRTOS/event_groups.c **** 	configASSERT( xEventGroup );
 517:..\FreeRTOS/event_groups.c **** 	configASSERT( ( uxBitsToSet & eventEVENT_BITS_CONTROL_BYTES ) == 0 );
 518:..\FreeRTOS/event_groups.c **** 
 519:..\FreeRTOS/event_groups.c **** 	pxList = &( pxEventBits->xTasksWaitingForBits );
 520:..\FreeRTOS/event_groups.c **** 	pxListEnd = listGET_END_MARKER( pxList ); /*lint !e826 !e740 The mini list structure is used as th
 521:..\FreeRTOS/event_groups.c **** 	vTaskSuspendAll();
 522:..\FreeRTOS/event_groups.c **** 	{
 523:..\FreeRTOS/event_groups.c **** 		traceEVENT_GROUP_SET_BITS( xEventGroup, uxBitsToSet );
 524:..\FreeRTOS/event_groups.c **** 
 525:..\FreeRTOS/event_groups.c **** 		pxListItem = listGET_HEAD_ENTRY( pxList );
 526:..\FreeRTOS/event_groups.c **** 
 527:..\FreeRTOS/event_groups.c **** 		/* Set the bits. */
 528:..\FreeRTOS/event_groups.c **** 		pxEventBits->uxEventBits |= uxBitsToSet;
 529:..\FreeRTOS/event_groups.c **** 
 530:..\FreeRTOS/event_groups.c **** 		/* See if the new bit value should unblock any tasks. */
 531:..\FreeRTOS/event_groups.c **** 		while( pxListItem != pxListEnd )
 532:..\FreeRTOS/event_groups.c **** 		{
 533:..\FreeRTOS/event_groups.c **** 			pxNext = listGET_NEXT( pxListItem );
 534:..\FreeRTOS/event_groups.c **** 			uxBitsWaitedFor = listGET_LIST_ITEM_VALUE( pxListItem );
 535:..\FreeRTOS/event_groups.c **** 			xMatchFound = pdFALSE;
 536:..\FreeRTOS/event_groups.c **** 
 537:..\FreeRTOS/event_groups.c **** 			/* Split the bits waited for from the control bits. */
 538:..\FreeRTOS/event_groups.c **** 			uxControlBits = uxBitsWaitedFor & eventEVENT_BITS_CONTROL_BYTES;
 539:..\FreeRTOS/event_groups.c **** 			uxBitsWaitedFor &= ~eventEVENT_BITS_CONTROL_BYTES;
 540:..\FreeRTOS/event_groups.c **** 
 541:..\FreeRTOS/event_groups.c **** 			if( ( uxControlBits & eventWAIT_FOR_ALL_BITS ) == ( EventBits_t ) 0 )
 542:..\FreeRTOS/event_groups.c **** 			{
 543:..\FreeRTOS/event_groups.c **** 				/* Just looking for single bit being set. */
 544:..\FreeRTOS/event_groups.c **** 				if( ( uxBitsWaitedFor & pxEventBits->uxEventBits ) != ( EventBits_t ) 0 )
ARM GAS  C:\Users\Tri94\AppData\Local\Temp\ccjoABRh.s 			page 11


 545:..\FreeRTOS/event_groups.c **** 				{
 546:..\FreeRTOS/event_groups.c **** 					xMatchFound = pdTRUE;
 547:..\FreeRTOS/event_groups.c **** 				}
 548:..\FreeRTOS/event_groups.c **** 				else
 549:..\FreeRTOS/event_groups.c **** 				{
 550:..\FreeRTOS/event_groups.c **** 					mtCOVERAGE_TEST_MARKER();
 551:..\FreeRTOS/event_groups.c **** 				}
 552:..\FreeRTOS/event_groups.c **** 			}
 553:..\FreeRTOS/event_groups.c **** 			else if( ( uxBitsWaitedFor & pxEventBits->uxEventBits ) == uxBitsWaitedFor )
 554:..\FreeRTOS/event_groups.c **** 			{
 555:..\FreeRTOS/event_groups.c **** 				/* All bits are set. */
 556:..\FreeRTOS/event_groups.c **** 				xMatchFound = pdTRUE;
 557:..\FreeRTOS/event_groups.c **** 			}
 558:..\FreeRTOS/event_groups.c **** 			else
 559:..\FreeRTOS/event_groups.c **** 			{
 560:..\FreeRTOS/event_groups.c **** 				/* Need all bits to be set, but not all the bits were set. */
 561:..\FreeRTOS/event_groups.c **** 			}
 562:..\FreeRTOS/event_groups.c **** 
 563:..\FreeRTOS/event_groups.c **** 			if( xMatchFound != pdFALSE )
 564:..\FreeRTOS/event_groups.c **** 			{
 565:..\FreeRTOS/event_groups.c **** 				/* The bits match.  Should the bits be cleared on exit? */
 566:..\FreeRTOS/event_groups.c **** 				if( ( uxControlBits & eventCLEAR_EVENTS_ON_EXIT_BIT ) != ( EventBits_t ) 0 )
 567:..\FreeRTOS/event_groups.c **** 				{
 568:..\FreeRTOS/event_groups.c **** 					uxBitsToClear |= uxBitsWaitedFor;
 569:..\FreeRTOS/event_groups.c **** 				}
 570:..\FreeRTOS/event_groups.c **** 				else
 571:..\FreeRTOS/event_groups.c **** 				{
 572:..\FreeRTOS/event_groups.c **** 					mtCOVERAGE_TEST_MARKER();
 573:..\FreeRTOS/event_groups.c **** 				}
 574:..\FreeRTOS/event_groups.c **** 
 575:..\FreeRTOS/event_groups.c **** 				/* Store the actual event flag value in the task's event list
 576:..\FreeRTOS/event_groups.c **** 				item before removing the task from the event list.  The
 577:..\FreeRTOS/event_groups.c **** 				eventUNBLOCKED_DUE_TO_BIT_SET bit is set so the task knows
 578:..\FreeRTOS/event_groups.c **** 				that is was unblocked due to its required bits matching, rather
 579:..\FreeRTOS/event_groups.c **** 				than because it timed out. */
 580:..\FreeRTOS/event_groups.c **** 				vTaskRemoveFromUnorderedEventList( pxListItem, pxEventBits->uxEventBits | eventUNBLOCKED_DUE_TO
 581:..\FreeRTOS/event_groups.c **** 			}
 582:..\FreeRTOS/event_groups.c **** 
 583:..\FreeRTOS/event_groups.c **** 			/* Move onto the next list item.  Note pxListItem->pxNext is not
 584:..\FreeRTOS/event_groups.c **** 			used here as the list item may have been removed from the event list
 585:..\FreeRTOS/event_groups.c **** 			and inserted into the ready/pending reading list. */
 586:..\FreeRTOS/event_groups.c **** 			pxListItem = pxNext;
 587:..\FreeRTOS/event_groups.c **** 		}
 588:..\FreeRTOS/event_groups.c **** 
 589:..\FreeRTOS/event_groups.c **** 		/* Clear any bits that matched when the eventCLEAR_EVENTS_ON_EXIT_BIT
 590:..\FreeRTOS/event_groups.c **** 		bit was set in the control word. */
 591:..\FreeRTOS/event_groups.c **** 		pxEventBits->uxEventBits &= ~uxBitsToClear;
 592:..\FreeRTOS/event_groups.c **** 	}
 593:..\FreeRTOS/event_groups.c **** 	( void ) xTaskResumeAll();
 594:..\FreeRTOS/event_groups.c **** 
 595:..\FreeRTOS/event_groups.c **** 	return pxEventBits->uxEventBits;
 596:..\FreeRTOS/event_groups.c **** }
 597:..\FreeRTOS/event_groups.c **** /*-----------------------------------------------------------*/
 598:..\FreeRTOS/event_groups.c **** 
 599:..\FreeRTOS/event_groups.c **** void vEventGroupDelete( EventGroupHandle_t xEventGroup )
 600:..\FreeRTOS/event_groups.c **** {
 601:..\FreeRTOS/event_groups.c **** EventGroup_t *pxEventBits = ( EventGroup_t * ) xEventGroup;
ARM GAS  C:\Users\Tri94\AppData\Local\Temp\ccjoABRh.s 			page 12


 602:..\FreeRTOS/event_groups.c **** const List_t *pxTasksWaitingForBits = &( pxEventBits->xTasksWaitingForBits );
 603:..\FreeRTOS/event_groups.c **** 
 604:..\FreeRTOS/event_groups.c **** 	vTaskSuspendAll();
 605:..\FreeRTOS/event_groups.c **** 	{
 606:..\FreeRTOS/event_groups.c **** 		traceEVENT_GROUP_DELETE( xEventGroup );
 607:..\FreeRTOS/event_groups.c **** 
 608:..\FreeRTOS/event_groups.c **** 		while( listCURRENT_LIST_LENGTH( pxTasksWaitingForBits ) > ( UBaseType_t ) 0 )
 609:..\FreeRTOS/event_groups.c **** 		{
 610:..\FreeRTOS/event_groups.c **** 			/* Unblock the task, returning 0 as the event list is being deleted
 611:..\FreeRTOS/event_groups.c **** 			and cannot therefore have any bits set. */
 612:..\FreeRTOS/event_groups.c **** 			configASSERT( pxTasksWaitingForBits->xListEnd.pxNext != ( const ListItem_t * ) &( pxTasksWaiting
 613:..\FreeRTOS/event_groups.c **** 			vTaskRemoveFromUnorderedEventList( pxTasksWaitingForBits->xListEnd.pxNext, eventUNBLOCKED_DUE_TO
 614:..\FreeRTOS/event_groups.c **** 		}
 615:..\FreeRTOS/event_groups.c **** 
 616:..\FreeRTOS/event_groups.c **** 		#if( ( configSUPPORT_DYNAMIC_ALLOCATION == 1 ) && ( configSUPPORT_STATIC_ALLOCATION == 0 ) )
 617:..\FreeRTOS/event_groups.c **** 		{
 618:..\FreeRTOS/event_groups.c **** 			/* The event group can only have been allocated dynamically - free
 619:..\FreeRTOS/event_groups.c **** 			it again. */
 620:..\FreeRTOS/event_groups.c **** 			vPortFree( pxEventBits );
 621:..\FreeRTOS/event_groups.c **** 		}
 622:..\FreeRTOS/event_groups.c **** 		#elif( ( configSUPPORT_DYNAMIC_ALLOCATION == 1 ) && ( configSUPPORT_STATIC_ALLOCATION == 1 ) )
 623:..\FreeRTOS/event_groups.c **** 		{
 624:..\FreeRTOS/event_groups.c **** 			/* The event group could have been allocated statically or
 625:..\FreeRTOS/event_groups.c **** 			dynamically, so check before attempting to free the memory. */
 626:..\FreeRTOS/event_groups.c **** 			if( pxEventBits->ucStaticallyAllocated == ( uint8_t ) pdFALSE )
 627:..\FreeRTOS/event_groups.c **** 			{
 628:..\FreeRTOS/event_groups.c **** 				vPortFree( pxEventBits );
 629:..\FreeRTOS/event_groups.c **** 			}
 630:..\FreeRTOS/event_groups.c **** 			else
 631:..\FreeRTOS/event_groups.c **** 			{
 632:..\FreeRTOS/event_groups.c **** 				mtCOVERAGE_TEST_MARKER();
 633:..\FreeRTOS/event_groups.c **** 			}
 634:..\FreeRTOS/event_groups.c **** 		}
 635:..\FreeRTOS/event_groups.c **** 		#endif /* configSUPPORT_DYNAMIC_ALLOCATION */
 636:..\FreeRTOS/event_groups.c **** 	}
 637:..\FreeRTOS/event_groups.c **** 	( void ) xTaskResumeAll();
 638:..\FreeRTOS/event_groups.c **** }
 639:..\FreeRTOS/event_groups.c **** /*-----------------------------------------------------------*/
 640:..\FreeRTOS/event_groups.c **** 
 641:..\FreeRTOS/event_groups.c **** /* For internal use only - execute a 'set bits' command that was pended from
 642:..\FreeRTOS/event_groups.c **** an interrupt. */
 643:..\FreeRTOS/event_groups.c **** void vEventGroupSetBitsCallback( void *pvEventGroup, const uint32_t ulBitsToSet )
 644:..\FreeRTOS/event_groups.c **** {
 645:..\FreeRTOS/event_groups.c **** 	( void ) xEventGroupSetBits( pvEventGroup, ( EventBits_t ) ulBitsToSet );
 646:..\FreeRTOS/event_groups.c **** }
 647:..\FreeRTOS/event_groups.c **** /*-----------------------------------------------------------*/
 648:..\FreeRTOS/event_groups.c **** 
 649:..\FreeRTOS/event_groups.c **** /* For internal use only - execute a 'clear bits' command that was pended from
 650:..\FreeRTOS/event_groups.c **** an interrupt. */
 651:..\FreeRTOS/event_groups.c **** void vEventGroupClearBitsCallback( void *pvEventGroup, const uint32_t ulBitsToClear )
 652:..\FreeRTOS/event_groups.c **** {
 653:..\FreeRTOS/event_groups.c **** 	( void ) xEventGroupClearBits( pvEventGroup, ( EventBits_t ) ulBitsToClear );
 654:..\FreeRTOS/event_groups.c **** }
 655:..\FreeRTOS/event_groups.c **** /*-----------------------------------------------------------*/
 656:..\FreeRTOS/event_groups.c **** 
 657:..\FreeRTOS/event_groups.c **** static BaseType_t prvTestWaitCondition( const EventBits_t uxCurrentEventBits, const EventBits_t uxB
 658:..\FreeRTOS/event_groups.c **** {
ARM GAS  C:\Users\Tri94\AppData\Local\Temp\ccjoABRh.s 			page 13


  27              		.loc 1 658 0
  28              		.cfi_startproc
  29              		@ args = 0, pretend = 0, frame = 0
  30              		@ frame_needed = 0, uses_anonymous_args = 0
  31              		@ link register save eliminated.
  32              	.LVL0:
 659:..\FreeRTOS/event_groups.c **** BaseType_t xWaitConditionMet = pdFALSE;
 660:..\FreeRTOS/event_groups.c **** 
 661:..\FreeRTOS/event_groups.c **** 	if( xWaitForAllBits == pdFALSE )
  33              		.loc 1 661 0
  34 0000 1AB9     		cbnz	r2, .L2
 662:..\FreeRTOS/event_groups.c **** 	{
 663:..\FreeRTOS/event_groups.c **** 		/* Task only has to wait for one bit within uxBitsToWaitFor to be
 664:..\FreeRTOS/event_groups.c **** 		set.  Is one already set? */
 665:..\FreeRTOS/event_groups.c **** 		if( ( uxCurrentEventBits & uxBitsToWaitFor ) != ( EventBits_t ) 0 )
  35              		.loc 1 665 0
  36 0002 0842     		tst	r0, r1
  37 0004 06D1     		bne	.L4
 659:..\FreeRTOS/event_groups.c **** BaseType_t xWaitConditionMet = pdFALSE;
  38              		.loc 1 659 0
  39 0006 0020     		movs	r0, #0
  40              	.LVL1:
  41 0008 7047     		bx	lr
  42              	.LVL2:
  43              	.L2:
 666:..\FreeRTOS/event_groups.c **** 		{
 667:..\FreeRTOS/event_groups.c **** 			xWaitConditionMet = pdTRUE;
 668:..\FreeRTOS/event_groups.c **** 		}
 669:..\FreeRTOS/event_groups.c **** 		else
 670:..\FreeRTOS/event_groups.c **** 		{
 671:..\FreeRTOS/event_groups.c **** 			mtCOVERAGE_TEST_MARKER();
 672:..\FreeRTOS/event_groups.c **** 		}
 673:..\FreeRTOS/event_groups.c **** 	}
 674:..\FreeRTOS/event_groups.c **** 	else
 675:..\FreeRTOS/event_groups.c **** 	{
 676:..\FreeRTOS/event_groups.c **** 		/* Task has to wait for all the bits in uxBitsToWaitFor to be set.
 677:..\FreeRTOS/event_groups.c **** 		Are they set already? */
 678:..\FreeRTOS/event_groups.c **** 		if( ( uxCurrentEventBits & uxBitsToWaitFor ) == uxBitsToWaitFor )
  44              		.loc 1 678 0
  45 000a 31EA0003 		bics	r3, r1, r0
  46 000e 03D0     		beq	.L5
 659:..\FreeRTOS/event_groups.c **** 
  47              		.loc 1 659 0
  48 0010 0020     		movs	r0, #0
  49              	.LVL3:
  50 0012 7047     		bx	lr
  51              	.LVL4:
  52              	.L4:
 667:..\FreeRTOS/event_groups.c **** 		}
  53              		.loc 1 667 0
  54 0014 0120     		movs	r0, #1
  55              	.LVL5:
  56 0016 7047     		bx	lr
  57              	.LVL6:
  58              	.L5:
 679:..\FreeRTOS/event_groups.c **** 		{
 680:..\FreeRTOS/event_groups.c **** 			xWaitConditionMet = pdTRUE;
ARM GAS  C:\Users\Tri94\AppData\Local\Temp\ccjoABRh.s 			page 14


  59              		.loc 1 680 0
  60 0018 0120     		movs	r0, #1
  61              	.LVL7:
 681:..\FreeRTOS/event_groups.c **** 		}
 682:..\FreeRTOS/event_groups.c **** 		else
 683:..\FreeRTOS/event_groups.c **** 		{
 684:..\FreeRTOS/event_groups.c **** 			mtCOVERAGE_TEST_MARKER();
 685:..\FreeRTOS/event_groups.c **** 		}
 686:..\FreeRTOS/event_groups.c **** 	}
 687:..\FreeRTOS/event_groups.c **** 
 688:..\FreeRTOS/event_groups.c **** 	return xWaitConditionMet;
 689:..\FreeRTOS/event_groups.c **** }
  62              		.loc 1 689 0
  63 001a 7047     		bx	lr
  64              		.cfi_endproc
  65              	.LFE78:
  66              		.size	prvTestWaitCondition, .-prvTestWaitCondition
  67              		.section	.text.xEventGroupCreate,"ax",%progbits
  68              		.align	2
  69              		.global	xEventGroupCreate
  70              		.thumb
  71              		.thumb_func
  72              		.type	xEventGroupCreate, %function
  73              	xEventGroupCreate:
  74              	.LFB69:
 144:..\FreeRTOS/event_groups.c **** 	EventGroup_t *pxEventBits;
  75              		.loc 1 144 0
  76              		.cfi_startproc
  77              		@ args = 0, pretend = 0, frame = 0
  78              		@ frame_needed = 0, uses_anonymous_args = 0
  79 0000 10B5     		push	{r4, lr}
  80              		.cfi_def_cfa_offset 8
  81              		.cfi_offset 4, -8
  82              		.cfi_offset 14, -4
 148:..\FreeRTOS/event_groups.c **** 
  83              		.loc 1 148 0
  84 0002 1820     		movs	r0, #24
  85 0004 FFF7FEFF 		bl	pvPortMalloc
  86              	.LVL8:
 150:..\FreeRTOS/event_groups.c **** 		{
  87              		.loc 1 150 0
  88 0008 0446     		mov	r4, r0
  89 000a 20B1     		cbz	r0, .L7
 152:..\FreeRTOS/event_groups.c **** 			vListInitialise( &( pxEventBits->xTasksWaitingForBits ) );
  90              		.loc 1 152 0
  91 000c 0023     		movs	r3, #0
  92 000e 40F8043B 		str	r3, [r0], #4
  93              	.LVL9:
 153:..\FreeRTOS/event_groups.c **** 
  94              		.loc 1 153 0
  95 0012 FFF7FEFF 		bl	vListInitialise
  96              	.LVL10:
  97              	.L7:
 172:..\FreeRTOS/event_groups.c **** 
  98              		.loc 1 172 0
  99 0016 2046     		mov	r0, r4
 100 0018 10BD     		pop	{r4, pc}
ARM GAS  C:\Users\Tri94\AppData\Local\Temp\ccjoABRh.s 			page 15


 101              		.cfi_endproc
 102              	.LFE69:
 103              		.size	xEventGroupCreate, .-xEventGroupCreate
 104 001a 00BF     		.section	.text.xEventGroupWaitBits,"ax",%progbits
 105              		.align	2
 106              		.global	xEventGroupWaitBits
 107              		.thumb
 108              		.thumb_func
 109              		.type	xEventGroupWaitBits, %function
 110              	xEventGroupWaitBits:
 111              	.LFB71:
 298:..\FreeRTOS/event_groups.c **** EventGroup_t *pxEventBits = ( EventGroup_t * ) xEventGroup;
 112              		.loc 1 298 0
 113              		.cfi_startproc
 114              		@ args = 4, pretend = 0, frame = 0
 115              		@ frame_needed = 0, uses_anonymous_args = 0
 116              	.LVL11:
 117 0000 2DE9F843 		push	{r3, r4, r5, r6, r7, r8, r9, lr}
 118              		.cfi_def_cfa_offset 32
 119              		.cfi_offset 3, -32
 120              		.cfi_offset 4, -28
 121              		.cfi_offset 5, -24
 122              		.cfi_offset 6, -20
 123              		.cfi_offset 7, -16
 124              		.cfi_offset 8, -12
 125              		.cfi_offset 9, -8
 126              		.cfi_offset 14, -4
 127 0004 0746     		mov	r7, r0
 128 0006 0E46     		mov	r6, r1
 129 0008 9146     		mov	r9, r2
 130 000a 9846     		mov	r8, r3
 131 000c 089D     		ldr	r5, [sp, #32]
 132              	.LVL12:
 315:..\FreeRTOS/event_groups.c **** 	{
 133              		.loc 1 315 0
 134 000e FFF7FEFF 		bl	vTaskSuspendAll
 135              	.LVL13:
 136              	.LBB6:
 317:..\FreeRTOS/event_groups.c **** 
 137              		.loc 1 317 0
 138 0012 3C68     		ldr	r4, [r7]
 139              	.LVL14:
 320:..\FreeRTOS/event_groups.c **** 
 140              		.loc 1 320 0
 141 0014 4246     		mov	r2, r8
 142 0016 3146     		mov	r1, r6
 143 0018 2046     		mov	r0, r4
 144 001a FFF7FEFF 		bl	prvTestWaitCondition
 145              	.LVL15:
 322:..\FreeRTOS/event_groups.c **** 		{
 146              		.loc 1 322 0
 147 001e 38B1     		cbz	r0, .L10
 148              	.LVL16:
 330:..\FreeRTOS/event_groups.c **** 			{
 149              		.loc 1 330 0
 150 0020 B9F1000F 		cmp	r9, #0
 151 0024 18D0     		beq	.L18
ARM GAS  C:\Users\Tri94\AppData\Local\Temp\ccjoABRh.s 			page 16


 332:..\FreeRTOS/event_groups.c **** 			}
 152              		.loc 1 332 0
 153 0026 24EA0603 		bic	r3, r4, r6
 154 002a 3B60     		str	r3, [r7]
 327:..\FreeRTOS/event_groups.c **** 
 155              		.loc 1 327 0
 156 002c 0025     		movs	r5, #0
 157 002e 14E0     		b	.L11
 158              	.LVL17:
 159              	.L10:
 339:..\FreeRTOS/event_groups.c **** 		{
 160              		.loc 1 339 0
 161 0030 9DB1     		cbz	r5, .L11
 352:..\FreeRTOS/event_groups.c **** 			{
 162              		.loc 1 352 0
 163 0032 B9F1000F 		cmp	r9, #0
 164 0036 01D1     		bne	.L19
 165              	.LBE6:
 300:..\FreeRTOS/event_groups.c **** BaseType_t xWaitConditionMet, xAlreadyYielded;
 166              		.loc 1 300 0
 167 0038 0021     		movs	r1, #0
 168 003a 01E0     		b	.L12
 169              	.L19:
 170              	.LBB7:
 354:..\FreeRTOS/event_groups.c **** 			}
 171              		.loc 1 354 0
 172 003c 4FF08071 		mov	r1, #16777216
 173              	.L12:
 174              	.LVL18:
 361:..\FreeRTOS/event_groups.c **** 			{
 175              		.loc 1 361 0
 176 0040 B8F1000F 		cmp	r8, #0
 177 0044 01D0     		beq	.L13
 363:..\FreeRTOS/event_groups.c **** 			}
 178              		.loc 1 363 0
 179 0046 41F08061 		orr	r1, r1, #67108864
 180              	.LVL19:
 181              	.L13:
 373:..\FreeRTOS/event_groups.c **** 
 182              		.loc 1 373 0
 183 004a 2A46     		mov	r2, r5
 184 004c 3143     		orrs	r1, r1, r6
 185              	.LVL20:
 186 004e 381D     		adds	r0, r7, #4
 187              	.LVL21:
 188 0050 FFF7FEFF 		bl	vTaskPlaceOnUnorderedEventList
 189              	.LVL22:
 378:..\FreeRTOS/event_groups.c **** 
 190              		.loc 1 378 0
 191 0054 0024     		movs	r4, #0
 192              	.LVL23:
 193 0056 00E0     		b	.L11
 194              	.LVL24:
 195              	.L18:
 327:..\FreeRTOS/event_groups.c **** 
 196              		.loc 1 327 0
 197 0058 0025     		movs	r5, #0
ARM GAS  C:\Users\Tri94\AppData\Local\Temp\ccjoABRh.s 			page 17


 198              	.LVL25:
 199              	.L11:
 200              	.LBE7:
 383:..\FreeRTOS/event_groups.c **** 
 201              		.loc 1 383 0
 202 005a FFF7FEFF 		bl	xTaskResumeAll
 203              	.LVL26:
 385:..\FreeRTOS/event_groups.c **** 	{
 204              		.loc 1 385 0
 205 005e 0DB3     		cbz	r5, .L14
 387:..\FreeRTOS/event_groups.c **** 		{
 206              		.loc 1 387 0
 207 0060 38B9     		cbnz	r0, .L15
 389:..\FreeRTOS/event_groups.c **** 		}
 208              		.loc 1 389 0
 209 0062 4FF08052 		mov	r2, #268435456
 210 0066 114B     		ldr	r3, .L21
 211 0068 1A60     		str	r2, [r3]
 212              		.syntax unified
 213              	@ 389 "..\FreeRTOS\event_groups.c" 1
 214 006a BFF34F8F 		dsb
 215              	@ 0 "" 2
 216              	@ 389 "..\FreeRTOS\event_groups.c" 1
 217 006e BFF36F8F 		isb
 218              	@ 0 "" 2
 219              		.thumb
 220              		.syntax unified
 221              	.L15:
 400:..\FreeRTOS/event_groups.c **** 
 222              		.loc 1 400 0
 223 0072 FFF7FEFF 		bl	uxTaskResetEventItemValue
 224              	.LVL27:
 225 0076 0446     		mov	r4, r0
 226              	.LVL28:
 402:..\FreeRTOS/event_groups.c **** 		{
 227              		.loc 1 402 0
 228 0078 10F0007F 		tst	r0, #33554432
 229 007c 10D1     		bne	.L16
 404:..\FreeRTOS/event_groups.c **** 			{
 230              		.loc 1 404 0
 231 007e FFF7FEFF 		bl	vPortEnterCritical
 232              	.LVL29:
 407:..\FreeRTOS/event_groups.c **** 
 233              		.loc 1 407 0
 234 0082 3C68     		ldr	r4, [r7]
 235              	.LVL30:
 411:..\FreeRTOS/event_groups.c **** 				{
 236              		.loc 1 411 0
 237 0084 4246     		mov	r2, r8
 238 0086 3146     		mov	r1, r6
 239 0088 2046     		mov	r0, r4
 240 008a FFF7FEFF 		bl	prvTestWaitCondition
 241              	.LVL31:
 242 008e 28B1     		cbz	r0, .L17
 413:..\FreeRTOS/event_groups.c **** 					{
 243              		.loc 1 413 0
 244 0090 B9F1000F 		cmp	r9, #0
ARM GAS  C:\Users\Tri94\AppData\Local\Temp\ccjoABRh.s 			page 18


 245 0094 02D0     		beq	.L17
 415:..\FreeRTOS/event_groups.c **** 					}
 246              		.loc 1 415 0
 247 0096 24EA0606 		bic	r6, r4, r6
 248              	.LVL32:
 249 009a 3E60     		str	r6, [r7]
 250              	.L17:
 251              	.LVL33:
 428:..\FreeRTOS/event_groups.c **** 		}
 252              		.loc 1 428 0
 253 009c FFF7FEFF 		bl	vPortExitCritical
 254              	.LVL34:
 255              	.L16:
 436:..\FreeRTOS/event_groups.c **** 	}
 256              		.loc 1 436 0
 257 00a0 24F07F44 		bic	r4, r4, #-16777216
 258              	.LVL35:
 259              	.L14:
 444:..\FreeRTOS/event_groups.c **** /*-----------------------------------------------------------*/
 260              		.loc 1 444 0
 261 00a4 2046     		mov	r0, r4
 262 00a6 BDE8F883 		pop	{r3, r4, r5, r6, r7, r8, r9, pc}
 263              	.LVL36:
 264              	.L22:
 265 00aa 00BF     		.align	2
 266              	.L21:
 267 00ac 04ED00E0 		.word	-536810236
 268              		.cfi_endproc
 269              	.LFE71:
 270              		.size	xEventGroupWaitBits, .-xEventGroupWaitBits
 271              		.section	.text.xEventGroupClearBits,"ax",%progbits
 272              		.align	2
 273              		.global	xEventGroupClearBits
 274              		.thumb
 275              		.thumb_func
 276              		.type	xEventGroupClearBits, %function
 277              	xEventGroupClearBits:
 278              	.LFB72:
 448:..\FreeRTOS/event_groups.c **** EventGroup_t *pxEventBits = ( EventGroup_t * ) xEventGroup;
 279              		.loc 1 448 0
 280              		.cfi_startproc
 281              		@ args = 0, pretend = 0, frame = 0
 282              		@ frame_needed = 0, uses_anonymous_args = 0
 283              	.LVL37:
 284 0000 70B5     		push	{r4, r5, r6, lr}
 285              		.cfi_def_cfa_offset 16
 286              		.cfi_offset 4, -16
 287              		.cfi_offset 5, -12
 288              		.cfi_offset 6, -8
 289              		.cfi_offset 14, -4
 290 0002 0646     		mov	r6, r0
 291 0004 0C46     		mov	r4, r1
 292              	.LVL38:
 457:..\FreeRTOS/event_groups.c **** 	{
 293              		.loc 1 457 0
 294 0006 FFF7FEFF 		bl	vPortEnterCritical
 295              	.LVL39:
ARM GAS  C:\Users\Tri94\AppData\Local\Temp\ccjoABRh.s 			page 19


 463:..\FreeRTOS/event_groups.c **** 
 296              		.loc 1 463 0
 297 000a 3568     		ldr	r5, [r6]
 298              	.LVL40:
 466:..\FreeRTOS/event_groups.c **** 	}
 299              		.loc 1 466 0
 300 000c 25EA0404 		bic	r4, r5, r4
 301              	.LVL41:
 302 0010 3460     		str	r4, [r6]
 468:..\FreeRTOS/event_groups.c **** 
 303              		.loc 1 468 0
 304 0012 FFF7FEFF 		bl	vPortExitCritical
 305              	.LVL42:
 471:..\FreeRTOS/event_groups.c **** /*-----------------------------------------------------------*/
 306              		.loc 1 471 0
 307 0016 2846     		mov	r0, r5
 308 0018 70BD     		pop	{r4, r5, r6, pc}
 309              		.cfi_endproc
 310              	.LFE72:
 311              		.size	xEventGroupClearBits, .-xEventGroupClearBits
 312 001a 00BF     		.section	.text.xEventGroupGetBitsFromISR,"ax",%progbits
 313              		.align	2
 314              		.global	xEventGroupGetBitsFromISR
 315              		.thumb
 316              		.thumb_func
 317              		.type	xEventGroupGetBitsFromISR, %function
 318              	xEventGroupGetBitsFromISR:
 319              	.LFB73:
 490:..\FreeRTOS/event_groups.c **** UBaseType_t uxSavedInterruptStatus;
 320              		.loc 1 490 0
 321              		.cfi_startproc
 322              		@ args = 0, pretend = 0, frame = 0
 323              		@ frame_needed = 0, uses_anonymous_args = 0
 324              		@ link register save eliminated.
 325              	.LVL43:
 326              	.LBB8:
 327              	.LBB9:
 328              		.file 2 "..\\FreeRTOS\\portable\\GCC\\ARM_CM3/portmacro.h"
   1:..\FreeRTOS\portable\GCC\ARM_CM3/portmacro.h **** /*
   2:..\FreeRTOS\portable\GCC\ARM_CM3/portmacro.h ****  * FreeRTOS Kernel V10.0.0
   3:..\FreeRTOS\portable\GCC\ARM_CM3/portmacro.h ****  * Copyright (C) 2017 Amazon.com, Inc. or its affiliates.  All Rights Reserved.
   4:..\FreeRTOS\portable\GCC\ARM_CM3/portmacro.h ****  *
   5:..\FreeRTOS\portable\GCC\ARM_CM3/portmacro.h ****  * Permission is hereby granted, free of charge, to any person obtaining a copy of
   6:..\FreeRTOS\portable\GCC\ARM_CM3/portmacro.h ****  * this software and associated documentation files (the "Software"), to deal in
   7:..\FreeRTOS\portable\GCC\ARM_CM3/portmacro.h ****  * the Software without restriction, including without limitation the rights to
   8:..\FreeRTOS\portable\GCC\ARM_CM3/portmacro.h ****  * use, copy, modify, merge, publish, distribute, sublicense, and/or sell copies of
   9:..\FreeRTOS\portable\GCC\ARM_CM3/portmacro.h ****  * the Software, and to permit persons to whom the Software is furnished to do so,
  10:..\FreeRTOS\portable\GCC\ARM_CM3/portmacro.h ****  * subject to the following conditions:
  11:..\FreeRTOS\portable\GCC\ARM_CM3/portmacro.h ****  *
  12:..\FreeRTOS\portable\GCC\ARM_CM3/portmacro.h ****  * The above copyright notice and this permission notice shall be included in all
  13:..\FreeRTOS\portable\GCC\ARM_CM3/portmacro.h ****  * copies or substantial portions of the Software. If you wish to use our Amazon
  14:..\FreeRTOS\portable\GCC\ARM_CM3/portmacro.h ****  * FreeRTOS name, please do so in a fair use way that does not cause confusion.
  15:..\FreeRTOS\portable\GCC\ARM_CM3/portmacro.h ****  *
  16:..\FreeRTOS\portable\GCC\ARM_CM3/portmacro.h ****  * THE SOFTWARE IS PROVIDED "AS IS", WITHOUT WARRANTY OF ANY KIND, EXPRESS OR
  17:..\FreeRTOS\portable\GCC\ARM_CM3/portmacro.h ****  * IMPLIED, INCLUDING BUT NOT LIMITED TO THE WARRANTIES OF MERCHANTABILITY, FITNESS
  18:..\FreeRTOS\portable\GCC\ARM_CM3/portmacro.h ****  * FOR A PARTICULAR PURPOSE AND NONINFRINGEMENT. IN NO EVENT SHALL THE AUTHORS OR
  19:..\FreeRTOS\portable\GCC\ARM_CM3/portmacro.h ****  * COPYRIGHT HOLDERS BE LIABLE FOR ANY CLAIM, DAMAGES OR OTHER LIABILITY, WHETHER
ARM GAS  C:\Users\Tri94\AppData\Local\Temp\ccjoABRh.s 			page 20


  20:..\FreeRTOS\portable\GCC\ARM_CM3/portmacro.h ****  * IN AN ACTION OF CONTRACT, TORT OR OTHERWISE, ARISING FROM, OUT OF OR IN
  21:..\FreeRTOS\portable\GCC\ARM_CM3/portmacro.h ****  * CONNECTION WITH THE SOFTWARE OR THE USE OR OTHER DEALINGS IN THE SOFTWARE.
  22:..\FreeRTOS\portable\GCC\ARM_CM3/portmacro.h ****  *
  23:..\FreeRTOS\portable\GCC\ARM_CM3/portmacro.h ****  * http://www.FreeRTOS.org
  24:..\FreeRTOS\portable\GCC\ARM_CM3/portmacro.h ****  * http://aws.amazon.com/freertos
  25:..\FreeRTOS\portable\GCC\ARM_CM3/portmacro.h ****  *
  26:..\FreeRTOS\portable\GCC\ARM_CM3/portmacro.h ****  * 1 tab == 4 spaces!
  27:..\FreeRTOS\portable\GCC\ARM_CM3/portmacro.h ****  */
  28:..\FreeRTOS\portable\GCC\ARM_CM3/portmacro.h **** #include <stdio.h>
  29:..\FreeRTOS\portable\GCC\ARM_CM3/portmacro.h **** #include <stdlib.h>
  30:..\FreeRTOS\portable\GCC\ARM_CM3/portmacro.h **** #include <stdint.h>
  31:..\FreeRTOS\portable\GCC\ARM_CM3/portmacro.h **** #include <stdbool.h>
  32:..\FreeRTOS\portable\GCC\ARM_CM3/portmacro.h **** #include "projdefs.h"
  33:..\FreeRTOS\portable\GCC\ARM_CM3/portmacro.h **** 
  34:..\FreeRTOS\portable\GCC\ARM_CM3/portmacro.h **** 
  35:..\FreeRTOS\portable\GCC\ARM_CM3/portmacro.h **** #ifndef PORTMACRO_H
  36:..\FreeRTOS\portable\GCC\ARM_CM3/portmacro.h **** #define PORTMACRO_H
  37:..\FreeRTOS\portable\GCC\ARM_CM3/portmacro.h **** 
  38:..\FreeRTOS\portable\GCC\ARM_CM3/portmacro.h **** #ifdef __cplusplus
  39:..\FreeRTOS\portable\GCC\ARM_CM3/portmacro.h **** extern "C" {
  40:..\FreeRTOS\portable\GCC\ARM_CM3/portmacro.h **** #endif
  41:..\FreeRTOS\portable\GCC\ARM_CM3/portmacro.h **** 
  42:..\FreeRTOS\portable\GCC\ARM_CM3/portmacro.h **** /*-----------------------------------------------------------
  43:..\FreeRTOS\portable\GCC\ARM_CM3/portmacro.h ****  * Port specific definitions.
  44:..\FreeRTOS\portable\GCC\ARM_CM3/portmacro.h ****  *
  45:..\FreeRTOS\portable\GCC\ARM_CM3/portmacro.h ****  * The settings in this file configure FreeRTOS correctly for the
  46:..\FreeRTOS\portable\GCC\ARM_CM3/portmacro.h ****  * given hardware and compiler.
  47:..\FreeRTOS\portable\GCC\ARM_CM3/portmacro.h ****  *
  48:..\FreeRTOS\portable\GCC\ARM_CM3/portmacro.h ****  * These settings should not be altered.
  49:..\FreeRTOS\portable\GCC\ARM_CM3/portmacro.h ****  *-----------------------------------------------------------
  50:..\FreeRTOS\portable\GCC\ARM_CM3/portmacro.h ****  */
  51:..\FreeRTOS\portable\GCC\ARM_CM3/portmacro.h **** 
  52:..\FreeRTOS\portable\GCC\ARM_CM3/portmacro.h **** 
  53:..\FreeRTOS\portable\GCC\ARM_CM3/portmacro.h **** // Added by Airs
  54:..\FreeRTOS\portable\GCC\ARM_CM3/portmacro.h **** #define portALIGNMENT_ASSERT_pxCurrentTCB ( void )
  55:..\FreeRTOS\portable\GCC\ARM_CM3/portmacro.h **** 
  56:..\FreeRTOS\portable\GCC\ARM_CM3/portmacro.h **** 
  57:..\FreeRTOS\portable\GCC\ARM_CM3/portmacro.h **** /* Type definitions. */
  58:..\FreeRTOS\portable\GCC\ARM_CM3/portmacro.h **** #define portCHAR		char
  59:..\FreeRTOS\portable\GCC\ARM_CM3/portmacro.h **** #define portFLOAT		float
  60:..\FreeRTOS\portable\GCC\ARM_CM3/portmacro.h **** #define portDOUBLE		double
  61:..\FreeRTOS\portable\GCC\ARM_CM3/portmacro.h **** #define portLONG		long
  62:..\FreeRTOS\portable\GCC\ARM_CM3/portmacro.h **** #define portSHORT		short
  63:..\FreeRTOS\portable\GCC\ARM_CM3/portmacro.h **** #define portSTACK_TYPE	uint32_t
  64:..\FreeRTOS\portable\GCC\ARM_CM3/portmacro.h **** #define portBASE_TYPE	long
  65:..\FreeRTOS\portable\GCC\ARM_CM3/portmacro.h **** 
  66:..\FreeRTOS\portable\GCC\ARM_CM3/portmacro.h **** typedef portSTACK_TYPE StackType_t;
  67:..\FreeRTOS\portable\GCC\ARM_CM3/portmacro.h **** typedef long BaseType_t;
  68:..\FreeRTOS\portable\GCC\ARM_CM3/portmacro.h **** typedef unsigned long UBaseType_t;
  69:..\FreeRTOS\portable\GCC\ARM_CM3/portmacro.h **** 
  70:..\FreeRTOS\portable\GCC\ARM_CM3/portmacro.h **** #if( configUSE_16_BIT_TICKS == 1 )
  71:..\FreeRTOS\portable\GCC\ARM_CM3/portmacro.h **** 	typedef uint16_t TickType_t;
  72:..\FreeRTOS\portable\GCC\ARM_CM3/portmacro.h **** 	#define portMAX_DELAY ( TickType_t ) 0xffff
  73:..\FreeRTOS\portable\GCC\ARM_CM3/portmacro.h **** #else
  74:..\FreeRTOS\portable\GCC\ARM_CM3/portmacro.h **** 	typedef uint32_t TickType_t;
  75:..\FreeRTOS\portable\GCC\ARM_CM3/portmacro.h **** 	#define portMAX_DELAY ( TickType_t ) 0xffffffffUL
  76:..\FreeRTOS\portable\GCC\ARM_CM3/portmacro.h **** 
ARM GAS  C:\Users\Tri94\AppData\Local\Temp\ccjoABRh.s 			page 21


  77:..\FreeRTOS\portable\GCC\ARM_CM3/portmacro.h **** 	/* 32-bit tick type on a 32-bit architecture, so reads of the tick count do
  78:..\FreeRTOS\portable\GCC\ARM_CM3/portmacro.h **** 	not need to be guarded with a critical section. */
  79:..\FreeRTOS\portable\GCC\ARM_CM3/portmacro.h **** 	#define portTICK_TYPE_IS_ATOMIC 1
  80:..\FreeRTOS\portable\GCC\ARM_CM3/portmacro.h **** #endif
  81:..\FreeRTOS\portable\GCC\ARM_CM3/portmacro.h **** /*-----------------------------------------------------------*/
  82:..\FreeRTOS\portable\GCC\ARM_CM3/portmacro.h **** 
  83:..\FreeRTOS\portable\GCC\ARM_CM3/portmacro.h **** /* Architecture specifics. */
  84:..\FreeRTOS\portable\GCC\ARM_CM3/portmacro.h **** #define portSTACK_GROWTH			( -1 )
  85:..\FreeRTOS\portable\GCC\ARM_CM3/portmacro.h **** #define portTICK_PERIOD_MS			( ( TickType_t ) 1000 / configTICK_RATE_HZ )
  86:..\FreeRTOS\portable\GCC\ARM_CM3/portmacro.h **** #define portBYTE_ALIGNMENT			8
  87:..\FreeRTOS\portable\GCC\ARM_CM3/portmacro.h **** /*-----------------------------------------------------------*/
  88:..\FreeRTOS\portable\GCC\ARM_CM3/portmacro.h **** 
  89:..\FreeRTOS\portable\GCC\ARM_CM3/portmacro.h **** /* Scheduler utilities. */
  90:..\FreeRTOS\portable\GCC\ARM_CM3/portmacro.h **** #define portYIELD() 															\
  91:..\FreeRTOS\portable\GCC\ARM_CM3/portmacro.h **** {																				\
  92:..\FreeRTOS\portable\GCC\ARM_CM3/portmacro.h **** 	/* Set a PendSV to request a context switch. */								\
  93:..\FreeRTOS\portable\GCC\ARM_CM3/portmacro.h **** 	portNVIC_INT_CTRL_REG = portNVIC_PENDSVSET_BIT;								\
  94:..\FreeRTOS\portable\GCC\ARM_CM3/portmacro.h **** 																				\
  95:..\FreeRTOS\portable\GCC\ARM_CM3/portmacro.h **** 	/* Barriers are normally not required but do ensure the code is completely	\
  96:..\FreeRTOS\portable\GCC\ARM_CM3/portmacro.h **** 	within the specified behaviour for the architecture. */						\
  97:..\FreeRTOS\portable\GCC\ARM_CM3/portmacro.h **** 	__asm volatile( "dsb" ::: "memory" );										\
  98:..\FreeRTOS\portable\GCC\ARM_CM3/portmacro.h **** 	__asm volatile( "isb" );													\
  99:..\FreeRTOS\portable\GCC\ARM_CM3/portmacro.h **** }
 100:..\FreeRTOS\portable\GCC\ARM_CM3/portmacro.h **** 
 101:..\FreeRTOS\portable\GCC\ARM_CM3/portmacro.h **** #define portNVIC_INT_CTRL_REG		( * ( ( volatile uint32_t * ) 0xe000ed04 ) )
 102:..\FreeRTOS\portable\GCC\ARM_CM3/portmacro.h **** #define portNVIC_PENDSVSET_BIT		( 1UL << 28UL )
 103:..\FreeRTOS\portable\GCC\ARM_CM3/portmacro.h **** #define portEND_SWITCHING_ISR( xSwitchRequired ) if( xSwitchRequired != pdFALSE ) portYIELD()
 104:..\FreeRTOS\portable\GCC\ARM_CM3/portmacro.h **** #define portYIELD_FROM_ISR( x ) portEND_SWITCHING_ISR( x )
 105:..\FreeRTOS\portable\GCC\ARM_CM3/portmacro.h **** /*-----------------------------------------------------------*/
 106:..\FreeRTOS\portable\GCC\ARM_CM3/portmacro.h **** 
 107:..\FreeRTOS\portable\GCC\ARM_CM3/portmacro.h **** /* Critical section management. */
 108:..\FreeRTOS\portable\GCC\ARM_CM3/portmacro.h **** extern void vPortEnterCritical( void );
 109:..\FreeRTOS\portable\GCC\ARM_CM3/portmacro.h **** extern void vPortExitCritical( void );
 110:..\FreeRTOS\portable\GCC\ARM_CM3/portmacro.h **** #define portSET_INTERRUPT_MASK_FROM_ISR()		ulPortRaiseBASEPRI()
 111:..\FreeRTOS\portable\GCC\ARM_CM3/portmacro.h **** #define portCLEAR_INTERRUPT_MASK_FROM_ISR(x)	vPortSetBASEPRI(x)
 112:..\FreeRTOS\portable\GCC\ARM_CM3/portmacro.h **** #define portDISABLE_INTERRUPTS()				vPortRaiseBASEPRI()
 113:..\FreeRTOS\portable\GCC\ARM_CM3/portmacro.h **** #define portENABLE_INTERRUPTS()					vPortSetBASEPRI(0)
 114:..\FreeRTOS\portable\GCC\ARM_CM3/portmacro.h **** #define portENTER_CRITICAL()					vPortEnterCritical()
 115:..\FreeRTOS\portable\GCC\ARM_CM3/portmacro.h **** #define portEXIT_CRITICAL()						vPortExitCritical()
 116:..\FreeRTOS\portable\GCC\ARM_CM3/portmacro.h **** 
 117:..\FreeRTOS\portable\GCC\ARM_CM3/portmacro.h **** /*-----------------------------------------------------------*/
 118:..\FreeRTOS\portable\GCC\ARM_CM3/portmacro.h **** 
 119:..\FreeRTOS\portable\GCC\ARM_CM3/portmacro.h **** /* Task function macros as described on the FreeRTOS.org WEB site.  These are
 120:..\FreeRTOS\portable\GCC\ARM_CM3/portmacro.h **** not necessary for to use this port.  They are defined so the common demo files
 121:..\FreeRTOS\portable\GCC\ARM_CM3/portmacro.h **** (which build with all the ports) will build. */
 122:..\FreeRTOS\portable\GCC\ARM_CM3/portmacro.h **** #define portTASK_FUNCTION_PROTO( vFunction, pvParameters ) void vFunction( void *pvParameters )
 123:..\FreeRTOS\portable\GCC\ARM_CM3/portmacro.h **** #define portTASK_FUNCTION( vFunction, pvParameters ) void vFunction( void *pvParameters )
 124:..\FreeRTOS\portable\GCC\ARM_CM3/portmacro.h **** /*-----------------------------------------------------------*/
 125:..\FreeRTOS\portable\GCC\ARM_CM3/portmacro.h **** 
 126:..\FreeRTOS\portable\GCC\ARM_CM3/portmacro.h **** /* Tickless idle/low power functionality. */
 127:..\FreeRTOS\portable\GCC\ARM_CM3/portmacro.h **** #ifndef portSUPPRESS_TICKS_AND_SLEEP
 128:..\FreeRTOS\portable\GCC\ARM_CM3/portmacro.h **** 	extern void vPortSuppressTicksAndSleep( TickType_t xExpectedIdleTime );
 129:..\FreeRTOS\portable\GCC\ARM_CM3/portmacro.h **** 	#define portSUPPRESS_TICKS_AND_SLEEP( xExpectedIdleTime ) vPortSuppressTicksAndSleep( xExpectedIdl
 130:..\FreeRTOS\portable\GCC\ARM_CM3/portmacro.h **** #endif
 131:..\FreeRTOS\portable\GCC\ARM_CM3/portmacro.h **** /*-----------------------------------------------------------*/
 132:..\FreeRTOS\portable\GCC\ARM_CM3/portmacro.h **** 
 133:..\FreeRTOS\portable\GCC\ARM_CM3/portmacro.h **** /* Architecture specific optimisations. */
ARM GAS  C:\Users\Tri94\AppData\Local\Temp\ccjoABRh.s 			page 22


 134:..\FreeRTOS\portable\GCC\ARM_CM3/portmacro.h **** #ifndef configUSE_PORT_OPTIMISED_TASK_SELECTION
 135:..\FreeRTOS\portable\GCC\ARM_CM3/portmacro.h **** 	#define configUSE_PORT_OPTIMISED_TASK_SELECTION 1
 136:..\FreeRTOS\portable\GCC\ARM_CM3/portmacro.h **** #endif
 137:..\FreeRTOS\portable\GCC\ARM_CM3/portmacro.h **** 
 138:..\FreeRTOS\portable\GCC\ARM_CM3/portmacro.h **** #if configUSE_PORT_OPTIMISED_TASK_SELECTION == 1
 139:..\FreeRTOS\portable\GCC\ARM_CM3/portmacro.h **** 
 140:..\FreeRTOS\portable\GCC\ARM_CM3/portmacro.h **** 	/* Generic helper function. */
 141:..\FreeRTOS\portable\GCC\ARM_CM3/portmacro.h **** 	__attribute__( ( always_inline ) ) static inline uint8_t ucPortCountLeadingZeros( uint32_t ulBitma
 142:..\FreeRTOS\portable\GCC\ARM_CM3/portmacro.h **** 	{
 143:..\FreeRTOS\portable\GCC\ARM_CM3/portmacro.h **** 	uint8_t ucReturn;
 144:..\FreeRTOS\portable\GCC\ARM_CM3/portmacro.h **** 
 145:..\FreeRTOS\portable\GCC\ARM_CM3/portmacro.h **** 		__asm volatile ( "clz %0, %1" : "=r" ( ucReturn ) : "r" ( ulBitmap ) : "memory" );
 146:..\FreeRTOS\portable\GCC\ARM_CM3/portmacro.h **** 		return ucReturn;
 147:..\FreeRTOS\portable\GCC\ARM_CM3/portmacro.h **** 	}
 148:..\FreeRTOS\portable\GCC\ARM_CM3/portmacro.h **** 
 149:..\FreeRTOS\portable\GCC\ARM_CM3/portmacro.h **** 	/* Check the configuration. */
 150:..\FreeRTOS\portable\GCC\ARM_CM3/portmacro.h **** 	#if( configMAX_PRIORITIES > 32 )
 151:..\FreeRTOS\portable\GCC\ARM_CM3/portmacro.h **** 		#error configUSE_PORT_OPTIMISED_TASK_SELECTION can only be set to 1 when configMAX_PRIORITIES is 
 152:..\FreeRTOS\portable\GCC\ARM_CM3/portmacro.h **** 	#endif
 153:..\FreeRTOS\portable\GCC\ARM_CM3/portmacro.h **** 
 154:..\FreeRTOS\portable\GCC\ARM_CM3/portmacro.h **** 	/* Store/clear the ready priorities in a bit map. */
 155:..\FreeRTOS\portable\GCC\ARM_CM3/portmacro.h **** 	#define portRECORD_READY_PRIORITY( uxPriority, uxReadyPriorities ) ( uxReadyPriorities ) |= ( 1UL 
 156:..\FreeRTOS\portable\GCC\ARM_CM3/portmacro.h **** 	#define portRESET_READY_PRIORITY( uxPriority, uxReadyPriorities ) ( uxReadyPriorities ) &= ~( 1UL 
 157:..\FreeRTOS\portable\GCC\ARM_CM3/portmacro.h **** 
 158:..\FreeRTOS\portable\GCC\ARM_CM3/portmacro.h **** 	/*-----------------------------------------------------------*/
 159:..\FreeRTOS\portable\GCC\ARM_CM3/portmacro.h **** 
 160:..\FreeRTOS\portable\GCC\ARM_CM3/portmacro.h **** 	#define portGET_HIGHEST_PRIORITY( uxTopPriority, uxReadyPriorities ) uxTopPriority = ( 31UL - ( ui
 161:..\FreeRTOS\portable\GCC\ARM_CM3/portmacro.h **** 
 162:..\FreeRTOS\portable\GCC\ARM_CM3/portmacro.h **** #endif /* configUSE_PORT_OPTIMISED_TASK_SELECTION */
 163:..\FreeRTOS\portable\GCC\ARM_CM3/portmacro.h **** 
 164:..\FreeRTOS\portable\GCC\ARM_CM3/portmacro.h **** /*-----------------------------------------------------------*/
 165:..\FreeRTOS\portable\GCC\ARM_CM3/portmacro.h **** 
 166:..\FreeRTOS\portable\GCC\ARM_CM3/portmacro.h **** #ifdef configASSERT
 167:..\FreeRTOS\portable\GCC\ARM_CM3/portmacro.h **** 	void vPortValidateInterruptPriority( void );
 168:..\FreeRTOS\portable\GCC\ARM_CM3/portmacro.h **** 	#define portASSERT_IF_INTERRUPT_PRIORITY_INVALID() 	vPortValidateInterruptPriority()
 169:..\FreeRTOS\portable\GCC\ARM_CM3/portmacro.h **** #endif
 170:..\FreeRTOS\portable\GCC\ARM_CM3/portmacro.h **** 
 171:..\FreeRTOS\portable\GCC\ARM_CM3/portmacro.h **** /* portNOP() is not required by this port. */
 172:..\FreeRTOS\portable\GCC\ARM_CM3/portmacro.h **** #define portNOP()
 173:..\FreeRTOS\portable\GCC\ARM_CM3/portmacro.h **** 
 174:..\FreeRTOS\portable\GCC\ARM_CM3/portmacro.h **** #define portINLINE	__inline
 175:..\FreeRTOS\portable\GCC\ARM_CM3/portmacro.h **** 
 176:..\FreeRTOS\portable\GCC\ARM_CM3/portmacro.h **** #ifndef portFORCE_INLINE
 177:..\FreeRTOS\portable\GCC\ARM_CM3/portmacro.h **** 	#define portFORCE_INLINE inline __attribute__(( always_inline))
 178:..\FreeRTOS\portable\GCC\ARM_CM3/portmacro.h **** #endif
 179:..\FreeRTOS\portable\GCC\ARM_CM3/portmacro.h **** 
 180:..\FreeRTOS\portable\GCC\ARM_CM3/portmacro.h **** portFORCE_INLINE static BaseType_t xPortIsInsideInterrupt( void )
 181:..\FreeRTOS\portable\GCC\ARM_CM3/portmacro.h **** {
 182:..\FreeRTOS\portable\GCC\ARM_CM3/portmacro.h **** uint32_t ulCurrentInterrupt;
 183:..\FreeRTOS\portable\GCC\ARM_CM3/portmacro.h **** BaseType_t xReturn;
 184:..\FreeRTOS\portable\GCC\ARM_CM3/portmacro.h **** 
 185:..\FreeRTOS\portable\GCC\ARM_CM3/portmacro.h **** 	/* Obtain the number of the currently executing interrupt. */
 186:..\FreeRTOS\portable\GCC\ARM_CM3/portmacro.h **** 	__asm volatile( "mrs %0, ipsr" : "=r"( ulCurrentInterrupt ) :: "memory" );
 187:..\FreeRTOS\portable\GCC\ARM_CM3/portmacro.h **** 
 188:..\FreeRTOS\portable\GCC\ARM_CM3/portmacro.h **** 	if( ulCurrentInterrupt == 0 )
 189:..\FreeRTOS\portable\GCC\ARM_CM3/portmacro.h **** 	{
 190:..\FreeRTOS\portable\GCC\ARM_CM3/portmacro.h **** 		xReturn = pdFALSE;
ARM GAS  C:\Users\Tri94\AppData\Local\Temp\ccjoABRh.s 			page 23


 191:..\FreeRTOS\portable\GCC\ARM_CM3/portmacro.h **** 	}
 192:..\FreeRTOS\portable\GCC\ARM_CM3/portmacro.h **** 	else
 193:..\FreeRTOS\portable\GCC\ARM_CM3/portmacro.h **** 	{
 194:..\FreeRTOS\portable\GCC\ARM_CM3/portmacro.h **** 		xReturn = pdTRUE;
 195:..\FreeRTOS\portable\GCC\ARM_CM3/portmacro.h **** 	}
 196:..\FreeRTOS\portable\GCC\ARM_CM3/portmacro.h **** 
 197:..\FreeRTOS\portable\GCC\ARM_CM3/portmacro.h **** 	return xReturn;
 198:..\FreeRTOS\portable\GCC\ARM_CM3/portmacro.h **** }
 199:..\FreeRTOS\portable\GCC\ARM_CM3/portmacro.h **** 
 200:..\FreeRTOS\portable\GCC\ARM_CM3/portmacro.h **** /*-----------------------------------------------------------*/
 201:..\FreeRTOS\portable\GCC\ARM_CM3/portmacro.h **** 
 202:..\FreeRTOS\portable\GCC\ARM_CM3/portmacro.h **** portFORCE_INLINE static void vPortRaiseBASEPRI( void )
 203:..\FreeRTOS\portable\GCC\ARM_CM3/portmacro.h **** {
 204:..\FreeRTOS\portable\GCC\ARM_CM3/portmacro.h **** uint32_t ulNewBASEPRI;
 205:..\FreeRTOS\portable\GCC\ARM_CM3/portmacro.h **** 
 206:..\FreeRTOS\portable\GCC\ARM_CM3/portmacro.h **** 	__asm volatile
 207:..\FreeRTOS\portable\GCC\ARM_CM3/portmacro.h **** 	(
 208:..\FreeRTOS\portable\GCC\ARM_CM3/portmacro.h **** 		"	mov %0, %1												\n" \
 209:..\FreeRTOS\portable\GCC\ARM_CM3/portmacro.h **** 		"	msr basepri, %0											\n" \
 210:..\FreeRTOS\portable\GCC\ARM_CM3/portmacro.h **** 		"	isb														\n" \
 211:..\FreeRTOS\portable\GCC\ARM_CM3/portmacro.h **** 		"	dsb														\n" \
 212:..\FreeRTOS\portable\GCC\ARM_CM3/portmacro.h **** 		:"=r" (ulNewBASEPRI) : "i" ( configMAX_SYSCALL_INTERRUPT_PRIORITY ) : "memory"
 213:..\FreeRTOS\portable\GCC\ARM_CM3/portmacro.h **** 	);
 214:..\FreeRTOS\portable\GCC\ARM_CM3/portmacro.h **** }
 215:..\FreeRTOS\portable\GCC\ARM_CM3/portmacro.h **** 
 216:..\FreeRTOS\portable\GCC\ARM_CM3/portmacro.h **** /*-----------------------------------------------------------*/
 217:..\FreeRTOS\portable\GCC\ARM_CM3/portmacro.h **** 
 218:..\FreeRTOS\portable\GCC\ARM_CM3/portmacro.h **** portFORCE_INLINE static uint32_t ulPortRaiseBASEPRI( void )
 219:..\FreeRTOS\portable\GCC\ARM_CM3/portmacro.h **** {
 220:..\FreeRTOS\portable\GCC\ARM_CM3/portmacro.h **** uint32_t ulOriginalBASEPRI, ulNewBASEPRI;
 221:..\FreeRTOS\portable\GCC\ARM_CM3/portmacro.h **** 
 222:..\FreeRTOS\portable\GCC\ARM_CM3/portmacro.h **** 	__asm volatile
 329              		.loc 2 222 0
 330              		.syntax unified
 331              	@ 222 "..\FreeRTOS\portable\GCC\ARM_CM3/portmacro.h" 1
 332 0000 EFF31183 			mrs r3, basepri											
 333 0004 4FF0A002 		mov r2, #160												
 334 0008 82F31188 		msr basepri, r2											
 335 000c BFF36F8F 		isb														
 336 0010 BFF34F8F 		dsb														
 337              	
 338              	@ 0 "" 2
 339              		.thumb
 340              		.syntax unified
 341              	.LBE9:
 342              	.LBE8:
 497:..\FreeRTOS/event_groups.c **** 	}
 343              		.loc 1 497 0
 344 0014 0068     		ldr	r0, [r0]
 345              	.LVL44:
 346              	.LBB10:
 347              	.LBB11:
 223:..\FreeRTOS\portable\GCC\ARM_CM3/portmacro.h **** 	(
 224:..\FreeRTOS\portable\GCC\ARM_CM3/portmacro.h **** 		"	mrs %0, basepri											\n" \
 225:..\FreeRTOS\portable\GCC\ARM_CM3/portmacro.h **** 		"	mov %1, %2												\n" \
 226:..\FreeRTOS\portable\GCC\ARM_CM3/portmacro.h **** 		"	msr basepri, %1											\n" \
 227:..\FreeRTOS\portable\GCC\ARM_CM3/portmacro.h **** 		"	isb														\n" \
ARM GAS  C:\Users\Tri94\AppData\Local\Temp\ccjoABRh.s 			page 24


 228:..\FreeRTOS\portable\GCC\ARM_CM3/portmacro.h **** 		"	dsb														\n" \
 229:..\FreeRTOS\portable\GCC\ARM_CM3/portmacro.h **** 		:"=r" (ulOriginalBASEPRI), "=r" (ulNewBASEPRI) : "i" ( configMAX_SYSCALL_INTERRUPT_PRIORITY ) : "
 230:..\FreeRTOS\portable\GCC\ARM_CM3/portmacro.h **** 	);
 231:..\FreeRTOS\portable\GCC\ARM_CM3/portmacro.h **** 
 232:..\FreeRTOS\portable\GCC\ARM_CM3/portmacro.h **** 	/* This return will not be reached but is necessary to prevent compiler
 233:..\FreeRTOS\portable\GCC\ARM_CM3/portmacro.h **** 	warnings. */
 234:..\FreeRTOS\portable\GCC\ARM_CM3/portmacro.h **** 	return ulOriginalBASEPRI;
 235:..\FreeRTOS\portable\GCC\ARM_CM3/portmacro.h **** }
 236:..\FreeRTOS\portable\GCC\ARM_CM3/portmacro.h **** /*-----------------------------------------------------------*/
 237:..\FreeRTOS\portable\GCC\ARM_CM3/portmacro.h **** 
 238:..\FreeRTOS\portable\GCC\ARM_CM3/portmacro.h **** portFORCE_INLINE static void vPortSetBASEPRI( uint32_t ulNewMaskValue )
 239:..\FreeRTOS\portable\GCC\ARM_CM3/portmacro.h **** {
 240:..\FreeRTOS\portable\GCC\ARM_CM3/portmacro.h **** 	__asm volatile
 348              		.loc 2 240 0
 349              		.syntax unified
 350              	@ 240 "..\FreeRTOS\portable\GCC\ARM_CM3/portmacro.h" 1
 351 0016 83F31188 			msr basepri, r3	
 352              	@ 0 "" 2
 353              		.thumb
 354              		.syntax unified
 355              	.LBE11:
 356              	.LBE10:
 502:..\FreeRTOS/event_groups.c **** /*-----------------------------------------------------------*/
 357              		.loc 1 502 0
 358 001a 7047     		bx	lr
 359              		.cfi_endproc
 360              	.LFE73:
 361              		.size	xEventGroupGetBitsFromISR, .-xEventGroupGetBitsFromISR
 362              		.section	.text.xEventGroupSetBits,"ax",%progbits
 363              		.align	2
 364              		.global	xEventGroupSetBits
 365              		.thumb
 366              		.thumb_func
 367              		.type	xEventGroupSetBits, %function
 368              	xEventGroupSetBits:
 369              	.LFB74:
 506:..\FreeRTOS/event_groups.c **** ListItem_t *pxListItem, *pxNext;
 370              		.loc 1 506 0
 371              		.cfi_startproc
 372              		@ args = 0, pretend = 0, frame = 0
 373              		@ frame_needed = 0, uses_anonymous_args = 0
 374              	.LVL45:
 375 0000 F8B5     		push	{r3, r4, r5, r6, r7, lr}
 376              		.cfi_def_cfa_offset 24
 377              		.cfi_offset 3, -24
 378              		.cfi_offset 4, -20
 379              		.cfi_offset 5, -16
 380              		.cfi_offset 6, -12
 381              		.cfi_offset 7, -8
 382              		.cfi_offset 14, -4
 383 0002 0446     		mov	r4, r0
 384 0004 0D46     		mov	r5, r1
 385              	.LVL46:
 520:..\FreeRTOS/event_groups.c **** 	vTaskSuspendAll();
 386              		.loc 1 520 0
 387 0006 00F10C06 		add	r6, r0, #12
 388              	.LVL47:
ARM GAS  C:\Users\Tri94\AppData\Local\Temp\ccjoABRh.s 			page 25


 521:..\FreeRTOS/event_groups.c **** 	{
 389              		.loc 1 521 0
 390 000a FFF7FEFF 		bl	vTaskSuspendAll
 391              	.LVL48:
 525:..\FreeRTOS/event_groups.c **** 
 392              		.loc 1 525 0
 393 000e 2069     		ldr	r0, [r4, #16]
 394              	.LVL49:
 528:..\FreeRTOS/event_groups.c **** 
 395              		.loc 1 528 0
 396 0010 2368     		ldr	r3, [r4]
 397 0012 1D43     		orrs	r5, r5, r3
 398              	.LVL50:
 399 0014 2560     		str	r5, [r4]
 510:..\FreeRTOS/event_groups.c **** EventGroup_t *pxEventBits = ( EventGroup_t * ) xEventGroup;
 400              		.loc 1 510 0
 401 0016 0027     		movs	r7, #0
 531:..\FreeRTOS/event_groups.c **** 		{
 402              		.loc 1 531 0
 403 0018 1FE0     		b	.L27
 404              	.LVL51:
 405              	.L32:
 533:..\FreeRTOS/event_groups.c **** 			uxBitsWaitedFor = listGET_LIST_ITEM_VALUE( pxListItem );
 406              		.loc 1 533 0
 407 001a 4568     		ldr	r5, [r0, #4]
 408              	.LVL52:
 534:..\FreeRTOS/event_groups.c **** 			xMatchFound = pdFALSE;
 409              		.loc 1 534 0
 410 001c 0368     		ldr	r3, [r0]
 411              	.LVL53:
 539:..\FreeRTOS/event_groups.c **** 
 412              		.loc 1 539 0
 413 001e 23F07F42 		bic	r2, r3, #-16777216
 414              	.LVL54:
 541:..\FreeRTOS/event_groups.c **** 			{
 415              		.loc 1 541 0
 416 0022 13F0806F 		tst	r3, #67108864
 417 0026 04D1     		bne	.L28
 544:..\FreeRTOS/event_groups.c **** 				{
 418              		.loc 1 544 0
 419 0028 2168     		ldr	r1, [r4]
 420 002a 0A42     		tst	r2, r1
 421 002c 07D1     		bne	.L33
 535:..\FreeRTOS/event_groups.c **** 
 422              		.loc 1 535 0
 423 002e 0021     		movs	r1, #0
 424 0030 08E0     		b	.L29
 425              	.L28:
 553:..\FreeRTOS/event_groups.c **** 			{
 426              		.loc 1 553 0
 427 0032 2168     		ldr	r1, [r4]
 428 0034 32EA0101 		bics	r1, r2, r1
 429 0038 03D0     		beq	.L34
 535:..\FreeRTOS/event_groups.c **** 
 430              		.loc 1 535 0
 431 003a 0021     		movs	r1, #0
 432 003c 02E0     		b	.L29
ARM GAS  C:\Users\Tri94\AppData\Local\Temp\ccjoABRh.s 			page 26


 433              	.L33:
 546:..\FreeRTOS/event_groups.c **** 				}
 434              		.loc 1 546 0
 435 003e 0121     		movs	r1, #1
 436 0040 00E0     		b	.L29
 437              	.L34:
 556:..\FreeRTOS/event_groups.c **** 			}
 438              		.loc 1 556 0
 439 0042 0121     		movs	r1, #1
 440              	.L29:
 441              	.LVL55:
 563:..\FreeRTOS/event_groups.c **** 			{
 442              		.loc 1 563 0
 443 0044 41B1     		cbz	r1, .L30
 566:..\FreeRTOS/event_groups.c **** 				{
 444              		.loc 1 566 0
 445 0046 13F0807F 		tst	r3, #16777216
 446 004a 00D0     		beq	.L31
 568:..\FreeRTOS/event_groups.c **** 				}
 447              		.loc 1 568 0
 448 004c 1743     		orrs	r7, r7, r2
 449              	.LVL56:
 450              	.L31:
 580:..\FreeRTOS/event_groups.c **** 			}
 451              		.loc 1 580 0
 452 004e 2168     		ldr	r1, [r4]
 453              	.LVL57:
 454 0050 41F00071 		orr	r1, r1, #33554432
 455 0054 FFF7FEFF 		bl	vTaskRemoveFromUnorderedEventList
 456              	.LVL58:
 457              	.L30:
 535:..\FreeRTOS/event_groups.c **** 
 458              		.loc 1 535 0
 459 0058 2846     		mov	r0, r5
 460              	.LVL59:
 461              	.L27:
 531:..\FreeRTOS/event_groups.c **** 		{
 462              		.loc 1 531 0
 463 005a B042     		cmp	r0, r6
 464 005c DDD1     		bne	.L32
 591:..\FreeRTOS/event_groups.c **** 	}
 465              		.loc 1 591 0
 466 005e 2368     		ldr	r3, [r4]
 467 0060 23EA0707 		bic	r7, r3, r7
 468              	.LVL60:
 469 0064 2760     		str	r7, [r4]
 593:..\FreeRTOS/event_groups.c **** 
 470              		.loc 1 593 0
 471 0066 FFF7FEFF 		bl	xTaskResumeAll
 472              	.LVL61:
 596:..\FreeRTOS/event_groups.c **** /*-----------------------------------------------------------*/
 473              		.loc 1 596 0
 474 006a 2068     		ldr	r0, [r4]
 475 006c F8BD     		pop	{r3, r4, r5, r6, r7, pc}
 476              		.cfi_endproc
 477              	.LFE74:
 478              		.size	xEventGroupSetBits, .-xEventGroupSetBits
ARM GAS  C:\Users\Tri94\AppData\Local\Temp\ccjoABRh.s 			page 27


 479 006e 00BF     		.section	.text.xEventGroupSync,"ax",%progbits
 480              		.align	2
 481              		.global	xEventGroupSync
 482              		.thumb
 483              		.thumb_func
 484              		.type	xEventGroupSync, %function
 485              	xEventGroupSync:
 486              	.LFB70:
 178:..\FreeRTOS/event_groups.c **** EventBits_t uxOriginalBitValue, uxReturn;
 487              		.loc 1 178 0
 488              		.cfi_startproc
 489              		@ args = 0, pretend = 0, frame = 0
 490              		@ frame_needed = 0, uses_anonymous_args = 0
 491              	.LVL62:
 492 0000 2DE9F041 		push	{r4, r5, r6, r7, r8, lr}
 493              		.cfi_def_cfa_offset 24
 494              		.cfi_offset 4, -24
 495              		.cfi_offset 5, -20
 496              		.cfi_offset 6, -16
 497              		.cfi_offset 7, -12
 498              		.cfi_offset 8, -8
 499              		.cfi_offset 14, -4
 500 0004 0546     		mov	r5, r0
 501 0006 0C46     		mov	r4, r1
 502 0008 1746     		mov	r7, r2
 503 000a 1E46     		mov	r6, r3
 504              	.LVL63:
 192:..\FreeRTOS/event_groups.c **** 	{
 505              		.loc 1 192 0
 506 000c FFF7FEFF 		bl	vTaskSuspendAll
 507              	.LVL64:
 194:..\FreeRTOS/event_groups.c **** 
 508              		.loc 1 194 0
 509 0010 D5F80080 		ldr	r8, [r5]
 510              	.LVL65:
 196:..\FreeRTOS/event_groups.c **** 
 511              		.loc 1 196 0
 512 0014 2146     		mov	r1, r4
 513 0016 2846     		mov	r0, r5
 514 0018 FFF7FEFF 		bl	xEventGroupSetBits
 515              	.LVL66:
 198:..\FreeRTOS/event_groups.c **** 		{
 516              		.loc 1 198 0
 517 001c 48EA0404 		orr	r4, r8, r4
 518              	.LVL67:
 519 0020 37EA0403 		bics	r3, r7, r4
 520 0024 05D1     		bne	.L37
 521              	.LVL68:
 205:..\FreeRTOS/event_groups.c **** 
 522              		.loc 1 205 0
 523 0026 2B68     		ldr	r3, [r5]
 524 0028 23EA0703 		bic	r3, r3, r7
 525 002c 2B60     		str	r3, [r5]
 526              	.LVL69:
 207:..\FreeRTOS/event_groups.c **** 		}
 527              		.loc 1 207 0
 528 002e 0026     		movs	r6, #0
ARM GAS  C:\Users\Tri94\AppData\Local\Temp\ccjoABRh.s 			page 28


 529 0030 09E0     		b	.L38
 530              	.LVL70:
 531              	.L37:
 211:..\FreeRTOS/event_groups.c **** 			{
 532              		.loc 1 211 0
 533 0032 3EB1     		cbz	r6, .L39
 218:..\FreeRTOS/event_groups.c **** 
 534              		.loc 1 218 0
 535 0034 3246     		mov	r2, r6
 536 0036 47F0A061 		orr	r1, r7, #83886080
 537 003a 281D     		adds	r0, r5, #4
 538 003c FFF7FEFF 		bl	vTaskPlaceOnUnorderedEventList
 539              	.LVL71:
 224:..\FreeRTOS/event_groups.c **** 			}
 540              		.loc 1 224 0
 541 0040 0024     		movs	r4, #0
 542 0042 00E0     		b	.L38
 543              	.LVL72:
 544              	.L39:
 230:..\FreeRTOS/event_groups.c **** 				xTimeoutOccurred = pdTRUE;
 545              		.loc 1 230 0
 546 0044 2C68     		ldr	r4, [r5]
 547              	.LVL73:
 548              	.L38:
 235:..\FreeRTOS/event_groups.c **** 
 549              		.loc 1 235 0
 550 0046 FFF7FEFF 		bl	xTaskResumeAll
 551              	.LVL74:
 237:..\FreeRTOS/event_groups.c **** 	{
 552              		.loc 1 237 0
 553 004a DEB1     		cbz	r6, .L40
 239:..\FreeRTOS/event_groups.c **** 		{
 554              		.loc 1 239 0
 555 004c 38B9     		cbnz	r0, .L41
 241:..\FreeRTOS/event_groups.c **** 		}
 556              		.loc 1 241 0
 557 004e 4FF08052 		mov	r2, #268435456
 558 0052 0E4B     		ldr	r3, .L45
 559 0054 1A60     		str	r2, [r3]
 560              		.syntax unified
 561              	@ 241 "..\FreeRTOS\event_groups.c" 1
 562 0056 BFF34F8F 		dsb
 563              	@ 0 "" 2
 564              	@ 241 "..\FreeRTOS\event_groups.c" 1
 565 005a BFF36F8F 		isb
 566              	@ 0 "" 2
 567              		.thumb
 568              		.syntax unified
 569              	.L41:
 252:..\FreeRTOS/event_groups.c **** 
 570              		.loc 1 252 0
 571 005e FFF7FEFF 		bl	uxTaskResetEventItemValue
 572              	.LVL75:
 573 0062 0446     		mov	r4, r0
 574              	.LVL76:
 254:..\FreeRTOS/event_groups.c **** 		{
 575              		.loc 1 254 0
ARM GAS  C:\Users\Tri94\AppData\Local\Temp\ccjoABRh.s 			page 29


 576 0064 10F0007F 		tst	r0, #33554432
 577 0068 0AD1     		bne	.L42
 257:..\FreeRTOS/event_groups.c **** 			{
 578              		.loc 1 257 0
 579 006a FFF7FEFF 		bl	vPortEnterCritical
 580              	.LVL77:
 259:..\FreeRTOS/event_groups.c **** 
 581              		.loc 1 259 0
 582 006e 2C68     		ldr	r4, [r5]
 583              	.LVL78:
 265:..\FreeRTOS/event_groups.c **** 				{
 584              		.loc 1 265 0
 585 0070 37EA0403 		bics	r3, r7, r4
 586 0074 02D1     		bne	.L43
 267:..\FreeRTOS/event_groups.c **** 				}
 587              		.loc 1 267 0
 588 0076 24EA0707 		bic	r7, r4, r7
 589              	.LVL79:
 590 007a 2F60     		str	r7, [r5]
 591              	.L43:
 274:..\FreeRTOS/event_groups.c **** 
 592              		.loc 1 274 0
 593 007c FFF7FEFF 		bl	vPortExitCritical
 594              	.LVL80:
 595              	.L42:
 285:..\FreeRTOS/event_groups.c **** 	}
 596              		.loc 1 285 0
 597 0080 24F07F44 		bic	r4, r4, #-16777216
 598              	.LVL81:
 599              	.L40:
 294:..\FreeRTOS/event_groups.c **** /*-----------------------------------------------------------*/
 600              		.loc 1 294 0
 601 0084 2046     		mov	r0, r4
 602 0086 BDE8F081 		pop	{r4, r5, r6, r7, r8, pc}
 603              	.LVL82:
 604              	.L46:
 605 008a 00BF     		.align	2
 606              	.L45:
 607 008c 04ED00E0 		.word	-536810236
 608              		.cfi_endproc
 609              	.LFE70:
 610              		.size	xEventGroupSync, .-xEventGroupSync
 611              		.section	.text.vEventGroupDelete,"ax",%progbits
 612              		.align	2
 613              		.global	vEventGroupDelete
 614              		.thumb
 615              		.thumb_func
 616              		.type	vEventGroupDelete, %function
 617              	vEventGroupDelete:
 618              	.LFB75:
 600:..\FreeRTOS/event_groups.c **** EventGroup_t *pxEventBits = ( EventGroup_t * ) xEventGroup;
 619              		.loc 1 600 0
 620              		.cfi_startproc
 621              		@ args = 0, pretend = 0, frame = 0
 622              		@ frame_needed = 0, uses_anonymous_args = 0
 623              	.LVL83:
 624 0000 10B5     		push	{r4, lr}
ARM GAS  C:\Users\Tri94\AppData\Local\Temp\ccjoABRh.s 			page 30


 625              		.cfi_def_cfa_offset 8
 626              		.cfi_offset 4, -8
 627              		.cfi_offset 14, -4
 628 0002 0446     		mov	r4, r0
 629              	.LVL84:
 604:..\FreeRTOS/event_groups.c **** 	{
 630              		.loc 1 604 0
 631 0004 FFF7FEFF 		bl	vTaskSuspendAll
 632              	.LVL85:
 608:..\FreeRTOS/event_groups.c **** 		{
 633              		.loc 1 608 0
 634 0008 04E0     		b	.L48
 635              	.L49:
 613:..\FreeRTOS/event_groups.c **** 		}
 636              		.loc 1 613 0
 637 000a 4FF00071 		mov	r1, #33554432
 638 000e 2069     		ldr	r0, [r4, #16]
 639 0010 FFF7FEFF 		bl	vTaskRemoveFromUnorderedEventList
 640              	.LVL86:
 641              	.L48:
 608:..\FreeRTOS/event_groups.c **** 		{
 642              		.loc 1 608 0
 643 0014 6368     		ldr	r3, [r4, #4]
 644 0016 002B     		cmp	r3, #0
 645 0018 F7D1     		bne	.L49
 620:..\FreeRTOS/event_groups.c **** 		}
 646              		.loc 1 620 0
 647 001a 2046     		mov	r0, r4
 648 001c FFF7FEFF 		bl	vPortFree
 649              	.LVL87:
 637:..\FreeRTOS/event_groups.c **** }
 650              		.loc 1 637 0
 651 0020 FFF7FEFF 		bl	xTaskResumeAll
 652              	.LVL88:
 653 0024 10BD     		pop	{r4, pc}
 654              		.cfi_endproc
 655              	.LFE75:
 656              		.size	vEventGroupDelete, .-vEventGroupDelete
 657 0026 00BF     		.section	.text.vEventGroupSetBitsCallback,"ax",%progbits
 658              		.align	2
 659              		.global	vEventGroupSetBitsCallback
 660              		.thumb
 661              		.thumb_func
 662              		.type	vEventGroupSetBitsCallback, %function
 663              	vEventGroupSetBitsCallback:
 664              	.LFB76:
 644:..\FreeRTOS/event_groups.c **** 	( void ) xEventGroupSetBits( pvEventGroup, ( EventBits_t ) ulBitsToSet );
 665              		.loc 1 644 0
 666              		.cfi_startproc
 667              		@ args = 0, pretend = 0, frame = 0
 668              		@ frame_needed = 0, uses_anonymous_args = 0
 669              	.LVL89:
 670 0000 08B5     		push	{r3, lr}
 671              		.cfi_def_cfa_offset 8
 672              		.cfi_offset 3, -8
 673              		.cfi_offset 14, -4
 645:..\FreeRTOS/event_groups.c **** }
ARM GAS  C:\Users\Tri94\AppData\Local\Temp\ccjoABRh.s 			page 31


 674              		.loc 1 645 0
 675 0002 FFF7FEFF 		bl	xEventGroupSetBits
 676              	.LVL90:
 677 0006 08BD     		pop	{r3, pc}
 678              		.cfi_endproc
 679              	.LFE76:
 680              		.size	vEventGroupSetBitsCallback, .-vEventGroupSetBitsCallback
 681              		.section	.text.vEventGroupClearBitsCallback,"ax",%progbits
 682              		.align	2
 683              		.global	vEventGroupClearBitsCallback
 684              		.thumb
 685              		.thumb_func
 686              		.type	vEventGroupClearBitsCallback, %function
 687              	vEventGroupClearBitsCallback:
 688              	.LFB77:
 652:..\FreeRTOS/event_groups.c **** 	( void ) xEventGroupClearBits( pvEventGroup, ( EventBits_t ) ulBitsToClear );
 689              		.loc 1 652 0
 690              		.cfi_startproc
 691              		@ args = 0, pretend = 0, frame = 0
 692              		@ frame_needed = 0, uses_anonymous_args = 0
 693              	.LVL91:
 694 0000 08B5     		push	{r3, lr}
 695              		.cfi_def_cfa_offset 8
 696              		.cfi_offset 3, -8
 697              		.cfi_offset 14, -4
 653:..\FreeRTOS/event_groups.c **** }
 698              		.loc 1 653 0
 699 0002 FFF7FEFF 		bl	xEventGroupClearBits
 700              	.LVL92:
 701 0006 08BD     		pop	{r3, pc}
 702              		.cfi_endproc
 703              	.LFE77:
 704              		.size	vEventGroupClearBitsCallback, .-vEventGroupClearBitsCallback
 705              		.text
 706              	.Letext0:
 707              		.file 3 "c:\\program files (x86)\\cypress\\psoc creator\\4.2\\psoc creator\\import\\gnu\\arm\\5.4.
 708              		.file 4 "c:\\program files (x86)\\cypress\\psoc creator\\4.2\\psoc creator\\import\\gnu\\arm\\5.4.
 709              		.file 5 "..\\FreeRTOS\\include/list.h"
 710              		.file 6 "..\\FreeRTOS\\include/event_groups.h"
 711              		.file 7 "..\\FreeRTOS\\include/portable.h"
 712              		.file 8 "..\\FreeRTOS\\include/task.h"
 713              		.file 9 "Generated_Source\\PSoC5/core_cm3.h"