ARM GAS  C:\Users\Tri94\AppData\Local\Temp\ccOAPL0N.s 			page 1


   1              		.syntax unified
   2              		.cpu cortex-m3
   3              		.fpu softvfp
   4              		.eabi_attribute 20, 1
   5              		.eabi_attribute 21, 1
   6              		.eabi_attribute 23, 3
   7              		.eabi_attribute 24, 1
   8              		.eabi_attribute 25, 1
   9              		.eabi_attribute 26, 1
  10              		.eabi_attribute 30, 1
  11              		.eabi_attribute 34, 1
  12              		.eabi_attribute 18, 4
  13              		.thumb
  14              		.syntax unified
  15              		.file	"main.c"
  16              		.text
  17              	.Ltext0:
  18              		.cfi_sections	.debug_frame
  19              		.section	.text.myISR_UART,"ax",%progbits
  20              		.align	2
  21              		.global	myISR_UART
  22              		.thumb
  23              		.thumb_func
  24              		.type	myISR_UART, %function
  25              	myISR_UART:
  26              	.LFB71:
  27              		.file 1 "main.c"
   1:main.c        **** /* ========================================
   2:main.c        ****  *
   3:main.c        ****  * Copyright YOUR COMPANY, THE YEAR
   4:main.c        ****  * All Rights Reserved
   5:main.c        ****  * UNPUBLISHED, LICENSED SOFTWARE.
   6:main.c        ****  *
   7:main.c        ****  * CONFIDENTIAL AND PROPRIETARY INFORMATION
   8:main.c        ****  * WHICH IS THE PROPERTY OF your company.
   9:main.c        ****  *
  10:main.c        ****  * ========================================
  11:main.c        **** */
  12:main.c        **** #include "project.h"
  13:main.c        **** #include <stdio.h>
  14:main.c        **** #include <stdlib.h>
  15:main.c        **** #include <stdint.h>
  16:main.c        **** #include <stdbool.h>
  17:main.c        **** 
  18:main.c        **** // ROTS Header Files
  19:main.c        **** #include "FreeRTOS_PSoC.h"
  20:main.c        **** #include "FreeRTOS.h"
  21:main.c        **** #include "task.h"
  22:main.c        **** #include "queue.h"
  23:main.c        **** #include "semphr.h"
  24:main.c        **** #include "timers.h"
  25:main.c        **** #include "event_groups.h"
  26:main.c        **** #include "message_buffer.h"
  27:main.c        **** 
  28:main.c        **** // Your task function
  29:main.c        **** void vUARTTask1(void *pvParaments);
  30:main.c        **** void vAppTask2(void *pvParaments);
ARM GAS  C:\Users\Tri94\AppData\Local\Temp\ccOAPL0N.s 			page 2


  31:main.c        **** 
  32:main.c        **** void myPSoC2Setup();
  33:main.c        **** 
  34:main.c        **** MessageBufferHandle_t xMessageBuffer = NULL;
  35:main.c        **** #define               MESSAGE_BUFFER_SIZE 100
  36:main.c        **** 
  37:main.c        **** CY_ISR_PROTO(myISR_UART);
  38:main.c        **** 
  39:main.c        **** int main(void)
  40:main.c        **** {
  41:main.c        ****     BaseType_t err;
  42:main.c        ****     
  43:main.c        ****     CyGlobalIntEnable; /* Enable global interrupts. */
  44:main.c        **** 
  45:main.c        ****     /* Place your initialization/startup code here (e.g. MyInst_Start()) */
  46:main.c        ****     FreeRTOS_Init();
  47:main.c        ****     myPSoC2Setup();
  48:main.c        ****     
  49:main.c        ****     // Create Mutex
  50:main.c        ****    xMessageBuffer = xMessageBufferCreate(MESSAGE_BUFFER_SIZE);
  51:main.c        **** 
  52:main.c        ****     if (xMessageBuffer == NULL){
  53:main.c        ****         while(1);   // Stop system here
  54:main.c        ****     }
  55:main.c        ****     
  56:main.c        ****     // Create Task
  57:main.c        ****     err = xTaskCreate(vUARTTask1,                    // Taskfunction_t pvTaskCode,
  58:main.c        ****                         "Task 1",                   // const char * const pcName,
  59:main.c        ****                         configMINIMAL_STACK_SIZE,   // unsigned short usStackDepth,
  60:main.c        ****                         NULL,                       // void *pvParameters,
  61:main.c        ****                         configMAX_PRIORITIES-1,     // UBaseType_t uxPriority,
  62:main.c        ****                         NULL);                      // TaskHandle_t *pxCreatedTask );
  63:main.c        ****     
  64:main.c        ****     if (err != pdPASS){
  65:main.c        ****         // Cannot create task!
  66:main.c        ****         while(1);
  67:main.c        ****     }
  68:main.c        **** 
  69:main.c        ****     
  70:main.c        ****     // Start the scheduler, so the tasks start executing
  71:main.c        ****     vTaskStartScheduler();
  72:main.c        ****     
  73:main.c        ****     for(;;)
  74:main.c        ****     {
  75:main.c        ****         /* Place your application code here. */
  76:main.c        ****     }
  77:main.c        **** }
  78:main.c        **** 
  79:main.c        **** void myPSoC2Setup(){
  80:main.c        ****     
  81:main.c        ****     
  82:main.c        ****     // Place your component's start code here
  83:main.c        ****     ISR_UART_StartEx(myISR_UART);
  84:main.c        ****     UART_Start();
  85:main.c        ****     LCD_Init();
  86:main.c        ****     LCD_Start();
  87:main.c        ****     LCD_ClearDisplay();
ARM GAS  C:\Users\Tri94\AppData\Local\Temp\ccOAPL0N.s 			page 3


  88:main.c        ****     LCD_PrintString("Hello");
  89:main.c        ****     
  90:main.c        **** }
  91:main.c        **** 
  92:main.c        **** typedef enum STATES_CMD{
  93:main.c        ****     S_IDLE,
  94:main.c        ****     S_GOT_DATE
  95:main.c        **** }STATES_CMD;
  96:main.c        **** 
  97:main.c        **** CY_ISR(myISR_UART){
  28              		.loc 1 97 0
  29              		.cfi_startproc
  30              		@ args = 0, pretend = 0, frame = 24
  31              		@ frame_needed = 0, uses_anonymous_args = 0
  32 0000 70B5     		push	{r4, r5, r6, lr}
  33              		.cfi_def_cfa_offset 16
  34              		.cfi_offset 4, -16
  35              		.cfi_offset 5, -12
  36              		.cfi_offset 6, -8
  37              		.cfi_offset 14, -4
  38 0002 86B0     		sub	sp, sp, #24
  39              		.cfi_def_cfa_offset 40
  40              	.LVL0:
  98:main.c        ****     static char         buf[20];
  99:main.c        ****     static int          idx = 0;
 100:main.c        ****     static STATES_CMD   state = S_IDLE;
 101:main.c        ****     char                ch;
 102:main.c        ****     char                str[20];
 103:main.c        ****     BaseType_t          xHigherPriorityTaskWoken = pdFALSE; /* Initialised to pdFALSE */
 104:main.c        ****     
 105:main.c        ****     
 106:main.c        ****     while (UART_GetRxBufferSize()  > 0){
  41              		.loc 1 106 0
  42 0004 2CE0     		b	.L2
  43              	.L8:
 107:main.c        ****         ch = UART_GetChar();
  44              		.loc 1 107 0
  45 0006 FFF7FEFF 		bl	UART_GetChar
  46              	.LVL1:
 108:main.c        ****         
 109:main.c        ****         switch (state){
  47              		.loc 1 109 0
  48 000a 194B     		ldr	r3, .L11
  49 000c 1B78     		ldrb	r3, [r3]	@ zero_extendqisi2
  50 000e 13B1     		cbz	r3, .L4
  51 0010 012B     		cmp	r3, #1
  52 0012 06D0     		beq	.L5
  53 0014 24E0     		b	.L2
  54              	.L4:
 110:main.c        ****             case S_IDLE:
 111:main.c        ****                 //UART_WriteTxData('1');
 112:main.c        ****                 if (ch == '+'){
  55              		.loc 1 112 0
  56 0016 2B28     		cmp	r0, #43
  57 0018 22D1     		bne	.L2
 113:main.c        ****                     state = S_GOT_DATE;
  58              		.loc 1 113 0
ARM GAS  C:\Users\Tri94\AppData\Local\Temp\ccOAPL0N.s 			page 4


  59 001a 0122     		movs	r2, #1
  60 001c 144B     		ldr	r3, .L11
  61 001e 1A70     		strb	r2, [r3]
  62 0020 1EE0     		b	.L2
  63              	.L5:
 114:main.c        ****                 }
 115:main.c        ****                 break;
 116:main.c        ****             case S_GOT_DATE:
 117:main.c        ****                 //UART_WriteTxData('2'); 
 118:main.c        ****                 if (ch == '\r'){
  64              		.loc 1 118 0
  65 0022 0D28     		cmp	r0, #13
  66 0024 00D1     		bne	.L6
 119:main.c        ****                     ch = '\0';
  67              		.loc 1 119 0
  68 0026 0020     		movs	r0, #0
  69              	.LVL2:
  70              	.L6:
 120:main.c        ****                     //UART_WriteTxData('3'); 
 121:main.c        ****                 
 122:main.c        ****                 }
 123:main.c        ****                 if (ch == '\n'){
  71              		.loc 1 123 0
  72 0028 0A28     		cmp	r0, #10
  73 002a 13D1     		bne	.L7
 124:main.c        ****                     //UART_WriteTxData('4'); 
 125:main.c        ****                     state = S_IDLE;
  74              		.loc 1 125 0
  75 002c 104C     		ldr	r4, .L11
  76 002e 0025     		movs	r5, #0
  77 0030 2570     		strb	r5, [r4]
 126:main.c        ****                     xMessageBufferSendFromISR(xMessageBuffer, buf, idx, xHigherPriorityTaskWoken);
  78              		.loc 1 126 0
  79 0032 04F10806 		add	r6, r4, #8
  80 0036 2B46     		mov	r3, r5
  81 0038 6268     		ldr	r2, [r4, #4]
  82 003a 3146     		mov	r1, r6
  83 003c E069     		ldr	r0, [r4, #28]
  84              	.LVL3:
  85 003e FFF7FEFF 		bl	xStreamBufferSendFromISR
  86              	.LVL4:
 127:main.c        ****                     idx = 0;
  87              		.loc 1 127 0
  88 0042 6560     		str	r5, [r4, #4]
 128:main.c        ****                     sprintf(str,"%s",buf);
  89              		.loc 1 128 0
  90 0044 3146     		mov	r1, r6
  91 0046 01A8     		add	r0, sp, #4
  92 0048 FFF7FEFF 		bl	strcpy
  93              	.LVL5:
 129:main.c        ****                     UART_PutString(str); 
  94              		.loc 1 129 0
  95 004c 01A8     		add	r0, sp, #4
  96 004e FFF7FEFF 		bl	UART_PutString
  97              	.LVL6:
 130:main.c        ****                     break;
  98              		.loc 1 130 0
ARM GAS  C:\Users\Tri94\AppData\Local\Temp\ccOAPL0N.s 			page 5


  99 0052 05E0     		b	.L2
 100              	.LVL7:
 101              	.L7:
 131:main.c        ****                 }
 132:main.c        ****                 buf[idx++] = ch;
 102              		.loc 1 132 0
 103 0054 064A     		ldr	r2, .L11
 104 0056 5368     		ldr	r3, [r2, #4]
 105 0058 591C     		adds	r1, r3, #1
 106 005a 5160     		str	r1, [r2, #4]
 107 005c 1344     		add	r3, r3, r2
 108 005e 1872     		strb	r0, [r3, #8]
 109              	.LVL8:
 110              	.L2:
 106:main.c        ****         ch = UART_GetChar();
 111              		.loc 1 106 0
 112 0060 FFF7FEFF 		bl	UART_GetRxBufferSize
 113              	.LVL9:
 114 0064 0028     		cmp	r0, #0
 115 0066 CED1     		bne	.L8
 133:main.c        ****                 break;
 134:main.c        ****         }
 135:main.c        ****     }
 136:main.c        ****     UART_ReadRxStatus(); // Clear IRQ signal
 116              		.loc 1 136 0
 117 0068 FFF7FEFF 		bl	UART_ReadRxStatus
 118              	.LVL10:
 137:main.c        ****     
 138:main.c        **** }
 119              		.loc 1 138 0
 120 006c 06B0     		add	sp, sp, #24
 121              		.cfi_def_cfa_offset 16
 122              		@ sp needed
 123 006e 70BD     		pop	{r4, r5, r6, pc}
 124              	.L12:
 125              		.align	2
 126              	.L11:
 127 0070 00000000 		.word	.LANCHOR0
 128              		.cfi_endproc
 129              	.LFE71:
 130              		.size	myISR_UART, .-myISR_UART
 131              		.section	.text.vUARTTask1,"ax",%progbits
 132              		.align	2
 133              		.global	vUARTTask1
 134              		.thumb
 135              		.thumb_func
 136              		.type	vUARTTask1, %function
 137              	vUARTTask1:
 138              	.LFB72:
 139:main.c        **** 
 140:main.c        **** void vUARTTask1(void *pvParaments){
 139              		.loc 1 140 0
 140              		.cfi_startproc
 141              		@ args = 0, pretend = 0, frame = 72
 142              		@ frame_needed = 0, uses_anonymous_args = 0
 143              	.LVL11:
 144 0000 10B5     		push	{r4, lr}
ARM GAS  C:\Users\Tri94\AppData\Local\Temp\ccOAPL0N.s 			page 6


 145              		.cfi_def_cfa_offset 8
 146              		.cfi_offset 4, -8
 147              		.cfi_offset 14, -4
 148 0002 92B0     		sub	sp, sp, #72
 149              		.cfi_def_cfa_offset 80
 150              	.LVL12:
 141:main.c        ****     
 142:main.c        ****     char    buf[20];
 143:main.c        ****     size_t  rxSize;
 144:main.c        ****     char    *delim = ":";
 145:main.c        ****     char    *pch;
 146:main.c        ****     uint32  distance;     
 147:main.c        ****     char    str[20];
 148:main.c        ****     
 149:main.c        ****     char    system_on[] = "SystemON:\r\n";
 151              		.loc 1 149 0
 152 0004 2A4A     		ldr	r2, .L18
 153 0006 05AB     		add	r3, sp, #20
 154 0008 07CA     		ldmia	r2, {r0, r1, r2}
 155              	.LVL13:
 156 000a 83E80700 		stmia	r3, {r0, r1, r2}
 150:main.c        ****     char    system_off[] = "SystemOFF:\r\n";
 157              		.loc 1 150 0
 158 000e 294B     		ldr	r3, .L18+4
 159 0010 01AC     		add	r4, sp, #4
 160 0012 0FCB     		ldmia	r3, {r0, r1, r2, r3}
 161 0014 07C4     		stmia	r4!, {r0, r1, r2}
 162 0016 2370     		strb	r3, [r4]
 163              	.L16:
 151:main.c        ****     
 152:main.c        ****     //UART_PutString("Task Started \r\n"); 
 153:main.c        ****     while(1){
 154:main.c        ****         if (xMessageBufferIsEmpty( xMessageBuffer ) == pdFALSE){
 164              		.loc 1 154 0
 165 0018 274B     		ldr	r3, .L18+8
 166 001a D869     		ldr	r0, [r3, #28]
 167 001c FFF7FEFF 		bl	xStreamBufferIsEmpty
 168              	.LVL14:
 169 0020 0028     		cmp	r0, #0
 170 0022 41D1     		bne	.L14
 155:main.c        ****             rxSize = xMessageBufferReceive(xMessageBuffer,buf,sizeof(buf),100);
 171              		.loc 1 155 0
 172 0024 6423     		movs	r3, #100
 173 0026 1422     		movs	r2, #20
 174 0028 0DA9     		add	r1, sp, #52
 175 002a 2348     		ldr	r0, .L18+8
 176 002c C069     		ldr	r0, [r0, #28]
 177 002e FFF7FEFF 		bl	xStreamBufferReceive
 178              	.LVL15:
 156:main.c        ****             pch = strtok(buf, delim);
 179              		.loc 1 156 0
 180 0032 2249     		ldr	r1, .L18+12
 181 0034 0DA8     		add	r0, sp, #52
 182 0036 FFF7FEFF 		bl	strtok
 183              	.LVL16:
 184 003a 0446     		mov	r4, r0
 185              	.LVL17:
ARM GAS  C:\Users\Tri94\AppData\Local\Temp\ccOAPL0N.s 			page 7


 157:main.c        ****             UART_PutString("Received ");
 186              		.loc 1 157 0
 187 003c 2048     		ldr	r0, .L18+16
 188              	.LVL18:
 189 003e FFF7FEFF 		bl	UART_PutString
 190              	.LVL19:
 158:main.c        ****             UART_PutString(pch);
 191              		.loc 1 158 0
 192 0042 2046     		mov	r0, r4
 193 0044 FFF7FEFF 		bl	UART_PutString
 194              	.LVL20:
 159:main.c        ****             UART_PutString("\n");
 195              		.loc 1 159 0
 196 0048 1E48     		ldr	r0, .L18+20
 197 004a FFF7FEFF 		bl	UART_PutString
 198              	.LVL21:
 160:main.c        ****             
 161:main.c        ****             distance = atoi(pch);
 199              		.loc 1 161 0
 200 004e 2046     		mov	r0, r4
 201 0050 FFF7FEFF 		bl	atoi
 202              	.LVL22:
 203 0054 0446     		mov	r4, r0
 204              	.LVL23:
 162:main.c        ****             sprintf(str,"Distance: %d   ",distance);
 205              		.loc 1 162 0
 206 0056 0246     		mov	r2, r0
 207 0058 1B49     		ldr	r1, .L18+24
 208 005a 08A8     		add	r0, sp, #32
 209              	.LVL24:
 210 005c FFF7FEFF 		bl	sprintf
 211              	.LVL25:
 163:main.c        ****             LCD_Position(1,0);
 212              		.loc 1 163 0
 213 0060 0021     		movs	r1, #0
 214 0062 0120     		movs	r0, #1
 215 0064 FFF7FEFF 		bl	LCD_Position
 216              	.LVL26:
 164:main.c        ****             LCD_PrintString(str);
 217              		.loc 1 164 0
 218 0068 08A8     		add	r0, sp, #32
 219 006a FFF7FEFF 		bl	LCD_PrintString
 220              	.LVL27:
 165:main.c        ****             
 166:main.c        ****             if (distance < 50){
 221              		.loc 1 166 0
 222 006e 312C     		cmp	r4, #49
 223 0070 0DD8     		bhi	.L15
 167:main.c        ****                 LED_Write(1);
 224              		.loc 1 167 0
 225 0072 0120     		movs	r0, #1
 226 0074 FFF7FEFF 		bl	LED_Write
 227              	.LVL28:
 168:main.c        ****                 UART_PutString(system_on);
 228              		.loc 1 168 0
 229 0078 05A8     		add	r0, sp, #20
 230 007a FFF7FEFF 		bl	UART_PutString
ARM GAS  C:\Users\Tri94\AppData\Local\Temp\ccOAPL0N.s 			page 8


 231              	.LVL29:
 169:main.c        ****                 LCD_Position(0,0);
 232              		.loc 1 169 0
 233 007e 0021     		movs	r1, #0
 234 0080 0846     		mov	r0, r1
 235 0082 FFF7FEFF 		bl	LCD_Position
 236              	.LVL30:
 170:main.c        ****                 LCD_PrintString("System ON ");
 237              		.loc 1 170 0
 238 0086 1148     		ldr	r0, .L18+28
 239 0088 FFF7FEFF 		bl	LCD_PrintString
 240              	.LVL31:
 241 008c 0CE0     		b	.L14
 242              	.L15:
 171:main.c        ****             
 172:main.c        ****             }
 173:main.c        ****             else {
 174:main.c        ****                 LED_Write(0);
 243              		.loc 1 174 0
 244 008e 0020     		movs	r0, #0
 245 0090 FFF7FEFF 		bl	LED_Write
 246              	.LVL32:
 175:main.c        ****                 UART_PutString(system_off);
 247              		.loc 1 175 0
 248 0094 01A8     		add	r0, sp, #4
 249 0096 FFF7FEFF 		bl	UART_PutString
 250              	.LVL33:
 176:main.c        ****                 LCD_Position(0,0);
 251              		.loc 1 176 0
 252 009a 0021     		movs	r1, #0
 253 009c 0846     		mov	r0, r1
 254 009e FFF7FEFF 		bl	LCD_Position
 255              	.LVL34:
 177:main.c        ****                 LCD_PrintString("System OFF");
 256              		.loc 1 177 0
 257 00a2 0B48     		ldr	r0, .L18+32
 258 00a4 FFF7FEFF 		bl	LCD_PrintString
 259              	.LVL35:
 260              	.L14:
 178:main.c        ****             }
 179:main.c        ****         }
 180:main.c        ****         vTaskDelay(pdMS_TO_TICKS(100)); // Delay for 50 ms
 261              		.loc 1 180 0
 262 00a8 6420     		movs	r0, #100
 263 00aa FFF7FEFF 		bl	vTaskDelay
 264              	.LVL36:
 181:main.c        ****     }
 265              		.loc 1 181 0
 266 00ae B3E7     		b	.L16
 267              	.L19:
 268              		.align	2
 269              	.L18:
 270 00b0 3C000000 		.word	.LC0
 271 00b4 48000000 		.word	.LC1
 272 00b8 00000000 		.word	.LANCHOR0
 273 00bc 00000000 		.word	.LC2
 274 00c0 04000000 		.word	.LC3
ARM GAS  C:\Users\Tri94\AppData\Local\Temp\ccOAPL0N.s 			page 9


 275 00c4 10000000 		.word	.LC4
 276 00c8 14000000 		.word	.LC5
 277 00cc 24000000 		.word	.LC6
 278 00d0 30000000 		.word	.LC7
 279              		.cfi_endproc
 280              	.LFE72:
 281              		.size	vUARTTask1, .-vUARTTask1
 282              		.section	.text.myPSoC2Setup,"ax",%progbits
 283              		.align	2
 284              		.global	myPSoC2Setup
 285              		.thumb
 286              		.thumb_func
 287              		.type	myPSoC2Setup, %function
 288              	myPSoC2Setup:
 289              	.LFB70:
  79:main.c        ****     
 290              		.loc 1 79 0
 291              		.cfi_startproc
 292              		@ args = 0, pretend = 0, frame = 0
 293              		@ frame_needed = 0, uses_anonymous_args = 0
 294 0000 08B5     		push	{r3, lr}
 295              		.cfi_def_cfa_offset 8
 296              		.cfi_offset 3, -8
 297              		.cfi_offset 14, -4
  83:main.c        ****     UART_Start();
 298              		.loc 1 83 0
 299 0002 0848     		ldr	r0, .L22
 300 0004 FFF7FEFF 		bl	ISR_UART_StartEx
 301              	.LVL37:
  84:main.c        ****     LCD_Init();
 302              		.loc 1 84 0
 303 0008 FFF7FEFF 		bl	UART_Start
 304              	.LVL38:
  85:main.c        ****     LCD_Start();
 305              		.loc 1 85 0
 306 000c FFF7FEFF 		bl	LCD_Init
 307              	.LVL39:
  86:main.c        ****     LCD_ClearDisplay();
 308              		.loc 1 86 0
 309 0010 FFF7FEFF 		bl	LCD_Start
 310              	.LVL40:
  87:main.c        ****     LCD_PrintString("Hello");
 311              		.loc 1 87 0
 312 0014 0120     		movs	r0, #1
 313 0016 FFF7FEFF 		bl	LCD_WriteControl
 314              	.LVL41:
  88:main.c        ****     
 315              		.loc 1 88 0
 316 001a 0348     		ldr	r0, .L22+4
 317 001c FFF7FEFF 		bl	LCD_PrintString
 318              	.LVL42:
 319 0020 08BD     		pop	{r3, pc}
 320              	.L23:
 321 0022 00BF     		.align	2
 322              	.L22:
 323 0024 00000000 		.word	myISR_UART
 324 0028 58000000 		.word	.LC8
ARM GAS  C:\Users\Tri94\AppData\Local\Temp\ccOAPL0N.s 			page 10


 325              		.cfi_endproc
 326              	.LFE70:
 327              		.size	myPSoC2Setup, .-myPSoC2Setup
 328              		.section	.text.main,"ax",%progbits
 329              		.align	2
 330              		.global	main
 331              		.thumb
 332              		.thumb_func
 333              		.type	main, %function
 334              	main:
 335              	.LFB69:
  40:main.c        ****     BaseType_t err;
 336              		.loc 1 40 0
 337              		.cfi_startproc
 338              		@ args = 0, pretend = 0, frame = 0
 339              		@ frame_needed = 0, uses_anonymous_args = 0
 340 0000 00B5     		push	{lr}
 341              		.cfi_def_cfa_offset 4
 342              		.cfi_offset 14, -4
 343 0002 83B0     		sub	sp, sp, #12
 344              		.cfi_def_cfa_offset 16
  43:main.c        **** 
 345              		.loc 1 43 0
 346              		.syntax unified
 347              	@ 43 "main.c" 1
 348 0004 62B6     		CPSIE   i
 349              	@ 0 "" 2
  46:main.c        ****     myPSoC2Setup();
 350              		.loc 1 46 0
 351              		.thumb
 352              		.syntax unified
 353 0006 FFF7FEFF 		bl	FreeRTOS_Init
 354              	.LVL43:
  47:main.c        ****     
 355              		.loc 1 47 0
 356 000a FFF7FEFF 		bl	myPSoC2Setup
 357              	.LVL44:
  50:main.c        **** 
 358              		.loc 1 50 0
 359 000e 0122     		movs	r2, #1
 360 0010 0021     		movs	r1, #0
 361 0012 6420     		movs	r0, #100
 362 0014 FFF7FEFF 		bl	xStreamBufferGenericCreate
 363              	.LVL45:
 364 0018 094B     		ldr	r3, .L31
 365 001a D861     		str	r0, [r3, #28]
  52:main.c        ****         while(1);   // Stop system here
 366              		.loc 1 52 0
 367 001c 00B9     		cbnz	r0, .L25
 368              	.L26:
 369 001e FEE7     		b	.L26
 370              	.L25:
  57:main.c        ****                         "Task 1",                   // const char * const pcName,
 371              		.loc 1 57 0
 372 0020 0023     		movs	r3, #0
 373 0022 0193     		str	r3, [sp, #4]
 374 0024 0422     		movs	r2, #4
ARM GAS  C:\Users\Tri94\AppData\Local\Temp\ccOAPL0N.s 			page 11


 375 0026 0092     		str	r2, [sp]
 376 0028 C822     		movs	r2, #200
 377 002a 0649     		ldr	r1, .L31+4
 378 002c 0648     		ldr	r0, .L31+8
 379 002e FFF7FEFF 		bl	xTaskCreate
 380              	.LVL46:
  64:main.c        ****         // Cannot create task!
 381              		.loc 1 64 0
 382 0032 0128     		cmp	r0, #1
 383 0034 00D0     		beq	.L27
 384              	.L28:
 385 0036 FEE7     		b	.L28
 386              	.L27:
  71:main.c        ****     
 387              		.loc 1 71 0
 388 0038 FFF7FEFF 		bl	vTaskStartScheduler
 389              	.LVL47:
 390              	.L29:
 391 003c FEE7     		b	.L29
 392              	.L32:
 393 003e 00BF     		.align	2
 394              	.L31:
 395 0040 00000000 		.word	.LANCHOR0
 396 0044 60000000 		.word	.LC9
 397 0048 00000000 		.word	vUARTTask1
 398              		.cfi_endproc
 399              	.LFE69:
 400              		.size	main, .-main
 401              		.global	xMessageBuffer
 402              		.section	.rodata.str1.4,"aMS",%progbits,1
 403              		.align	2
 404              	.LC2:
 405 0000 3A00     		.ascii	":\000"
 406 0002 0000     		.space	2
 407              	.LC3:
 408 0004 52656365 		.ascii	"Received \000"
 408      69766564 
 408      2000
 409 000e 0000     		.space	2
 410              	.LC4:
 411 0010 0A00     		.ascii	"\012\000"
 412 0012 0000     		.space	2
 413              	.LC5:
 414 0014 44697374 		.ascii	"Distance: %d   \000"
 414      616E6365 
 414      3A202564 
 414      20202000 
 415              	.LC6:
 416 0024 53797374 		.ascii	"System ON \000"
 416      656D204F 
 416      4E2000
 417 002f 00       		.space	1
 418              	.LC7:
 419 0030 53797374 		.ascii	"System OFF\000"
 419      656D204F 
 419      464600
 420 003b 00       		.space	1
ARM GAS  C:\Users\Tri94\AppData\Local\Temp\ccOAPL0N.s 			page 12


 421              	.LC0:
 422 003c 53797374 		.ascii	"SystemON:\015\012\000"
 422      656D4F4E 
 422      3A0D0A00 
 423              	.LC1:
 424 0048 53797374 		.ascii	"SystemOFF:\015\012\000"
 424      656D4F46 
 424      463A0D0A 
 424      00
 425 0055 000000   		.space	3
 426              	.LC8:
 427 0058 48656C6C 		.ascii	"Hello\000"
 427      6F00
 428 005e 0000     		.space	2
 429              	.LC9:
 430 0060 5461736B 		.ascii	"Task 1\000"
 430      203100
 431              		.bss
 432              		.align	2
 433              		.set	.LANCHOR0,. + 0
 434              		.type	state.7511, %object
 435              		.size	state.7511, 1
 436              	state.7511:
 437 0000 00       		.space	1
 438 0001 000000   		.space	3
 439              		.type	idx.7510, %object
 440              		.size	idx.7510, 4
 441              	idx.7510:
 442 0004 00000000 		.space	4
 443              		.type	buf.7509, %object
 444              		.size	buf.7509, 20
 445              	buf.7509:
 446 0008 00000000 		.space	20
 446      00000000 
 446      00000000 
 446      00000000 
 446      00000000 
 447              		.type	xMessageBuffer, %object
 448              		.size	xMessageBuffer, 4
 449              	xMessageBuffer:
 450 001c 00000000 		.space	4
 451              		.text
 452              	.Letext0:
 453              		.file 2 "c:\\program files (x86)\\cypress\\psoc creator\\4.2\\psoc creator\\import\\gnu\\arm\\5.4.
 454              		.file 3 "c:\\program files (x86)\\cypress\\psoc creator\\4.2\\psoc creator\\import\\gnu\\arm\\5.4.
 455              		.file 4 "Generated_Source\\PSoC5/cytypes.h"
 456              		.file 5 "c:\\program files (x86)\\cypress\\psoc creator\\4.2\\psoc creator\\import\\gnu\\arm\\5.4.
 457              		.file 6 "..\\FreeRTOS\\portable\\GCC\\ARM_CM3/portmacro.h"
 458              		.file 7 "..\\FreeRTOS\\include/stream_buffer.h"
 459              		.file 8 "..\\FreeRTOS\\include/message_buffer.h"
 460              		.file 9 "Generated_Source\\PSoC5/core_cm3.h"
 461              		.file 10 "Generated_Source\\PSoC5/UART.h"
 462              		.file 11 "c:\\program files (x86)\\cypress\\psoc creator\\4.2\\psoc creator\\import\\gnu\\arm\\5.4
 463              		.file 12 "c:\\program files (x86)\\cypress\\psoc creator\\4.2\\psoc creator\\import\\gnu\\arm\\5.4
 464              		.file 13 "c:\\program files (x86)\\cypress\\psoc creator\\4.2\\psoc creator\\import\\gnu\\arm\\5.4
 465              		.file 14 "Generated_Source\\PSoC5/LCD.h"
 466              		.file 15 "Generated_Source\\PSoC5/LED.h"
ARM GAS  C:\Users\Tri94\AppData\Local\Temp\ccOAPL0N.s 			page 13


 467              		.file 16 "..\\FreeRTOS\\include/task.h"
 468              		.file 17 "Generated_Source\\PSoC5/ISR_UART.h"
 469              		.file 18 "..\\FreeRTOS/FreeRTOS_PSoC.h"
 470              		.file 19 "<built-in>"