ARM GAS  C:\Users\Tri94\AppData\Local\Temp\ccfMskyR.s 			page 1


   1              		.syntax unified
   2              		.cpu cortex-m3
   3              		.fpu softvfp
   4              		.eabi_attribute 20, 1
   5              		.eabi_attribute 21, 1
   6              		.eabi_attribute 23, 3
   7              		.eabi_attribute 24, 1
   8              		.eabi_attribute 25, 1
   9              		.eabi_attribute 26, 1
  10              		.eabi_attribute 30, 1
  11              		.eabi_attribute 34, 1
  12              		.eabi_attribute 18, 4
  13              		.thumb
  14              		.syntax unified
  15              		.file	"main.c"
  16              		.text
  17              	.Ltext0:
  18              		.cfi_sections	.debug_frame
  19              		.section	.text.main,"ax",%progbits
  20              		.align	2
  21              		.global	main
  22              		.thumb
  23              		.thumb_func
  24              		.type	main, %function
  25              	main:
  26              	.LFB64:
  27              		.file 1 "main.c"
   1:main.c        **** /* ========================================
   2:main.c        ****  *
   3:main.c        ****  * Copyright YOUR COMPANY, THE YEAR
   4:main.c        ****  * All Rights Reserved
   5:main.c        ****  * UNPUBLISHED, LICENSED SOFTWARE.
   6:main.c        ****  *
   7:main.c        ****  * CONFIDENTIAL AND PROPRIETARY INFORMATION
   8:main.c        ****  * WHICH IS THE PROPERTY OF your company.
   9:main.c        ****  *
  10:main.c        ****  * ========================================
  11:main.c        **** */
  12:main.c        **** #include "project.h"
  13:main.c        **** #include <stdio.h>
  14:main.c        **** #include <stdlib.h>
  15:main.c        **** #include <stdint.h>
  16:main.c        **** #include <stdbool.h>
  17:main.c        ****  
  18:main.c        **** int main(void)
  19:main.c        **** {
  28              		.loc 1 19 0
  29              		.cfi_startproc
  30              		@ args = 0, pretend = 0, frame = 0
  31              		@ frame_needed = 0, uses_anonymous_args = 0
  32 0000 70B5     		push	{r4, r5, r6, lr}
  33              		.cfi_def_cfa_offset 16
  34              		.cfi_offset 4, -16
  35              		.cfi_offset 5, -12
  36              		.cfi_offset 6, -8
  37              		.cfi_offset 14, -4
  38              	.LVL0:
ARM GAS  C:\Users\Tri94\AppData\Local\Temp\ccfMskyR.s 			page 2


  20:main.c        ****     uint16_t    count = 0;
  21:main.c        ****     bool preState;
  22:main.c        ****     bool curState;
  23:main.c        ****     
  24:main.c        ****     //Initial value for preState
  25:main.c        ****     preState = 1;
  26:main.c        ****     
  27:main.c        ****     CyGlobalIntEnable; /* Enable global interrupts. */
  39              		.loc 1 27 0
  40              		.syntax unified
  41              	@ 27 "main.c" 1
  42 0002 62B6     		CPSIE   i
  43              	@ 0 "" 2
  28:main.c        ****  
  29:main.c        ****     /* Place your initialization/startup code here (e.g. MyInst_Start()) */
  30:main.c        ****     LED_Init();
  44              		.loc 1 30 0
  45              		.thumb
  46              		.syntax unified
  47 0004 FFF7FEFF 		bl	LED_Init
  48              	.LVL1:
  31:main.c        ****     LED_Enable();
  49              		.loc 1 31 0
  50 0008 FFF7FEFF 		bl	LED_Enable
  51              	.LVL2:
  32:main.c        ****     LED_Write7SegNumberDec(count, 0, 4, LED_RIGHT_ALIGN);
  52              		.loc 1 32 0
  53 000c 0023     		movs	r3, #0
  54 000e 0422     		movs	r2, #4
  55 0010 1946     		mov	r1, r3
  56 0012 1846     		mov	r0, r3
  57 0014 FFF7FEFF 		bl	LED_Write7SegNumberDec
  58              	.LVL3:
  25:main.c        ****     
  59              		.loc 1 25 0
  60 0018 0124     		movs	r4, #1
  20:main.c        ****     bool preState;
  61              		.loc 1 20 0
  62 001a 0026     		movs	r6, #0
  63 001c 00E0     		b	.L2
  64              	.LVL4:
  65              	.L3:
  66 001e 2C46     		mov	r4, r5
  67              	.LVL5:
  68              	.L2:
  33:main.c        ****  
  34:main.c        ****     for(;;)
  35:main.c        ****     {
  36:main.c        ****         /* Place your application code here. */
  37:main.c        ****         if (!nSW_Read()){
  69              		.loc 1 37 0
  70 0020 FFF7FEFF 		bl	nSW_Read
  71              	.LVL6:
  38:main.c        ****         }
  39:main.c        ****         //Read current switch state
  40:main.c        ****         curState = nSW_Read();
  72              		.loc 1 40 0
ARM GAS  C:\Users\Tri94\AppData\Local\Temp\ccfMskyR.s 			page 3


  73 0024 FFF7FEFF 		bl	nSW_Read
  74              	.LVL7:
  75 0028 0346     		mov	r3, r0
  76 002a 051C     		adds	r5, r0, #0
  77 002c 18BF     		it	ne
  78 002e 0125     		movne	r5, #1
  79              	.LVL8:
  41:main.c        ****         
  42:main.c        ****         //Detect when switch pushed
  43:main.c        ****         if ( (preState == 1) && (curState == 0)){
  80              		.loc 1 43 0
  81 0030 002C     		cmp	r4, #0
  82 0032 F4D0     		beq	.L3
  83              		.loc 1 43 0 is_stmt 0 discriminator 1
  84 0034 0028     		cmp	r0, #0
  85 0036 F2D1     		bne	.L3
  44:main.c        ****             count++;
  86              		.loc 1 44 0 is_stmt 1
  87 0038 0136     		adds	r6, r6, #1
  88              	.LVL9:
  89 003a B6B2     		uxth	r6, r6
  90              	.LVL10:
  45:main.c        ****             LED_Write7SegNumberDec(count, 0, 4, LED_RIGHT_ALIGN); // Display a number from com0 for
  91              		.loc 1 45 0
  92 003c 0422     		movs	r2, #4
  93 003e 0146     		mov	r1, r0
  94 0040 3046     		mov	r0, r6
  95 0042 FFF7FEFF 		bl	LED_Write7SegNumberDec
  96              	.LVL11:
  46:main.c        ****             CyDelay(100);
  97              		.loc 1 46 0
  98 0046 6420     		movs	r0, #100
  99 0048 FFF7FEFF 		bl	CyDelay
 100              	.LVL12:
 101 004c E7E7     		b	.L3
 102              		.cfi_endproc
 103              	.LFE64:
 104              		.size	main, .-main
 105 004e 00BF     		.text
 106              	.Letext0:
 107              		.file 2 "c:\\program files (x86)\\cypress\\psoc creator\\4.2\\psoc creator\\import\\gnu\\arm\\5.4.
 108              		.file 3 "c:\\program files (x86)\\cypress\\psoc creator\\4.2\\psoc creator\\import\\gnu\\arm\\5.4.
 109              		.file 4 "Generated_Source\\PSoC5/LED.h"
 110              		.file 5 "Generated_Source\\PSoC5/nSW.h"
 111              		.file 6 "Generated_Source\\PSoC5/CyLib.h"
 112              		.file 7 "Generated_Source\\PSoC5/core_cm3.h"